; Listing generated by Microsoft (R) Optimizing Compiler Version 18.00.21005.1 

	TITLE	F:\songmm_moon_stone_obs\OBS\Source\API.cpp
	.686P
	.XMM
	include listing.inc
	.model	flat

INCLUDELIB OLDNAMES

PUBLIC	??_C@_07DCLBNMLN@generic?$AA@			; `string'
PUBLIC	??_C@_0O@BFJCFAAK@unknown?5error?$AA@		; `string'
PUBLIC	??_C@_08LLGCOLLL@iostream?$AA@			; `string'
PUBLIC	??_C@_0BG@PADBLCHM@iostream?5stream?5error?$AA@	; `string'
PUBLIC	??_C@_06FHFOAHML@system?$AA@			; `string'
PUBLIC	??_C@_1BA@GCDNCJOK@?$AAG?$AAe?$AAn?$AAe?$AAr?$AAa?$AAl?$AA?$AA@ ; `string'
PUBLIC	??_C@_1CA@DHAOPEIL@?$AAS?$AAc?$AAe?$AAn?$AAe?$AAC?$AAo?$AAl?$AAl?$AAe?$AAc?$AAt?$AAi?$AAo?$AAn?$AA?$AA@ ; `string'
PUBLIC	??_C@_1O@DEJKECHI@?$AAs?$AAc?$AAe?$AAn?$AAe?$AAs?$AA?$AA@ ; `string'
PUBLIC	??_C@_1BO@MNEEFODP@?$AAg?$AAl?$AAo?$AAb?$AAa?$AAl?$AA?5?$AAs?$AAo?$AAu?$AAr?$AAc?$AAe?$AAs?$AA?$AA@ ; `string'
PUBLIC	??_C@_17KABJEDEH@?$AAF?$AAP?$AAS?$AA?$AA@	; `string'
PUBLIC	??_C@_1M@BFEDDODL@?$AAV?$AAi?$AAd?$AAe?$AAo?$AA?$AA@ ; `string'
PUBLIC	??_C@_1BI@DLGNLDGJ@?$AA?2?$AAp?$AAl?$AAu?$AAg?$AAi?$AAn?$AAD?$AAa?$AAt?$AAa?$AA?$AA@ ; `string'
PUBLIC	??_C@_1GK@DMMFIDMP@?$AAT?$AAr?$AAi?$AAe?$AAd?$AA?5?$AAt?$AAo?$AA?5?$AAg?$AAe?$AAt?$AA?5?$AAa?$AAn?$AA?5?$AAa?$AAu?$AAx?$AA?5?$AAa?$AAu?$AAd?$AAi?$AAo?$AA?5?$AAs?$AAo?$AAu?$AAr?$AAc?$AAe@ ; `string'
PUBLIC	??_C@_1FA@KCLJOBNL@?$AAO?$AAu?$AAt?$AA?5?$AAo?$AAf?$AA?5?$AAr?$AAa?$AAn?$AAg?$AAe?$AA?$CB?$AA?5?$AA?5?$AAL?$AAi?$AAs?$AAt?$AA?$DM?$AA?$CF?$AAS?$AA?$DO?$AA?3?$AA?3?$AAo?$AAp?$AAe?$AAr?$AAa?$AAt?$AAo@ ; `string'
PUBLIC	??_C@_0BA@JFNIOLAK@string?5too?5long?$AA@	; `string'
PUBLIC	??_C@_0BI@CFPLBAOH@invalid?5string?5position?$AA@ ; `string'
PUBLIC	??_R2APIInterface@@8				; APIInterface::`RTTI Base Class Array'
PUBLIC	??_R3error_category@std@@8			; std::error_category::`RTTI Class Hierarchy Descriptor'
PUBLIC	??_R2OBSAPIInterface@@8				; OBSAPIInterface::`RTTI Base Class Array'
PUBLIC	??_R0PAVSceneItem@@@8				; SceneItem * `RTTI Type Descriptor'
PUBLIC	??_R1A@?0A@EA@error_category@std@@8		; std::error_category::`RTTI Base Class Descriptor at (0,-1,0,64)'
PUBLIC	??_7OBSAPIInterface@@6B@			; OBSAPIInterface::`vftable'
PUBLIC	??_R3_System_error_category@std@@8		; std::_System_error_category::`RTTI Class Hierarchy Descriptor'
PUBLIC	??_R2_System_error_category@std@@8		; std::_System_error_category::`RTTI Base Class Array'
PUBLIC	??_7_Generic_error_category@std@@6B@		; std::_Generic_error_category::`vftable'
PUBLIC	??_R0?AVOBSAPIInterface@@@8			; OBSAPIInterface `RTTI Type Descriptor'
PUBLIC	??_R4_Generic_error_category@std@@6B@		; std::_Generic_error_category::`RTTI Complete Object Locator'
PUBLIC	??_R0?AV_Iostream_error_category@std@@@8	; std::_Iostream_error_category `RTTI Type Descriptor'
PUBLIC	??_R1A@?0A@EA@_Generic_error_category@std@@8	; std::_Generic_error_category::`RTTI Base Class Descriptor at (0,-1,0,64)'
PUBLIC	??_R4OBSAPIInterface@@6B@			; OBSAPIInterface::`RTTI Complete Object Locator'
PUBLIC	??_R1A@?0A@EA@_Iostream_error_category@std@@8	; std::_Iostream_error_category::`RTTI Base Class Descriptor at (0,-1,0,64)'
PUBLIC	??_R4error_category@std@@6B@			; std::error_category::`RTTI Complete Object Locator'
PUBLIC	??_R4_Iostream_error_category@std@@6B@		; std::_Iostream_error_category::`RTTI Complete Object Locator'
PUBLIC	??_R0?AUClassInfo@@@8				; ClassInfo `RTTI Type Descriptor'
PUBLIC	??_R0?AVAPIInterface@@@8			; APIInterface `RTTI Type Descriptor'
PUBLIC	??_R1A@?0A@EA@OBSAPIInterface@@8		; OBSAPIInterface::`RTTI Base Class Descriptor at (0,-1,0,64)'
PUBLIC	??_R0?AV_System_error_category@std@@@8		; std::_System_error_category `RTTI Type Descriptor'
PUBLIC	??_7APIInterface@@6B@				; APIInterface::`vftable'
PUBLIC	??_R2error_category@std@@8			; std::error_category::`RTTI Base Class Array'
PUBLIC	??_R1A@?0A@EA@_System_error_category@std@@8	; std::_System_error_category::`RTTI Base Class Descriptor at (0,-1,0,64)'
PUBLIC	??_R3_Iostream_error_category@std@@8		; std::_Iostream_error_category::`RTTI Class Hierarchy Descriptor'
PUBLIC	??_7_System_error_category@std@@6B@		; std::_System_error_category::`vftable'
PUBLIC	??_R0?AVerror_category@std@@@8			; std::error_category `RTTI Type Descriptor'
PUBLIC	??_7_Iostream_error_category@std@@6B@		; std::_Iostream_error_category::`vftable'
PUBLIC	_WinbaseIsolationAwarePrivateT_SpYRNahcpNYYRQ
PUBLIC	??_7error_category@std@@6B@			; std::error_category::`vftable'
PUBLIC	??_R4_System_error_category@std@@6B@		; std::_System_error_category::`RTTI Complete Object Locator'
PUBLIC	??_R0?AV_Generic_error_category@std@@@8		; std::_Generic_error_category `RTTI Type Descriptor'
PUBLIC	_WinbaseIsolationAwarePrivateT_SpeRNgRQnPgpgk
PUBLIC	_WinbaseIsolationAwarePrivateT_UnPgpgk
PUBLIC	??_R0PAVAudioSource@@@8				; AudioSource * `RTTI Type Descriptor'
PUBLIC	??_R0?AUGlobalSourceInfo@@@8			; GlobalSourceInfo `RTTI Type Descriptor'
PUBLIC	??_R2_Generic_error_category@std@@8		; std::_Generic_error_category::`RTTI Base Class Array'
PUBLIC	_IsolationAwarePrivateT_SqbjaYRiRY
PUBLIC	??_R0?AUHotkeyInfo@@@8				; HotkeyInfo `RTTI Type Descriptor'
PUBLIC	??_R4APIInterface@@6B@				; APIInterface::`RTTI Complete Object Locator'
PUBLIC	??_R3OBSAPIInterface@@8				; OBSAPIInterface::`RTTI Class Hierarchy Descriptor'
PUBLIC	??_R3APIInterface@@8				; APIInterface::`RTTI Class Hierarchy Descriptor'
PUBLIC	??_R0?AUStreamInfo@@@8				; StreamInfo `RTTI Type Descriptor'
PUBLIC	??_R1A@?0A@EA@APIInterface@@8			; APIInterface::`RTTI Base Class Descriptor at (0,-1,0,64)'
PUBLIC	??_R3_Generic_error_category@std@@8		; std::_Generic_error_category::`RTTI Class Hierarchy Descriptor'
PUBLIC	??_R2_Iostream_error_category@std@@8		; std::_Iostream_error_category::`RTTI Base Class Array'
EXTRN	__imp_??8String@@QBEHABV0@@Z:PROC
EXTRN	__imp_?Array@String@@QBEPA_WXZ:PROC
EXTRN	__imp_??BString@@QBEPA_WXZ:PROC
EXTRN	__imp_?CopyList@StringList@@QAEXABV1@@Z:PROC
EXTRN	__imp_??0Vect2@@QAE@ABU0@@Z:PROC
EXTRN	__imp_??0Vect2@@QAE@MM@Z:PROC
EXTRN	__imp_?GetName@XBaseItem@@QBEPB_WXZ:PROC
EXTRN	__imp_?GetElement@XConfig@@QAEPAVXElement@@PB_W@Z:PROC
EXTRN	__imp_?GetElement@SceneItem@@QBEPAVXElement@@XZ:PROC
EXTRN	__imp_?HasMissingSources@Scene@@QBE_NXZ:PROC
EXTRN	__imp_??0StringList@@QAE@XZ:PROC
EXTRN	__imp_?API@@3PAVAPIInterface@@A:DWORD
EXTRN	??_7type_info@@6B@:QWORD			; type_info::`vftable'
EXTRN	__imp_??0String@@QAE@ABV0@@Z:PROC
EXTRN	__imp_??0String@@QAE@PB_W@Z:PROC
EXTRN	__imp_??0String@@QAE@PBD@Z:PROC
EXTRN	__imp_??0String@@QAE@XZ:PROC
EXTRN	__imp_??1String@@QAE@XZ:PROC
EXTRN	__imp_??4String@@QAEAAV0@ABV0@@Z:PROC
EXTRN	__imp_??4String@@QAEAAV0@PB_W@Z:PROC
EXTRN	__imp_??6String@@QAEAAV0@ABV0@@Z:PROC
EXTRN	__imp_??6String@@QAEAAV0@PB_W@Z:PROC
EXTRN	__imp_?CompareI@String@@QBEHPB_W@Z:PROC
EXTRN	__imp_?Clear@String@@QAEAAV1@XZ:PROC
EXTRN	__imp_?SetLength@String@@QAEAAV1@I@Z:PROC
EXTRN	__imp_?OSGetTime@@YGKXZ:PROC
EXTRN	__hypot:PROC
EXTRN	__imp__PostMessageW@16:PROC
EXTRN	__imp_?GetVolumeControlValue@@YAMPAUHWND__@@@Z:PROC
EXTRN	__imp_?OBSMessageBox@@YAHPAUHWND__@@PB_W1I@Z:PROC
EXTRN	__imp_?Open@XConfig@@QAE_NPB_W@Z:PROC
EXTRN	__imp_?Close@XConfig@@QAEX_N@Z:PROC
EXTRN	__imp_?Save@XConfig@@QAEXXZ:PROC
EXTRN	__imp_?SaveTo@XConfig@@QAEXPB_W@Z:PROC
EXTRN	__imp_?sdup@@YGPA_WPB_W@Z:PROC
EXTRN	__imp_?Log@@YAXPB_WZZ:PROC
EXTRN	__imp_?OSSleep@@YGXK@Z:PROC
EXTRN	__purecall:PROC
EXTRN	__imp_?GetString@XElement@@QBEPB_WPB_WPA_W@Z:PROC
EXTRN	__imp_?GetInt@XElement@@QBEHPB_WH@Z:PROC
EXTRN	__imp_?GetElement@XElement@@QBEPAV1@PB_W@Z:PROC
EXTRN	__imp_?GetElementByID@XElement@@QBEPAV1@K@Z:PROC
EXTRN	__imp_?NumElements@XElement@@QAEKPB_W@Z:PROC
EXTRN	__imp_?locale@@3PAVLocaleStringLookup@@A:DWORD
EXTRN	__imp_?OSLeaveMutex@@YGXPAX@Z:PROC
EXTRN	__imp__GetAsyncKeyState@4:PROC
EXTRN	_atexit:PROC
EXTRN	__imp_?LookupString@LocaleStringLookup@@QAEPB_WPB_W@Z:PROC
EXTRN	__imp_?DumpError@@YAXPB_WZZ:PROC
EXTRN	__imp__GetDlgItem@8:PROC
EXTRN	__imp__RedrawWindow@16:PROC
EXTRN	__imp_?MainAllocator@@3PAVAlloc@@A:DWORD
EXTRN	__imp_?AppWarning@@YAXPB_WZZ:PROC
EXTRN	__imp__XInputGetState@8:PROC
EXTRN	__imp_?GetStringPtr@ConfigFile@@QAEPB_WPB_W00@Z:PROC
EXTRN	__imp_?GetInt@ConfigFile@@QAEHPB_W0H@Z:PROC
EXTRN	__imp_?SetString@ConfigFile@@QAEXPB_W00@Z:PROC
EXTRN	__imp_?FormattedString@@YA?AVString@@PB_WZZ:PROC
EXTRN	__imp__SendMessageW@16:PROC
EXTRN	_memmove:PROC
EXTRN	__imp_?OSEnterMutex@@YGXPAX@Z:PROC
EXTRN	?name@type_info@@QBEPBDPAU__type_info_node@@@Z:PROC ; type_info::name
EXTRN	?_Xlength_error@std@@YAXPBD@Z:PROC		; std::_Xlength_error
EXTRN	?_Xout_of_range@std@@YAXPBD@Z:PROC		; std::_Xout_of_range
EXTRN	?_Xbad_alloc@std@@YAXXZ:PROC			; std::_Xbad_alloc
EXTRN	?_Syserror_map@std@@YAPBDH@Z:PROC		; std::_Syserror_map
EXTRN	?_Winerror_map@std@@YAPBDH@Z:PROC		; std::_Winerror_map
EXTRN	?__type_info_root_node@@3U__type_info_node@@A:QWORD ; __type_info_root_node
EXTRN	@__security_check_cookie@4:PROC
;	COMDAT _WinbaseIsolationAwarePrivateT_SpYRNahcpNYYRQ
_BSS	SEGMENT
_WinbaseIsolationAwarePrivateT_SpYRNahcpNYYRQ DD 01H DUP (?)
_BSS	ENDS
;	COMDAT _WinbaseIsolationAwarePrivateT_SpeRNgRQnPgpgk
_BSS	SEGMENT
_WinbaseIsolationAwarePrivateT_SpeRNgRQnPgpgk DD 01H DUP (?)
_BSS	ENDS
;	COMDAT _IsolationAwarePrivateT_SqbjaYRiRY
_BSS	SEGMENT
_IsolationAwarePrivateT_SqbjaYRiRY DD 01H DUP (?)
_BSS	ENDS
;	COMDAT ?set_vars@?1??HandleHotkeys@OBSAPIInterface@@AAEXXZ@4_NA
_BSS	SEGMENT
?set_vars@?1??HandleHotkeys@OBSAPIInterface@@AAEXXZ@4_NA DB 01H DUP (?) ; `OBSAPIInterface::HandleHotkeys'::`2'::set_vars
_BSS	ENDS
;	COMDAT ??_R2_Iostream_error_category@std@@8
rdata$r	SEGMENT
??_R2_Iostream_error_category@std@@8 DD FLAT:??_R1A@?0A@EA@_Iostream_error_category@std@@8 ; std::_Iostream_error_category::`RTTI Base Class Array'
	DD	FLAT:??_R1A@?0A@EA@_Generic_error_category@std@@8
	DD	FLAT:??_R1A@?0A@EA@error_category@std@@8
rdata$r	ENDS
;	COMDAT ??_R3_Generic_error_category@std@@8
rdata$r	SEGMENT
??_R3_Generic_error_category@std@@8 DD 00H		; std::_Generic_error_category::`RTTI Class Hierarchy Descriptor'
	DD	00H
	DD	02H
	DD	FLAT:??_R2_Generic_error_category@std@@8
rdata$r	ENDS
;	COMDAT ??_R1A@?0A@EA@APIInterface@@8
rdata$r	SEGMENT
??_R1A@?0A@EA@APIInterface@@8 DD FLAT:??_R0?AVAPIInterface@@@8 ; APIInterface::`RTTI Base Class Descriptor at (0,-1,0,64)'
	DD	00H
	DD	00H
	DD	0ffffffffH
	DD	00H
	DD	040H
	DD	FLAT:??_R3APIInterface@@8
rdata$r	ENDS
;	COMDAT ??_R0?AUStreamInfo@@@8
data$r	SEGMENT
??_R0?AUStreamInfo@@@8 DD FLAT:??_7type_info@@6B@	; StreamInfo `RTTI Type Descriptor'
	DD	00H
	DB	'.?AUStreamInfo@@', 00H
data$r	ENDS
;	COMDAT ??_R3APIInterface@@8
rdata$r	SEGMENT
??_R3APIInterface@@8 DD 00H				; APIInterface::`RTTI Class Hierarchy Descriptor'
	DD	00H
	DD	01H
	DD	FLAT:??_R2APIInterface@@8
rdata$r	ENDS
;	COMDAT ??_R3OBSAPIInterface@@8
rdata$r	SEGMENT
??_R3OBSAPIInterface@@8 DD 00H				; OBSAPIInterface::`RTTI Class Hierarchy Descriptor'
	DD	00H
	DD	02H
	DD	FLAT:??_R2OBSAPIInterface@@8
rdata$r	ENDS
;	COMDAT ??_R4APIInterface@@6B@
rdata$r	SEGMENT
??_R4APIInterface@@6B@ DD 00H				; APIInterface::`RTTI Complete Object Locator'
	DD	00H
	DD	00H
	DD	FLAT:??_R0?AVAPIInterface@@@8
	DD	FLAT:??_R3APIInterface@@8
rdata$r	ENDS
;	COMDAT ??_R0?AUHotkeyInfo@@@8
data$r	SEGMENT
??_R0?AUHotkeyInfo@@@8 DD FLAT:??_7type_info@@6B@	; HotkeyInfo `RTTI Type Descriptor'
	DD	00H
	DB	'.?AUHotkeyInfo@@', 00H
data$r	ENDS
;	COMDAT ??_R2_Generic_error_category@std@@8
rdata$r	SEGMENT
??_R2_Generic_error_category@std@@8 DD FLAT:??_R1A@?0A@EA@_Generic_error_category@std@@8 ; std::_Generic_error_category::`RTTI Base Class Array'
	DD	FLAT:??_R1A@?0A@EA@error_category@std@@8
rdata$r	ENDS
;	COMDAT ??_R0?AUGlobalSourceInfo@@@8
data$r	SEGMENT
??_R0?AUGlobalSourceInfo@@@8 DD FLAT:??_7type_info@@6B@	; GlobalSourceInfo `RTTI Type Descriptor'
	DD	00H
	DB	'.?AUGlobalSourceInfo@@', 00H
data$r	ENDS
;	COMDAT ??_R0PAVAudioSource@@@8
data$r	SEGMENT
??_R0PAVAudioSource@@@8 DD FLAT:??_7type_info@@6B@	; AudioSource * `RTTI Type Descriptor'
	DD	00H
	DB	'.PAVAudioSource@@', 00H
data$r	ENDS
;	COMDAT _WinbaseIsolationAwarePrivateT_UnPgpgk
_DATA	SEGMENT
_WinbaseIsolationAwarePrivateT_UnPgpgk DD 0ffffffffH
_DATA	ENDS
;	COMDAT ??_R0?AV_Generic_error_category@std@@@8
data$r	SEGMENT
??_R0?AV_Generic_error_category@std@@@8 DD FLAT:??_7type_info@@6B@ ; std::_Generic_error_category `RTTI Type Descriptor'
	DD	00H
	DB	'.?AV_Generic_error_category@std@@', 00H
data$r	ENDS
;	COMDAT ??_R4_System_error_category@std@@6B@
rdata$r	SEGMENT
??_R4_System_error_category@std@@6B@ DD 00H		; std::_System_error_category::`RTTI Complete Object Locator'
	DD	00H
	DD	00H
	DD	FLAT:??_R0?AV_System_error_category@std@@@8
	DD	FLAT:??_R3_System_error_category@std@@8
rdata$r	ENDS
;	COMDAT ??_7error_category@std@@6B@
CONST	SEGMENT
??_7error_category@std@@6B@ DD FLAT:??_R4error_category@std@@6B@ ; std::error_category::`vftable'
	DD	FLAT:??_Eerror_category@std@@UAEPAXI@Z
	DD	FLAT:__purecall
	DD	FLAT:__purecall
	DD	FLAT:?default_error_condition@error_category@std@@UBE?AVerror_condition@2@H@Z
	DD	FLAT:?equivalent@error_category@std@@UBE_NABVerror_code@2@H@Z
	DD	FLAT:?equivalent@error_category@std@@UBE_NHABVerror_condition@2@@Z
CONST	ENDS
;	COMDAT ??_7_Iostream_error_category@std@@6B@
CONST	SEGMENT
??_7_Iostream_error_category@std@@6B@ DD FLAT:??_R4_Iostream_error_category@std@@6B@ ; std::_Iostream_error_category::`vftable'
	DD	FLAT:??_E_Iostream_error_category@std@@UAEPAXI@Z
	DD	FLAT:?name@_Iostream_error_category@std@@UBEPBDXZ
	DD	FLAT:?message@_Iostream_error_category@std@@UBE?AV?$basic_string@DU?$char_traits@D@std@@V?$allocator@D@2@@2@H@Z
	DD	FLAT:?default_error_condition@error_category@std@@UBE?AVerror_condition@2@H@Z
	DD	FLAT:?equivalent@error_category@std@@UBE_NABVerror_code@2@H@Z
	DD	FLAT:?equivalent@error_category@std@@UBE_NHABVerror_condition@2@@Z
CONST	ENDS
;	COMDAT ??_R0?AVerror_category@std@@@8
data$r	SEGMENT
??_R0?AVerror_category@std@@@8 DD FLAT:??_7type_info@@6B@ ; std::error_category `RTTI Type Descriptor'
	DD	00H
	DB	'.?AVerror_category@std@@', 00H
data$r	ENDS
;	COMDAT ??_7_System_error_category@std@@6B@
CONST	SEGMENT
??_7_System_error_category@std@@6B@ DD FLAT:??_R4_System_error_category@std@@6B@ ; std::_System_error_category::`vftable'
	DD	FLAT:??_E_System_error_category@std@@UAEPAXI@Z
	DD	FLAT:?name@_System_error_category@std@@UBEPBDXZ
	DD	FLAT:?message@_System_error_category@std@@UBE?AV?$basic_string@DU?$char_traits@D@std@@V?$allocator@D@2@@2@H@Z
	DD	FLAT:?default_error_condition@_System_error_category@std@@UBE?AVerror_condition@2@H@Z
	DD	FLAT:?equivalent@error_category@std@@UBE_NABVerror_code@2@H@Z
	DD	FLAT:?equivalent@error_category@std@@UBE_NHABVerror_condition@2@@Z
CONST	ENDS
;	COMDAT ??_R3_Iostream_error_category@std@@8
rdata$r	SEGMENT
??_R3_Iostream_error_category@std@@8 DD 00H		; std::_Iostream_error_category::`RTTI Class Hierarchy Descriptor'
	DD	00H
	DD	03H
	DD	FLAT:??_R2_Iostream_error_category@std@@8
rdata$r	ENDS
;	COMDAT ??_R1A@?0A@EA@_System_error_category@std@@8
rdata$r	SEGMENT
??_R1A@?0A@EA@_System_error_category@std@@8 DD FLAT:??_R0?AV_System_error_category@std@@@8 ; std::_System_error_category::`RTTI Base Class Descriptor at (0,-1,0,64)'
	DD	02H
	DD	00H
	DD	0ffffffffH
	DD	00H
	DD	040H
	DD	FLAT:??_R3_System_error_category@std@@8
rdata$r	ENDS
;	COMDAT ??_R2error_category@std@@8
rdata$r	SEGMENT
??_R2error_category@std@@8 DD FLAT:??_R1A@?0A@EA@error_category@std@@8 ; std::error_category::`RTTI Base Class Array'
rdata$r	ENDS
;	COMDAT ??_7APIInterface@@6B@
CONST	SEGMENT
??_7APIInterface@@6B@ DD FLAT:??_R4APIInterface@@6B@	; APIInterface::`vftable'
	DD	FLAT:?Invalid03@APIInterface@@UBEXXZ
	DD	FLAT:??_EAPIInterface@@UAEPAXI@Z
	DD	FLAT:__purecall
	DD	FLAT:__purecall
	DD	FLAT:__purecall
	DD	FLAT:__purecall
	DD	FLAT:__purecall
	DD	FLAT:__purecall
	DD	FLAT:__purecall
	DD	FLAT:__purecall
	DD	FLAT:__purecall
	DD	FLAT:__purecall
	DD	FLAT:__purecall
	DD	FLAT:__purecall
	DD	FLAT:__purecall
	DD	FLAT:__purecall
	DD	FLAT:__purecall
	DD	FLAT:__purecall
	DD	FLAT:__purecall
	DD	FLAT:__purecall
	DD	FLAT:__purecall
	DD	FLAT:__purecall
	DD	FLAT:__purecall
	DD	FLAT:__purecall
	DD	FLAT:__purecall
	DD	FLAT:__purecall
	DD	FLAT:__purecall
	DD	FLAT:__purecall
	DD	FLAT:__purecall
	DD	FLAT:__purecall
	DD	FLAT:__purecall
	DD	FLAT:__purecall
	DD	FLAT:__purecall
	DD	FLAT:__purecall
	DD	FLAT:__purecall
	DD	FLAT:__purecall
	DD	FLAT:__purecall
	DD	FLAT:__purecall
	DD	FLAT:__purecall
	DD	FLAT:__purecall
	DD	FLAT:__purecall
	DD	FLAT:?Invalid01@APIInterface@@UAEXXZ
	DD	FLAT:?Invalid02@APIInterface@@UAEXXZ
	DD	FLAT:__purecall
	DD	FLAT:__purecall
	DD	FLAT:__purecall
	DD	FLAT:__purecall
	DD	FLAT:__purecall
	DD	FLAT:__purecall
	DD	FLAT:__purecall
	DD	FLAT:__purecall
	DD	FLAT:__purecall
	DD	FLAT:__purecall
	DD	FLAT:__purecall
	DD	FLAT:__purecall
	DD	FLAT:__purecall
	DD	FLAT:__purecall
	DD	FLAT:__purecall
	DD	FLAT:__purecall
	DD	FLAT:__purecall
	DD	FLAT:__purecall
	DD	FLAT:__purecall
	DD	FLAT:__purecall
	DD	FLAT:__purecall
	DD	FLAT:__purecall
	DD	FLAT:__purecall
	DD	FLAT:__purecall
	DD	FLAT:__purecall
	DD	FLAT:__purecall
	DD	FLAT:__purecall
	DD	FLAT:__purecall
	DD	FLAT:__purecall
	DD	FLAT:__purecall
	DD	FLAT:__purecall
	DD	FLAT:__purecall
	DD	FLAT:__purecall
	DD	FLAT:__purecall
	DD	FLAT:__purecall
	DD	FLAT:__purecall
	DD	FLAT:__purecall
	DD	FLAT:__purecall
	DD	FLAT:__purecall
	DD	FLAT:__purecall
	DD	FLAT:__purecall
	DD	FLAT:__purecall
	DD	FLAT:__purecall
	DD	FLAT:__purecall
	DD	FLAT:__purecall
	DD	FLAT:__purecall
	DD	FLAT:__purecall
	DD	FLAT:__purecall
	DD	FLAT:__purecall
	DD	FLAT:__purecall
CONST	ENDS
;	COMDAT ??_R0?AV_System_error_category@std@@@8
data$r	SEGMENT
??_R0?AV_System_error_category@std@@@8 DD FLAT:??_7type_info@@6B@ ; std::_System_error_category `RTTI Type Descriptor'
	DD	00H
	DB	'.?AV_System_error_category@std@@', 00H
data$r	ENDS
;	COMDAT ??_R1A@?0A@EA@OBSAPIInterface@@8
rdata$r	SEGMENT
??_R1A@?0A@EA@OBSAPIInterface@@8 DD FLAT:??_R0?AVOBSAPIInterface@@@8 ; OBSAPIInterface::`RTTI Base Class Descriptor at (0,-1,0,64)'
	DD	01H
	DD	00H
	DD	0ffffffffH
	DD	00H
	DD	040H
	DD	FLAT:??_R3OBSAPIInterface@@8
rdata$r	ENDS
;	COMDAT ??_R0?AVAPIInterface@@@8
data$r	SEGMENT
??_R0?AVAPIInterface@@@8 DD FLAT:??_7type_info@@6B@	; APIInterface `RTTI Type Descriptor'
	DD	00H
	DB	'.?AVAPIInterface@@', 00H
data$r	ENDS
;	COMDAT ??_R0?AUClassInfo@@@8
data$r	SEGMENT
??_R0?AUClassInfo@@@8 DD FLAT:??_7type_info@@6B@	; ClassInfo `RTTI Type Descriptor'
	DD	00H
	DB	'.?AUClassInfo@@', 00H
data$r	ENDS
;	COMDAT ??_R4_Iostream_error_category@std@@6B@
rdata$r	SEGMENT
??_R4_Iostream_error_category@std@@6B@ DD 00H		; std::_Iostream_error_category::`RTTI Complete Object Locator'
	DD	00H
	DD	00H
	DD	FLAT:??_R0?AV_Iostream_error_category@std@@@8
	DD	FLAT:??_R3_Iostream_error_category@std@@8
rdata$r	ENDS
;	COMDAT ??_R4error_category@std@@6B@
rdata$r	SEGMENT
??_R4error_category@std@@6B@ DD 00H			; std::error_category::`RTTI Complete Object Locator'
	DD	00H
	DD	00H
	DD	FLAT:??_R0?AVerror_category@std@@@8
	DD	FLAT:??_R3error_category@std@@8
rdata$r	ENDS
;	COMDAT ??_R1A@?0A@EA@_Iostream_error_category@std@@8
rdata$r	SEGMENT
??_R1A@?0A@EA@_Iostream_error_category@std@@8 DD FLAT:??_R0?AV_Iostream_error_category@std@@@8 ; std::_Iostream_error_category::`RTTI Base Class Descriptor at (0,-1,0,64)'
	DD	02H
	DD	00H
	DD	0ffffffffH
	DD	00H
	DD	040H
	DD	FLAT:??_R3_Iostream_error_category@std@@8
rdata$r	ENDS
;	COMDAT ??_R4OBSAPIInterface@@6B@
rdata$r	SEGMENT
??_R4OBSAPIInterface@@6B@ DD 00H			; OBSAPIInterface::`RTTI Complete Object Locator'
	DD	00H
	DD	00H
	DD	FLAT:??_R0?AVOBSAPIInterface@@@8
	DD	FLAT:??_R3OBSAPIInterface@@8
rdata$r	ENDS
;	COMDAT ??_R1A@?0A@EA@_Generic_error_category@std@@8
rdata$r	SEGMENT
??_R1A@?0A@EA@_Generic_error_category@std@@8 DD FLAT:??_R0?AV_Generic_error_category@std@@@8 ; std::_Generic_error_category::`RTTI Base Class Descriptor at (0,-1,0,64)'
	DD	01H
	DD	00H
	DD	0ffffffffH
	DD	00H
	DD	040H
	DD	FLAT:??_R3_Generic_error_category@std@@8
rdata$r	ENDS
;	COMDAT ??_R0?AV_Iostream_error_category@std@@@8
data$r	SEGMENT
??_R0?AV_Iostream_error_category@std@@@8 DD FLAT:??_7type_info@@6B@ ; std::_Iostream_error_category `RTTI Type Descriptor'
	DD	00H
	DB	'.?AV_Iostream_error_category@std@@', 00H
data$r	ENDS
;	COMDAT ??_R4_Generic_error_category@std@@6B@
rdata$r	SEGMENT
??_R4_Generic_error_category@std@@6B@ DD 00H		; std::_Generic_error_category::`RTTI Complete Object Locator'
	DD	00H
	DD	00H
	DD	FLAT:??_R0?AV_Generic_error_category@std@@@8
	DD	FLAT:??_R3_Generic_error_category@std@@8
rdata$r	ENDS
;	COMDAT ??_R0?AVOBSAPIInterface@@@8
data$r	SEGMENT
??_R0?AVOBSAPIInterface@@@8 DD FLAT:??_7type_info@@6B@	; OBSAPIInterface `RTTI Type Descriptor'
	DD	00H
	DB	'.?AVOBSAPIInterface@@', 00H
data$r	ENDS
;	COMDAT ??_7_Generic_error_category@std@@6B@
CONST	SEGMENT
??_7_Generic_error_category@std@@6B@ DD FLAT:??_R4_Generic_error_category@std@@6B@ ; std::_Generic_error_category::`vftable'
	DD	FLAT:??_E_Generic_error_category@std@@UAEPAXI@Z
	DD	FLAT:?name@_Generic_error_category@std@@UBEPBDXZ
	DD	FLAT:?message@_Generic_error_category@std@@UBE?AV?$basic_string@DU?$char_traits@D@std@@V?$allocator@D@2@@2@H@Z
	DD	FLAT:?default_error_condition@error_category@std@@UBE?AVerror_condition@2@H@Z
	DD	FLAT:?equivalent@error_category@std@@UBE_NABVerror_code@2@H@Z
	DD	FLAT:?equivalent@error_category@std@@UBE_NHABVerror_condition@2@@Z
CONST	ENDS
;	COMDAT ??_R2_System_error_category@std@@8
rdata$r	SEGMENT
??_R2_System_error_category@std@@8 DD FLAT:??_R1A@?0A@EA@_System_error_category@std@@8 ; std::_System_error_category::`RTTI Base Class Array'
	DD	FLAT:??_R1A@?0A@EA@_Generic_error_category@std@@8
	DD	FLAT:??_R1A@?0A@EA@error_category@std@@8
rdata$r	ENDS
;	COMDAT ??_R3_System_error_category@std@@8
rdata$r	SEGMENT
??_R3_System_error_category@std@@8 DD 00H		; std::_System_error_category::`RTTI Class Hierarchy Descriptor'
	DD	00H
	DD	03H
	DD	FLAT:??_R2_System_error_category@std@@8
rdata$r	ENDS
;	COMDAT ??_7OBSAPIInterface@@6B@
CONST	SEGMENT
??_7OBSAPIInterface@@6B@ DD FLAT:??_R4OBSAPIInterface@@6B@ ; OBSAPIInterface::`vftable'
	DD	FLAT:?Invalid03@APIInterface@@UBEXXZ
	DD	FLAT:??_EOBSAPIInterface@@UAEPAXI@Z
	DD	FLAT:?EnterSceneMutex@OBSAPIInterface@@UAEXXZ
	DD	FLAT:?LeaveSceneMutex@OBSAPIInterface@@UAEXXZ
	DD	FLAT:?RegisterSceneClass@OBSAPIInterface@@UAEXPB_W0P6GPAXPAVXElement@@@ZP6G_N1_N@Z@Z
	DD	FLAT:?RegisterImageSourceClass@OBSAPIInterface@@UAEXPB_W0P6GPAXPAVXElement@@@ZP6G_N1_N@Z@Z
	DD	FLAT:?CreateImageSource@OBSAPIInterface@@UAEPAVImageSource@@PB_WPAVXElement@@@Z
	DD	FLAT:?GetSceneListElement@OBSAPIInterface@@UAEPAVXElement@@XZ
	DD	FLAT:?GetGlobalSourceListElement@OBSAPIInterface@@UAEPAVXElement@@XZ
	DD	FLAT:?SetScene@OBSAPIInterface@@UAE_NPB_W_N@Z
	DD	FLAT:?GetScene@OBSAPIInterface@@UBEPAVScene@@XZ
	DD	FLAT:?GetSceneName@OBSAPIInterface@@UBEPB_WXZ
	DD	FLAT:?GetSceneElement@OBSAPIInterface@@UAEPAVXElement@@XZ
	DD	FLAT:?CreateHotkey@OBSAPIInterface@@UAEIKP6GXKK_N@ZK@Z
	DD	FLAT:?DeleteHotkey@OBSAPIInterface@@UAEXI@Z
	DD	FLAT:?GetBaseSize@OBSAPIInterface@@UBEXAAI0@Z
	DD	FLAT:?GetBaseSize@OBSAPIInterface@@UBE?AUVect2@@XZ
	DD	FLAT:?GetRenderFrameSize@OBSAPIInterface@@UBEXAAI0@Z
	DD	FLAT:?GetRenderFrameSize@OBSAPIInterface@@UBE?AUVect2@@XZ
	DD	FLAT:?GetOutputSize@OBSAPIInterface@@UBEXAAI0@Z
	DD	FLAT:?GetOutputSize@OBSAPIInterface@@UBE?AUVect2@@XZ
	DD	FLAT:?GetMaxFPS@OBSAPIInterface@@UBEIXZ
	DD	FLAT:?GetLanguage@OBSAPIInterface@@UBEPB_WXZ
	DD	FLAT:?GetMainWindow@OBSAPIInterface@@UBEPAUHWND__@@XZ
	DD	FLAT:?GetAppDataPath@OBSAPIInterface@@UBEPB_WXZ
	DD	FLAT:?GetPluginDataPath@OBSAPIInterface@@UBE?AVString@@XZ
	DD	FLAT:?AddStreamInfo@OBSAPIInterface@@UAEIPB_WW4StreamInfoPriority@@@Z
	DD	FLAT:?SetStreamInfo@OBSAPIInterface@@UAEXIPB_W@Z
	DD	FLAT:?SetStreamInfoPriority@OBSAPIInterface@@UAEXIW4StreamInfoPriority@@@Z
	DD	FLAT:?RemoveStreamInfo@OBSAPIInterface@@UAEXI@Z
	DD	FLAT:?UseMultithreadedOptimizations@OBSAPIInterface@@UBE_NXZ
	DD	FLAT:?AddAudioSource@OBSAPIInterface@@UAEXPAVAudioSource@@@Z
	DD	FLAT:?RemoveAudioSource@OBSAPIInterface@@UAEXPAVAudioSource@@@Z
	DD	FLAT:?GetAudioTime@OBSAPIInterface@@UBE_KXZ
	DD	FLAT:?GetAppPath@OBSAPIInterface@@UBEPB_WXZ
	DD	FLAT:?StartStopStream@OBSAPIInterface@@UAEXXZ
	DD	FLAT:?StartStopPreview@OBSAPIInterface@@UAEXXZ
	DD	FLAT:?GetStreaming@OBSAPIInterface@@UAE_NXZ
	DD	FLAT:?GetPreviewOnly@OBSAPIInterface@@UAE_NXZ
	DD	FLAT:?SetSourceOrder@OBSAPIInterface@@UAEXAAVStringList@@@Z
	DD	FLAT:?SetSourceRender@OBSAPIInterface@@UAEXPB_W_N@Z
	DD	FLAT:?Invalid01@APIInterface@@UAEXXZ
	DD	FLAT:?Invalid02@APIInterface@@UAEXXZ
	DD	FLAT:?SetDesktopVolume@OBSAPIInterface@@UAEXM_N@Z
	DD	FLAT:?GetDesktopVolume@OBSAPIInterface@@UAEMXZ
	DD	FLAT:?ToggleDesktopMute@OBSAPIInterface@@UAEXXZ
	DD	FLAT:?GetDesktopMuted@OBSAPIInterface@@UAE_NXZ
	DD	FLAT:?SetMicVolume@OBSAPIInterface@@UAEXM_N@Z
	DD	FLAT:?GetMicVolume@OBSAPIInterface@@UAEMXZ
	DD	FLAT:?ToggleMicMute@OBSAPIInterface@@UAEXXZ
	DD	FLAT:?GetMicMuted@OBSAPIInterface@@UAE_NXZ
	DD	FLAT:?GetOBSVersion@OBSAPIInterface@@UBEKXZ
	DD	FLAT:?IsTestVersion@OBSAPIInterface@@UBE_NXZ
	DD	FLAT:?NumAuxAudioSources@OBSAPIInterface@@UBEIXZ
	DD	FLAT:?GetAuxAudioSource@OBSAPIInterface@@UAEPAVAudioSource@@I@Z
	DD	FLAT:?GetDesktopAudioSource@OBSAPIInterface@@UAEPAVAudioSource@@XZ
	DD	FLAT:?GetMicAudioSource@OBSAPIInterface@@UAEPAVAudioSource@@XZ
	DD	FLAT:?GetCurDesktopVolumeStats@OBSAPIInterface@@UBEXPAM00@Z
	DD	FLAT:?GetCurMicVolumeStats@OBSAPIInterface@@UBEXPAM00@Z
	DD	FLAT:?AddSettingsPane@OBSAPIInterface@@UAEXPAVSettingsPane@@@Z
	DD	FLAT:?RemoveSettingsPane@OBSAPIInterface@@UAEXPAVSettingsPane@@@Z
	DD	FLAT:?SetChangedSettings@OBSAPIInterface@@EAEX_N@Z
	DD	FLAT:?GetRenderFrameOffset@OBSAPIInterface@@UBEXAAI0@Z
	DD	FLAT:?GetRenderFrameOffset@OBSAPIInterface@@UBE?AUVect2@@XZ
	DD	FLAT:?GetRenderFrameControlSize@OBSAPIInterface@@UBEXAAI0@Z
	DD	FLAT:?GetRenderFrameControlSize@OBSAPIInterface@@UBE?AUVect2@@XZ
	DD	FLAT:?GetRenderFrameIn1To1Mode@OBSAPIInterface@@UBE_NXZ
	DD	FLAT:?MapWindowToFramePos@OBSAPIInterface@@UBE?AUVect2@@U2@@Z
	DD	FLAT:?MapFrameToWindowPos@OBSAPIInterface@@UBE?AUVect2@@U2@@Z
	DD	FLAT:?MapWindowToFrameSize@OBSAPIInterface@@UBE?AUVect2@@U2@@Z
	DD	FLAT:?MapFrameToWindowSize@OBSAPIInterface@@UBE?AUVect2@@U2@@Z
	DD	FLAT:?GetWindowToFrameScale@OBSAPIInterface@@UBE?AUVect2@@XZ
	DD	FLAT:?GetFrameToWindowScale@OBSAPIInterface@@UBE?AUVect2@@XZ
	DD	FLAT:?GetSampleRateHz@OBSAPIInterface@@UBEIXZ
	DD	FLAT:?SetAbortApplySettings@OBSAPIInterface@@EAEX_N@Z
	DD	FLAT:?StartStopRecording@OBSAPIInterface@@UAEXXZ
	DD	FLAT:?GetRecording@OBSAPIInterface@@UBE_NXZ
	DD	FLAT:?GetKeepRecording@OBSAPIInterface@@UBE_NXZ
	DD	FLAT:?GetCaptureFPS@OBSAPIInterface@@UBEIXZ
	DD	FLAT:?GetTotalFrames@OBSAPIInterface@@UBEIXZ
	DD	FLAT:?GetFramesDropped@OBSAPIInterface@@UBEIXZ
	DD	FLAT:?GetTotalStreamTime@OBSAPIInterface@@UBEIXZ
	DD	FLAT:?GetBytesPerSec@OBSAPIInterface@@UBEIXZ
	DD	FLAT:?SetCanOptimizeSettings@OBSAPIInterface@@EAEX_N@Z
	DD	FLAT:?StartStopRecordingReplayBuffer@OBSAPIInterface@@UAEXXZ
	DD	FLAT:?GetRecordingReplayBuffer@OBSAPIInterface@@UBE_NXZ
	DD	FLAT:?SaveReplayBuffer@OBSAPIInterface@@UAEXXZ
	DD	FLAT:?SetSceneCollection@OBSAPIInterface@@UAE_NPB_W0@Z
	DD	FLAT:?GetSceneCollectionName@OBSAPIInterface@@UBEPB_WXZ
	DD	FLAT:?GetSceneCollectionNames@OBSAPIInterface@@UBEXAAVStringList@@@Z
	DD	FLAT:?DisableTransitions@OBSAPIInterface@@UAEXXZ
	DD	FLAT:?EnableTransitions@OBSAPIInterface@@UAEXXZ
	DD	FLAT:?TransitionsEnabled@OBSAPIInterface@@UBE_NXZ
CONST	ENDS
;	COMDAT ??_R1A@?0A@EA@error_category@std@@8
rdata$r	SEGMENT
??_R1A@?0A@EA@error_category@std@@8 DD FLAT:??_R0?AVerror_category@std@@@8 ; std::error_category::`RTTI Base Class Descriptor at (0,-1,0,64)'
	DD	00H
	DD	00H
	DD	0ffffffffH
	DD	00H
	DD	040H
	DD	FLAT:??_R3error_category@std@@8
rdata$r	ENDS
;	COMDAT ??_R0PAVSceneItem@@@8
data$r	SEGMENT
??_R0PAVSceneItem@@@8 DD FLAT:??_7type_info@@6B@	; SceneItem * `RTTI Type Descriptor'
	DD	00H
	DB	'.PAVSceneItem@@', 00H
data$r	ENDS
;	COMDAT ??_R2OBSAPIInterface@@8
rdata$r	SEGMENT
??_R2OBSAPIInterface@@8 DD FLAT:??_R1A@?0A@EA@OBSAPIInterface@@8 ; OBSAPIInterface::`RTTI Base Class Array'
	DD	FLAT:??_R1A@?0A@EA@APIInterface@@8
rdata$r	ENDS
;	COMDAT ??_R3error_category@std@@8
rdata$r	SEGMENT
??_R3error_category@std@@8 DD 00H			; std::error_category::`RTTI Class Hierarchy Descriptor'
	DD	00H
	DD	01H
	DD	FLAT:??_R2error_category@std@@8
rdata$r	ENDS
;	COMDAT ??_R2APIInterface@@8
rdata$r	SEGMENT
??_R2APIInterface@@8 DD FLAT:??_R1A@?0A@EA@APIInterface@@8 ; APIInterface::`RTTI Base Class Array'
rdata$r	ENDS
;	COMDAT ??_C@_0BI@CFPLBAOH@invalid?5string?5position?$AA@
CONST	SEGMENT
??_C@_0BI@CFPLBAOH@invalid?5string?5position?$AA@ DB 'invalid string posi'
	DB	'tion', 00H					; `string'
CONST	ENDS
;	COMDAT ??_C@_0BA@JFNIOLAK@string?5too?5long?$AA@
CONST	SEGMENT
??_C@_0BA@JFNIOLAK@string?5too?5long?$AA@ DB 'string too long', 00H ; `string'
CONST	ENDS
;	COMDAT ??_C@_1FA@KCLJOBNL@?$AAO?$AAu?$AAt?$AA?5?$AAo?$AAf?$AA?5?$AAr?$AAa?$AAn?$AAg?$AAe?$AA?$CB?$AA?5?$AA?5?$AAL?$AAi?$AAs?$AAt?$AA?$DM?$AA?$CF?$AAS?$AA?$DO?$AA?3?$AA?3?$AAo?$AAp?$AAe?$AAr?$AAa?$AAt?$AAo@
CONST	SEGMENT
??_C@_1FA@KCLJOBNL@?$AAO?$AAu?$AAt?$AA?5?$AAo?$AAf?$AA?5?$AAr?$AAa?$AAn?$AAg?$AAe?$AA?$CB?$AA?5?$AA?5?$AAL?$AAi?$AAs?$AAt?$AA?$DM?$AA?$CF?$AAS?$AA?$DO?$AA?3?$AA?3?$AAo?$AAp?$AAe?$AAr?$AAa?$AAt?$AAo@ DB 'O'
	DB	00H, 'u', 00H, 't', 00H, ' ', 00H, 'o', 00H, 'f', 00H, ' ', 00H
	DB	'r', 00H, 'a', 00H, 'n', 00H, 'g', 00H, 'e', 00H, '!', 00H, ' '
	DB	00H, ' ', 00H, 'L', 00H, 'i', 00H, 's', 00H, 't', 00H, '<', 00H
	DB	'%', 00H, 'S', 00H, '>', 00H, ':', 00H, ':', 00H, 'o', 00H, 'p'
	DB	00H, 'e', 00H, 'r', 00H, 'a', 00H, 't', 00H, 'o', 00H, 'r', 00H
	DB	'[', 00H, ']', 00H, '(', 00H, '%', 00H, 'd', 00H, ')', 00H, 00H
	DB	00H						; `string'
CONST	ENDS
;	COMDAT ??_C@_1GK@DMMFIDMP@?$AAT?$AAr?$AAi?$AAe?$AAd?$AA?5?$AAt?$AAo?$AA?5?$AAg?$AAe?$AAt?$AA?5?$AAa?$AAn?$AA?5?$AAa?$AAu?$AAx?$AA?5?$AAa?$AAu?$AAd?$AAi?$AAo?$AA?5?$AAs?$AAo?$AAu?$AAr?$AAc?$AAe@
CONST	SEGMENT
??_C@_1GK@DMMFIDMP@?$AAT?$AAr?$AAi?$AAe?$AAd?$AA?5?$AAt?$AAo?$AA?5?$AAg?$AAe?$AAt?$AA?5?$AAa?$AAn?$AA?5?$AAa?$AAu?$AAx?$AA?5?$AAa?$AAu?$AAd?$AAi?$AAo?$AA?5?$AAs?$AAo?$AAu?$AAr?$AAc?$AAe@ DB 'T'
	DB	00H, 'r', 00H, 'i', 00H, 'e', 00H, 'd', 00H, ' ', 00H, 't', 00H
	DB	'o', 00H, ' ', 00H, 'g', 00H, 'e', 00H, 't', 00H, ' ', 00H, 'a'
	DB	00H, 'n', 00H, ' ', 00H, 'a', 00H, 'u', 00H, 'x', 00H, ' ', 00H
	DB	'a', 00H, 'u', 00H, 'd', 00H, 'i', 00H, 'o', 00H, ' ', 00H, 's'
	DB	00H, 'o', 00H, 'u', 00H, 'r', 00H, 'c', 00H, 'e', 00H, ' ', 00H
	DB	't', 00H, 'h', 00H, 'a', 00H, 't', 00H, ' ', 00H, 'd', 00H, 'o'
	DB	00H, 'e', 00H, 's', 00H, 'n', 00H, '''', 00H, 't', 00H, ' ', 00H
	DB	'e', 00H, 'x', 00H, 'i', 00H, 's', 00H, 't', 00H, '!', 00H, 00H
	DB	00H						; `string'
CONST	ENDS
;	COMDAT ??_C@_1BI@DLGNLDGJ@?$AA?2?$AAp?$AAl?$AAu?$AAg?$AAi?$AAn?$AAD?$AAa?$AAt?$AAa?$AA?$AA@
CONST	SEGMENT
??_C@_1BI@DLGNLDGJ@?$AA?2?$AAp?$AAl?$AAu?$AAg?$AAi?$AAn?$AAD?$AAa?$AAt?$AAa?$AA?$AA@ DB '\'
	DB	00H, 'p', 00H, 'l', 00H, 'u', 00H, 'g', 00H, 'i', 00H, 'n', 00H
	DB	'D', 00H, 'a', 00H, 't', 00H, 'a', 00H, 00H, 00H ; `string'
CONST	ENDS
;	COMDAT ??_C@_1M@BFEDDODL@?$AAV?$AAi?$AAd?$AAe?$AAo?$AA?$AA@
CONST	SEGMENT
??_C@_1M@BFEDDODL@?$AAV?$AAi?$AAd?$AAe?$AAo?$AA?$AA@ DB 'V', 00H, 'i', 00H
	DB	'd', 00H, 'e', 00H, 'o', 00H, 00H, 00H	; `string'
CONST	ENDS
;	COMDAT ??_C@_17KABJEDEH@?$AAF?$AAP?$AAS?$AA?$AA@
CONST	SEGMENT
??_C@_17KABJEDEH@?$AAF?$AAP?$AAS?$AA?$AA@ DB 'F', 00H, 'P', 00H, 'S', 00H
	DB	00H, 00H					; `string'
CONST	ENDS
;	COMDAT ??_C@_1BO@MNEEFODP@?$AAg?$AAl?$AAo?$AAb?$AAa?$AAl?$AA?5?$AAs?$AAo?$AAu?$AAr?$AAc?$AAe?$AAs?$AA?$AA@
CONST	SEGMENT
??_C@_1BO@MNEEFODP@?$AAg?$AAl?$AAo?$AAb?$AAa?$AAl?$AA?5?$AAs?$AAo?$AAu?$AAr?$AAc?$AAe?$AAs?$AA?$AA@ DB 'g'
	DB	00H, 'l', 00H, 'o', 00H, 'b', 00H, 'a', 00H, 'l', 00H, ' ', 00H
	DB	's', 00H, 'o', 00H, 'u', 00H, 'r', 00H, 'c', 00H, 'e', 00H, 's'
	DB	00H, 00H, 00H				; `string'
CONST	ENDS
;	COMDAT ??_C@_1O@DEJKECHI@?$AAs?$AAc?$AAe?$AAn?$AAe?$AAs?$AA?$AA@
CONST	SEGMENT
??_C@_1O@DEJKECHI@?$AAs?$AAc?$AAe?$AAn?$AAe?$AAs?$AA?$AA@ DB 's', 00H, 'c'
	DB	00H, 'e', 00H, 'n', 00H, 'e', 00H, 's', 00H, 00H, 00H ; `string'
$SG4294966871 DB 'O', 00H, 'B', 00H, 'S', 00H, ':', 00H, ':', 00H, 'R', 00H
	DB	'e', 00H, 'g', 00H, 'i', 00H, 's', 00H, 't', 00H, 'e', 00H, 'r'
	DB	00H, 'S', 00H, 'c', 00H, 'e', 00H, 'n', 00H, 'e', 00H, 'C', 00H
	DB	'l', 00H, 'a', 00H, 's', 00H, 's', 00H, ':', 00H, ' ', 00H, 'N'
	DB	00H, 'o', 00H, ' ', 00H, 'c', 00H, 'l', 00H, 'a', 00H, 's', 00H
	DB	's', 00H, ' ', 00H, 'n', 00H, 'a', 00H, 'm', 00H, 'e', 00H, ' '
	DB	00H, 's', 00H, 'p', 00H, 'e', 00H, 'c', 00H, 'i', 00H, 'f', 00H
	DB	'i', 00H, 'e', 00H, 'd', 00H, 00H, 00H
$SG4294966862 DB 'c', 00H, 'l', 00H, 'a', 00H, 's', 00H, 's', 00H, 00H, 00H
$SG4294966870 DB 'O', 00H, 'B', 00H, 'S', 00H, ':', 00H, ':', 00H, 'R', 00H
	DB	'e', 00H, 'g', 00H, 'i', 00H, 's', 00H, 't', 00H, 'e', 00H, 'r'
	DB	00H, 'S', 00H, 'c', 00H, 'e', 00H, 'n', 00H, 'e', 00H, 'C', 00H
	DB	'l', 00H, 'a', 00H, 's', 00H, 's', 00H, ':', 00H, ' ', 00H, 'N'
	DB	00H, 'o', 00H, ' ', 00H, 'c', 00H, 'r', 00H, 'e', 00H, 'a', 00H
	DB	't', 00H, 'e', 00H, ' ', 00H, 'p', 00H, 'r', 00H, 'o', 00H, 'c'
	DB	00H, 'e', 00H, 'd', 00H, 'u', 00H, 'r', 00H, 'e', 00H, ' ', 00H
	DB	's', 00H, 'p', 00H, 'e', 00H, 'c', 00H, 'i', 00H, 'f', 00H, 'i'
	DB	00H, 'e', 00H, 'd', 00H, 00H, 00H
$SG4294966869 DB 'O', 00H, 'B', 00H, 'S', 00H, ':', 00H, ':', 00H, 'R', 00H
	DB	'e', 00H, 'g', 00H, 'i', 00H, 's', 00H, 't', 00H, 'e', 00H, 'r'
	DB	00H, 'S', 00H, 'c', 00H, 'e', 00H, 'n', 00H, 'e', 00H, 'C', 00H
	DB	'l', 00H, 'a', 00H, 's', 00H, 's', 00H, ':', 00H, ' ', 00H, 'T'
	DB	00H, 'r', 00H, 'i', 00H, 'e', 00H, 'd', 00H, ' ', 00H, 't', 00H
	DB	'o', 00H, ' ', 00H, 'r', 00H, 'e', 00H, 'g', 00H, 'i', 00H, 's'
	DB	00H, 't', 00H, 'e', 00H, 'r', 00H, ' ', 00H, '''', 00H, '%', 00H
	DB	's', 00H, '''', 00H, ',', 00H, ' ', 00H, 'b', 00H, 'u', 00H, 't'
	DB	00H, ' ', 00H, 'i', 00H, 't', 00H, ' ', 00H, 'a', 00H, 'l', 00H
	DB	'r', 00H, 'e', 00H, 'a', 00H, 'd', 00H, 'y', 00H, ' ', 00H, 'e'
	DB	00H, 'x', 00H, 'i', 00H, 's', 00H, 't', 00H, 's', 00H, 00H, 00H
$SG4294966868 DB 'O', 00H, 'B', 00H, 'S', 00H, ':', 00H, ':', 00H, 'R', 00H
	DB	'e', 00H, 'g', 00H, 'i', 00H, 's', 00H, 't', 00H, 'e', 00H, 'r'
	DB	00H, 'I', 00H, 'm', 00H, 'a', 00H, 'g', 00H, 'e', 00H, 'S', 00H
	DB	'o', 00H, 'u', 00H, 'r', 00H, 'c', 00H, 'e', 00H, 'C', 00H, 'l'
	DB	00H, 'a', 00H, 's', 00H, 's', 00H, ':', 00H, ' ', 00H, 'N', 00H
	DB	'o', 00H, ' ', 00H, 'c', 00H, 'l', 00H, 'a', 00H, 's', 00H, 's'
	DB	00H, ' ', 00H, 'n', 00H, 'a', 00H, 'm', 00H, 'e', 00H, ' ', 00H
	DB	's', 00H, 'p', 00H, 'e', 00H, 'c', 00H, 'i', 00H, 'f', 00H, 'i'
	DB	00H, 'e', 00H, 'd', 00H, 00H, 00H
$SG4294966867 DB 'O', 00H, 'B', 00H, 'S', 00H, ':', 00H, ':', 00H, 'R', 00H
	DB	'e', 00H, 'g', 00H, 'i', 00H, 's', 00H, 't', 00H, 'e', 00H, 'r'
	DB	00H, 'I', 00H, 'm', 00H, 'a', 00H, 'g', 00H, 'e', 00H, 'S', 00H
	DB	'o', 00H, 'u', 00H, 'r', 00H, 'c', 00H, 'e', 00H, 'C', 00H, 'l'
	DB	00H, 'a', 00H, 's', 00H, 's', 00H, ':', 00H, ' ', 00H, 'N', 00H
	DB	'o', 00H, ' ', 00H, 'c', 00H, 'r', 00H, 'e', 00H, 'a', 00H, 't'
	DB	00H, 'e', 00H, ' ', 00H, 'p', 00H, 'r', 00H, 'o', 00H, 'c', 00H
	DB	'e', 00H, 'd', 00H, 'u', 00H, 'r', 00H, 'e', 00H, ' ', 00H, 's'
	DB	00H, 'p', 00H, 'e', 00H, 'c', 00H, 'i', 00H, 'f', 00H, 'i', 00H
	DB	'e', 00H, 'd', 00H, 00H, 00H
$SG4294966858 DB 'c', 00H, 'l', 00H, 'a', 00H, 's', 00H, 's', 00H, 00H, 00H
$SG4294966866 DB 'O', 00H, 'B', 00H, 'S', 00H, ':', 00H, ':', 00H, 'R', 00H
	DB	'e', 00H, 'g', 00H, 'i', 00H, 's', 00H, 't', 00H, 'e', 00H, 'r'
	DB	00H, 'I', 00H, 'm', 00H, 'a', 00H, 'g', 00H, 'e', 00H, 'S', 00H
	DB	'o', 00H, 'u', 00H, 'r', 00H, 'c', 00H, 'e', 00H, 'C', 00H, 'l'
	DB	00H, 'a', 00H, 's', 00H, 's', 00H, ':', 00H, ' ', 00H, 'T', 00H
	DB	'r', 00H, 'i', 00H, 'e', 00H, 'd', 00H, ' ', 00H, 't', 00H, 'o'
	DB	00H, ' ', 00H, 'r', 00H, 'e', 00H, 'g', 00H, 'i', 00H, 's', 00H
	DB	't', 00H, 'e', 00H, 'r', 00H, ' ', 00H, '''', 00H, '%', 00H, 's'
	DB	00H, '''', 00H, ',', 00H, ' ', 00H, 'b', 00H, 'u', 00H, 't', 00H
	DB	' ', 00H, 'i', 00H, 't', 00H, ' ', 00H, 'a', 00H, 'l', 00H, 'r'
	DB	00H, 'e', 00H, 'a', 00H, 'd', 00H, 'y', 00H, ' ', 00H, 'e', 00H
	DB	'x', 00H, 'i', 00H, 's', 00H, 't', 00H, 's', 00H, 00H, 00H
$SG4294966854 DB 'c', 00H, 'l', 00H, 'a', 00H, 's', 00H, 's', 00H, 00H, 00H
$SG4294966865 DB 'O', 00H, 'B', 00H, 'S', 00H, ':', 00H, ':', 00H, 'C', 00H
	DB	'r', 00H, 'e', 00H, 'a', 00H, 't', 00H, 'e', 00H, 'S', 00H, 'c'
	DB	00H, 'e', 00H, 'n', 00H, 'e', 00H, ':', 00H, ' ', 00H, 'C', 00H
	DB	'o', 00H, 'u', 00H, 'l', 00H, 'd', 00H, ' ', 00H, 'n', 00H, 'o'
	DB	00H, 't', 00H, ' ', 00H, 'f', 00H, 'i', 00H, 'n', 00H, 'd', 00H
	DB	' ', 00H, 's', 00H, 'c', 00H, 'e', 00H, 'n', 00H, 'e', 00H, ' '
	DB	00H, 'c', 00H, 'l', 00H, 'a', 00H, 's', 00H, 's', 00H, ' ', 00H
	DB	'''', 00H, '%', 00H, 's', 00H, '''', 00H, 00H, 00H
$SG4294966850 DB 'd', 00H, 'a', 00H, 't', 00H, 'a', 00H, 00H, 00H
$SG4294966864 DB 'O', 00H, 'B', 00H, 'S', 00H, ':', 00H, ':', 00H, 'C', 00H
	DB	'r', 00H, 'e', 00H, 'a', 00H, 't', 00H, 'e', 00H, 'I', 00H, 'm'
	DB	00H, 'a', 00H, 'g', 00H, 'e', 00H, 'S', 00H, 'o', 00H, 'u', 00H
	DB	'r', 00H, 'c', 00H, 'e', 00H, ':', 00H, ' ', 00H, 'C', 00H, 'o'
	DB	00H, 'u', 00H, 'l', 00H, 'd', 00H, ' ', 00H, 'n', 00H, 'o', 00H
	DB	't', 00H, ' ', 00H, 'f', 00H, 'i', 00H, 'n', 00H, 'd', 00H, ' '
	DB	00H, 'i', 00H, 'm', 00H, 'a', 00H, 'g', 00H, 'e', 00H, ' ', 00H
	DB	's', 00H, 'o', 00H, 'u', 00H, 'r', 00H, 'c', 00H, 'e', 00H, ' '
	DB	00H, 'c', 00H, 'l', 00H, 'a', 00H, 's', 00H, 's', 00H, ' ', 00H
	DB	'''', 00H, '%', 00H, 's', 00H, '''', 00H, 00H, 00H
$SG4294966863 DB 'O', 00H, 'B', 00H, 'S', 00H, ':', 00H, ':', 00H, 'C', 00H
	DB	'o', 00H, 'n', 00H, 'f', 00H, 'i', 00H, 'g', 00H, 'u', 00H, 'r'
	DB	00H, 'e', 00H, 'S', 00H, 'c', 00H, 'e', 00H, 'n', 00H, 'e', 00H
	DB	':', 00H, ' ', 00H, 'N', 00H, 'U', 00H, 'L', 00H, 'L', 00H, ' '
	DB	00H, 'e', 00H, 'l', 00H, 'e', 00H, 'm', 00H, 'e', 00H, 'n', 00H
	DB	't', 00H, ' ', 00H, 's', 00H, 'p', 00H, 'e', 00H, 'c', 00H, 'i'
	DB	00H, 'f', 00H, 'i', 00H, 'e', 00H, 'd', 00H, 00H, 00H
$SG4294966861 DB 'O', 00H, 'B', 00H, 'S', 00H, ':', 00H, ':', 00H, 'C', 00H
	DB	'o', 00H, 'n', 00H, 'f', 00H, 'i', 00H, 'g', 00H, 'u', 00H, 'r'
	DB	00H, 'e', 00H, 'S', 00H, 'c', 00H, 'e', 00H, 'n', 00H, 'e', 00H
	DB	':', 00H, ' ', 00H, 'N', 00H, 'o', 00H, ' ', 00H, 'c', 00H, 'l'
	DB	00H, 'a', 00H, 's', 00H, 's', 00H, ' ', 00H, 's', 00H, 'p', 00H
	DB	'e', 00H, 'c', 00H, 'i', 00H, 'f', 00H, 'i', 00H, 'e', 00H, 'd'
	DB	00H, ' ', 00H, 'f', 00H, 'o', 00H, 'r', 00H, ' ', 00H, 's', 00H
	DB	'c', 00H, 'e', 00H, 'n', 00H, 'e', 00H, ' ', 00H, '''', 00H, '%'
	DB	00H, 's', 00H, '''', 00H, 00H, 00H
	ORG $+2
$SG4294966860 DB 'O', 00H, 'B', 00H, 'S', 00H, ':', 00H, ':', 00H, 'C', 00H
	DB	'o', 00H, 'n', 00H, 'f', 00H, 'i', 00H, 'g', 00H, 'u', 00H, 'r'
	DB	00H, 'e', 00H, 'S', 00H, 'c', 00H, 'e', 00H, 'n', 00H, 'e', 00H
	DB	':', 00H, ' ', 00H, 'C', 00H, 'o', 00H, 'u', 00H, 'l', 00H, 'd'
	DB	00H, ' ', 00H, 'n', 00H, 'o', 00H, 't', 00H, ' ', 00H, 'f', 00H
	DB	'i', 00H, 'n', 00H, 'd', 00H, ' ', 00H, 's', 00H, 'c', 00H, 'e'
	DB	00H, 'n', 00H, 'e', 00H, ' ', 00H, 'c', 00H, 'l', 00H, 'a', 00H
	DB	's', 00H, 's', 00H, ' ', 00H, '''', 00H, '%', 00H, 's', 00H, ''''
	DB	00H, 00H, 00H
	ORG $+2
$SG4294966851 DB ' ', 00H, ' ', 00H, 'N', 00H, 'e', 00H, 'w', 00H, ' ', 00H
	DB	'S', 00H, 'c', 00H, 'e', 00H, 'n', 00H, 'e', 00H, 00H, 00H
$SG4294966848 DB 'c', 00H, 'l', 00H, 'a', 00H, 's', 00H, 's', 00H, 00H, 00H
$SG4294966859 DB 'O', 00H, 'B', 00H, 'S', 00H, ':', 00H, ':', 00H, 'C', 00H
	DB	'o', 00H, 'n', 00H, 'f', 00H, 'i', 00H, 'g', 00H, 'u', 00H, 'r'
	DB	00H, 'e', 00H, 'I', 00H, 'm', 00H, 'a', 00H, 'g', 00H, 'e', 00H
	DB	'S', 00H, 'o', 00H, 'u', 00H, 'r', 00H, 'c', 00H, 'e', 00H, ':'
	DB	00H, ' ', 00H, 'N', 00H, 'U', 00H, 'L', 00H, 'L', 00H, ' ', 00H
	DB	'e', 00H, 'l', 00H, 'e', 00H, 'm', 00H, 'e', 00H, 'n', 00H, 't'
	DB	00H, ' ', 00H, 's', 00H, 'p', 00H, 'e', 00H, 'c', 00H, 'i', 00H
	DB	'f', 00H, 'i', 00H, 'e', 00H, 'd', 00H, 00H, 00H
$SG4294966845 DB 'S', 00H, 'c', 00H, 'e', 00H, 'n', 00H, 'e', 00H, '.', 00H
	DB	'M', 00H, 'i', 00H, 's', 00H, 's', 00H, 'i', 00H, 'n', 00H, 'g'
	DB	00H, 'S', 00H, 'o', 00H, 'u', 00H, 'r', 00H, 'c', 00H, 'e', 00H
	DB	's', 00H, 00H, 00H
	ORG $+2
$SG4294966857 DB 'O', 00H, 'B', 00H, 'S', 00H, ':', 00H, ':', 00H, 'C', 00H
	DB	'o', 00H, 'n', 00H, 'f', 00H, 'i', 00H, 'g', 00H, 'u', 00H, 'r'
	DB	00H, 'e', 00H, 'I', 00H, 'm', 00H, 'a', 00H, 'g', 00H, 'e', 00H
	DB	'S', 00H, 'o', 00H, 'u', 00H, 'r', 00H, 'c', 00H, 'e', 00H, ':'
	DB	00H, ' ', 00H, 'N', 00H, 'o', 00H, ' ', 00H, 'c', 00H, 'l', 00H
	DB	'a', 00H, 's', 00H, 's', 00H, ' ', 00H, 's', 00H, 'p', 00H, 'e'
	DB	00H, 'c', 00H, 'i', 00H, 'f', 00H, 'i', 00H, 'e', 00H, 'd', 00H
	DB	' ', 00H, 'f', 00H, 'o', 00H, 'r', 00H, ' ', 00H, 'i', 00H, 'm'
	DB	00H, 'a', 00H, 'g', 00H, 'e', 00H, ' ', 00H, 's', 00H, 'o', 00H
	DB	'u', 00H, 'r', 00H, 'c', 00H, 'e', 00H, ' ', 00H, '''', 00H, '%'
	DB	00H, 's', 00H, '''', 00H, 00H, 00H
$SG4294966856 DB 'O', 00H, 'B', 00H, 'S', 00H, ':', 00H, ':', 00H, 'C', 00H
	DB	'o', 00H, 'n', 00H, 'f', 00H, 'i', 00H, 'g', 00H, 'u', 00H, 'r'
	DB	00H, 'e', 00H, 'I', 00H, 'm', 00H, 'a', 00H, 'g', 00H, 'e', 00H
	DB	'S', 00H, 'o', 00H, 'u', 00H, 'r', 00H, 'c', 00H, 'e', 00H, ':'
	DB	00H, ' ', 00H, 'C', 00H, 'o', 00H, 'u', 00H, 'l', 00H, 'd', 00H
	DB	' ', 00H, 'n', 00H, 'o', 00H, 't', 00H, ' ', 00H, 'f', 00H, 'i'
	DB	00H, 'n', 00H, 'd', 00H, ' ', 00H, 's', 00H, 'c', 00H, 'e', 00H
	DB	'n', 00H, 'e', 00H, ' ', 00H, 'c', 00H, 'l', 00H, 'a', 00H, 's'
	DB	00H, 's', 00H, ' ', 00H, '''', 00H, '%', 00H, 's', 00H, '''', 00H
	DB	00H, 00H
	ORG $+2
$SG4294966855 DB 's', 00H, 'c', 00H, 'e', 00H, 'n', 00H, 'e', 00H, 's', 00H
	DB	00H, 00H
	ORG $+2
$SG4294966853 DB 'O', 00H, 'B', 00H, 'S', 00H, ':', 00H, ':', 00H, 'S', 00H
	DB	'e', 00H, 't', 00H, 'S', 00H, 'c', 00H, 'e', 00H, 'n', 00H, 'e'
	DB	00H, ':', 00H, ' ', 00H, 'n', 00H, 'o', 00H, ' ', 00H, 'c', 00H
	DB	'l', 00H, 'a', 00H, 's', 00H, 's', 00H, ' ', 00H, 'f', 00H, 'o'
	DB	00H, 'u', 00H, 'n', 00H, 'd', 00H, ' ', 00H, 'f', 00H, 'o', 00H
	DB	'r', 00H, ' ', 00H, 's', 00H, 'c', 00H, 'e', 00H, 'n', 00H, 'e'
	DB	00H, ' ', 00H, '''', 00H, '%', 00H, 's', 00H, '''', 00H, 00H, 00H
	ORG $+2
$SG4294966849 DB 's', 00H, 'o', 00H, 'u', 00H, 'r', 00H, 'c', 00H, 'e', 00H
	DB	's', 00H, 00H, 00H
$SG4294966844 DB 'c', 00H, 'l', 00H, 'a', 00H, 's', 00H, 's', 00H, 00H, 00H
$SG4294966852 DB '+', 00H, '+', 00H, '+', 00H, '+', 00H, '+', 00H, '+', 00H
	DB	'+', 00H, '+', 00H, '+', 00H, '+', 00H, '+', 00H, '+', 00H, '+'
	DB	00H, '+', 00H, '+', 00H, '+', 00H, '+', 00H, '+', 00H, '+', 00H
	DB	'+', 00H, '+', 00H, '+', 00H, '+', 00H, '+', 00H, '+', 00H, '+'
	DB	00H, '+', 00H, '+', 00H, '+', 00H, '+', 00H, '+', 00H, '+', 00H
	DB	'+', 00H, '+', 00H, '+', 00H, '+', 00H, '+', 00H, '+', 00H, '+'
	DB	00H, '+', 00H, '+', 00H, '+', 00H, '+', 00H, '+', 00H, '+', 00H
	DB	'+', 00H, '+', 00H, '+', 00H, '+', 00H, '+', 00H, '+', 00H, '+'
	DB	00H, '+', 00H, '+', 00H, 00H, 00H
	ORG $+2
$SG4294966847 DB 'DeviceCapture', 00H
	ORG $+2
$SG4294966846 DB 'r', 00H, 'e', 00H, 'n', 00H, 'd', 00H, 'e', 00H, 'r', 00H
	DB	00H, 00H
	ORG $+2
$SG4294966843 DB 'GlobalSource', 00H
	ORG $+3
$SG4294966842 DB 'd', 00H, 'a', 00H, 't', 00H, 'a', 00H, 00H, 00H
	ORG $+2
$SG4294966841 DB 'n', 00H, 'a', 00H, 'm', 00H, 'e', 00H, 00H, 00H
	ORG $+2
$SG4294966840 DB 'c', 00H, 'l', 00H, 'a', 00H, 's', 00H, 's', 00H, 00H, 00H
$SG4294966839 DB 'GlobalSource', 00H
	ORG $+3
$SG4294966838 DB 'd', 00H, 'a', 00H, 't', 00H, 'a', 00H, 00H, 00H
	ORG $+2
$SG4294966837 DB 'n', 00H, 'a', 00H, 'm', 00H, 'e', 00H, 00H, 00H
	ORG $+2
$SG4294966835 DB '%', 00H, 's', 00H, '\', 00H, 's', 00H, 'c', 00H, 'e', 00H
	DB	'n', 00H, 'e', 00H, 'C', 00H, 'o', 00H, 'l', 00H, 'l', 00H, 'e'
	DB	00H, 'c', 00H, 't', 00H, 'i', 00H, 'o', 00H, 'n', 00H, '\', 00H
	DB	'%', 00H, 's', 00H, '.', 00H, 'x', 00H, 'c', 00H, 'o', 00H, 'n'
	DB	00H, 'f', 00H, 'i', 00H, 'g', 00H, 00H, 00H
$SG4294966836 DB 'P', 00H, 'E', 00H, 'R', 00H, 'F', 00H, 'O', 00H, 'R', 00H
	DB	'M', 00H, 'A', 00H, 'N', 00H, 'C', 00H, 'E', 00H, ' ', 00H, 'W'
	DB	00H, 'A', 00H, 'R', 00H, 'N', 00H, 'I', 00H, 'N', 00H, 'G', 00H
	DB	':', 00H, ' ', 00H, 'S', 00H, 'c', 00H, 'e', 00H, 'n', 00H, 'e'
	DB	00H, ' ', 00H, 'c', 00H, 'h', 00H, 'a', 00H, 'n', 00H, 'g', 00H
	DB	'e', 00H, ' ', 00H, 't', 00H, 'o', 00H, 'o', 00H, 'k', 00H, ' '
	DB	00H, '%', 00H, 'u', 00H, ' ', 00H, 'm', 00H, 's', 00H, ',', 00H
	DB	' ', 00H, 'm', 00H, 'a', 00H, 'y', 00H, 'b', 00H, 'e', 00H, ' '
	DB	00H, 's', 00H, 'o', 00H, 'm', 00H, 'e', 00H, ' ', 00H, 's', 00H
	DB	'o', 00H, 'u', 00H, 'r', 00H, 'c', 00H, 'e', 00H, 's', 00H, ' '
	DB	00H, 's', 00H, 'h', 00H, 'o', 00H, 'u', 00H, 'l', 00H, 'd', 00H
	DB	' ', 00H, 'b', 00H, 'e', 00H, ' ', 00H, 'g', 00H, 'l', 00H, 'o'
	DB	00H, 'b', 00H, 'a', 00H, 'l', 00H, ' ', 00H, 's', 00H, 'o', 00H
	DB	'u', 00H, 'r', 00H, 'c', 00H, 'e', 00H, 's', 00H, '?', 00H, 00H
	DB	00H
	ORG $+2
$SG4294966834 DB 'S', 00H, 'c', 00H, 'e', 00H, 'n', 00H, 'e', 00H, 'C', 00H
	DB	'o', 00H, 'l', 00H, 'l', 00H, 'e', 00H, 'c', 00H, 't', 00H, 'i'
	DB	00H, 'o', 00H, 'n', 00H, 00H, 00H
$SG4294966833 DB 'G', 00H, 'e', 00H, 'n', 00H, 'e', 00H, 'r', 00H, 'a', 00H
	DB	'l', 00H, 00H, 00H
$SG4294966832 DB '\scenes.xconfig', 00H
$SG4294966819 DB 'h', 00H, 'o', 00H, 't', 00H, 'k', 00H, 'e', 00H, 'y', 00H
	DB	00H, 00H
	ORG $+2
$SG4294966818 DB 'A', 00H, 'l', 00H, 'l', 00H, 'o', 00H, 'w', 00H, 'O', 00H
	DB	't', 00H, 'h', 00H, 'e', 00H, 'r', 00H, 'H', 00H, 'o', 00H, 't'
	DB	00H, 'k', 00H, 'e', 00H, 'y', 00H, 'M', 00H, 'o', 00H, 'd', 00H
	DB	'i', 00H, 'f', 00H, 'i', 00H, 'e', 00H, 'r', 00H, 's', 00H, 00H
	DB	00H
$SG4294966817 DB 'G', 00H, 'e', 00H, 'n', 00H, 'e', 00H, 'r', 00H, 'a', 00H
	DB	'l', 00H, 00H, 00H
$SG4294966816 DB 'U', 00H, 'p', 00H, 'l', 00H, 'a', 00H, 'y', 00H, 'O', 00H
	DB	'v', 00H, 'e', 00H, 'r', 00H, 'l', 00H, 'a', 00H, 'y', 00H, 'C'
	DB	00H, 'o', 00H, 'm', 00H, 'p', 00H, 'a', 00H, 't', 00H, 'i', 00H
	DB	'b', 00H, 'i', 00H, 'l', 00H, 'i', 00H, 't', 00H, 'y', 00H, 00H
	DB	00H
$SG4294966815 DB 'G', 00H, 'e', 00H, 'n', 00H, 'e', 00H, 'r', 00H, 'a', 00H
	DB	'l', 00H, 00H, 00H
CONST	ENDS
;	COMDAT ??_C@_1CA@DHAOPEIL@?$AAS?$AAc?$AAe?$AAn?$AAe?$AAC?$AAo?$AAl?$AAl?$AAe?$AAc?$AAt?$AAi?$AAo?$AAn?$AA?$AA@
CONST	SEGMENT
??_C@_1CA@DHAOPEIL@?$AAS?$AAc?$AAe?$AAn?$AAe?$AAC?$AAo?$AAl?$AAl?$AAe?$AAc?$AAt?$AAi?$AAo?$AAn?$AA?$AA@ DB 'S'
	DB	00H, 'c', 00H, 'e', 00H, 'n', 00H, 'e', 00H, 'C', 00H, 'o', 00H
	DB	'l', 00H, 'l', 00H, 'e', 00H, 'c', 00H, 't', 00H, 'i', 00H, 'o'
	DB	00H, 'n', 00H, 00H, 00H			; `string'
CONST	ENDS
;	COMDAT ??_C@_1BA@GCDNCJOK@?$AAG?$AAe?$AAn?$AAe?$AAr?$AAa?$AAl?$AA?$AA@
CONST	SEGMENT
??_C@_1BA@GCDNCJOK@?$AAG?$AAe?$AAn?$AAe?$AAr?$AAa?$AAl?$AA?$AA@ DB 'G', 00H
	DB	'e', 00H, 'n', 00H, 'e', 00H, 'r', 00H, 'a', 00H, 'l', 00H, 00H
	DB	00H						; `string'
CONST	ENDS
;	COMDAT ??_C@_06FHFOAHML@system?$AA@
CONST	SEGMENT
??_C@_06FHFOAHML@system?$AA@ DB 'system', 00H		; `string'
CONST	ENDS
;	COMDAT ??_C@_0BG@PADBLCHM@iostream?5stream?5error?$AA@
CONST	SEGMENT
??_C@_0BG@PADBLCHM@iostream?5stream?5error?$AA@ DB 'iostream stream error'
	DB	00H						; `string'
CONST	ENDS
;	COMDAT ??_C@_08LLGCOLLL@iostream?$AA@
CONST	SEGMENT
??_C@_08LLGCOLLL@iostream?$AA@ DB 'iostream', 00H	; `string'
CONST	ENDS
;	COMDAT ??_C@_0O@BFJCFAAK@unknown?5error?$AA@
CONST	SEGMENT
??_C@_0O@BFJCFAAK@unknown?5error?$AA@ DB 'unknown error', 00H ; `string'
CONST	ENDS
;	COMDAT ??_C@_07DCLBNMLN@generic?$AA@
CONST	SEGMENT
??_C@_07DCLBNMLN@generic?$AA@ DB 'generic', 00H		; `string'
CONST	ENDS
PUBLIC	??$destroy@PAD@?$allocator@D@std@@QAEXPAPAD@Z	; std::allocator<char>::destroy<char *>
PUBLIC	??$construct@PADAAPAD@?$allocator@D@std@@QAEXPAPADAAPAD@Z ; std::allocator<char>::construct<char *,char * &>
PUBLIC	??$destroy@PAD@?$allocator_traits@V?$allocator@D@std@@@std@@SAXAAV?$allocator@D@1@PAPAD@Z ; std::allocator_traits<std::allocator<char> >::destroy<char *>
PUBLIC	??$construct@PADAAPAD@?$allocator_traits@V?$allocator@D@std@@@std@@SAXAAV?$allocator@D@1@PAPADAAPAD@Z ; std::allocator_traits<std::allocator<char> >::construct<char *,char * &>
PUBLIC	??$forward@AAPAD@std@@YAAAPADAAPAD@Z		; std::forward<char * &>
PUBLIC	??$_Allocate@D@std@@YAPADIPAD@Z			; std::_Allocate<char>
PUBLIC	??$addressof@VNetworkStream@@@std@@YAPAVNetworkStream@@AAV1@@Z ; std::addressof<NetworkStream>
PUBLIC	??$addressof@D@std@@YAPADAAD@Z			; std::addressof<char>
PUBLIC	??$destroy@PAD@?$_Wrap_alloc@V?$allocator@D@std@@@std@@QAEXPAPAD@Z ; std::_Wrap_alloc<std::allocator<char> >::destroy<char *>
PUBLIC	??$construct@PADAAPAD@?$_Wrap_alloc@V?$allocator@D@std@@@std@@QAEXPAPADAAPAD@Z ; std::_Wrap_alloc<std::allocator<char> >::construct<char *,char * &>
PUBLIC	?max_size@?$allocator@D@std@@QBEIXZ		; std::allocator<char>::max_size
PUBLIC	?max_size@?$allocator_traits@V?$allocator@D@std@@@std@@SAIABV?$allocator@D@2@@Z ; std::allocator_traits<std::allocator<char> >::max_size
PUBLIC	?allocate@?$allocator@D@std@@QAEPADI@Z		; std::allocator<char>::allocate
PUBLIC	?max_size@?$_Wrap_alloc@V?$allocator@D@std@@@std@@QBEIXZ ; std::_Wrap_alloc<std::allocator<char> >::max_size
PUBLIC	?allocate@?$_Wrap_alloc@V?$allocator@D@std@@@std@@QAEPADI@Z ; std::_Wrap_alloc<std::allocator<char> >::allocate
PUBLIC	?deallocate@?$allocator@D@std@@QAEXPADI@Z	; std::allocator<char>::deallocate
PUBLIC	?_Copy@?$basic_string@DU?$char_traits@D@std@@V?$allocator@D@2@@std@@QAEXII@Z ; std::basic_string<char,std::char_traits<char>,std::allocator<char> >::_Copy
PUBLIC	?max_size@?$basic_string@DU?$char_traits@D@std@@V?$allocator@D@2@@std@@QBEIXZ ; std::basic_string<char,std::char_traits<char>,std::allocator<char> >::max_size
PUBLIC	?Clear@?$List@UClassInfo@@@@QAEXXZ		; List<ClassInfo>::Clear
PUBLIC	?_Myptr@?$_String_val@U?$_Simple_types@D@std@@@std@@QAEPADXZ ; std::_String_val<std::_Simple_types<char> >::_Myptr
PUBLIC	??0?$_String_val@U?$_Simple_types@D@std@@@std@@QAE@XZ ; std::_String_val<std::_Simple_types<char> >::_String_val<std::_Simple_types<char> >
PUBLIC	?deallocate@?$_Wrap_alloc@V?$allocator@D@std@@@std@@QAEXPADI@Z ; std::_Wrap_alloc<std::allocator<char> >::deallocate
PUBLIC	??0?$_Wrap_alloc@V?$allocator@D@std@@@std@@QAE@XZ ; std::_Wrap_alloc<std::allocator<char> >::_Wrap_alloc<std::allocator<char> >
PUBLIC	?_Xran@?$basic_string@DU?$char_traits@D@std@@V?$allocator@D@2@@std@@QBEXXZ ; std::basic_string<char,std::char_traits<char>,std::allocator<char> >::_Xran
PUBLIC	?_Xlen@?$basic_string@DU?$char_traits@D@std@@V?$allocator@D@2@@std@@QBEXXZ ; std::basic_string<char,std::char_traits<char>,std::allocator<char> >::_Xlen
PUBLIC	?_Inside@?$basic_string@DU?$char_traits@D@std@@V?$allocator@D@2@@std@@QAE_NPBD@Z ; std::basic_string<char,std::char_traits<char>,std::allocator<char> >::_Inside
PUBLIC	?_Grow@?$basic_string@DU?$char_traits@D@std@@V?$allocator@D@2@@std@@QAE_NI_N@Z ; std::basic_string<char,std::char_traits<char>,std::allocator<char> >::_Grow
PUBLIC	?_Eos@?$basic_string@DU?$char_traits@D@std@@V?$allocator@D@2@@std@@QAEXI@Z ; std::basic_string<char,std::char_traits<char>,std::allocator<char> >::_Eos
PUBLIC	?erase@?$basic_string@DU?$char_traits@D@std@@V?$allocator@D@2@@std@@QAEAAV12@II@Z ; std::basic_string<char,std::char_traits<char>,std::allocator<char> >::erase
PUBLIC	?erase@?$basic_string@DU?$char_traits@D@std@@V?$allocator@D@2@@std@@QAEAAV12@I@Z ; std::basic_string<char,std::char_traits<char>,std::allocator<char> >::erase
PUBLIC	?assign@?$basic_string@DU?$char_traits@D@std@@V?$allocator@D@2@@std@@QAEAAV12@PBDI@Z ; std::basic_string<char,std::char_traits<char>,std::allocator<char> >::assign
PUBLIC	?pointer_to@?$pointer_traits@PAVNetworkStream@@@std@@SAPAVNetworkStream@@AAV3@@Z ; std::pointer_traits<NetworkStream *>::pointer_to
PUBLIC	?Clear@?$List@UHotkeyInfo@@@@QAEXXZ		; List<HotkeyInfo>::Clear
PUBLIC	?SetSize@?$List@UHotkeyInfo@@@@QAEHI@Z		; List<HotkeyInfo>::SetSize
PUBLIC	?SetSize@?$List@UStreamInfo@@@@QAEHI@Z		; List<StreamInfo>::SetSize
PUBLIC	?SetSize@?$List@UClassInfo@@@@QAEHI@Z		; List<ClassInfo>::SetSize
PUBLIC	?Remove@?$List@PAVAudioSource@@@@QAEXI@Z	; List<AudioSource *>::Remove
PUBLIC	?Add@?$List@PAVAudioSource@@@@QAEIABQAVAudioSource@@@Z ; List<AudioSource *>::Add
PUBLIC	??D?$unique_ptr@VNetworkStream@@U?$default_delete@VNetworkStream@@@std@@@std@@QBEAAVNetworkStream@@XZ ; std::unique_ptr<NetworkStream,std::default_delete<NetworkStream> >::operator*
PUBLIC	?_Myptr@?$_String_val@U?$_Simple_types@D@std@@@std@@QBEPBDXZ ; std::_String_val<std::_Simple_types<char> >::_Myptr
PUBLIC	?_Getal@?$_String_alloc@$0A@U?$_String_base_types@DV?$allocator@D@std@@@std@@@std@@QBE?AU?$_Wrap_alloc@V?$allocator@D@std@@@2@XZ ; std::_String_alloc<0,std::_String_base_types<char,std::allocator<char> > >::_Getal
PUBLIC	??0?$_String_alloc@$0A@U?$_String_base_types@DV?$allocator@D@std@@@std@@@std@@QAE@ABV?$allocator@D@1@@Z ; std::_String_alloc<0,std::_String_base_types<char,std::allocator<char> > >::_String_alloc<0,std::_String_base_types<char,std::allocator<char> > >
PUBLIC	??0?$allocator@D@std@@QAE@XZ			; std::allocator<char>::allocator<char>
PUBLIC	?_Tidy@?$basic_string@DU?$char_traits@D@std@@V?$allocator@D@2@@std@@QAEX_NI@Z ; std::basic_string<char,std::char_traits<char>,std::allocator<char> >::_Tidy
PUBLIC	?size@?$basic_string@DU?$char_traits@D@std@@V?$allocator@D@2@@std@@QBEIXZ ; std::basic_string<char,std::char_traits<char>,std::allocator<char> >::size
PUBLIC	?assign@?$basic_string@DU?$char_traits@D@std@@V?$allocator@D@2@@std@@QAEAAV12@PBD@Z ; std::basic_string<char,std::char_traits<char>,std::allocator<char> >::assign
PUBLIC	?assign@?$basic_string@DU?$char_traits@D@std@@V?$allocator@D@2@@std@@QAEAAV12@ABV12@II@Z ; std::basic_string<char,std::char_traits<char>,std::allocator<char> >::assign
PUBLIC	??A?$List@UHotkeyInfo@@@@QAEAAUHotkeyInfo@@I@Z	; List<HotkeyInfo>::operator[]
PUBLIC	?CreateNew@?$List@UHotkeyInfo@@@@QAEPAUHotkeyInfo@@XZ ; List<HotkeyInfo>::CreateNew
PUBLIC	?Remove@?$List@UHotkeyInfo@@@@QAEXI@Z		; List<HotkeyInfo>::Remove
PUBLIC	?Num@?$List@UHotkeyInfo@@@@QBEIXZ		; List<HotkeyInfo>::Num
PUBLIC	??1?$List@UHotkeyInfo@@@@QAE@XZ			; List<HotkeyInfo>::~List<HotkeyInfo>
PUBLIC	??0?$List@UHotkeyInfo@@@@QAE@XZ			; List<HotkeyInfo>::List<HotkeyInfo>
PUBLIC	??A?$List@UStreamInfo@@@@QAEAAUStreamInfo@@I@Z	; List<StreamInfo>::operator[]
PUBLIC	?CreateNew@?$List@UStreamInfo@@@@QAEPAUStreamInfo@@XZ ; List<StreamInfo>::CreateNew
PUBLIC	?Clear@?$List@UStreamInfo@@@@QAEXXZ		; List<StreamInfo>::Clear
PUBLIC	?Remove@?$List@UStreamInfo@@@@QAEXI@Z		; List<StreamInfo>::Remove
PUBLIC	?Num@?$List@UStreamInfo@@@@QBEIXZ		; List<StreamInfo>::Num
PUBLIC	??A?$List@UGlobalSourceInfo@@@@QAEAAUGlobalSourceInfo@@I@Z ; List<GlobalSourceInfo>::operator[]
PUBLIC	?Num@?$List@UGlobalSourceInfo@@@@QBEIXZ		; List<GlobalSourceInfo>::Num
PUBLIC	??H?$List@UClassInfo@@@@QBEPAUClassInfo@@I@Z	; List<ClassInfo>::operator+
PUBLIC	??A?$List@UClassInfo@@@@QBEAAUClassInfo@@I@Z	; List<ClassInfo>::operator[]
PUBLIC	??A?$List@UClassInfo@@@@QAEAAUClassInfo@@I@Z	; List<ClassInfo>::operator[]
PUBLIC	?CreateNew@?$List@UClassInfo@@@@QAEPAUClassInfo@@XZ ; List<ClassInfo>::CreateNew
PUBLIC	?Num@?$List@UClassInfo@@@@QBEIXZ		; List<ClassInfo>::Num
PUBLIC	??A?$List@PAVAudioSource@@@@QAEAAPAVAudioSource@@I@Z ; List<AudioSource *>::operator[]
PUBLIC	??6?$List@PAVAudioSource@@@@QAEAAV0@ABQAVAudioSource@@@Z ; List<AudioSource *>::operator<<
PUBLIC	?RemoveItem@?$List@PAVAudioSource@@@@QAEXABQAVAudioSource@@@Z ; List<AudioSource *>::RemoveItem
PUBLIC	?Num@?$List@PAVAudioSource@@@@QBEIXZ		; List<AudioSource *>::Num
PUBLIC	??B?$unique_ptr@VNetworkStream@@U?$default_delete@VNetworkStream@@@std@@@std@@QBE_NXZ ; std::unique_ptr<NetworkStream,std::default_delete<NetworkStream> >::operator bool
PUBLIC	??C?$unique_ptr@VNetworkStream@@U?$default_delete@VNetworkStream@@@std@@@std@@QBEPAVNetworkStream@@XZ ; std::unique_ptr<NetworkStream,std::default_delete<NetworkStream> >::operator->
PUBLIC	??A?$List@PAVSceneItem@@@@QAEAAPAVSceneItem@@I@Z ; List<SceneItem *>::operator[]
PUBLIC	?Num@?$List@PAVSceneItem@@@@QBEIXZ		; List<SceneItem *>::Num
PUBLIC	??1?$basic_string@DU?$char_traits@D@std@@V?$allocator@D@2@@std@@QAE@XZ ; std::basic_string<char,std::char_traits<char>,std::allocator<char> >::~basic_string<char,std::char_traits<char>,std::allocator<char> >
PUBLIC	??0?$basic_string@DU?$char_traits@D@std@@V?$allocator@D@2@@std@@QAE@PBD@Z ; std::basic_string<char,std::char_traits<char>,std::allocator<char> >::basic_string<char,std::char_traits<char>,std::allocator<char> >
PUBLIC	?Clear@?$List@K@@QAEXXZ				; List<unsigned long>::Clear
PUBLIC	??1?$List@K@@QAE@XZ				; List<unsigned long>::~List<unsigned long>
PUBLIC	??0?$List@K@@QAE@XZ				; List<unsigned long>::List<unsigned long>
PUBLIC	?GetMicMuted@OBS@@UAE_NXZ			; OBS::GetMicMuted
PUBLIC	?ToggleMicMute@OBS@@UAEXXZ			; OBS::ToggleMicMute
PUBLIC	?GetMicVolume@OBS@@UAEMXZ			; OBS::GetMicVolume
PUBLIC	?SetMicVolume@OBS@@UAEXM_N@Z			; OBS::SetMicVolume
PUBLIC	?GetDesktopMuted@OBS@@UAE_NXZ			; OBS::GetDesktopMuted
PUBLIC	?ToggleDesktopMute@OBS@@UAEXXZ			; OBS::ToggleDesktopMute
PUBLIC	?GetDesktopVolume@OBS@@UAEMXZ			; OBS::GetDesktopVolume
PUBLIC	?SetDesktopVolume@OBS@@UAEXM_N@Z		; OBS::SetDesktopVolume
PUBLIC	?GetMostImportantInfo@OBS@@QAE?AVString@@AAW4StreamInfoPriority@@@Z ; OBS::GetMostImportantInfo
PUBLIC	?RemoveStreamInfo@OBS@@QAEXI@Z			; OBS::RemoveStreamInfo
PUBLIC	?SetStreamInfoPriority@OBS@@QAEXIW4StreamInfoPriority@@@Z ; OBS::SetStreamInfoPriority
PUBLIC	?SetStreamInfo@OBS@@QAEXIPB_W@Z			; OBS::SetStreamInfo
PUBLIC	?AddStreamInfo@OBS@@QAEIPB_WW4StreamInfoPriority@@@Z ; OBS::AddStreamInfo
PUBLIC	?HandleHotkeys@OBSAPIInterface@@AAEXXZ		; OBSAPIInterface::HandleHotkeys
PUBLIC	?DeleteHotkey@OBSAPIInterface@@UAEXI@Z		; OBSAPIInterface::DeleteHotkey
PUBLIC	?CreateHotkey@OBSAPIInterface@@UAEIKP6GXKK_N@ZK@Z ; OBSAPIInterface::CreateHotkey
PUBLIC	?CallHotkey@OBS@@AAEXK_N@Z			; OBS::CallHotkey
PUBLIC	?HotkeyThread@OBS@@CGKPAX@Z			; OBS::HotkeyThread
PUBLIC	?SceneHotkey@@YGXKK_N@Z				; SceneHotkey
PUBLIC	??1OBSAPIInterface@@UAE@XZ			; OBSAPIInterface::~OBSAPIInterface
PUBLIC	??0APIInterface@@QAE@XZ				; APIInterface::APIInterface
PUBLIC	??_GOBSAPIInterface@@UAEPAXI@Z			; OBSAPIInterface::`scalar deleting destructor'
PUBLIC	??0OBSAPIInterface@@QAE@XZ			; OBSAPIInterface::OBSAPIInterface
PUBLIC	?CreateOBSApiInterface@@YAPAVAPIInterface@@XZ	; CreateOBSApiInterface
PUBLIC	?TransitionsEnabled@OBSAPIInterface@@UBE_NXZ	; OBSAPIInterface::TransitionsEnabled
PUBLIC	?EnableTransitions@OBSAPIInterface@@UAEXXZ	; OBSAPIInterface::EnableTransitions
PUBLIC	?DisableTransitions@OBSAPIInterface@@UAEXXZ	; OBSAPIInterface::DisableTransitions
PUBLIC	?GetSceneCollectionNames@OBSAPIInterface@@UBEXAAVStringList@@@Z ; OBSAPIInterface::GetSceneCollectionNames
PUBLIC	?GetSceneCollectionName@OBSAPIInterface@@UBEPB_WXZ ; OBSAPIInterface::GetSceneCollectionName
PUBLIC	?SetSceneCollection@OBSAPIInterface@@UAE_NPB_W0@Z ; OBSAPIInterface::SetSceneCollection
PUBLIC	?GetBytesPerSec@OBSAPIInterface@@UBEIXZ		; OBSAPIInterface::GetBytesPerSec
PUBLIC	?GetTotalStreamTime@OBSAPIInterface@@UBEIXZ	; OBSAPIInterface::GetTotalStreamTime
PUBLIC	?GetFramesDropped@OBSAPIInterface@@UBEIXZ	; OBSAPIInterface::GetFramesDropped
PUBLIC	?GetTotalFrames@OBSAPIInterface@@UBEIXZ		; OBSAPIInterface::GetTotalFrames
PUBLIC	?GetCaptureFPS@OBSAPIInterface@@UBEIXZ		; OBSAPIInterface::GetCaptureFPS
PUBLIC	?GetSampleRateHz@OBSAPIInterface@@UBEIXZ	; OBSAPIInterface::GetSampleRateHz
PUBLIC	?RemoveSettingsPane@OBSAPIInterface@@UAEXPAVSettingsPane@@@Z ; OBSAPIInterface::RemoveSettingsPane
PUBLIC	?AddSettingsPane@OBSAPIInterface@@UAEXPAVSettingsPane@@@Z ; OBSAPIInterface::AddSettingsPane
PUBLIC	?GetCurMicVolumeStats@OBSAPIInterface@@UBEXPAM00@Z ; OBSAPIInterface::GetCurMicVolumeStats
PUBLIC	?GetCurDesktopVolumeStats@OBSAPIInterface@@UBEXPAM00@Z ; OBSAPIInterface::GetCurDesktopVolumeStats
PUBLIC	?GetMicAudioSource@OBSAPIInterface@@UAEPAVAudioSource@@XZ ; OBSAPIInterface::GetMicAudioSource
PUBLIC	?GetDesktopAudioSource@OBSAPIInterface@@UAEPAVAudioSource@@XZ ; OBSAPIInterface::GetDesktopAudioSource
PUBLIC	?GetAuxAudioSource@OBSAPIInterface@@UAEPAVAudioSource@@I@Z ; OBSAPIInterface::GetAuxAudioSource
PUBLIC	?NumAuxAudioSources@OBSAPIInterface@@UBEIXZ	; OBSAPIInterface::NumAuxAudioSources
PUBLIC	?IsTestVersion@OBSAPIInterface@@UBE_NXZ		; OBSAPIInterface::IsTestVersion
PUBLIC	?GetOBSVersion@OBSAPIInterface@@UBEKXZ		; OBSAPIInterface::GetOBSVersion
PUBLIC	?GetMicMuted@OBSAPIInterface@@UAE_NXZ		; OBSAPIInterface::GetMicMuted
PUBLIC	?ToggleMicMute@OBSAPIInterface@@UAEXXZ		; OBSAPIInterface::ToggleMicMute
PUBLIC	?GetMicVolume@OBSAPIInterface@@UAEMXZ		; OBSAPIInterface::GetMicVolume
PUBLIC	?SetMicVolume@OBSAPIInterface@@UAEXM_N@Z	; OBSAPIInterface::SetMicVolume
PUBLIC	?GetDesktopMuted@OBSAPIInterface@@UAE_NXZ	; OBSAPIInterface::GetDesktopMuted
PUBLIC	?ToggleDesktopMute@OBSAPIInterface@@UAEXXZ	; OBSAPIInterface::ToggleDesktopMute
PUBLIC	?GetDesktopVolume@OBSAPIInterface@@UAEMXZ	; OBSAPIInterface::GetDesktopVolume
PUBLIC	?SetDesktopVolume@OBSAPIInterface@@UAEXM_N@Z	; OBSAPIInterface::SetDesktopVolume
PUBLIC	?GetAppPath@OBSAPIInterface@@UBEPB_WXZ		; OBSAPIInterface::GetAppPath
PUBLIC	?GetAudioTime@OBSAPIInterface@@UBE_KXZ		; OBSAPIInterface::GetAudioTime
PUBLIC	?RemoveAudioSource@OBSAPIInterface@@UAEXPAVAudioSource@@@Z ; OBSAPIInterface::RemoveAudioSource
PUBLIC	?AddAudioSource@OBSAPIInterface@@UAEXPAVAudioSource@@@Z ; OBSAPIInterface::AddAudioSource
PUBLIC	?UseMultithreadedOptimizations@OBSAPIInterface@@UBE_NXZ ; OBSAPIInterface::UseMultithreadedOptimizations
PUBLIC	?RemoveStreamInfo@OBSAPIInterface@@UAEXI@Z	; OBSAPIInterface::RemoveStreamInfo
PUBLIC	?SetStreamInfoPriority@OBSAPIInterface@@UAEXIW4StreamInfoPriority@@@Z ; OBSAPIInterface::SetStreamInfoPriority
PUBLIC	?SetStreamInfo@OBSAPIInterface@@UAEXIPB_W@Z	; OBSAPIInterface::SetStreamInfo
PUBLIC	?AddStreamInfo@OBSAPIInterface@@UAEIPB_WW4StreamInfoPriority@@@Z ; OBSAPIInterface::AddStreamInfo
PUBLIC	?GetMainWindow@OBSAPIInterface@@UBEPAUHWND__@@XZ ; OBSAPIInterface::GetMainWindow
PUBLIC	?GetPluginDataPath@OBSAPIInterface@@UBE?AVString@@XZ ; OBSAPIInterface::GetPluginDataPath
PUBLIC	?GetAppDataPath@OBSAPIInterface@@UBEPB_WXZ	; OBSAPIInterface::GetAppDataPath
PUBLIC	?GetLanguage@OBSAPIInterface@@UBEPB_WXZ		; OBSAPIInterface::GetLanguage
PUBLIC	?GetRenderFrameIn1To1Mode@OBSAPIInterface@@UBE_NXZ ; OBSAPIInterface::GetRenderFrameIn1To1Mode
PUBLIC	?GetMaxFPS@OBSAPIInterface@@UBEIXZ		; OBSAPIInterface::GetMaxFPS
PUBLIC	?GetFrameToWindowScale@OBSAPIInterface@@UBE?AUVect2@@XZ ; OBSAPIInterface::GetFrameToWindowScale
PUBLIC	?GetWindowToFrameScale@OBSAPIInterface@@UBE?AUVect2@@XZ ; OBSAPIInterface::GetWindowToFrameScale
PUBLIC	?MapFrameToWindowSize@OBSAPIInterface@@UBE?AUVect2@@U2@@Z ; OBSAPIInterface::MapFrameToWindowSize
PUBLIC	?MapWindowToFrameSize@OBSAPIInterface@@UBE?AUVect2@@U2@@Z ; OBSAPIInterface::MapWindowToFrameSize
PUBLIC	?MapFrameToWindowPos@OBSAPIInterface@@UBE?AUVect2@@U2@@Z ; OBSAPIInterface::MapFrameToWindowPos
PUBLIC	?MapWindowToFramePos@OBSAPIInterface@@UBE?AUVect2@@U2@@Z ; OBSAPIInterface::MapWindowToFramePos
PUBLIC	?GetOutputSize@OBSAPIInterface@@UBEXAAI0@Z	; OBSAPIInterface::GetOutputSize
PUBLIC	?GetRenderFrameControlSize@OBSAPIInterface@@UBEXAAI0@Z ; OBSAPIInterface::GetRenderFrameControlSize
PUBLIC	?GetRenderFrameOffset@OBSAPIInterface@@UBEXAAI0@Z ; OBSAPIInterface::GetRenderFrameOffset
PUBLIC	?GetRenderFrameSize@OBSAPIInterface@@UBEXAAI0@Z	; OBSAPIInterface::GetRenderFrameSize
PUBLIC	?GetBaseSize@OBSAPIInterface@@UBEXAAI0@Z	; OBSAPIInterface::GetBaseSize
PUBLIC	?GetOutputSize@OBSAPIInterface@@UBE?AUVect2@@XZ	; OBSAPIInterface::GetOutputSize
PUBLIC	?GetRenderFrameControlSize@OBSAPIInterface@@UBE?AUVect2@@XZ ; OBSAPIInterface::GetRenderFrameControlSize
PUBLIC	?GetRenderFrameOffset@OBSAPIInterface@@UBE?AUVect2@@XZ ; OBSAPIInterface::GetRenderFrameOffset
PUBLIC	?GetRenderFrameSize@OBSAPIInterface@@UBE?AUVect2@@XZ ; OBSAPIInterface::GetRenderFrameSize
PUBLIC	?GetBaseSize@OBSAPIInterface@@UBE?AUVect2@@XZ	; OBSAPIInterface::GetBaseSize
PUBLIC	?GetSceneElement@OBSAPIInterface@@UAEPAVXElement@@XZ ; OBSAPIInterface::GetSceneElement
PUBLIC	?GetSceneName@OBSAPIInterface@@UBEPB_WXZ	; OBSAPIInterface::GetSceneName
PUBLIC	?GetScene@OBSAPIInterface@@UBEPAVScene@@XZ	; OBSAPIInterface::GetScene
PUBLIC	?SetScene@OBSAPIInterface@@UAE_NPB_W_N@Z	; OBSAPIInterface::SetScene
PUBLIC	?SetSourceRender@OBSAPIInterface@@UAEXPB_W_N@Z	; OBSAPIInterface::SetSourceRender
PUBLIC	?SetSourceOrder@OBSAPIInterface@@UAEXAAVStringList@@@Z ; OBSAPIInterface::SetSourceOrder
PUBLIC	?GetGlobalSourceListElement@OBSAPIInterface@@UAEPAVXElement@@XZ ; OBSAPIInterface::GetGlobalSourceListElement
PUBLIC	?GetSceneListElement@OBSAPIInterface@@UAEPAVXElement@@XZ ; OBSAPIInterface::GetSceneListElement
PUBLIC	?CreateImageSource@OBSAPIInterface@@UAEPAVImageSource@@PB_WPAVXElement@@@Z ; OBSAPIInterface::CreateImageSource
PUBLIC	?RegisterImageSourceClass@OBSAPIInterface@@UAEXPB_W0P6GPAXPAVXElement@@@ZP6G_N1_N@Z@Z ; OBSAPIInterface::RegisterImageSourceClass
PUBLIC	?RegisterSceneClass@OBSAPIInterface@@UAEXPB_W0P6GPAXPAVXElement@@@ZP6G_N1_N@Z@Z ; OBSAPIInterface::RegisterSceneClass
PUBLIC	?GetKeepRecording@OBSAPIInterface@@UBE_NXZ	; OBSAPIInterface::GetKeepRecording
PUBLIC	?GetRecordingReplayBuffer@OBSAPIInterface@@UBE_NXZ ; OBSAPIInterface::GetRecordingReplayBuffer
PUBLIC	?GetRecording@OBSAPIInterface@@UBE_NXZ		; OBSAPIInterface::GetRecording
PUBLIC	?GetPreviewOnly@OBSAPIInterface@@UAE_NXZ	; OBSAPIInterface::GetPreviewOnly
PUBLIC	?GetStreaming@OBSAPIInterface@@UAE_NXZ		; OBSAPIInterface::GetStreaming
PUBLIC	?SaveReplayBuffer@OBSAPIInterface@@UAEXXZ	; OBSAPIInterface::SaveReplayBuffer
PUBLIC	?StartStopRecordingReplayBuffer@OBSAPIInterface@@UAEXXZ ; OBSAPIInterface::StartStopRecordingReplayBuffer
PUBLIC	?StartStopRecording@OBSAPIInterface@@UAEXXZ	; OBSAPIInterface::StartStopRecording
PUBLIC	?StartStopPreview@OBSAPIInterface@@UAEXXZ	; OBSAPIInterface::StartStopPreview
PUBLIC	?StartStopStream@OBSAPIInterface@@UAEXXZ	; OBSAPIInterface::StartStopStream
PUBLIC	?LeaveSceneMutex@OBSAPIInterface@@UAEXXZ	; OBSAPIInterface::LeaveSceneMutex
PUBLIC	?EnterSceneMutex@OBSAPIInterface@@UAEXXZ	; OBSAPIInterface::EnterSceneMutex
PUBLIC	?SetCanOptimizeSettings@OBSAPIInterface@@EAEX_N@Z ; OBSAPIInterface::SetCanOptimizeSettings
PUBLIC	?SetAbortApplySettings@OBSAPIInterface@@EAEX_N@Z ; OBSAPIInterface::SetAbortApplySettings
PUBLIC	?SetChangedSettings@OBSAPIInterface@@EAEX_N@Z	; OBSAPIInterface::SetChangedSettings
PUBLIC	?SetSceneCollection@OBS@@UAE_NPB_W@Z		; OBS::SetSceneCollection
PUBLIC	?SetScene@OBS@@UAE_NPB_W@Z			; OBS::SetScene
PUBLIC	?InsertSourceItem@OBS@@UAEXIPA_W_N@Z		; OBS::InsertSourceItem
PUBLIC	?CreateImageSource@OBS@@UAEPAVImageSource@@PB_WPAVXElement@@@Z ; OBS::CreateImageSource
PUBLIC	?CreateScene@OBS@@AAEPAVScene@@PB_WPAVXElement@@@Z ; OBS::CreateScene
PUBLIC	?RegisterImageSourceClass@OBS@@UAEXPB_W0P6GPAXPAVXElement@@@ZP6G_N1_N@Z3@Z ; OBS::RegisterImageSourceClass
PUBLIC	?RegisterSceneClass@OBS@@UAEXPB_W0P6GPAXPAVXElement@@@ZP6G_N1_N@Z3@Z ; OBS::RegisterSceneClass
PUBLIC	?GetCurrentSceneCollection@OBS@@SAPB_WXZ	; OBS::GetCurrentSceneCollection
PUBLIC	?GetSceneElement@OBS@@QBEPAVXElement@@XZ	; OBS::GetSceneElement
PUBLIC	?LeaveSceneMutex@OBS@@QAEXXZ			; OBS::LeaveSceneMutex
PUBLIC	?EnterSceneMutex@OBS@@QAEXXZ			; OBS::EnterSceneMutex
PUBLIC	?GetOutputSize@OBS@@QBEXAAI0@Z			; OBS::GetOutputSize
PUBLIC	?GetRenderFrameControlSize@OBS@@QBEXAAI0@Z	; OBS::GetRenderFrameControlSize
PUBLIC	?GetRenderFrameOffset@OBS@@QBEXAAI0@Z		; OBS::GetRenderFrameOffset
PUBLIC	?GetRenderFrameSize@OBS@@QBEXAAI0@Z		; OBS::GetRenderFrameSize
PUBLIC	?GetVideoTime@OBS@@QBE_KXZ			; OBS::GetVideoTime
PUBLIC	?GetAudioTime@OBS@@QBE_KXZ			; OBS::GetAudioTime
PUBLIC	?GetSampleRateHz@OBS@@QBEIXZ			; OBS::GetSampleRateHz
PUBLIC	?RemoveAudioSource@OBS@@QAEXPAVAudioSource@@@Z	; OBS::RemoveAudioSource
PUBLIC	?AddAudioSource@OBS@@QAEXPAVAudioSource@@@Z	; OBS::AddAudioSource
PUBLIC	?GetImageSourceClass@OBS@@ABEPAUClassInfo@@PB_W@Z ; OBS::GetImageSourceClass
PUBLIC	?GetSceneClass@OBS@@ABEPAUClassInfo@@PB_W@Z	; OBS::GetSceneClass
PUBLIC	?GetGlobalSource@OBS@@AAEPAVImageSource@@PB_W@Z	; OBS::GetGlobalSource
PUBLIC	?FreeData@StreamInfo@@QAEXXZ			; StreamInfo::FreeData
PUBLIC	??_GAPIInterface@@UAEPAXI@Z			; APIInterface::`scalar deleting destructor'
PUBLIC	?Invalid02@APIInterface@@UAEXXZ			; APIInterface::Invalid02
PUBLIC	?Invalid01@APIInterface@@UAEXXZ			; APIInterface::Invalid01
PUBLIC	??1APIInterface@@UAE@XZ				; APIInterface::~APIInterface
PUBLIC	?Invalid03@APIInterface@@UBEXXZ			; APIInterface::Invalid03
PUBLIC	?system_category@std@@YAABVerror_category@1@XZ	; std::system_category
PUBLIC	?generic_category@std@@YAABVerror_category@1@XZ	; std::generic_category
PUBLIC	??1_System_error_category@std@@UAE@XZ		; std::_System_error_category::~_System_error_category
PUBLIC	??_G_System_error_category@std@@UAEPAXI@Z	; std::_System_error_category::`scalar deleting destructor'
PUBLIC	?default_error_condition@_System_error_category@std@@UBE?AVerror_condition@2@H@Z ; std::_System_error_category::default_error_condition
PUBLIC	?message@_System_error_category@std@@UBE?AV?$basic_string@DU?$char_traits@D@std@@V?$allocator@D@2@@2@H@Z ; std::_System_error_category::message
PUBLIC	?name@_System_error_category@std@@UBEPBDXZ	; std::_System_error_category::name
PUBLIC	??0_System_error_category@std@@QAE@XZ		; std::_System_error_category::_System_error_category
PUBLIC	??1_Iostream_error_category@std@@UAE@XZ		; std::_Iostream_error_category::~_Iostream_error_category
PUBLIC	??_G_Iostream_error_category@std@@UAEPAXI@Z	; std::_Iostream_error_category::`scalar deleting destructor'
PUBLIC	?message@_Iostream_error_category@std@@UBE?AV?$basic_string@DU?$char_traits@D@std@@V?$allocator@D@2@@2@H@Z ; std::_Iostream_error_category::message
PUBLIC	?name@_Iostream_error_category@std@@UBEPBDXZ	; std::_Iostream_error_category::name
PUBLIC	??0_Iostream_error_category@std@@QAE@XZ		; std::_Iostream_error_category::_Iostream_error_category
PUBLIC	??1_Generic_error_category@std@@UAE@XZ		; std::_Generic_error_category::~_Generic_error_category
PUBLIC	??_G_Generic_error_category@std@@UAEPAXI@Z	; std::_Generic_error_category::`scalar deleting destructor'
PUBLIC	?message@_Generic_error_category@std@@UBE?AV?$basic_string@DU?$char_traits@D@std@@V?$allocator@D@2@@2@H@Z ; std::_Generic_error_category::message
PUBLIC	?name@_Generic_error_category@std@@UBEPBDXZ	; std::_Generic_error_category::name
PUBLIC	??0_Generic_error_category@std@@QAE@XZ		; std::_Generic_error_category::_Generic_error_category
PUBLIC	?equivalent@error_category@std@@UBE_NABVerror_code@2@H@Z ; std::error_category::equivalent
PUBLIC	?equivalent@error_category@std@@UBE_NHABVerror_condition@2@@Z ; std::error_category::equivalent
PUBLIC	?default_error_condition@error_category@std@@UBE?AVerror_condition@2@H@Z ; std::error_category::default_error_condition
PUBLIC	??8error_condition@std@@QBE_NABV01@@Z		; std::error_condition::operator==
PUBLIC	?category@error_condition@std@@QBEABVerror_category@2@XZ ; std::error_condition::category
PUBLIC	?value@error_condition@std@@QBEHXZ		; std::error_condition::value
PUBLIC	??0error_condition@std@@QAE@HABVerror_category@1@@Z ; std::error_condition::error_condition
PUBLIC	?category@error_code@std@@QBEABVerror_category@2@XZ ; std::error_code::category
PUBLIC	?value@error_code@std@@QBEHXZ			; std::error_code::value
PUBLIC	??_Gerror_category@std@@UAEPAXI@Z		; std::error_category::`scalar deleting destructor'
PUBLIC	??8error_category@std@@QBE_NABV01@@Z		; std::error_category::operator==
PUBLIC	??1error_category@std@@UAE@XZ			; std::error_category::~error_category
PUBLIC	??0error_category@std@@QAE@XZ			; std::error_category::error_category
PUBLIC	??0id@locale@std@@QAE@I@Z			; std::locale::id::id
PUBLIC	??0_Ignore@std@@QAE@XZ				; std::_Ignore::_Ignore
PUBLIC	?assign@?$char_traits@D@std@@SAXAADABD@Z	; std::char_traits<char>::assign
PUBLIC	?move@?$char_traits@D@std@@SAPADPADPBDI@Z	; std::char_traits<char>::move
PUBLIC	?copy@?$char_traits@D@std@@SAPADPADPBDI@Z	; std::char_traits<char>::copy
PUBLIC	?length@?$char_traits@D@std@@SAIPBD@Z		; std::char_traits<char>::length
PUBLIC	??3@YAXPAX@Z					; operator delete
PUBLIC	??2@YAPAXI@Z					; operator new
PUBLIC	?Free@@YAXPAX@Z					; Free
PUBLIC	?zero@@YGXPAXI@Z				; zero
PUBLIC	??2@YAPAXIPAX@Z					; operator new
PUBLIC	?id@?$num_put@_WV?$back_insert_iterator@V?$basic_string@_WU?$char_traits@_W@std@@V?$allocator@_W@2@@std@@@std@@@std@@2V0locale@2@A ; std::num_put<wchar_t,std::back_insert_iterator<std::basic_string<wchar_t,std::char_traits<wchar_t>,std::allocator<wchar_t> > > >::id
PUBLIC	?_System_object@?$_Error_objects@H@std@@2V_System_error_category@2@A ; std::_Error_objects<int>::_System_object
PUBLIC	?id@?$numpunct@_W@std@@2V0locale@2@A		; std::numpunct<wchar_t>::id
PUBLIC	?id@?$num_put@DV?$back_insert_iterator@V?$basic_string@DU?$char_traits@D@std@@V?$allocator@D@2@@std@@@std@@@std@@2V0locale@2@A ; std::num_put<char,std::back_insert_iterator<std::basic_string<char,std::char_traits<char>,std::allocator<char> > > >::id
PUBLIC	?_Generic_object@?$_Error_objects@H@std@@2V_Generic_error_category@2@A ; std::_Error_objects<int>::_Generic_object
PUBLIC	?id@?$numpunct@D@std@@2V0locale@2@A		; std::numpunct<char>::id
PUBLIC	?_Iostream_object@?$_Error_objects@H@std@@2V_Iostream_error_category@2@A ; std::_Error_objects<int>::_Iostream_object
PUBLIC	__real@00000000
PUBLIC	__real@0000000000000000
PUBLIC	__real@00800000
PUBLIC	__real@38d1b717
PUBLIC	__real@3c23d70a
PUBLIC	__real@3c8efa35
PUBLIC	__real@3d4ccccd
PUBLIC	__real@3dcccccd
PUBLIC	__real@3e112e0be826d695
PUBLIC	__real@3e19999a
PUBLIC	__real@3e7ad7f29abcaf48
PUBLIC	__real@3f000000
PUBLIC	__real@3f50624dd2f1a9fc
PUBLIC	__real@3f800000
PUBLIC	__real@3fa999999999999a
PUBLIC	__real@3ff0000000000000
PUBLIC	__real@3ff028f5c28f5c29
PUBLIC	__real@3ff4000000000000
PUBLIC	__real@3ff8000000000000
PUBLIC	__real@40000000
PUBLIC	__real@4000000000000000
PUBLIC	__real@4000147ae147ae14
PUBLIC	__real@4004666666666666
PUBLIC	__real@4008147ae147ae14
PUBLIC	__real@4014000000000000
PUBLIC	__real@4020000000000000
PUBLIC	__real@4024000000000000
PUBLIC	__real@402e000000000000
PUBLIC	__real@4030000000000000
PUBLIC	__real@4039000000000000
PUBLIC	__real@40400000
PUBLIC	__real@4049000000000000
PUBLIC	__real@4059000000000000
PUBLIC	__real@406fe00000000000
PUBLIC	__real@4079000000000000
PUBLIC	__real@40800000
PUBLIC	__real@408f400000000000
PUBLIC	__real@4090000000000000
PUBLIC	__real@40a00000
PUBLIC	__real@40bc200000000000
PUBLIC	__real@40e0000000000000
PUBLIC	__real@41200000
PUBLIC	__real@41400000
PUBLIC	__real@41a00000
PUBLIC	__real@41a80000
PUBLIC	__real@42000000
PUBLIC	__real@42b40000
PUBLIC	__real@42c80000
PUBLIC	__real@43340000
PUBLIC	__real@437f0000
PUBLIC	__real@43870000
PUBLIC	__real@44160000
PUBLIC	__real@447a0000
PUBLIC	__real@44af0000
PUBLIC	__real@46fa0000
PUBLIC	__real@46fffe00
PUBLIC	__real@7f7fffff
PUBLIC	__real@bf800000
PUBLIC	__real@c08f400000000000
PUBLIC	__real@c2c00000
PUBLIC	__real@c2c80000
PUBLIC	__xmm@0000ff000000ff000000ff000000ff00
PUBLIC	__xmm@00ff00ff00ff00ff00ff00ff00ff00ff
PUBLIC	__xmm@406f80000000000040a8ee0000000000
PUBLIC	__xmm@41f00000000000000000000000000000
PUBLIC	__xmm@46fffe0046fffe0046fffe0046fffe00
PUBLIC	__xmm@7fffffffffffffff7fffffffffffffff
PUBLIC	__xmm@80000000800000008000000080000000
EXTRN	??_E_Generic_error_category@std@@UAEPAXI@Z:PROC	; std::_Generic_error_category::`vector deleting destructor'
EXTRN	??_E_Iostream_error_category@std@@UAEPAXI@Z:PROC ; std::_Iostream_error_category::`vector deleting destructor'
EXTRN	??_E_System_error_category@std@@UAEPAXI@Z:PROC	; std::_System_error_category::`vector deleting destructor'
EXTRN	??_Eerror_category@std@@UAEPAXI@Z:PROC		; std::error_category::`vector deleting destructor'
EXTRN	??_EOBSAPIInterface@@UAEPAXI@Z:PROC		; OBSAPIInterface::`vector deleting destructor'
EXTRN	??_EAPIInterface@@UAEPAXI@Z:PROC		; APIInterface::`vector deleting destructor'
EXTRN	__CxxThrowException@8:PROC
EXTRN	___CxxFrameHandler3:PROC
EXTRN	__alldiv:PROC
EXTRN	__allmul:PROC
EXTRN	__allshl:PROC
EXTRN	__aulldiv:PROC
EXTRN	__aullrem:PROC
EXTRN	__aullshr:PROC
EXTRN	__chkstk:PROC
EXTRN	__dtoui3:PROC
EXTRN	__dtoul3:PROC
EXTRN	__except_handler4:PROC
EXTRN	__ftol2_sse:PROC
EXTRN	__ftoui3:PROC
EXTRN	__libm_sse2_log10_precise:PROC
EXTRN	__libm_sse2_sqrt_precise:PROC
EXTRN	__ltod3:PROC
EXTRN	__ultod3:PROC
EXTRN	_ceil:PROC
EXTRN	_memcmp:PROC
EXTRN	_memcpy:PROC
EXTRN	_memset:PROC
EXTRN	___security_cookie:DWORD
EXTRN	__fltused:DWORD
EXTRN	__tls_array:DWORD
EXTRN	__tls_index:DWORD
;	COMDAT ?id@?$num_put@_WV?$back_insert_iterator@V?$basic_string@_WU?$char_traits@_W@std@@V?$allocator@_W@2@@std@@@std@@@std@@2V0locale@2@A
_BSS	SEGMENT
?id@?$num_put@_WV?$back_insert_iterator@V?$basic_string@_WU?$char_traits@_W@std@@V?$allocator@_W@2@@std@@@std@@@std@@2V0locale@2@A DD 01H DUP (?) ; std::num_put<wchar_t,std::back_insert_iterator<std::basic_string<wchar_t,std::char_traits<wchar_t>,std::allocator<wchar_t> > > >::id
_BSS	ENDS
;	COMDAT ?_System_object@?$_Error_objects@H@std@@2V_System_error_category@2@A
_BSS	SEGMENT
?_System_object@?$_Error_objects@H@std@@2V_System_error_category@2@A DD 01H DUP (?) ; std::_Error_objects<int>::_System_object
__Tuple_alloc DB 01H DUP (?)
_BSS	ENDS
;	COMDAT ?id@?$numpunct@_W@std@@2V0locale@2@A
_BSS	SEGMENT
?id@?$numpunct@_W@std@@2V0locale@2@A DD 01H DUP (?)	; std::numpunct<wchar_t>::id
_BSS	ENDS
;	COMDAT ?id@?$num_put@DV?$back_insert_iterator@V?$basic_string@DU?$char_traits@D@std@@V?$allocator@D@2@@std@@@std@@@std@@2V0locale@2@A
_BSS	SEGMENT
?id@?$num_put@DV?$back_insert_iterator@V?$basic_string@DU?$char_traits@D@std@@V?$allocator@D@2@@std@@@std@@@std@@2V0locale@2@A DD 01H DUP (?) ; std::num_put<char,std::back_insert_iterator<std::basic_string<char,std::char_traits<char>,std::allocator<char> > > >::id
_BSS	ENDS
;	COMDAT ?_Generic_object@?$_Error_objects@H@std@@2V_Generic_error_category@2@A
_BSS	SEGMENT
?_Generic_object@?$_Error_objects@H@std@@2V_Generic_error_category@2@A DD 01H DUP (?) ; std::_Error_objects<int>::_Generic_object
_BSS	ENDS
;	COMDAT ?id@?$numpunct@D@std@@2V0locale@2@A
_BSS	SEGMENT
?id@?$numpunct@D@std@@2V0locale@2@A DD 01H DUP (?)	; std::numpunct<char>::id
	ALIGN	4

_ignore	DB	01H DUP (?)
	ALIGN	4

_allocator_arg DB 01H DUP (?)
	ALIGN	4

_piecewise_construct DB 01H DUP (?)
_BSS	ENDS
;	COMDAT ?allow_other_hotkey_modifiers@?1??HandleHotkeys@OBSAPIInterface@@AAEXXZ@4_NA
_BSS	SEGMENT
?allow_other_hotkey_modifiers@?1??HandleHotkeys@OBSAPIInterface@@AAEXXZ@4_NA DB 01H DUP (?) ; `OBSAPIInterface::HandleHotkeys'::`2'::allow_other_hotkey_modifiers
_BSS	ENDS
;	COMDAT ?_Iostream_object@?$_Error_objects@H@std@@2V_Iostream_error_category@2@A
_BSS	SEGMENT
?_Iostream_object@?$_Error_objects@H@std@@2V_Iostream_error_category@2@A DD 01H DUP (?) ; std::_Error_objects<int>::_Iostream_object
_BSS	ENDS
;	COMDAT ?uplay_overlay_compatibility@?1??HandleHotkeys@OBSAPIInterface@@AAEXXZ@4_NA
_BSS	SEGMENT
?uplay_overlay_compatibility@?1??HandleHotkeys@OBSAPIInterface@@AAEXXZ@4_NA DB 01H DUP (?) ; `OBSAPIInterface::HandleHotkeys'::`2'::uplay_overlay_compatibility
_BSS	ENDS
CRT$XCU	SEGMENT
_piecewise_construct$initializer$ DD FLAT:??__Epiecewise_construct@std@@YAXXZ
;	COMDAT __xmm@80000000800000008000000080000000
CONST	SEGMENT
__xmm@80000000800000008000000080000000 DB 00H, 00H, 00H, 080H, 00H, 00H, 00H
	DB	080H, 00H, 00H, 00H, 080H, 00H, 00H, 00H, 080H
CONST	ENDS
;	COMDAT __xmm@7fffffffffffffff7fffffffffffffff
CONST	SEGMENT
__xmm@7fffffffffffffff7fffffffffffffff DB 0ffH, 0ffH, 0ffH, 0ffH, 0ffH, 0ffH
	DB	0ffH, 07fH, 0ffH, 0ffH, 0ffH, 0ffH, 0ffH, 0ffH, 0ffH, 07fH
CONST	ENDS
;	COMDAT __xmm@46fffe0046fffe0046fffe0046fffe00
CONST	SEGMENT
__xmm@46fffe0046fffe0046fffe0046fffe00 DB 00H, 0feH, 0ffH, 'F', 00H, 0feH
	DB	0ffH, 'F', 00H, 0feH, 0ffH, 'F', 00H, 0feH, 0ffH, 'F'
CONST	ENDS
;	COMDAT __xmm@41f00000000000000000000000000000
CONST	SEGMENT
__xmm@41f00000000000000000000000000000 DB 00H, 00H, 00H, 00H, 00H, 00H, 00H
	DB	00H, 00H, 00H, 00H, 00H, 00H, 00H, 0f0H, 'A'
CONST	ENDS
;	COMDAT __xmm@406f80000000000040a8ee0000000000
CONST	SEGMENT
__xmm@406f80000000000040a8ee0000000000 DB 00H, 00H, 00H, 00H, 00H, 0eeH, 0a8H
	DB	'@', 00H, 00H, 00H, 00H, 00H, 080H, 'o@'
CONST	ENDS
;	COMDAT __xmm@00ff00ff00ff00ff00ff00ff00ff00ff
CONST	SEGMENT
__xmm@00ff00ff00ff00ff00ff00ff00ff00ff DB 0ffH, 00H, 0ffH, 00H, 0ffH, 00H
	DB	0ffH, 00H, 0ffH, 00H, 0ffH, 00H, 0ffH, 00H, 0ffH, 00H
CONST	ENDS
;	COMDAT __xmm@0000ff000000ff000000ff000000ff00
CONST	SEGMENT
__xmm@0000ff000000ff000000ff000000ff00 DB 00H, 0ffH, 00H, 00H, 00H, 0ffH, 00H
	DB	00H, 00H, 0ffH, 00H, 00H, 00H, 0ffH, 00H, 00H
CONST	ENDS
;	COMDAT __real@c2c80000
CONST	SEGMENT
__real@c2c80000 DD 0c2c80000r			; -100
CONST	ENDS
;	COMDAT __real@c2c00000
CONST	SEGMENT
__real@c2c00000 DD 0c2c00000r			; -96
CONST	ENDS
;	COMDAT __real@c08f400000000000
CONST	SEGMENT
__real@c08f400000000000 DQ 0c08f400000000000r	; -1000
CONST	ENDS
;	COMDAT __real@bf800000
CONST	SEGMENT
__real@bf800000 DD 0bf800000r			; -1
CONST	ENDS
;	COMDAT __real@7f7fffff
CONST	SEGMENT
__real@7f7fffff DD 07f7fffffr			; 3.40282e+038
CONST	ENDS
;	COMDAT __real@46fffe00
CONST	SEGMENT
__real@46fffe00 DD 046fffe00r			; 32767
CONST	ENDS
;	COMDAT __real@46fa0000
CONST	SEGMENT
__real@46fa0000 DD 046fa0000r			; 32000
CONST	ENDS
;	COMDAT __real@44af0000
CONST	SEGMENT
__real@44af0000 DD 044af0000r			; 1400
CONST	ENDS
;	COMDAT __real@447a0000
CONST	SEGMENT
__real@447a0000 DD 0447a0000r			; 1000
CONST	ENDS
;	COMDAT __real@44160000
CONST	SEGMENT
__real@44160000 DD 044160000r			; 600
CONST	ENDS
;	COMDAT __real@43870000
CONST	SEGMENT
__real@43870000 DD 043870000r			; 270
CONST	ENDS
;	COMDAT __real@437f0000
CONST	SEGMENT
__real@437f0000 DD 0437f0000r			; 255
CONST	ENDS
;	COMDAT __real@43340000
CONST	SEGMENT
__real@43340000 DD 043340000r			; 180
CONST	ENDS
;	COMDAT __real@42c80000
CONST	SEGMENT
__real@42c80000 DD 042c80000r			; 100
CONST	ENDS
;	COMDAT __real@42b40000
CONST	SEGMENT
__real@42b40000 DD 042b40000r			; 90
CONST	ENDS
;	COMDAT __real@42000000
CONST	SEGMENT
__real@42000000 DD 042000000r			; 32
CONST	ENDS
;	COMDAT __real@41a80000
CONST	SEGMENT
__real@41a80000 DD 041a80000r			; 21
CONST	ENDS
;	COMDAT __real@41a00000
CONST	SEGMENT
__real@41a00000 DD 041a00000r			; 20
CONST	ENDS
;	COMDAT __real@41400000
CONST	SEGMENT
__real@41400000 DD 041400000r			; 12
CONST	ENDS
;	COMDAT __real@41200000
CONST	SEGMENT
__real@41200000 DD 041200000r			; 10
CONST	ENDS
;	COMDAT __real@40e0000000000000
CONST	SEGMENT
__real@40e0000000000000 DQ 040e0000000000000r	; 32768
CONST	ENDS
;	COMDAT __real@40bc200000000000
CONST	SEGMENT
__real@40bc200000000000 DQ 040bc200000000000r	; 7200
CONST	ENDS
;	COMDAT __real@40a00000
CONST	SEGMENT
__real@40a00000 DD 040a00000r			; 5
CONST	ENDS
;	COMDAT __real@4090000000000000
CONST	SEGMENT
__real@4090000000000000 DQ 04090000000000000r	; 1024
CONST	ENDS
;	COMDAT __real@408f400000000000
CONST	SEGMENT
__real@408f400000000000 DQ 0408f400000000000r	; 1000
CONST	ENDS
;	COMDAT __real@40800000
CONST	SEGMENT
__real@40800000 DD 040800000r			; 4
CONST	ENDS
;	COMDAT __real@4079000000000000
CONST	SEGMENT
__real@4079000000000000 DQ 04079000000000000r	; 400
CONST	ENDS
;	COMDAT __real@406fe00000000000
CONST	SEGMENT
__real@406fe00000000000 DQ 0406fe00000000000r	; 255
CONST	ENDS
;	COMDAT __real@4059000000000000
CONST	SEGMENT
__real@4059000000000000 DQ 04059000000000000r	; 100
CONST	ENDS
;	COMDAT __real@4049000000000000
CONST	SEGMENT
__real@4049000000000000 DQ 04049000000000000r	; 50
CONST	ENDS
;	COMDAT __real@40400000
CONST	SEGMENT
__real@40400000 DD 040400000r			; 3
CONST	ENDS
;	COMDAT __real@4039000000000000
CONST	SEGMENT
__real@4039000000000000 DQ 04039000000000000r	; 25
CONST	ENDS
;	COMDAT __real@4030000000000000
CONST	SEGMENT
__real@4030000000000000 DQ 04030000000000000r	; 16
CONST	ENDS
;	COMDAT __real@402e000000000000
CONST	SEGMENT
__real@402e000000000000 DQ 0402e000000000000r	; 15
CONST	ENDS
;	COMDAT __real@4024000000000000
CONST	SEGMENT
__real@4024000000000000 DQ 04024000000000000r	; 10
CONST	ENDS
;	COMDAT __real@4020000000000000
CONST	SEGMENT
__real@4020000000000000 DQ 04020000000000000r	; 8
CONST	ENDS
;	COMDAT __real@4014000000000000
CONST	SEGMENT
__real@4014000000000000 DQ 04014000000000000r	; 5
CONST	ENDS
;	COMDAT __real@4008147ae147ae14
CONST	SEGMENT
__real@4008147ae147ae14 DQ 04008147ae147ae14r	; 3.01
CONST	ENDS
;	COMDAT __real@4004666666666666
CONST	SEGMENT
__real@4004666666666666 DQ 04004666666666666r	; 2.55
CONST	ENDS
;	COMDAT __real@4000147ae147ae14
CONST	SEGMENT
__real@4000147ae147ae14 DQ 04000147ae147ae14r	; 2.01
CONST	ENDS
;	COMDAT __real@4000000000000000
CONST	SEGMENT
__real@4000000000000000 DQ 04000000000000000r	; 2
CONST	ENDS
;	COMDAT __real@40000000
CONST	SEGMENT
__real@40000000 DD 040000000r			; 2
CONST	ENDS
;	COMDAT __real@3ff8000000000000
CONST	SEGMENT
__real@3ff8000000000000 DQ 03ff8000000000000r	; 1.5
CONST	ENDS
;	COMDAT __real@3ff4000000000000
CONST	SEGMENT
__real@3ff4000000000000 DQ 03ff4000000000000r	; 1.25
CONST	ENDS
;	COMDAT __real@3ff028f5c28f5c29
CONST	SEGMENT
__real@3ff028f5c28f5c29 DQ 03ff028f5c28f5c29r	; 1.01
CONST	ENDS
;	COMDAT __real@3ff0000000000000
CONST	SEGMENT
__real@3ff0000000000000 DQ 03ff0000000000000r	; 1
CONST	ENDS
;	COMDAT __real@3fa999999999999a
CONST	SEGMENT
__real@3fa999999999999a DQ 03fa999999999999ar	; 0.05
CONST	ENDS
;	COMDAT __real@3f800000
CONST	SEGMENT
__real@3f800000 DD 03f800000r			; 1
CONST	ENDS
;	COMDAT __real@3f50624dd2f1a9fc
CONST	SEGMENT
__real@3f50624dd2f1a9fc DQ 03f50624dd2f1a9fcr	; 0.001
CONST	ENDS
;	COMDAT __real@3f000000
CONST	SEGMENT
__real@3f000000 DD 03f000000r			; 0.5
CONST	ENDS
;	COMDAT __real@3e7ad7f29abcaf48
CONST	SEGMENT
__real@3e7ad7f29abcaf48 DQ 03e7ad7f29abcaf48r	; 1e-007
CONST	ENDS
;	COMDAT __real@3e19999a
CONST	SEGMENT
__real@3e19999a DD 03e19999ar			; 0.15
CONST	ENDS
;	COMDAT __real@3e112e0be826d695
CONST	SEGMENT
__real@3e112e0be826d695 DQ 03e112e0be826d695r	; 1e-009
CONST	ENDS
;	COMDAT __real@3dcccccd
CONST	SEGMENT
__real@3dcccccd DD 03dcccccdr			; 0.1
CONST	ENDS
;	COMDAT __real@3d4ccccd
CONST	SEGMENT
__real@3d4ccccd DD 03d4ccccdr			; 0.05
CONST	ENDS
;	COMDAT __real@3c8efa35
CONST	SEGMENT
__real@3c8efa35 DD 03c8efa35r			; 0.0174533
CONST	ENDS
;	COMDAT __real@3c23d70a
CONST	SEGMENT
__real@3c23d70a DD 03c23d70ar			; 0.01
CONST	ENDS
;	COMDAT __real@38d1b717
CONST	SEGMENT
__real@38d1b717 DD 038d1b717r			; 0.0001
CONST	ENDS
;	COMDAT __real@00800000
CONST	SEGMENT
__real@00800000 DD 000800000r			; 1.17549e-038
CONST	ENDS
;	COMDAT __real@0000000000000000
CONST	SEGMENT
__real@0000000000000000 DQ 00000000000000000r	; 0
CONST	ENDS
;	COMDAT __real@00000000
CONST	SEGMENT
__real@00000000 DD 000000000r			; 0
CONST	ENDS
;	COMDAT xdata$x
xdata$x	SEGMENT
__ehfuncinfo$?_Copy@?$basic_string@DU?$char_traits@D@std@@V?$allocator@D@2@@std@@QAEXII@Z DD 019930522H
	DD	04H
	DD	FLAT:__unwindtable$?_Copy@?$basic_string@DU?$char_traits@D@std@@V?$allocator@D@2@@std@@QAEXII@Z
	DD	02H
	DD	FLAT:__tryblocktable$?_Copy@?$basic_string@DU?$char_traits@D@std@@V?$allocator@D@2@@std@@QAEXII@Z
	DD	2 DUP(00H)
	DD	00H
	DD	00H
__unwindtable$?_Copy@?$basic_string@DU?$char_traits@D@std@@V?$allocator@D@2@@std@@QAEXII@Z DD 0ffffffffH
	DD	00H
	DD	0ffffffffH
	DD	00H
	DD	01H
	DD	00H
	DD	01H
	DD	00H
__tryblocktable$?_Copy@?$basic_string@DU?$char_traits@D@std@@V?$allocator@D@2@@std@@QAEXII@Z DD 02H
	DD	02H
	DD	03H
	DD	01H
	DD	FLAT:__catchsym$?_Copy@?$basic_string@DU?$char_traits@D@std@@V?$allocator@D@2@@std@@QAEXII@Z$4
	DD	00H
	DD	00H
	DD	03H
	DD	01H
	DD	FLAT:__catchsym$?_Copy@?$basic_string@DU?$char_traits@D@std@@V?$allocator@D@2@@std@@QAEXII@Z$5
__catchsym$?_Copy@?$basic_string@DU?$char_traits@D@std@@V?$allocator@D@2@@std@@QAEXII@Z$4 DD 00H
	DD	00H
	DD	00H
	DD	FLAT:__catch$?_Copy@?$basic_string@DU?$char_traits@D@std@@V?$allocator@D@2@@std@@QAEXII@Z$1
__catchsym$?_Copy@?$basic_string@DU?$char_traits@D@std@@V?$allocator@D@2@@std@@QAEXII@Z$5 DD 00H
	DD	00H
	DD	00H
	DD	FLAT:__catch$?_Copy@?$basic_string@DU?$char_traits@D@std@@V?$allocator@D@2@@std@@QAEXII@Z$0
xdata$x	ENDS
CRT$XCU	SEGMENT
_allocator_arg$initializer$ DD FLAT:??__Eallocator_arg@std@@YAXXZ
CRT$XCU	ENDS
CRT$XCU	SEGMENT
_ignore$initializer$ DD FLAT:??__Eignore@std@@YAXXZ
CRT$XCU	ENDS
CRT$XCU	SEGMENT
__Tuple_alloc$initializer$ DD FLAT:??__E_Tuple_alloc@std@@YAXXZ
CRT$XCU	ENDS
;	COMDAT CRT$XCU
CRT$XCU	SEGMENT
?_Generic_object$initializer$@?$_Error_objects@H@std@@2P6AXXZA DD FLAT:??__E?_Generic_object@?$_Error_objects@H@std@@2V_Generic_error_category@2@A@@YAXXZ ; std::_Error_objects<int>::_Generic_object$initializer$
CRT$XCU	ENDS
;	COMDAT CRT$XCU
CRT$XCU	SEGMENT
?_Iostream_object$initializer$@?$_Error_objects@H@std@@2P6AXXZA DD FLAT:??__E?_Iostream_object@?$_Error_objects@H@std@@2V_Iostream_error_category@2@A@@YAXXZ ; std::_Error_objects<int>::_Iostream_object$initializer$
CRT$XCU	ENDS
;	COMDAT CRT$XCU
CRT$XCU	SEGMENT
?_System_object$initializer$@?$_Error_objects@H@std@@2P6AXXZA DD FLAT:??__E?_System_object@?$_Error_objects@H@std@@2V_System_error_category@2@A@@YAXXZ ; std::_Error_objects<int>::_System_object$initializer$
CRT$XCU	ENDS
;	COMDAT CRT$XCU
CRT$XCU	SEGMENT
?id$initializer$@?$num_put@DV?$back_insert_iterator@V?$basic_string@DU?$char_traits@D@std@@V?$allocator@D@2@@std@@@std@@@std@@2P6AXXZA DD FLAT:??__E?id@?$num_put@DV?$back_insert_iterator@V?$basic_string@DU?$char_traits@D@std@@V?$allocator@D@2@@std@@@std@@@std@@2V0locale@2@A@@YAXXZ ; std::num_put<char,std::back_insert_iterator<std::basic_string<char,std::char_traits<char>,std::allocator<char> > > >::id$initializer$
CRT$XCU	ENDS
;	COMDAT CRT$XCU
CRT$XCU	SEGMENT
?id$initializer$@?$num_put@_WV?$back_insert_iterator@V?$basic_string@_WU?$char_traits@_W@std@@V?$allocator@_W@2@@std@@@std@@@std@@2P6AXXZA DD FLAT:??__E?id@?$num_put@_WV?$back_insert_iterator@V?$basic_string@_WU?$char_traits@_W@std@@V?$allocator@_W@2@@std@@@std@@@std@@2V0locale@2@A@@YAXXZ ; std::num_put<wchar_t,std::back_insert_iterator<std::basic_string<wchar_t,std::char_traits<wchar_t>,std::allocator<wchar_t> > > >::id$initializer$
CRT$XCU	ENDS
;	COMDAT CRT$XCU
CRT$XCU	SEGMENT
?id$initializer$@?$numpunct@D@std@@2P6AXXZA DD FLAT:??__E?id@?$numpunct@D@std@@2V0locale@2@A@@YAXXZ ; std::numpunct<char>::id$initializer$
CRT$XCU	ENDS
;	COMDAT CRT$XCU
CRT$XCU	SEGMENT
?id$initializer$@?$numpunct@_W@std@@2P6AXXZA DD FLAT:??__E?id@?$numpunct@_W@std@@2V0locale@2@A@@YAXXZ ; std::numpunct<wchar_t>::id$initializer$
CRT$XCU	ENDS
CRT$XCU	ENDS
CRT$XCU	ENDS
CRT$XCU	ENDS
CRT$XCU	ENDS
CRT$XCU	ENDS
CRT$XCU	ENDS
CRT$XCU	ENDS
CRT$XCU	ENDS
CRT$XCU	ENDS
CRT$XCU	ENDS
CRT$XCU	ENDS
CRT$XCU	ENDS
CRT$XCU	ENDS
CRT$XCU	ENDS
CRT$XCU	ENDS
CRT$XCU	ENDS
CRT$XCU	ENDS
CRT$XCU	ENDS
CRT$XCU	ENDS
CRT$XCU	ENDS
CRT$XCU	ENDS
CRT$XCU	ENDS
CRT$XCU	ENDS
CRT$XCU	ENDS
CRT$XCU	ENDS
CRT$XCU	ENDS
CRT$XCU	ENDS
CRT$XCU	ENDS
CRT$XCU	ENDS
CRT$XCU	ENDS
CRT$XCU	ENDS
CRT$XCU	ENDS
CRT$XCU	ENDS
CRT$XCU	ENDS
CRT$XCU	ENDS
CRT$XCU	ENDS
CRT$XCU	ENDS
CRT$XCU	ENDS
CRT$XCU	ENDS
CRT$XCU	ENDS
CRT$XCU	ENDS
CRT$XCU	ENDS
CRT$XCU	ENDS
CRT$XCU	ENDS
CRT$XCU	ENDS
CRT$XCU	ENDS
CRT$XCU	ENDS
CRT$XCU	ENDS
CRT$XCU	ENDS
CRT$XCU	ENDS
CRT$XCU	ENDS
CRT$XCU	ENDS
CRT$XCU	ENDS
CRT$XCU	ENDS
CRT$XCU	ENDS
CRT$XCU	ENDS
CRT$XCU	ENDS
CRT$XCU	ENDS
CRT$XCU	ENDS
CRT$XCU	ENDS
CRT$XCU	ENDS
CRT$XCU	ENDS
CRT$XCU	ENDS
CRT$XCU	ENDS
CRT$XCU	ENDS
CRT$XCU	ENDS
CRT$XCU	ENDS
CRT$XCU	ENDS
CRT$XCU	ENDS
CRT$XCU	ENDS
CRT$XCU	ENDS
CRT$XCU	ENDS
CRT$XCU	ENDS
CRT$XCU	ENDS
CRT$XCU	ENDS
CRT$XCU	ENDS
CRT$XCU	ENDS
CRT$XCU	ENDS
CRT$XCU	ENDS
CRT$XCU	ENDS
CRT$XCU	ENDS
CRT$XCU	ENDS
CRT$XCU	ENDS
CRT$XCU	ENDS
CRT$XCU	ENDS
CRT$XCU	ENDS
CRT$XCU	ENDS
CRT$XCU	ENDS
CRT$XCU	ENDS
CRT$XCU	ENDS
CRT$XCU	ENDS
CRT$XCU	ENDS
CRT$XCU	ENDS
CRT$XCU	ENDS
CRT$XCU	ENDS
CRT$XCU	ENDS
CRT$XCU	ENDS
CRT$XCU	ENDS
CRT$XCU	ENDS
CRT$XCU	ENDS
CRT$XCU	ENDS
CRT$XCU	ENDS
CRT$XCU	ENDS
CRT$XCU	ENDS
CRT$XCU	ENDS
CRT$XCU	ENDS
CRT$XCU	ENDS
CRT$XCU	ENDS
CRT$XCU	ENDS
CRT$XCU	ENDS
CRT$XCU	ENDS
CRT$XCU	ENDS
CRT$XCU	ENDS
CRT$XCU	ENDS
CRT$XCU	ENDS
CRT$XCU	ENDS
CRT$XCU	ENDS
CRT$XCU	ENDS
CRT$XCU	ENDS
CRT$XCU	ENDS
CRT$XCU	ENDS
CRT$XCU	ENDS
CRT$XCU	ENDS
CRT$XCU	ENDS
CRT$XCU	ENDS
CRT$XCU	ENDS
CRT$XCU	ENDS
CRT$XCU	ENDS
CRT$XCU	ENDS
CRT$XCU	ENDS
CRT$XCU	ENDS
CRT$XCU	ENDS
CRT$XCU	ENDS
CRT$XCU	ENDS
CRT$XCU	ENDS
CRT$XCU	ENDS
CRT$XCU	ENDS
CRT$XCU	ENDS
CRT$XCU	ENDS
CRT$XCU	ENDS
CRT$XCU	ENDS
CRT$XCU	ENDS
CRT$XCU	ENDS
CRT$XCU	ENDS
CRT$XCU	ENDS
CRT$XCU	ENDS
CRT$XCU	ENDS
CRT$XCU	ENDS
CRT$XCU	ENDS
CRT$XCU	ENDS
CRT$XCU	ENDS
CRT$XCU	ENDS
CRT$XCU	ENDS
CRT$XCU	ENDS
CRT$XCU	ENDS
CRT$XCU	ENDS
CRT$XCU	ENDS
CRT$XCU	ENDS
CRT$XCU	ENDS
CRT$XCU	ENDS
CRT$XCU	ENDS
CRT$XCU	ENDS
CRT$XCU	ENDS
CRT$XCU	ENDS
CRT$XCU	ENDS
CRT$XCU	ENDS
CRT$XCU	ENDS
CRT$XCU	ENDS
CRT$XCU	ENDS
CRT$XCU	ENDS
CRT$XCU	ENDS
CRT$XCU	ENDS
CRT$XCU	ENDS
CRT$XCU	ENDS
CRT$XCU	ENDS
CRT$XCU	ENDS
CRT$XCU	ENDS
CRT$XCU	ENDS
CRT$XCU	ENDS
CRT$XCU	ENDS
CRT$XCU	ENDS
CRT$XCU	ENDS
CRT$XCU	ENDS
CRT$XCU	ENDS
CRT$XCU	ENDS
CRT$XCU	ENDS
CRT$XCU	ENDS
CRT$XCU	ENDS
CRT$XCU	ENDS
CRT$XCU	ENDS
CRT$XCU	ENDS
CRT$XCU	ENDS
CRT$XCU	ENDS
CRT$XCU	ENDS
CRT$XCU	ENDS
CRT$XCU	ENDS
CRT$XCU	ENDS
CRT$XCU	ENDS
CRT$XCU	ENDS
CRT$XCU	ENDS
CRT$XCU	ENDS
CRT$XCU	ENDS
CRT$XCU	ENDS
CRT$XCU	ENDS
CRT$XCU	ENDS
CRT$XCU	ENDS
CRT$XCU	ENDS
CRT$XCU	ENDS
CRT$XCU	ENDS
CRT$XCU	ENDS
CRT$XCU	ENDS
; Function compile flags: /Odtp
; File d:\vs2013\vc\include\new
;	COMDAT ??2@YAPAXIPAX@Z
_TEXT	SEGMENT
___formal$ = 8						; size = 4
__Where$ = 12						; size = 4
??2@YAPAXIPAX@Z PROC					; operator new, COMDAT

; 59   : 	{	// construct array with placement at _Where

	push	ebp
	mov	ebp, esp

; 60   : 	return (_Where);

	mov	eax, DWORD PTR __Where$[ebp]

; 61   : 	}

	pop	ebp
	ret	0
??2@YAPAXIPAX@Z ENDP					; operator new
_TEXT	ENDS
; Function compile flags: /Odtp
; File f:\songmm_moon_stone_obs\obs\obsapi\utility\inline.h
;	COMDAT ?zero@@YGXPAXI@Z
_TEXT	SEGMENT
tv72 = -24						; size = 4
tv68 = -20						; size = 4
_destB$ = -16						; size = 4
_iLenMod4$ = -12					; size = 4
_iLenDiv4$ = -8						; size = 4
_destDW$ = -4						; size = 4
_pDest$ = 8						; size = 4
_iLen$ = 12						; size = 4
?zero@@YGXPAXI@Z PROC					; zero, COMDAT

; 200  : {

	push	ebp
	mov	ebp, esp
	sub	esp, 24					; 00000018H

; 201  :     assert(pDest);
; 202  : 
; 203  :     register size_t iLenMod4 = iLen&3;

	mov	eax, DWORD PTR _iLen$[ebp]
	and	eax, 3
	mov	DWORD PTR _iLenMod4$[ebp], eax

; 204  :     register size_t iLenDiv4 = iLen>>2;

	mov	ecx, DWORD PTR _iLen$[ebp]
	shr	ecx, 2
	mov	DWORD PTR _iLenDiv4$[ebp], ecx

; 205  : 
; 206  :     register DWORD *destDW = (DWORD*)pDest;

	mov	edx, DWORD PTR _pDest$[ebp]
	mov	DWORD PTR _destDW$[ebp], edx
$LN4@zero:

; 207  :     while(iLenDiv4--)

	mov	eax, DWORD PTR _iLenDiv4$[ebp]
	mov	DWORD PTR tv68[ebp], eax
	mov	ecx, DWORD PTR _iLenDiv4$[ebp]
	sub	ecx, 1
	mov	DWORD PTR _iLenDiv4$[ebp], ecx
	cmp	DWORD PTR tv68[ebp], 0
	je	SHORT $LN3@zero

; 208  :         *(destDW++) = 0;

	mov	edx, DWORD PTR _destDW$[ebp]
	mov	DWORD PTR [edx], 0
	mov	eax, DWORD PTR _destDW$[ebp]
	add	eax, 4
	mov	DWORD PTR _destDW$[ebp], eax
	jmp	SHORT $LN4@zero
$LN3@zero:

; 209  : 
; 210  :     register BYTE *destB = (BYTE*)destDW;

	mov	ecx, DWORD PTR _destDW$[ebp]
	mov	DWORD PTR _destB$[ebp], ecx
$LN2@zero:

; 211  :     while(iLenMod4--)

	mov	edx, DWORD PTR _iLenMod4$[ebp]
	mov	DWORD PTR tv72[ebp], edx
	mov	eax, DWORD PTR _iLenMod4$[ebp]
	sub	eax, 1
	mov	DWORD PTR _iLenMod4$[ebp], eax
	cmp	DWORD PTR tv72[ebp], 0
	je	SHORT $LN5@zero

; 212  :         *(destB++) = 0;

	mov	ecx, DWORD PTR _destB$[ebp]
	mov	BYTE PTR [ecx], 0
	mov	edx, DWORD PTR _destB$[ebp]
	add	edx, 1
	mov	DWORD PTR _destB$[ebp], edx
	jmp	SHORT $LN2@zero
$LN5@zero:

; 213  : }

	mov	esp, ebp
	pop	ebp
	ret	8
?zero@@YGXPAXI@Z ENDP					; zero
_TEXT	ENDS
; Function compile flags: /Odtp
; File f:\songmm_moon_stone_obs\obs\obsapi\utility\alloc.h
;	COMDAT ?Free@@YAXPAX@Z
_TEXT	SEGMENT
_lpData$ = 8						; size = 4
?Free@@YAXPAX@Z PROC					; Free, COMDAT

; 66   : inline void Free(void *lpData)   {MainAllocator->_Free(lpData);}

	push	ebp
	mov	ebp, esp
	mov	eax, DWORD PTR _lpData$[ebp]
	push	eax
	mov	ecx, DWORD PTR __imp_?MainAllocator@@3PAVAlloc@@A
	mov	edx, DWORD PTR [ecx]
	mov	eax, DWORD PTR __imp_?MainAllocator@@3PAVAlloc@@A
	mov	edx, DWORD PTR [edx]
	mov	ecx, DWORD PTR [eax]
	mov	eax, DWORD PTR [edx+12]
	call	eax
	pop	ebp
	ret	0
?Free@@YAXPAX@Z ENDP					; Free
_TEXT	ENDS
; Function compile flags: /Odtp
; File f:\songmm_moon_stone_obs\obs\obsapi\utility\alloc.h
;	COMDAT ??2@YAPAXI@Z
_TEXT	SEGMENT
_val$ = -4						; size = 4
_dwSize$ = 8						; size = 4
??2@YAPAXI@Z PROC					; operator new, COMDAT

; 88   : {

	push	ebp
	mov	ebp, esp
	push	ecx

; 89   :     void* val = Allocate(dwSize);

	mov	eax, DWORD PTR _dwSize$[ebp]
	push	eax
	mov	ecx, DWORD PTR __imp_?MainAllocator@@3PAVAlloc@@A
	mov	edx, DWORD PTR [ecx]
	mov	eax, DWORD PTR __imp_?MainAllocator@@3PAVAlloc@@A
	mov	edx, DWORD PTR [edx]
	mov	ecx, DWORD PTR [eax]
	mov	eax, DWORD PTR [edx+4]
	call	eax
	mov	DWORD PTR _val$[ebp], eax

; 90   :     zero(val, dwSize);

	mov	ecx, DWORD PTR _dwSize$[ebp]
	push	ecx
	mov	edx, DWORD PTR _val$[ebp]
	push	edx
	call	?zero@@YGXPAXI@Z			; zero

; 91   : 
; 92   :     return val;

	mov	eax, DWORD PTR _val$[ebp]

; 93   : }

	mov	esp, ebp
	pop	ebp
	ret	0
??2@YAPAXI@Z ENDP					; operator new
_TEXT	ENDS
; Function compile flags: /Odtp
; File f:\songmm_moon_stone_obs\obs\obsapi\utility\alloc.h
;	COMDAT ??3@YAXPAX@Z
_TEXT	SEGMENT
_lpData$ = 8						; size = 4
??3@YAXPAX@Z PROC					; operator delete, COMDAT

; 96   : {

	push	ebp
	mov	ebp, esp

; 97   :     Free(lpData);

	mov	eax, DWORD PTR _lpData$[ebp]
	push	eax
	call	?Free@@YAXPAX@Z				; Free
	add	esp, 4

; 98   : }

	pop	ebp
	ret	0
??3@YAXPAX@Z ENDP					; operator delete
_TEXT	ENDS
; Function compile flags: /Odtp
; File d:\vs2013\vc\include\iosfwd
;	COMDAT ?length@?$char_traits@D@std@@SAIPBD@Z
_TEXT	SEGMENT
tv68 = -20						; size = 4
tv75 = -16						; size = 4
tv69 = -12						; size = 4
tv72 = -8						; size = 4
tv78 = -1						; size = 1
__First$ = 8						; size = 4
?length@?$char_traits@D@std@@SAIPBD@Z PROC		; std::char_traits<char>::length, COMDAT

; 521  : 		{	// find length of null-terminated string

	push	ebp
	mov	ebp, esp
	sub	esp, 20					; 00000014H

; 522  : 		return (*_First == 0 ? 0
; 523  : 			: _CSTD strlen(_First));

	mov	eax, DWORD PTR __First$[ebp]
	movsx	ecx, BYTE PTR [eax]
	test	ecx, ecx
	jne	SHORT $LN3@length
	mov	DWORD PTR tv69[ebp], 0
	jmp	SHORT $LN4@length
$LN3@length:
	mov	edx, DWORD PTR __First$[ebp]
	mov	DWORD PTR tv72[ebp], edx
	mov	eax, DWORD PTR tv72[ebp]
	add	eax, 1
	mov	DWORD PTR tv75[ebp], eax
$LL5@length:
	mov	ecx, DWORD PTR tv72[ebp]
	mov	dl, BYTE PTR [ecx]
	mov	BYTE PTR tv78[ebp], dl
	add	DWORD PTR tv72[ebp], 1
	cmp	BYTE PTR tv78[ebp], 0
	jne	SHORT $LL5@length
	mov	eax, DWORD PTR tv72[ebp]
	sub	eax, DWORD PTR tv75[ebp]
	mov	DWORD PTR tv68[ebp], eax
	mov	ecx, DWORD PTR tv68[ebp]
	mov	DWORD PTR tv69[ebp], ecx
$LN4@length:
	mov	eax, DWORD PTR tv69[ebp]

; 524  : 		}

	mov	esp, ebp
	pop	ebp
	ret	0
?length@?$char_traits@D@std@@SAIPBD@Z ENDP		; std::char_traits<char>::length
_TEXT	ENDS
; Function compile flags: /Odtp
; File d:\vs2013\vc\include\iosfwd
;	COMDAT ?copy@?$char_traits@D@std@@SAPADPADPBDI@Z
_TEXT	SEGMENT
tv69 = -4						; size = 4
__First1$ = 8						; size = 4
__First2$ = 12						; size = 4
__Count$ = 16						; size = 4
?copy@?$char_traits@D@std@@SAPADPADPBDI@Z PROC		; std::char_traits<char>::copy, COMDAT

; 528  : 		{	// copy [_First2, _First2 + _Count) to [_First1, ...)

	push	ebp
	mov	ebp, esp
	push	ecx

; 529  : 		return (_Count == 0 ? _First1
; 530  : 			: (_Elem *)_CSTD memcpy(_First1, _First2, _Count));

	cmp	DWORD PTR __Count$[ebp], 0
	jne	SHORT $LN3@copy
	mov	eax, DWORD PTR __First1$[ebp]
	mov	DWORD PTR tv69[ebp], eax
	jmp	SHORT $LN4@copy
$LN3@copy:
	mov	ecx, DWORD PTR __Count$[ebp]
	push	ecx
	mov	edx, DWORD PTR __First2$[ebp]
	push	edx
	mov	eax, DWORD PTR __First1$[ebp]
	push	eax
	call	_memcpy
	add	esp, 12					; 0000000cH
	mov	DWORD PTR tv69[ebp], eax
$LN4@copy:
	mov	eax, DWORD PTR tv69[ebp]

; 531  : 		}

	mov	esp, ebp
	pop	ebp
	ret	0
?copy@?$char_traits@D@std@@SAPADPADPBDI@Z ENDP		; std::char_traits<char>::copy
_TEXT	ENDS
; Function compile flags: /Odtp
; File d:\vs2013\vc\include\iosfwd
;	COMDAT ?move@?$char_traits@D@std@@SAPADPADPBDI@Z
_TEXT	SEGMENT
tv69 = -4						; size = 4
__First1$ = 8						; size = 4
__First2$ = 12						; size = 4
__Count$ = 16						; size = 4
?move@?$char_traits@D@std@@SAPADPADPBDI@Z PROC		; std::char_traits<char>::move, COMDAT

; 551  : 		{	// copy [_First2, _First2 + _Count) to [_First1, ...)

	push	ebp
	mov	ebp, esp
	push	ecx

; 552  : 		return (_Count == 0 ? _First1
; 553  : 			: (_Elem *)_CSTD memmove(_First1, _First2, _Count));

	cmp	DWORD PTR __Count$[ebp], 0
	jne	SHORT $LN3@move
	mov	eax, DWORD PTR __First1$[ebp]
	mov	DWORD PTR tv69[ebp], eax
	jmp	SHORT $LN4@move
$LN3@move:
	mov	ecx, DWORD PTR __Count$[ebp]
	push	ecx
	mov	edx, DWORD PTR __First2$[ebp]
	push	edx
	mov	eax, DWORD PTR __First1$[ebp]
	push	eax
	call	_memmove
	add	esp, 12					; 0000000cH
	mov	DWORD PTR tv69[ebp], eax
$LN4@move:
	mov	eax, DWORD PTR tv69[ebp]

; 554  : 		}

	mov	esp, ebp
	pop	ebp
	ret	0
?move@?$char_traits@D@std@@SAPADPADPBDI@Z ENDP		; std::char_traits<char>::move
_TEXT	ENDS
; Function compile flags: /Odtp
; File d:\vs2013\vc\include\iosfwd
;	COMDAT ?assign@?$char_traits@D@std@@SAXAADABD@Z
_TEXT	SEGMENT
__Left$ = 8						; size = 4
__Right$ = 12						; size = 4
?assign@?$char_traits@D@std@@SAXAADABD@Z PROC		; std::char_traits<char>::assign, COMDAT

; 563  : 		{	// assign an element

	push	ebp
	mov	ebp, esp

; 564  : 		_Left = _Right;

	mov	eax, DWORD PTR __Left$[ebp]
	mov	ecx, DWORD PTR __Right$[ebp]
	mov	dl, BYTE PTR [ecx]
	mov	BYTE PTR [eax], dl

; 565  : 		}

	pop	ebp
	ret	0
?assign@?$char_traits@D@std@@SAXAADABD@Z ENDP		; std::char_traits<char>::assign
_TEXT	ENDS
; Function compile flags: /Odtp
; File d:\vs2013\vc\include\utility
;	COMDAT ??__Epiecewise_construct@std@@YAXXZ
text$di	SEGMENT
$T1 = -1						; size = 1
??__Epiecewise_construct@std@@YAXXZ PROC		; std::`dynamic initializer for 'piecewise_construct'', COMDAT

; 70   : 	piecewise_construct_t();

	push	ebp
	mov	ebp, esp
	push	ecx
	xor	eax, eax
	mov	BYTE PTR $T1[ebp], al
	mov	esp, ebp
	pop	ebp
	ret	0
??__Epiecewise_construct@std@@YAXXZ ENDP		; std::`dynamic initializer for 'piecewise_construct''
text$di	ENDS
; Function compile flags: /Odtp
; File d:\vs2013\vc\include\xutility
;	COMDAT ??__Eallocator_arg@std@@YAXXZ
text$di	SEGMENT
$T1 = -1						; size = 1
??__Eallocator_arg@std@@YAXXZ PROC			; std::`dynamic initializer for 'allocator_arg'', COMDAT

; 3451 : const allocator_arg_t allocator_arg = allocator_arg_t();

	push	ebp
	mov	ebp, esp
	push	ecx
	xor	eax, eax
	mov	BYTE PTR $T1[ebp], al
	mov	esp, ebp
	pop	ebp
	ret	0
??__Eallocator_arg@std@@YAXXZ ENDP			; std::`dynamic initializer for 'allocator_arg''
text$di	ENDS
; Function compile flags: /Odtp
; File d:\vs2013\vc\include\tuple
;	COMDAT ??0_Ignore@std@@QAE@XZ
_TEXT	SEGMENT
_this$ = -4						; size = 4
??0_Ignore@std@@QAE@XZ PROC				; std::_Ignore::_Ignore, COMDAT
; _this$ = ecx

; 49   : 	_Ignore()

	push	ebp
	mov	ebp, esp
	push	ecx
	mov	DWORD PTR _this$[ebp], ecx

; 50   : 		{	// construct
; 51   : 		}

	mov	eax, DWORD PTR _this$[ebp]
	mov	esp, ebp
	pop	ebp
	ret	0
??0_Ignore@std@@QAE@XZ ENDP				; std::_Ignore::_Ignore
_TEXT	ENDS
; Function compile flags: /Odtp
; File d:\vs2013\vc\include\tuple
;	COMDAT ??__Eignore@std@@YAXXZ
text$di	SEGMENT
??__Eignore@std@@YAXXZ PROC				; std::`dynamic initializer for 'ignore'', COMDAT

; 59   : const _Ignore ignore;

	push	ebp
	mov	ebp, esp
	mov	ecx, OFFSET _ignore
	call	??0_Ignore@std@@QAE@XZ			; std::_Ignore::_Ignore
	pop	ebp
	ret	0
??__Eignore@std@@YAXXZ ENDP				; std::`dynamic initializer for 'ignore''
text$di	ENDS
; Function compile flags: /Odtp
; File d:\vs2013\vc\include\tuple
;	COMDAT ??__E_Tuple_alloc@std@@YAXXZ
text$di	SEGMENT
$T1 = -1						; size = 1
??__E_Tuple_alloc@std@@YAXXZ PROC			; std::`dynamic initializer for '_Tuple_alloc'', COMDAT

; 66   : const _Tuple_alloc_t _Tuple_alloc = _Tuple_alloc_t();

	push	ebp
	mov	ebp, esp
	push	ecx
	xor	eax, eax
	mov	BYTE PTR $T1[ebp], al
	mov	esp, ebp
	pop	ebp
	ret	0
??__E_Tuple_alloc@std@@YAXXZ ENDP			; std::`dynamic initializer for '_Tuple_alloc''
text$di	ENDS
; Function compile flags: /Odtp
; File d:\vs2013\vc\include\xlocale
;	COMDAT ??0id@locale@std@@QAE@I@Z
_TEXT	SEGMENT
_this$ = -4						; size = 4
__Val$ = 8						; size = 4
??0id@locale@std@@QAE@I@Z PROC				; std::locale::id::id, COMDAT
; _this$ = ecx

; 74   : 			{	// construct with specified stamp value

	push	ebp
	mov	ebp, esp
	push	ecx
	mov	DWORD PTR _this$[ebp], ecx
	mov	eax, DWORD PTR _this$[ebp]
	mov	ecx, DWORD PTR __Val$[ebp]
	mov	DWORD PTR [eax], ecx

; 75   : 			}

	mov	eax, DWORD PTR _this$[ebp]
	mov	esp, ebp
	pop	ebp
	ret	4
??0id@locale@std@@QAE@I@Z ENDP				; std::locale::id::id
_TEXT	ENDS
; Function compile flags: /Odtp
; File d:\vs2013\vc\include\system_error
;	COMDAT ??0error_category@std@@QAE@XZ
_TEXT	SEGMENT
_this$ = -4						; size = 4
??0error_category@std@@QAE@XZ PROC			; std::error_category::error_category, COMDAT
; _this$ = ecx

; 154  : 	error_category()

	push	ebp
	mov	ebp, esp
	push	ecx
	mov	DWORD PTR _this$[ebp], ecx
	mov	eax, DWORD PTR _this$[ebp]
	mov	DWORD PTR [eax], OFFSET ??_7error_category@std@@6B@

; 155  : 		{	// default constructor
; 156  : 		}

	mov	eax, DWORD PTR _this$[ebp]
	mov	esp, ebp
	pop	ebp
	ret	0
??0error_category@std@@QAE@XZ ENDP			; std::error_category::error_category
_TEXT	ENDS
; Function compile flags: /Odtp
; File d:\vs2013\vc\include\system_error
;	COMDAT ??1error_category@std@@UAE@XZ
_TEXT	SEGMENT
_this$ = -4						; size = 4
??1error_category@std@@UAE@XZ PROC			; std::error_category::~error_category, COMDAT
; _this$ = ecx

; 159  : 		{	// destroy the object

	push	ebp
	mov	ebp, esp
	push	ecx
	mov	DWORD PTR _this$[ebp], ecx
	mov	eax, DWORD PTR _this$[ebp]
	mov	DWORD PTR [eax], OFFSET ??_7error_category@std@@6B@

; 160  : 		}

	mov	esp, ebp
	pop	ebp
	ret	0
??1error_category@std@@UAE@XZ ENDP			; std::error_category::~error_category
_TEXT	ENDS
; Function compile flags: /Odtp
; File d:\vs2013\vc\include\system_error
;	COMDAT ??8error_category@std@@QBE_NABV01@@Z
_TEXT	SEGMENT
_this$ = -8						; size = 4
tv65 = -4						; size = 4
__Right$ = 8						; size = 4
??8error_category@std@@QBE_NABV01@@Z PROC		; std::error_category::operator==, COMDAT
; _this$ = ecx

; 176  : 		{	// compare categories for equality

	push	ebp
	mov	ebp, esp
	sub	esp, 8
	mov	DWORD PTR _this$[ebp], ecx

; 177  : 		return (this == &_Right);

	mov	eax, DWORD PTR _this$[ebp]
	cmp	eax, DWORD PTR __Right$[ebp]
	jne	SHORT $LN3@operator
	mov	DWORD PTR tv65[ebp], 1
	jmp	SHORT $LN4@operator
$LN3@operator:
	mov	DWORD PTR tv65[ebp], 0
$LN4@operator:
	mov	al, BYTE PTR tv65[ebp]

; 178  : 		}

	mov	esp, ebp
	pop	ebp
	ret	4
??8error_category@std@@QBE_NABV01@@Z ENDP		; std::error_category::operator==
_TEXT	ENDS
; Function compile flags: /Odtp
;	COMDAT ??_Gerror_category@std@@UAEPAXI@Z
_TEXT	SEGMENT
_this$ = -4						; size = 4
___flags$ = 8						; size = 4
??_Gerror_category@std@@UAEPAXI@Z PROC			; std::error_category::`scalar deleting destructor', COMDAT
; _this$ = ecx
	push	ebp
	mov	ebp, esp
	push	ecx
	mov	DWORD PTR _this$[ebp], ecx
	mov	ecx, DWORD PTR _this$[ebp]
	call	??1error_category@std@@UAE@XZ		; std::error_category::~error_category
	mov	eax, DWORD PTR ___flags$[ebp]
	and	eax, 1
	je	SHORT $LN1@scalar
	mov	ecx, DWORD PTR _this$[ebp]
	push	ecx
	call	??3@YAXPAX@Z				; operator delete
	add	esp, 4
$LN1@scalar:
	mov	eax, DWORD PTR _this$[ebp]
	mov	esp, ebp
	pop	ebp
	ret	4
??_Gerror_category@std@@UAEPAXI@Z ENDP			; std::error_category::`scalar deleting destructor'
_TEXT	ENDS
; Function compile flags: /Odtp
; File d:\vs2013\vc\include\system_error
;	COMDAT ?value@error_code@std@@QBEHXZ
_TEXT	SEGMENT
_this$ = -4						; size = 4
?value@error_code@std@@QBEHXZ PROC			; std::error_code::value, COMDAT
; _this$ = ecx

; 241  : 		{	// get error code

	push	ebp
	mov	ebp, esp
	push	ecx
	mov	DWORD PTR _this$[ebp], ecx

; 242  : 		return (_Myval);

	mov	eax, DWORD PTR _this$[ebp]
	mov	eax, DWORD PTR [eax]

; 243  : 		}

	mov	esp, ebp
	pop	ebp
	ret	0
?value@error_code@std@@QBEHXZ ENDP			; std::error_code::value
_TEXT	ENDS
; Function compile flags: /Odtp
; File d:\vs2013\vc\include\system_error
;	COMDAT ?category@error_code@std@@QBEABVerror_category@2@XZ
_TEXT	SEGMENT
_this$ = -4						; size = 4
?category@error_code@std@@QBEABVerror_category@2@XZ PROC ; std::error_code::category, COMDAT
; _this$ = ecx

; 246  : 		{	// get category

	push	ebp
	mov	ebp, esp
	push	ecx
	mov	DWORD PTR _this$[ebp], ecx

; 247  : 		return (*_Mycat);

	mov	eax, DWORD PTR _this$[ebp]
	mov	eax, DWORD PTR [eax+4]

; 248  : 		}

	mov	esp, ebp
	pop	ebp
	ret	0
?category@error_code@std@@QBEABVerror_category@2@XZ ENDP ; std::error_code::category
_TEXT	ENDS
; Function compile flags: /Odtp
; File d:\vs2013\vc\include\system_error
;	COMDAT ??0error_condition@std@@QAE@HABVerror_category@1@@Z
_TEXT	SEGMENT
_this$ = -4						; size = 4
__Val$ = 8						; size = 4
__Cat$ = 12						; size = 4
??0error_condition@std@@QAE@HABVerror_category@1@@Z PROC ; std::error_condition::error_condition, COMDAT
; _this$ = ecx

; 299  : 		{	// construct from error code and category

	push	ebp
	mov	ebp, esp
	push	ecx
	mov	DWORD PTR _this$[ebp], ecx
	mov	eax, DWORD PTR _this$[ebp]
	mov	ecx, DWORD PTR __Val$[ebp]
	mov	DWORD PTR [eax], ecx
	mov	edx, DWORD PTR _this$[ebp]
	mov	eax, DWORD PTR __Cat$[ebp]
	mov	DWORD PTR [edx+4], eax

; 300  : 		}

	mov	eax, DWORD PTR _this$[ebp]
	mov	esp, ebp
	pop	ebp
	ret	8
??0error_condition@std@@QAE@HABVerror_category@1@@Z ENDP ; std::error_condition::error_condition
_TEXT	ENDS
; Function compile flags: /Odtp
; File d:\vs2013\vc\include\system_error
;	COMDAT ?value@error_condition@std@@QBEHXZ
_TEXT	SEGMENT
_this$ = -4						; size = 4
?value@error_condition@std@@QBEHXZ PROC			; std::error_condition::value, COMDAT
; _this$ = ecx

; 332  : 		{	// get error code

	push	ebp
	mov	ebp, esp
	push	ecx
	mov	DWORD PTR _this$[ebp], ecx

; 333  : 		return (_Myval);

	mov	eax, DWORD PTR _this$[ebp]
	mov	eax, DWORD PTR [eax]

; 334  : 		}

	mov	esp, ebp
	pop	ebp
	ret	0
?value@error_condition@std@@QBEHXZ ENDP			; std::error_condition::value
_TEXT	ENDS
; Function compile flags: /Odtp
; File d:\vs2013\vc\include\system_error
;	COMDAT ?category@error_condition@std@@QBEABVerror_category@2@XZ
_TEXT	SEGMENT
_this$ = -4						; size = 4
?category@error_condition@std@@QBEABVerror_category@2@XZ PROC ; std::error_condition::category, COMDAT
; _this$ = ecx

; 337  : 		{	// get category

	push	ebp
	mov	ebp, esp
	push	ecx
	mov	DWORD PTR _this$[ebp], ecx

; 338  : 		return (*_Mycat);

	mov	eax, DWORD PTR _this$[ebp]
	mov	eax, DWORD PTR [eax+4]

; 339  : 		}

	mov	esp, ebp
	pop	ebp
	ret	0
?category@error_condition@std@@QBEABVerror_category@2@XZ ENDP ; std::error_condition::category
_TEXT	ENDS
; Function compile flags: /Odtp
; File d:\vs2013\vc\include\system_error
;	COMDAT ??8error_condition@std@@QBE_NABV01@@Z
_TEXT	SEGMENT
tv78 = -8						; size = 4
_this$ = -4						; size = 4
__Right$ = 8						; size = 4
??8error_condition@std@@QBE_NABV01@@Z PROC		; std::error_condition::operator==, COMDAT
; _this$ = ecx

; 352  : 		{	// test if *this == _Right

	push	ebp
	mov	ebp, esp
	sub	esp, 8
	push	esi
	mov	DWORD PTR _this$[ebp], ecx

; 353  : 		return (category() == _Right.category()
; 354  : 			&& value() == _Right.value());

	mov	ecx, DWORD PTR __Right$[ebp]
	call	?category@error_condition@std@@QBEABVerror_category@2@XZ ; std::error_condition::category
	push	eax
	mov	ecx, DWORD PTR _this$[ebp]
	call	?category@error_condition@std@@QBEABVerror_category@2@XZ ; std::error_condition::category
	mov	ecx, eax
	call	??8error_category@std@@QBE_NABV01@@Z	; std::error_category::operator==
	movzx	eax, al
	test	eax, eax
	je	SHORT $LN3@operator
	mov	ecx, DWORD PTR _this$[ebp]
	call	?value@error_condition@std@@QBEHXZ	; std::error_condition::value
	mov	esi, eax
	mov	ecx, DWORD PTR __Right$[ebp]
	call	?value@error_condition@std@@QBEHXZ	; std::error_condition::value
	cmp	esi, eax
	jne	SHORT $LN3@operator
	mov	DWORD PTR tv78[ebp], 1
	jmp	SHORT $LN4@operator
$LN3@operator:
	mov	DWORD PTR tv78[ebp], 0
$LN4@operator:
	mov	al, BYTE PTR tv78[ebp]

; 355  : 		}

	pop	esi
	mov	esp, ebp
	pop	ebp
	ret	4
??8error_condition@std@@QBE_NABV01@@Z ENDP		; std::error_condition::operator==
_TEXT	ENDS
; Function compile flags: /Odtp
; File d:\vs2013\vc\include\system_error
;	COMDAT ?default_error_condition@error_category@std@@UBE?AVerror_condition@2@H@Z
_TEXT	SEGMENT
_this$ = -4						; size = 4
___$ReturnUdt$ = 8					; size = 4
__Errval$ = 12						; size = 4
?default_error_condition@error_category@std@@UBE?AVerror_condition@2@H@Z PROC ; std::error_category::default_error_condition, COMDAT
; _this$ = ecx

; 377  : 	{	// make error_condition for error code

	push	ebp
	mov	ebp, esp
	push	ecx
	mov	DWORD PTR _this$[ebp], ecx

; 378  : 	return (error_condition(_Errval, *this));

	mov	eax, DWORD PTR _this$[ebp]
	push	eax
	mov	ecx, DWORD PTR __Errval$[ebp]
	push	ecx
	mov	ecx, DWORD PTR ___$ReturnUdt$[ebp]
	call	??0error_condition@std@@QAE@HABVerror_category@1@@Z ; std::error_condition::error_condition
	mov	eax, DWORD PTR ___$ReturnUdt$[ebp]

; 379  : 	}

	mov	esp, ebp
	pop	ebp
	ret	8
?default_error_condition@error_category@std@@UBE?AVerror_condition@2@H@Z ENDP ; std::error_category::default_error_condition
_TEXT	ENDS
; Function compile flags: /Odtp
; File d:\vs2013\vc\include\system_error
;	COMDAT ?equivalent@error_category@std@@UBE_NHABVerror_condition@2@@Z
_TEXT	SEGMENT
$T1 = -12						; size = 8
_this$ = -4						; size = 4
__Errval$ = 8						; size = 4
__Cond$ = 12						; size = 4
?equivalent@error_category@std@@UBE_NHABVerror_condition@2@@Z PROC ; std::error_category::equivalent, COMDAT
; _this$ = ecx

; 384  : 	{	// test if error code same condition

	push	ebp
	mov	ebp, esp
	sub	esp, 12					; 0000000cH
	mov	DWORD PTR _this$[ebp], ecx

; 385  : 	return (default_error_condition(_Errval) == _Cond);

	mov	eax, DWORD PTR __Cond$[ebp]
	push	eax
	mov	ecx, DWORD PTR __Errval$[ebp]
	push	ecx
	lea	edx, DWORD PTR $T1[ebp]
	push	edx
	mov	eax, DWORD PTR _this$[ebp]
	mov	edx, DWORD PTR [eax]
	mov	ecx, DWORD PTR _this$[ebp]
	mov	eax, DWORD PTR [edx+12]
	call	eax
	mov	ecx, eax
	call	??8error_condition@std@@QBE_NABV01@@Z	; std::error_condition::operator==

; 386  : 	}

	mov	esp, ebp
	pop	ebp
	ret	8
?equivalent@error_category@std@@UBE_NHABVerror_condition@2@@Z ENDP ; std::error_category::equivalent
_TEXT	ENDS
; Function compile flags: /Odtp
; File d:\vs2013\vc\include\system_error
;	COMDAT ?equivalent@error_category@std@@UBE_NABVerror_code@2@H@Z
_TEXT	SEGMENT
_this$ = -8						; size = 4
tv74 = -4						; size = 4
__Code$ = 8						; size = 4
__Errval$ = 12						; size = 4
?equivalent@error_category@std@@UBE_NABVerror_code@2@H@Z PROC ; std::error_category::equivalent, COMDAT
; _this$ = ecx

; 391  : 	{	// test if conditions same for this category

	push	ebp
	mov	ebp, esp
	sub	esp, 8
	mov	DWORD PTR _this$[ebp], ecx

; 392  : 	return (*this == _Code.category() && _Code.value() == _Errval);

	mov	ecx, DWORD PTR __Code$[ebp]
	call	?category@error_code@std@@QBEABVerror_category@2@XZ ; std::error_code::category
	push	eax
	mov	ecx, DWORD PTR _this$[ebp]
	call	??8error_category@std@@QBE_NABV01@@Z	; std::error_category::operator==
	movzx	eax, al
	test	eax, eax
	je	SHORT $LN3@equivalent
	mov	ecx, DWORD PTR __Code$[ebp]
	call	?value@error_code@std@@QBEHXZ		; std::error_code::value
	cmp	eax, DWORD PTR __Errval$[ebp]
	jne	SHORT $LN3@equivalent
	mov	DWORD PTR tv74[ebp], 1
	jmp	SHORT $LN4@equivalent
$LN3@equivalent:
	mov	DWORD PTR tv74[ebp], 0
$LN4@equivalent:
	mov	al, BYTE PTR tv74[ebp]

; 393  : 	}

	mov	esp, ebp
	pop	ebp
	ret	8
?equivalent@error_category@std@@UBE_NABVerror_code@2@H@Z ENDP ; std::error_category::equivalent
_TEXT	ENDS
; Function compile flags: /Odtp
; File d:\vs2013\vc\include\system_error
;	COMDAT ??0_Generic_error_category@std@@QAE@XZ
_TEXT	SEGMENT
_this$ = -4						; size = 4
??0_Generic_error_category@std@@QAE@XZ PROC		; std::_Generic_error_category::_Generic_error_category, COMDAT
; _this$ = ecx

; 553  : 	_Generic_error_category()

	push	ebp
	mov	ebp, esp
	push	ecx
	mov	DWORD PTR _this$[ebp], ecx
	mov	ecx, DWORD PTR _this$[ebp]
	call	??0error_category@std@@QAE@XZ		; std::error_category::error_category
	mov	eax, DWORD PTR _this$[ebp]
	mov	DWORD PTR [eax], OFFSET ??_7_Generic_error_category@std@@6B@

; 554  : 		{	// default constructor
; 555  : 		}

	mov	eax, DWORD PTR _this$[ebp]
	mov	esp, ebp
	pop	ebp
	ret	0
??0_Generic_error_category@std@@QAE@XZ ENDP		; std::_Generic_error_category::_Generic_error_category
_TEXT	ENDS
; Function compile flags: /Odtp
; File d:\vs2013\vc\include\system_error
;	COMDAT ?name@_Generic_error_category@std@@UBEPBDXZ
_TEXT	SEGMENT
_this$ = -4						; size = 4
?name@_Generic_error_category@std@@UBEPBDXZ PROC	; std::_Generic_error_category::name, COMDAT
; _this$ = ecx

; 558  : 		{	// get name of category

	push	ebp
	mov	ebp, esp
	push	ecx
	mov	DWORD PTR _this$[ebp], ecx

; 559  : 		return ("generic");

	mov	eax, OFFSET ??_C@_07DCLBNMLN@generic?$AA@

; 560  : 		}

	mov	esp, ebp
	pop	ebp
	ret	0
?name@_Generic_error_category@std@@UBEPBDXZ ENDP	; std::_Generic_error_category::name
_TEXT	ENDS
; Function compile flags: /Odtp
; File d:\vs2013\vc\include\system_error
;	COMDAT ?message@_Generic_error_category@std@@UBE?AV?$basic_string@DU?$char_traits@D@std@@V?$allocator@D@2@@2@H@Z
_TEXT	SEGMENT
_this$ = -12						; size = 4
tv69 = -8						; size = 4
__Name$ = -4						; size = 4
___$ReturnUdt$ = 8					; size = 4
__Errcode$ = 12						; size = 4
?message@_Generic_error_category@std@@UBE?AV?$basic_string@DU?$char_traits@D@std@@V?$allocator@D@2@@2@H@Z PROC ; std::_Generic_error_category::message, COMDAT
; _this$ = ecx

; 563  : 		{	// convert to name of error

	push	ebp
	mov	ebp, esp
	sub	esp, 12					; 0000000cH
	mov	DWORD PTR _this$[ebp], ecx

; 564  : 		const char *_Name = _Syserror_map(_Errcode);

	mov	eax, DWORD PTR __Errcode$[ebp]
	push	eax
	call	?_Syserror_map@std@@YAPBDH@Z		; std::_Syserror_map
	add	esp, 4
	mov	DWORD PTR __Name$[ebp], eax

; 565  : 		return (string(_Name != 0 ? _Name : "unknown error"));

	cmp	DWORD PTR __Name$[ebp], 0
	je	SHORT $LN3@message
	mov	ecx, DWORD PTR __Name$[ebp]
	mov	DWORD PTR tv69[ebp], ecx
	jmp	SHORT $LN4@message
$LN3@message:
	mov	DWORD PTR tv69[ebp], OFFSET ??_C@_0O@BFJCFAAK@unknown?5error?$AA@
$LN4@message:
	mov	edx, DWORD PTR tv69[ebp]
	push	edx
	mov	ecx, DWORD PTR ___$ReturnUdt$[ebp]
	call	??0?$basic_string@DU?$char_traits@D@std@@V?$allocator@D@2@@std@@QAE@PBD@Z ; std::basic_string<char,std::char_traits<char>,std::allocator<char> >::basic_string<char,std::char_traits<char>,std::allocator<char> >
	mov	eax, DWORD PTR ___$ReturnUdt$[ebp]

; 566  : 		}

	mov	esp, ebp
	pop	ebp
	ret	8
?message@_Generic_error_category@std@@UBE?AV?$basic_string@DU?$char_traits@D@std@@V?$allocator@D@2@@2@H@Z ENDP ; std::_Generic_error_category::message
_TEXT	ENDS
; Function compile flags: /Odtp
;	COMDAT ??_G_Generic_error_category@std@@UAEPAXI@Z
_TEXT	SEGMENT
_this$ = -4						; size = 4
___flags$ = 8						; size = 4
??_G_Generic_error_category@std@@UAEPAXI@Z PROC		; std::_Generic_error_category::`scalar deleting destructor', COMDAT
; _this$ = ecx
	push	ebp
	mov	ebp, esp
	push	ecx
	mov	DWORD PTR _this$[ebp], ecx
	mov	ecx, DWORD PTR _this$[ebp]
	call	??1_Generic_error_category@std@@UAE@XZ
	mov	eax, DWORD PTR ___flags$[ebp]
	and	eax, 1
	je	SHORT $LN1@scalar
	mov	ecx, DWORD PTR _this$[ebp]
	push	ecx
	call	??3@YAXPAX@Z				; operator delete
	add	esp, 4
$LN1@scalar:
	mov	eax, DWORD PTR _this$[ebp]
	mov	esp, ebp
	pop	ebp
	ret	4
??_G_Generic_error_category@std@@UAEPAXI@Z ENDP		; std::_Generic_error_category::`scalar deleting destructor'
_TEXT	ENDS
; Function compile flags: /Odtp
;	COMDAT ??1_Generic_error_category@std@@UAE@XZ
_TEXT	SEGMENT
_this$ = -4						; size = 4
??1_Generic_error_category@std@@UAE@XZ PROC		; std::_Generic_error_category::~_Generic_error_category, COMDAT
; _this$ = ecx
	push	ebp
	mov	ebp, esp
	push	ecx
	mov	DWORD PTR _this$[ebp], ecx
	mov	ecx, DWORD PTR _this$[ebp]
	call	??1error_category@std@@UAE@XZ		; std::error_category::~error_category
	mov	esp, ebp
	pop	ebp
	ret	0
??1_Generic_error_category@std@@UAE@XZ ENDP		; std::_Generic_error_category::~_Generic_error_category
_TEXT	ENDS
; Function compile flags: /Odtp
; File d:\vs2013\vc\include\system_error
;	COMDAT ??0_Iostream_error_category@std@@QAE@XZ
_TEXT	SEGMENT
_this$ = -4						; size = 4
??0_Iostream_error_category@std@@QAE@XZ PROC		; std::_Iostream_error_category::_Iostream_error_category, COMDAT
; _this$ = ecx

; 574  : 	_Iostream_error_category()

	push	ebp
	mov	ebp, esp
	push	ecx
	mov	DWORD PTR _this$[ebp], ecx
	mov	ecx, DWORD PTR _this$[ebp]
	call	??0_Generic_error_category@std@@QAE@XZ	; std::_Generic_error_category::_Generic_error_category
	mov	eax, DWORD PTR _this$[ebp]
	mov	DWORD PTR [eax], OFFSET ??_7_Iostream_error_category@std@@6B@

; 575  : 		{	// default constructor
; 576  : 		}

	mov	eax, DWORD PTR _this$[ebp]
	mov	esp, ebp
	pop	ebp
	ret	0
??0_Iostream_error_category@std@@QAE@XZ ENDP		; std::_Iostream_error_category::_Iostream_error_category
_TEXT	ENDS
; Function compile flags: /Odtp
; File d:\vs2013\vc\include\system_error
;	COMDAT ?name@_Iostream_error_category@std@@UBEPBDXZ
_TEXT	SEGMENT
_this$ = -4						; size = 4
?name@_Iostream_error_category@std@@UBEPBDXZ PROC	; std::_Iostream_error_category::name, COMDAT
; _this$ = ecx

; 579  : 		{	// get name of category

	push	ebp
	mov	ebp, esp
	push	ecx
	mov	DWORD PTR _this$[ebp], ecx

; 580  : 		return ("iostream");

	mov	eax, OFFSET ??_C@_08LLGCOLLL@iostream?$AA@

; 581  : 		}

	mov	esp, ebp
	pop	ebp
	ret	0
?name@_Iostream_error_category@std@@UBEPBDXZ ENDP	; std::_Iostream_error_category::name
_TEXT	ENDS
; Function compile flags: /Odtp
; File d:\vs2013\vc\include\system_error
;	COMDAT ?message@_Iostream_error_category@std@@UBE?AV?$basic_string@DU?$char_traits@D@std@@V?$allocator@D@2@@2@H@Z
_TEXT	SEGMENT
_this$ = -4						; size = 4
___$ReturnUdt$ = 8					; size = 4
__Errcode$ = 12						; size = 4
?message@_Iostream_error_category@std@@UBE?AV?$basic_string@DU?$char_traits@D@std@@V?$allocator@D@2@@2@H@Z PROC ; std::_Iostream_error_category::message, COMDAT
; _this$ = ecx

; 584  : 		{	// convert to name of error

	push	ebp
	mov	ebp, esp
	push	ecx
	mov	DWORD PTR _this$[ebp], ecx

; 585  : 		if (_Errcode == (int)io_errc::stream)

	cmp	DWORD PTR __Errcode$[ebp], 1
	jne	SHORT $LN2@message

; 586  : 			return ("iostream stream error");

	push	OFFSET ??_C@_0BG@PADBLCHM@iostream?5stream?5error?$AA@
	mov	ecx, DWORD PTR ___$ReturnUdt$[ebp]
	call	??0?$basic_string@DU?$char_traits@D@std@@V?$allocator@D@2@@std@@QAE@PBD@Z ; std::basic_string<char,std::char_traits<char>,std::allocator<char> >::basic_string<char,std::char_traits<char>,std::allocator<char> >
	mov	eax, DWORD PTR ___$ReturnUdt$[ebp]
	jmp	SHORT $LN3@message

; 587  : 		else

	jmp	SHORT $LN3@message
$LN2@message:

; 588  : 			return (_Generic_error_category::message(_Errcode));

	mov	eax, DWORD PTR __Errcode$[ebp]
	push	eax
	mov	ecx, DWORD PTR ___$ReturnUdt$[ebp]
	push	ecx
	mov	ecx, DWORD PTR _this$[ebp]
	call	?message@_Generic_error_category@std@@UBE?AV?$basic_string@DU?$char_traits@D@std@@V?$allocator@D@2@@2@H@Z ; std::_Generic_error_category::message
	mov	eax, DWORD PTR ___$ReturnUdt$[ebp]
$LN3@message:

; 589  : 		}

	mov	esp, ebp
	pop	ebp
	ret	8
?message@_Iostream_error_category@std@@UBE?AV?$basic_string@DU?$char_traits@D@std@@V?$allocator@D@2@@2@H@Z ENDP ; std::_Iostream_error_category::message
_TEXT	ENDS
; Function compile flags: /Odtp
;	COMDAT ??_G_Iostream_error_category@std@@UAEPAXI@Z
_TEXT	SEGMENT
_this$ = -4						; size = 4
___flags$ = 8						; size = 4
??_G_Iostream_error_category@std@@UAEPAXI@Z PROC	; std::_Iostream_error_category::`scalar deleting destructor', COMDAT
; _this$ = ecx
	push	ebp
	mov	ebp, esp
	push	ecx
	mov	DWORD PTR _this$[ebp], ecx
	mov	ecx, DWORD PTR _this$[ebp]
	call	??1_Iostream_error_category@std@@UAE@XZ
	mov	eax, DWORD PTR ___flags$[ebp]
	and	eax, 1
	je	SHORT $LN1@scalar
	mov	ecx, DWORD PTR _this$[ebp]
	push	ecx
	call	??3@YAXPAX@Z				; operator delete
	add	esp, 4
$LN1@scalar:
	mov	eax, DWORD PTR _this$[ebp]
	mov	esp, ebp
	pop	ebp
	ret	4
??_G_Iostream_error_category@std@@UAEPAXI@Z ENDP	; std::_Iostream_error_category::`scalar deleting destructor'
_TEXT	ENDS
; Function compile flags: /Odtp
;	COMDAT ??1_Iostream_error_category@std@@UAE@XZ
_TEXT	SEGMENT
_this$ = -4						; size = 4
??1_Iostream_error_category@std@@UAE@XZ PROC		; std::_Iostream_error_category::~_Iostream_error_category, COMDAT
; _this$ = ecx
	push	ebp
	mov	ebp, esp
	push	ecx
	mov	DWORD PTR _this$[ebp], ecx
	mov	ecx, DWORD PTR _this$[ebp]
	call	??1_Generic_error_category@std@@UAE@XZ
	mov	esp, ebp
	pop	ebp
	ret	0
??1_Iostream_error_category@std@@UAE@XZ ENDP		; std::_Iostream_error_category::~_Iostream_error_category
_TEXT	ENDS
; Function compile flags: /Odtp
; File d:\vs2013\vc\include\system_error
;	COMDAT ??0_System_error_category@std@@QAE@XZ
_TEXT	SEGMENT
_this$ = -4						; size = 4
??0_System_error_category@std@@QAE@XZ PROC		; std::_System_error_category::_System_error_category, COMDAT
; _this$ = ecx

; 597  : 	_System_error_category()

	push	ebp
	mov	ebp, esp
	push	ecx
	mov	DWORD PTR _this$[ebp], ecx
	mov	ecx, DWORD PTR _this$[ebp]
	call	??0_Generic_error_category@std@@QAE@XZ	; std::_Generic_error_category::_Generic_error_category
	mov	eax, DWORD PTR _this$[ebp]
	mov	DWORD PTR [eax], OFFSET ??_7_System_error_category@std@@6B@

; 598  : 		{	// default constructor
; 599  : 		}

	mov	eax, DWORD PTR _this$[ebp]
	mov	esp, ebp
	pop	ebp
	ret	0
??0_System_error_category@std@@QAE@XZ ENDP		; std::_System_error_category::_System_error_category
_TEXT	ENDS
; Function compile flags: /Odtp
; File d:\vs2013\vc\include\system_error
;	COMDAT ?name@_System_error_category@std@@UBEPBDXZ
_TEXT	SEGMENT
_this$ = -4						; size = 4
?name@_System_error_category@std@@UBEPBDXZ PROC		; std::_System_error_category::name, COMDAT
; _this$ = ecx

; 602  : 		{	// get name of category

	push	ebp
	mov	ebp, esp
	push	ecx
	mov	DWORD PTR _this$[ebp], ecx

; 603  : 		return ("system");

	mov	eax, OFFSET ??_C@_06FHFOAHML@system?$AA@

; 604  : 		}

	mov	esp, ebp
	pop	ebp
	ret	0
?name@_System_error_category@std@@UBEPBDXZ ENDP		; std::_System_error_category::name
_TEXT	ENDS
; Function compile flags: /Odtp
; File d:\vs2013\vc\include\system_error
;	COMDAT ?message@_System_error_category@std@@UBE?AV?$basic_string@DU?$char_traits@D@std@@V?$allocator@D@2@@2@H@Z
_TEXT	SEGMENT
_this$ = -12						; size = 4
tv69 = -8						; size = 4
__Name$ = -4						; size = 4
___$ReturnUdt$ = 8					; size = 4
__Errcode$ = 12						; size = 4
?message@_System_error_category@std@@UBE?AV?$basic_string@DU?$char_traits@D@std@@V?$allocator@D@2@@2@H@Z PROC ; std::_System_error_category::message, COMDAT
; _this$ = ecx

; 607  : 		{	// convert to name of error

	push	ebp
	mov	ebp, esp
	sub	esp, 12					; 0000000cH
	mov	DWORD PTR _this$[ebp], ecx

; 608  : 		const char *_Name = _Winerror_map(_Errcode);

	mov	eax, DWORD PTR __Errcode$[ebp]
	push	eax
	call	?_Winerror_map@std@@YAPBDH@Z		; std::_Winerror_map
	add	esp, 4
	mov	DWORD PTR __Name$[ebp], eax

; 609  : 		return (string(_Name != 0 ? _Name : "unknown error"));

	cmp	DWORD PTR __Name$[ebp], 0
	je	SHORT $LN3@message
	mov	ecx, DWORD PTR __Name$[ebp]
	mov	DWORD PTR tv69[ebp], ecx
	jmp	SHORT $LN4@message
$LN3@message:
	mov	DWORD PTR tv69[ebp], OFFSET ??_C@_0O@BFJCFAAK@unknown?5error?$AA@
$LN4@message:
	mov	edx, DWORD PTR tv69[ebp]
	push	edx
	mov	ecx, DWORD PTR ___$ReturnUdt$[ebp]
	call	??0?$basic_string@DU?$char_traits@D@std@@V?$allocator@D@2@@std@@QAE@PBD@Z ; std::basic_string<char,std::char_traits<char>,std::allocator<char> >::basic_string<char,std::char_traits<char>,std::allocator<char> >
	mov	eax, DWORD PTR ___$ReturnUdt$[ebp]

; 610  : 		}

	mov	esp, ebp
	pop	ebp
	ret	8
?message@_System_error_category@std@@UBE?AV?$basic_string@DU?$char_traits@D@std@@V?$allocator@D@2@@2@H@Z ENDP ; std::_System_error_category::message
_TEXT	ENDS
; Function compile flags: /Odtp
; File d:\vs2013\vc\include\system_error
;	COMDAT ?default_error_condition@_System_error_category@std@@UBE?AVerror_condition@2@H@Z
_TEXT	SEGMENT
_this$ = -4						; size = 4
___$ReturnUdt$ = 8					; size = 4
__Errval$ = 12						; size = 4
?default_error_condition@_System_error_category@std@@UBE?AVerror_condition@2@H@Z PROC ; std::_System_error_category::default_error_condition, COMDAT
; _this$ = ecx

; 614  : 		{	// make error_condition for error code (generic if possible)

	push	ebp
	mov	ebp, esp
	push	ecx
	mov	DWORD PTR _this$[ebp], ecx

; 615  : 		if (_Syserror_map(_Errval))

	mov	eax, DWORD PTR __Errval$[ebp]
	push	eax
	call	?_Syserror_map@std@@YAPBDH@Z		; std::_Syserror_map
	add	esp, 4
	test	eax, eax
	je	SHORT $LN2@default_er

; 616  : 			return (error_condition(_Errval, generic_category()));

	call	?generic_category@std@@YAABVerror_category@1@XZ ; std::generic_category
	push	eax
	mov	ecx, DWORD PTR __Errval$[ebp]
	push	ecx
	mov	ecx, DWORD PTR ___$ReturnUdt$[ebp]
	call	??0error_condition@std@@QAE@HABVerror_category@1@@Z ; std::error_condition::error_condition
	mov	eax, DWORD PTR ___$ReturnUdt$[ebp]
	jmp	SHORT $LN3@default_er

; 617  : 		else

	jmp	SHORT $LN3@default_er
$LN2@default_er:

; 618  : 			return (error_condition(_Errval, system_category()));

	call	?system_category@std@@YAABVerror_category@1@XZ ; std::system_category
	push	eax
	mov	edx, DWORD PTR __Errval$[ebp]
	push	edx
	mov	ecx, DWORD PTR ___$ReturnUdt$[ebp]
	call	??0error_condition@std@@QAE@HABVerror_category@1@@Z ; std::error_condition::error_condition
	mov	eax, DWORD PTR ___$ReturnUdt$[ebp]
$LN3@default_er:

; 619  : 		}

	mov	esp, ebp
	pop	ebp
	ret	8
?default_error_condition@_System_error_category@std@@UBE?AVerror_condition@2@H@Z ENDP ; std::_System_error_category::default_error_condition
_TEXT	ENDS
; Function compile flags: /Odtp
;	COMDAT ??_G_System_error_category@std@@UAEPAXI@Z
_TEXT	SEGMENT
_this$ = -4						; size = 4
___flags$ = 8						; size = 4
??_G_System_error_category@std@@UAEPAXI@Z PROC		; std::_System_error_category::`scalar deleting destructor', COMDAT
; _this$ = ecx
	push	ebp
	mov	ebp, esp
	push	ecx
	mov	DWORD PTR _this$[ebp], ecx
	mov	ecx, DWORD PTR _this$[ebp]
	call	??1_System_error_category@std@@UAE@XZ
	mov	eax, DWORD PTR ___flags$[ebp]
	and	eax, 1
	je	SHORT $LN1@scalar
	mov	ecx, DWORD PTR _this$[ebp]
	push	ecx
	call	??3@YAXPAX@Z				; operator delete
	add	esp, 4
$LN1@scalar:
	mov	eax, DWORD PTR _this$[ebp]
	mov	esp, ebp
	pop	ebp
	ret	4
??_G_System_error_category@std@@UAEPAXI@Z ENDP		; std::_System_error_category::`scalar deleting destructor'
_TEXT	ENDS
; Function compile flags: /Odtp
;	COMDAT ??1_System_error_category@std@@UAE@XZ
_TEXT	SEGMENT
_this$ = -4						; size = 4
??1_System_error_category@std@@UAE@XZ PROC		; std::_System_error_category::~_System_error_category, COMDAT
; _this$ = ecx
	push	ebp
	mov	ebp, esp
	push	ecx
	mov	DWORD PTR _this$[ebp], ecx
	mov	ecx, DWORD PTR _this$[ebp]
	call	??1_Generic_error_category@std@@UAE@XZ
	mov	esp, ebp
	pop	ebp
	ret	0
??1_System_error_category@std@@UAE@XZ ENDP		; std::_System_error_category::~_System_error_category
_TEXT	ENDS
; Function compile flags: /Odtp
; File d:\vs2013\vc\include\system_error
;	COMDAT ?generic_category@std@@YAABVerror_category@1@XZ
_TEXT	SEGMENT
?generic_category@std@@YAABVerror_category@1@XZ PROC	; std::generic_category, COMDAT

; 642  : 	{	// get generic_category

	push	ebp
	mov	ebp, esp

; 643  : 	return (_Error_objects<int>::_Generic_object);

	mov	eax, OFFSET ?_Generic_object@?$_Error_objects@H@std@@2V_Generic_error_category@2@A ; std::_Error_objects<int>::_Generic_object

; 644  : 	}

	pop	ebp
	ret	0
?generic_category@std@@YAABVerror_category@1@XZ ENDP	; std::generic_category
_TEXT	ENDS
; Function compile flags: /Odtp
; File d:\vs2013\vc\include\system_error
;	COMDAT ?system_category@std@@YAABVerror_category@1@XZ
_TEXT	SEGMENT
?system_category@std@@YAABVerror_category@1@XZ PROC	; std::system_category, COMDAT

; 652  : 	{	// get system_category

	push	ebp
	mov	ebp, esp

; 653  : 	return (_Error_objects<int>::_System_object);

	mov	eax, OFFSET ?_System_object@?$_Error_objects@H@std@@2V_System_error_category@2@A ; std::_Error_objects<int>::_System_object

; 654  : 	}

	pop	ebp
	ret	0
?system_category@std@@YAABVerror_category@1@XZ ENDP	; std::system_category
_TEXT	ENDS
; Function compile flags: /Odtp
; File f:\songmm_moon_stone_obs\obs\obsapi\apiinterface.h
;	COMDAT ?Invalid03@APIInterface@@UBEXXZ
_TEXT	SEGMENT
_this$ = -4						; size = 4
?Invalid03@APIInterface@@UBEXXZ PROC			; APIInterface::Invalid03, COMDAT
; _this$ = ecx

; 50   :     virtual void Invalid03() const {}

	push	ebp
	mov	ebp, esp
	push	ecx
	mov	DWORD PTR _this$[ebp], ecx
	mov	esp, ebp
	pop	ebp
	ret	0
?Invalid03@APIInterface@@UBEXXZ ENDP			; APIInterface::Invalid03
_TEXT	ENDS
; Function compile flags: /Odtp
; File f:\songmm_moon_stone_obs\obs\obsapi\apiinterface.h
;	COMDAT ??1APIInterface@@UAE@XZ
_TEXT	SEGMENT
_this$ = -4						; size = 4
??1APIInterface@@UAE@XZ PROC				; APIInterface::~APIInterface, COMDAT
; _this$ = ecx

; 52   :     virtual ~APIInterface() {}

	push	ebp
	mov	ebp, esp
	push	ecx
	mov	DWORD PTR _this$[ebp], ecx
	mov	eax, DWORD PTR _this$[ebp]
	mov	DWORD PTR [eax], OFFSET ??_7APIInterface@@6B@
	mov	esp, ebp
	pop	ebp
	ret	0
??1APIInterface@@UAE@XZ ENDP				; APIInterface::~APIInterface
_TEXT	ENDS
; Function compile flags: /Odtp
; File f:\songmm_moon_stone_obs\obs\obsapi\apiinterface.h
;	COMDAT ?Invalid01@APIInterface@@UAEXXZ
_TEXT	SEGMENT
_this$ = -4						; size = 4
?Invalid01@APIInterface@@UAEXXZ PROC			; APIInterface::Invalid01, COMDAT
; _this$ = ecx

; 129  :     virtual void Invalid01() {}

	push	ebp
	mov	ebp, esp
	push	ecx
	mov	DWORD PTR _this$[ebp], ecx
	mov	esp, ebp
	pop	ebp
	ret	0
?Invalid01@APIInterface@@UAEXXZ ENDP			; APIInterface::Invalid01
_TEXT	ENDS
; Function compile flags: /Odtp
; File f:\songmm_moon_stone_obs\obs\obsapi\apiinterface.h
;	COMDAT ?Invalid02@APIInterface@@UAEXXZ
_TEXT	SEGMENT
_this$ = -4						; size = 4
?Invalid02@APIInterface@@UAEXXZ PROC			; APIInterface::Invalid02, COMDAT
; _this$ = ecx

; 130  :     virtual void Invalid02() {}

	push	ebp
	mov	ebp, esp
	push	ecx
	mov	DWORD PTR _this$[ebp], ecx
	mov	esp, ebp
	pop	ebp
	ret	0
?Invalid02@APIInterface@@UAEXXZ ENDP			; APIInterface::Invalid02
_TEXT	ENDS
; Function compile flags: /Odtp
;	COMDAT ??_GAPIInterface@@UAEPAXI@Z
_TEXT	SEGMENT
_this$ = -4						; size = 4
___flags$ = 8						; size = 4
??_GAPIInterface@@UAEPAXI@Z PROC			; APIInterface::`scalar deleting destructor', COMDAT
; _this$ = ecx
	push	ebp
	mov	ebp, esp
	push	ecx
	mov	DWORD PTR _this$[ebp], ecx
	mov	ecx, DWORD PTR _this$[ebp]
	call	??1APIInterface@@UAE@XZ			; APIInterface::~APIInterface
	mov	eax, DWORD PTR ___flags$[ebp]
	and	eax, 1
	je	SHORT $LN1@scalar
	mov	ecx, DWORD PTR _this$[ebp]
	push	ecx
	call	??3@YAXPAX@Z				; operator delete
	add	esp, 4
$LN1@scalar:
	mov	eax, DWORD PTR _this$[ebp]
	mov	esp, ebp
	pop	ebp
	ret	4
??_GAPIInterface@@UAEPAXI@Z ENDP			; APIInterface::`scalar deleting destructor'
_TEXT	ENDS
; Function compile flags: /Odtp
; File f:\songmm_moon_stone_obs\obs\source\obs.h
;	COMDAT ?FreeData@StreamInfo@@QAEXXZ
_TEXT	SEGMENT
_this$ = -4						; size = 4
?FreeData@StreamInfo@@QAEXXZ PROC			; StreamInfo::FreeData, COMDAT
; _this$ = ecx

; 544  :     inline void FreeData() {strInfo.Clear();}

	push	ebp
	mov	ebp, esp
	push	ecx
	mov	DWORD PTR _this$[ebp], ecx
	mov	ecx, DWORD PTR _this$[ebp]
	add	ecx, 4
	call	DWORD PTR __imp_?Clear@String@@QAEAAV1@XZ
	mov	esp, ebp
	pop	ebp
	ret	0
?FreeData@StreamInfo@@QAEXXZ ENDP			; StreamInfo::FreeData
_TEXT	ENDS
; Function compile flags: /Odtp
; File f:\songmm_moon_stone_obs\obs\source\obs.h
;	COMDAT ?GetGlobalSource@OBS@@AAEPAVImageSource@@PB_W@Z
_TEXT	SEGMENT
_this$ = -8						; size = 4
_i$1 = -4						; size = 4
_lpName$ = 8						; size = 4
?GetGlobalSource@OBS@@AAEPAVImageSource@@PB_W@Z PROC	; OBS::GetGlobalSource, COMDAT
; _this$ = ecx

; 1010 :     {

	push	ebp
	mov	ebp, esp
	sub	esp, 8
	mov	DWORD PTR _this$[ebp], ecx

; 1011 :         for(UINT i=0; i<globalSources.Num(); i++)

	mov	DWORD PTR _i$1[ebp], 0
	jmp	SHORT $LN4@GetGlobalS
$LN3@GetGlobalS:
	mov	eax, DWORD PTR _i$1[ebp]
	add	eax, 1
	mov	DWORD PTR _i$1[ebp], eax
$LN4@GetGlobalS:
	mov	ecx, DWORD PTR _this$[ebp]
	add	ecx, 1376				; 00000560H
	call	?Num@?$List@UGlobalSourceInfo@@@@QBEIXZ	; List<GlobalSourceInfo>::Num
	cmp	DWORD PTR _i$1[ebp], eax
	jae	SHORT $LN2@GetGlobalS

; 1012 :         {
; 1013 :             if(globalSources[i].strName.CompareI(lpName))

	mov	ecx, DWORD PTR _lpName$[ebp]
	push	ecx
	mov	edx, DWORD PTR _i$1[ebp]
	push	edx
	mov	ecx, DWORD PTR _this$[ebp]
	add	ecx, 1376				; 00000560H
	call	??A?$List@UGlobalSourceInfo@@@@QAEAAUGlobalSourceInfo@@I@Z ; List<GlobalSourceInfo>::operator[]
	mov	ecx, eax
	call	DWORD PTR __imp_?CompareI@String@@QBEHPB_W@Z
	test	eax, eax
	je	SHORT $LN1@GetGlobalS

; 1014 :                 return globalSources[i].source;

	mov	eax, DWORD PTR _i$1[ebp]
	push	eax
	mov	ecx, DWORD PTR _this$[ebp]
	add	ecx, 1376				; 00000560H
	call	??A?$List@UGlobalSourceInfo@@@@QAEAAUGlobalSourceInfo@@I@Z ; List<GlobalSourceInfo>::operator[]
	mov	eax, DWORD PTR [eax+12]
	jmp	SHORT $LN5@GetGlobalS
$LN1@GetGlobalS:

; 1015 :         }

	jmp	SHORT $LN3@GetGlobalS
$LN2@GetGlobalS:

; 1016 : 
; 1017 :         return AddGlobalSourceToScene(lpName);

	mov	ecx, DWORD PTR _lpName$[ebp]
	push	ecx
	mov	ecx, DWORD PTR _this$[ebp]
	call	?AddGlobalSourceToScene@OBS@@AAEPAVImageSource@@PB_W@Z ; OBS::AddGlobalSourceToScene
$LN5@GetGlobalS:

; 1018 :     }

	mov	esp, ebp
	pop	ebp
	ret	4
?GetGlobalSource@OBS@@AAEPAVImageSource@@PB_W@Z ENDP	; OBS::GetGlobalSource
_TEXT	ENDS
; Function compile flags: /Odtp
; File f:\songmm_moon_stone_obs\obs\source\obs.h
;	COMDAT ?GetSceneClass@OBS@@ABEPAUClassInfo@@PB_W@Z
_TEXT	SEGMENT
_this$ = -8						; size = 4
_i$1 = -4						; size = 4
_lpClass$ = 8						; size = 4
?GetSceneClass@OBS@@ABEPAUClassInfo@@PB_W@Z PROC	; OBS::GetSceneClass, COMDAT
; _this$ = ecx

; 1021 :     {

	push	ebp
	mov	ebp, esp
	sub	esp, 8
	mov	DWORD PTR _this$[ebp], ecx

; 1022 :         for(UINT i=0; i<sceneClasses.Num(); i++)

	mov	DWORD PTR _i$1[ebp], 0
	jmp	SHORT $LN4@GetSceneCl
$LN3@GetSceneCl:
	mov	eax, DWORD PTR _i$1[ebp]
	add	eax, 1
	mov	DWORD PTR _i$1[ebp], eax
$LN4@GetSceneCl:
	mov	ecx, DWORD PTR _this$[ebp]
	add	ecx, 1360				; 00000550H
	call	?Num@?$List@UClassInfo@@@@QBEIXZ	; List<ClassInfo>::Num
	cmp	DWORD PTR _i$1[ebp], eax
	jae	SHORT $LN2@GetSceneCl

; 1023 :         {
; 1024 :             if(sceneClasses[i].strClass.CompareI(lpClass))

	mov	ecx, DWORD PTR _lpClass$[ebp]
	push	ecx
	mov	edx, DWORD PTR _i$1[ebp]
	push	edx
	mov	ecx, DWORD PTR _this$[ebp]
	add	ecx, 1360				; 00000550H
	call	??A?$List@UClassInfo@@@@QBEAAUClassInfo@@I@Z ; List<ClassInfo>::operator[]
	mov	ecx, eax
	call	DWORD PTR __imp_?CompareI@String@@QBEHPB_W@Z
	test	eax, eax
	je	SHORT $LN1@GetSceneCl

; 1025 :                 return sceneClasses+i;

	mov	eax, DWORD PTR _i$1[ebp]
	push	eax
	mov	ecx, DWORD PTR _this$[ebp]
	add	ecx, 1360				; 00000550H
	call	??H?$List@UClassInfo@@@@QBEPAUClassInfo@@I@Z ; List<ClassInfo>::operator+
	jmp	SHORT $LN5@GetSceneCl
$LN1@GetSceneCl:

; 1026 :         }

	jmp	SHORT $LN3@GetSceneCl
$LN2@GetSceneCl:

; 1027 : 
; 1028 :         return NULL;

	xor	eax, eax
$LN5@GetSceneCl:

; 1029 :     }

	mov	esp, ebp
	pop	ebp
	ret	4
?GetSceneClass@OBS@@ABEPAUClassInfo@@PB_W@Z ENDP	; OBS::GetSceneClass
_TEXT	ENDS
; Function compile flags: /Odtp
; File f:\songmm_moon_stone_obs\obs\source\obs.h
;	COMDAT ?GetImageSourceClass@OBS@@ABEPAUClassInfo@@PB_W@Z
_TEXT	SEGMENT
_this$ = -8						; size = 4
_i$1 = -4						; size = 4
_lpClass$ = 8						; size = 4
?GetImageSourceClass@OBS@@ABEPAUClassInfo@@PB_W@Z PROC	; OBS::GetImageSourceClass, COMDAT
; _this$ = ecx

; 1032 :     {

	push	ebp
	mov	ebp, esp
	sub	esp, 8
	mov	DWORD PTR _this$[ebp], ecx

; 1033 :         for(UINT i=0; i<imageSourceClasses.Num(); i++)

	mov	DWORD PTR _i$1[ebp], 0
	jmp	SHORT $LN4@GetImageSo
$LN3@GetImageSo:
	mov	eax, DWORD PTR _i$1[ebp]
	add	eax, 1
	mov	DWORD PTR _i$1[ebp], eax
$LN4@GetImageSo:
	mov	ecx, DWORD PTR _this$[ebp]
	add	ecx, 1368				; 00000558H
	call	?Num@?$List@UClassInfo@@@@QBEIXZ	; List<ClassInfo>::Num
	cmp	DWORD PTR _i$1[ebp], eax
	jae	SHORT $LN2@GetImageSo

; 1034 :         {
; 1035 :             if(imageSourceClasses[i].strClass.CompareI(lpClass))

	mov	ecx, DWORD PTR _lpClass$[ebp]
	push	ecx
	mov	edx, DWORD PTR _i$1[ebp]
	push	edx
	mov	ecx, DWORD PTR _this$[ebp]
	add	ecx, 1368				; 00000558H
	call	??A?$List@UClassInfo@@@@QBEAAUClassInfo@@I@Z ; List<ClassInfo>::operator[]
	mov	ecx, eax
	call	DWORD PTR __imp_?CompareI@String@@QBEHPB_W@Z
	test	eax, eax
	je	SHORT $LN1@GetImageSo

; 1036 :                 return imageSourceClasses+i;

	mov	eax, DWORD PTR _i$1[ebp]
	push	eax
	mov	ecx, DWORD PTR _this$[ebp]
	add	ecx, 1368				; 00000558H
	call	??H?$List@UClassInfo@@@@QBEPAUClassInfo@@I@Z ; List<ClassInfo>::operator+
	jmp	SHORT $LN5@GetImageSo
$LN1@GetImageSo:

; 1037 :         }

	jmp	SHORT $LN3@GetImageSo
$LN2@GetImageSo:

; 1038 : 
; 1039 :         return NULL;

	xor	eax, eax
$LN5@GetImageSo:

; 1040 :     }

	mov	esp, ebp
	pop	ebp
	ret	4
?GetImageSourceClass@OBS@@ABEPAUClassInfo@@PB_W@Z ENDP	; OBS::GetImageSourceClass
_TEXT	ENDS
; Function compile flags: /Odtp
; File f:\songmm_moon_stone_obs\obs\source\obs.h
;	COMDAT ?AddAudioSource@OBS@@QAEXPAVAudioSource@@@Z
_TEXT	SEGMENT
_this$ = -4						; size = 4
_source$ = 8						; size = 4
?AddAudioSource@OBS@@QAEXPAVAudioSource@@@Z PROC	; OBS::AddAudioSource, COMDAT
; _this$ = ecx

; 1186 :     {

	push	ebp
	mov	ebp, esp
	push	ecx
	mov	DWORD PTR _this$[ebp], ecx

; 1187 :         OSEnterMutex(hAuxAudioMutex);

	mov	eax, DWORD PTR _this$[ebp]
	mov	ecx, DWORD PTR [eax+1228]
	push	ecx
	call	DWORD PTR __imp_?OSEnterMutex@@YGXPAX@Z

; 1188 :         auxAudioSources << source;

	lea	edx, DWORD PTR _source$[ebp]
	push	edx
	mov	ecx, DWORD PTR _this$[ebp]
	add	ecx, 120				; 00000078H
	call	??6?$List@PAVAudioSource@@@@QAEAAV0@ABQAVAudioSource@@@Z ; List<AudioSource *>::operator<<

; 1189 :         OSLeaveMutex(hAuxAudioMutex);

	mov	eax, DWORD PTR _this$[ebp]
	mov	ecx, DWORD PTR [eax+1228]
	push	ecx
	call	DWORD PTR __imp_?OSLeaveMutex@@YGXPAX@Z

; 1190 :     }

	mov	esp, ebp
	pop	ebp
	ret	4
?AddAudioSource@OBS@@QAEXPAVAudioSource@@@Z ENDP	; OBS::AddAudioSource
_TEXT	ENDS
; Function compile flags: /Odtp
; File f:\songmm_moon_stone_obs\obs\source\obs.h
;	COMDAT ?RemoveAudioSource@OBS@@QAEXPAVAudioSource@@@Z
_TEXT	SEGMENT
_this$ = -4						; size = 4
_source$ = 8						; size = 4
?RemoveAudioSource@OBS@@QAEXPAVAudioSource@@@Z PROC	; OBS::RemoveAudioSource, COMDAT
; _this$ = ecx

; 1192 :     {

	push	ebp
	mov	ebp, esp
	push	ecx
	mov	DWORD PTR _this$[ebp], ecx

; 1193 :         OSEnterMutex(hAuxAudioMutex);

	mov	eax, DWORD PTR _this$[ebp]
	mov	ecx, DWORD PTR [eax+1228]
	push	ecx
	call	DWORD PTR __imp_?OSEnterMutex@@YGXPAX@Z

; 1194 :         auxAudioSources.RemoveItem(source);

	lea	edx, DWORD PTR _source$[ebp]
	push	edx
	mov	ecx, DWORD PTR _this$[ebp]
	add	ecx, 120				; 00000078H
	call	?RemoveItem@?$List@PAVAudioSource@@@@QAEXABQAVAudioSource@@@Z ; List<AudioSource *>::RemoveItem

; 1195 :         OSLeaveMutex(hAuxAudioMutex);

	mov	eax, DWORD PTR _this$[ebp]
	mov	ecx, DWORD PTR [eax+1228]
	push	ecx
	call	DWORD PTR __imp_?OSLeaveMutex@@YGXPAX@Z

; 1196 :     }

	mov	esp, ebp
	pop	ebp
	ret	4
?RemoveAudioSource@OBS@@QAEXPAVAudioSource@@@Z ENDP	; OBS::RemoveAudioSource
_TEXT	ENDS
; Function compile flags: /Odtp
; File f:\songmm_moon_stone_obs\obs\source\obs.h
;	COMDAT ?GetSampleRateHz@OBS@@QBEIXZ
_TEXT	SEGMENT
_this$ = -4						; size = 4
?GetSampleRateHz@OBS@@QBEIXZ PROC			; OBS::GetSampleRateHz, COMDAT
; _this$ = ecx

; 1198 :     inline UINT GetSampleRateHz() const {return sampleRateHz;}

	push	ebp
	mov	ebp, esp
	push	ecx
	mov	DWORD PTR _this$[ebp], ecx
	mov	eax, DWORD PTR _this$[ebp]
	mov	eax, DWORD PTR [eax+128]
	mov	esp, ebp
	pop	ebp
	ret	0
?GetSampleRateHz@OBS@@QBEIXZ ENDP			; OBS::GetSampleRateHz
_TEXT	ENDS
; Function compile flags: /Odtp
; File f:\songmm_moon_stone_obs\obs\source\obs.h
;	COMDAT ?GetAudioTime@OBS@@QBE_KXZ
_TEXT	SEGMENT
_this$ = -4						; size = 4
?GetAudioTime@OBS@@QBE_KXZ PROC				; OBS::GetAudioTime, COMDAT
; _this$ = ecx

; 1201 :     inline QWORD GetAudioTime() const {return latestAudioTime;}

	push	ebp
	mov	ebp, esp
	push	ecx
	mov	DWORD PTR _this$[ebp], ecx
	mov	ecx, DWORD PTR _this$[ebp]
	mov	eax, DWORD PTR [ecx+1160]
	mov	edx, DWORD PTR [ecx+1164]
	mov	esp, ebp
	pop	ebp
	ret	0
?GetAudioTime@OBS@@QBE_KXZ ENDP				; OBS::GetAudioTime
_TEXT	ENDS
; Function compile flags: /Odtp
; File f:\songmm_moon_stone_obs\obs\source\obs.h
;	COMDAT ?GetVideoTime@OBS@@QBE_KXZ
_TEXT	SEGMENT
_this$ = -4						; size = 4
?GetVideoTime@OBS@@QBE_KXZ PROC				; OBS::GetVideoTime, COMDAT
; _this$ = ecx

; 1202 :     inline QWORD GetVideoTime() const {return latestVideoTime;}

	push	ebp
	mov	ebp, esp
	push	ecx
	mov	DWORD PTR _this$[ebp], ecx
	mov	ecx, DWORD PTR _this$[ebp]
	mov	eax, DWORD PTR [ecx+1008]
	mov	edx, DWORD PTR [ecx+1012]
	mov	esp, ebp
	pop	ebp
	ret	0
?GetVideoTime@OBS@@QBE_KXZ ENDP				; OBS::GetVideoTime
_TEXT	ENDS
; Function compile flags: /Odtp
; File f:\songmm_moon_stone_obs\obs\source\obs.h
;	COMDAT ?GetRenderFrameSize@OBS@@QBEXAAI0@Z
_TEXT	SEGMENT
_this$ = -4						; size = 4
_width$ = 8						; size = 4
_height$ = 12						; size = 4
?GetRenderFrameSize@OBS@@QBEXAAI0@Z PROC		; OBS::GetRenderFrameSize, COMDAT
; _this$ = ecx

; 1211 :     inline void GetRenderFrameSize(UINT &width, UINT &height) const         {width = renderFrameWidth; height = renderFrameHeight;}

	push	ebp
	mov	ebp, esp
	push	ecx
	mov	DWORD PTR _this$[ebp], ecx
	mov	eax, DWORD PTR _width$[ebp]
	mov	ecx, DWORD PTR _this$[ebp]
	mov	edx, DWORD PTR [ecx+636]
	mov	DWORD PTR [eax], edx
	mov	eax, DWORD PTR _height$[ebp]
	mov	ecx, DWORD PTR _this$[ebp]
	mov	edx, DWORD PTR [ecx+640]
	mov	DWORD PTR [eax], edx
	mov	esp, ebp
	pop	ebp
	ret	8
?GetRenderFrameSize@OBS@@QBEXAAI0@Z ENDP		; OBS::GetRenderFrameSize
_TEXT	ENDS
; Function compile flags: /Odtp
; File f:\songmm_moon_stone_obs\obs\source\obs.h
;	COMDAT ?GetRenderFrameOffset@OBS@@QBEXAAI0@Z
_TEXT	SEGMENT
_this$ = -4						; size = 4
_x$ = 8							; size = 4
_y$ = 12						; size = 4
?GetRenderFrameOffset@OBS@@QBEXAAI0@Z PROC		; OBS::GetRenderFrameOffset, COMDAT
; _this$ = ecx

; 1212 :     inline void GetRenderFrameOffset(UINT &x, UINT &y) const                {x = renderFrameX; y = renderFrameY;}

	push	ebp
	mov	ebp, esp
	push	ecx
	mov	DWORD PTR _this$[ebp], ecx
	mov	eax, DWORD PTR _x$[ebp]
	mov	ecx, DWORD PTR _this$[ebp]
	mov	edx, DWORD PTR [ecx+644]
	mov	DWORD PTR [eax], edx
	mov	eax, DWORD PTR _y$[ebp]
	mov	ecx, DWORD PTR _this$[ebp]
	mov	edx, DWORD PTR [ecx+648]
	mov	DWORD PTR [eax], edx
	mov	esp, ebp
	pop	ebp
	ret	8
?GetRenderFrameOffset@OBS@@QBEXAAI0@Z ENDP		; OBS::GetRenderFrameOffset
_TEXT	ENDS
; Function compile flags: /Odtp
; File f:\songmm_moon_stone_obs\obs\source\obs.h
;	COMDAT ?GetRenderFrameControlSize@OBS@@QBEXAAI0@Z
_TEXT	SEGMENT
_this$ = -4						; size = 4
_width$ = 8						; size = 4
_height$ = 12						; size = 4
?GetRenderFrameControlSize@OBS@@QBEXAAI0@Z PROC		; OBS::GetRenderFrameControlSize, COMDAT
; _this$ = ecx

; 1213 :     inline void GetRenderFrameControlSize(UINT &width, UINT &height) const  {width = renderFrameCtrlWidth; height = renderFrameCtrlHeight;}

	push	ebp
	mov	ebp, esp
	push	ecx
	mov	DWORD PTR _this$[ebp], ecx
	mov	eax, DWORD PTR _width$[ebp]
	mov	ecx, DWORD PTR _this$[ebp]
	mov	edx, DWORD PTR [ecx+652]
	mov	DWORD PTR [eax], edx
	mov	eax, DWORD PTR _height$[ebp]
	mov	ecx, DWORD PTR _this$[ebp]
	mov	edx, DWORD PTR [ecx+656]
	mov	DWORD PTR [eax], edx
	mov	esp, ebp
	pop	ebp
	ret	8
?GetRenderFrameControlSize@OBS@@QBEXAAI0@Z ENDP		; OBS::GetRenderFrameControlSize
_TEXT	ENDS
; Function compile flags: /Odtp
; File f:\songmm_moon_stone_obs\obs\source\obs.h
;	COMDAT ?GetOutputSize@OBS@@QBEXAAI0@Z
_TEXT	SEGMENT
_this$ = -4						; size = 4
_width$ = 8						; size = 4
_height$ = 12						; size = 4
?GetOutputSize@OBS@@QBEXAAI0@Z PROC			; OBS::GetOutputSize, COMDAT
; _this$ = ecx

; 1214 :     inline void GetOutputSize(UINT &width, UINT &height) const              {width = outputCX;         height = outputCY;}

	push	ebp
	mov	ebp, esp
	push	ecx
	mov	DWORD PTR _this$[ebp], ecx
	mov	eax, DWORD PTR _width$[ebp]
	mov	ecx, DWORD PTR _this$[ebp]
	mov	edx, DWORD PTR [ecx+872]
	mov	DWORD PTR [eax], edx
	mov	eax, DWORD PTR _height$[ebp]
	mov	ecx, DWORD PTR _this$[ebp]
	mov	edx, DWORD PTR [ecx+876]
	mov	DWORD PTR [eax], edx
	mov	esp, ebp
	pop	ebp
	ret	8
?GetOutputSize@OBS@@QBEXAAI0@Z ENDP			; OBS::GetOutputSize
_TEXT	ENDS
; Function compile flags: /Odtp
; File f:\songmm_moon_stone_obs\obs\source\obs.h
;	COMDAT ?EnterSceneMutex@OBS@@QAEXXZ
_TEXT	SEGMENT
_this$ = -4						; size = 4
?EnterSceneMutex@OBS@@QAEXXZ PROC			; OBS::EnterSceneMutex, COMDAT
; _this$ = ecx

; 1231 :     inline void EnterSceneMutex() {OSEnterMutex(hSceneMutex);}

	push	ebp
	mov	ebp, esp
	push	ecx
	mov	DWORD PTR _this$[ebp], ecx
	mov	eax, DWORD PTR _this$[ebp]
	mov	ecx, DWORD PTR [eax+956]
	push	ecx
	call	DWORD PTR __imp_?OSEnterMutex@@YGXPAX@Z
	mov	esp, ebp
	pop	ebp
	ret	0
?EnterSceneMutex@OBS@@QAEXXZ ENDP			; OBS::EnterSceneMutex
_TEXT	ENDS
; Function compile flags: /Odtp
; File f:\songmm_moon_stone_obs\obs\source\obs.h
;	COMDAT ?LeaveSceneMutex@OBS@@QAEXXZ
_TEXT	SEGMENT
_this$ = -4						; size = 4
?LeaveSceneMutex@OBS@@QAEXXZ PROC			; OBS::LeaveSceneMutex, COMDAT
; _this$ = ecx

; 1232 :     inline void LeaveSceneMutex() {OSLeaveMutex(hSceneMutex);}

	push	ebp
	mov	ebp, esp
	push	ecx
	mov	DWORD PTR _this$[ebp], ecx
	mov	eax, DWORD PTR _this$[ebp]
	mov	ecx, DWORD PTR [eax+956]
	push	ecx
	call	DWORD PTR __imp_?OSLeaveMutex@@YGXPAX@Z
	mov	esp, ebp
	pop	ebp
	ret	0
?LeaveSceneMutex@OBS@@QAEXXZ ENDP			; OBS::LeaveSceneMutex
_TEXT	ENDS
; Function compile flags: /Odtp
; File f:\songmm_moon_stone_obs\obs\source\obs.h
;	COMDAT ?GetSceneElement@OBS@@QBEPAVXElement@@XZ
_TEXT	SEGMENT
_this$ = -4						; size = 4
?GetSceneElement@OBS@@QBEPAVXElement@@XZ PROC		; OBS::GetSceneElement, COMDAT
; _this$ = ecx

; 1243 :     inline XElement* GetSceneElement() const {return sceneElement;}

	push	ebp
	mov	ebp, esp
	push	ecx
	mov	DWORD PTR _this$[ebp], ecx
	mov	eax, DWORD PTR _this$[ebp]
	mov	eax, DWORD PTR [eax+212]
	mov	esp, ebp
	pop	ebp
	ret	0
?GetSceneElement@OBS@@QBEPAVXElement@@XZ ENDP		; OBS::GetSceneElement
_TEXT	ENDS
; Function compile flags: /Odtp
; File f:\songmm_moon_stone_obs\obs\source\obs.h
;	COMDAT ?GetCurrentSceneCollection@OBS@@SAPB_WXZ
_TEXT	SEGMENT
?GetCurrentSceneCollection@OBS@@SAPB_WXZ PROC		; OBS::GetCurrentSceneCollection, COMDAT

; 1268 :     inline static CTSTR GetCurrentSceneCollection() { return GlobalConfig->GetStringPtr(TEXT("General"), TEXT("SceneCollection")); }

	push	ebp
	mov	ebp, esp
	push	0
	push	OFFSET ??_C@_1CA@DHAOPEIL@?$AAS?$AAc?$AAe?$AAn?$AAe?$AAC?$AAo?$AAl?$AAl?$AAe?$AAc?$AAt?$AAi?$AAo?$AAn?$AA?$AA@
	push	OFFSET ??_C@_1BA@GCDNCJOK@?$AAG?$AAe?$AAn?$AAe?$AAr?$AAa?$AAl?$AA?$AA@
	mov	ecx, DWORD PTR ?GlobalConfig@@3PAVConfigFile@@A ; GlobalConfig
	call	DWORD PTR __imp_?GetStringPtr@ConfigFile@@QAEPB_WPB_W00@Z
	pop	ebp
	ret	0
?GetCurrentSceneCollection@OBS@@SAPB_WXZ ENDP		; OBS::GetCurrentSceneCollection
_TEXT	ENDS
; Function compile flags: /Odtp
; File f:\songmm_moon_stone_obs\obs\source\api.cpp
;	COMDAT ?RegisterSceneClass@OBS@@UAEXPB_W0P6GPAXPAVXElement@@@ZP6G_N1_N@Z3@Z
_TEXT	SEGMENT
_this$ = -8						; size = 4
_classInfo$ = -4					; size = 4
_lpClassName$ = 8					; size = 4
_lpDisplayName$ = 12					; size = 4
_createProc$ = 16					; size = 4
_configProc$ = 20					; size = 4
_bDeprecated$ = 24					; size = 1
?RegisterSceneClass@OBS@@UAEXPB_W0P6GPAXPAVXElement@@@ZP6G_N1_N@Z3@Z PROC ; OBS::RegisterSceneClass, COMDAT
; _this$ = ecx

; 28   : {

	push	ebp
	mov	ebp, esp
	sub	esp, 8
	mov	DWORD PTR _this$[ebp], ecx

; 29   :     if(!lpClassName || !*lpClassName)

	cmp	DWORD PTR _lpClassName$[ebp], 0
	je	SHORT $LN3@RegisterSc
	mov	eax, DWORD PTR _lpClassName$[ebp]
	movzx	ecx, WORD PTR [eax]
	test	ecx, ecx
	jne	SHORT $LN4@RegisterSc
$LN3@RegisterSc:

; 30   :     {
; 31   :         AppWarning(TEXT("OBS::RegisterSceneClass: No class name specified"));

	push	OFFSET $SG4294966871
	call	DWORD PTR __imp_?AppWarning@@YAXPB_WZZ
	add	esp, 4

; 32   :         return;

	jmp	$LN5@RegisterSc
$LN4@RegisterSc:

; 33   :     }
; 34   : 
; 35   :     if(!createProc)

	cmp	DWORD PTR _createProc$[ebp], 0
	jne	SHORT $LN2@RegisterSc

; 36   :     {
; 37   :         AppWarning(TEXT("OBS::RegisterSceneClass: No create procedure specified"));

	push	OFFSET $SG4294966870
	call	DWORD PTR __imp_?AppWarning@@YAXPB_WZZ
	add	esp, 4

; 38   :         return;

	jmp	SHORT $LN5@RegisterSc
$LN2@RegisterSc:

; 39   :     }
; 40   : 
; 41   :     if(GetSceneClass(lpClassName))

	mov	edx, DWORD PTR _lpClassName$[ebp]
	push	edx
	mov	ecx, DWORD PTR _this$[ebp]
	call	?GetSceneClass@OBS@@ABEPAUClassInfo@@PB_W@Z ; OBS::GetSceneClass
	test	eax, eax
	je	SHORT $LN1@RegisterSc

; 42   :     {
; 43   :         AppWarning(TEXT("OBS::RegisterSceneClass: Tried to register '%s', but it already exists"), lpClassName);

	mov	eax, DWORD PTR _lpClassName$[ebp]
	push	eax
	push	OFFSET $SG4294966869
	call	DWORD PTR __imp_?AppWarning@@YAXPB_WZZ
	add	esp, 8

; 44   :         return;

	jmp	SHORT $LN5@RegisterSc
$LN1@RegisterSc:

; 45   :     }
; 46   : 
; 47   :     ClassInfo *classInfo   = sceneClasses.CreateNew();

	mov	ecx, DWORD PTR _this$[ebp]
	add	ecx, 1360				; 00000550H
	call	?CreateNew@?$List@UClassInfo@@@@QAEPAUClassInfo@@XZ ; List<ClassInfo>::CreateNew
	mov	DWORD PTR _classInfo$[ebp], eax

; 48   :     classInfo->strClass    = lpClassName;

	mov	ecx, DWORD PTR _lpClassName$[ebp]
	push	ecx
	mov	ecx, DWORD PTR _classInfo$[ebp]
	call	DWORD PTR __imp_??4String@@QAEAAV0@PB_W@Z

; 49   :     classInfo->strName     = lpDisplayName;

	mov	edx, DWORD PTR _lpDisplayName$[ebp]
	push	edx
	mov	ecx, DWORD PTR _classInfo$[ebp]
	add	ecx, 8
	call	DWORD PTR __imp_??4String@@QAEAAV0@PB_W@Z

; 50   :     classInfo->createProc  = createProc;

	mov	eax, DWORD PTR _classInfo$[ebp]
	mov	ecx, DWORD PTR _createProc$[ebp]
	mov	DWORD PTR [eax+16], ecx

; 51   :     classInfo->configProc  = configProc;

	mov	edx, DWORD PTR _classInfo$[ebp]
	mov	eax, DWORD PTR _configProc$[ebp]
	mov	DWORD PTR [edx+20], eax

; 52   :     classInfo->bDeprecated = bDeprecated;

	mov	ecx, DWORD PTR _classInfo$[ebp]
	mov	dl, BYTE PTR _bDeprecated$[ebp]
	mov	BYTE PTR [ecx+24], dl
$LN5@RegisterSc:

; 53   : }

	mov	esp, ebp
	pop	ebp
	ret	20					; 00000014H
?RegisterSceneClass@OBS@@UAEXPB_W0P6GPAXPAVXElement@@@ZP6G_N1_N@Z3@Z ENDP ; OBS::RegisterSceneClass
_TEXT	ENDS
; Function compile flags: /Odtp
; File f:\songmm_moon_stone_obs\obs\source\api.cpp
;	COMDAT ?RegisterImageSourceClass@OBS@@UAEXPB_W0P6GPAXPAVXElement@@@ZP6G_N1_N@Z3@Z
_TEXT	SEGMENT
_this$ = -8						; size = 4
_classInfo$ = -4					; size = 4
_lpClassName$ = 8					; size = 4
_lpDisplayName$ = 12					; size = 4
_createProc$ = 16					; size = 4
_configProc$ = 20					; size = 4
_bDeprecated$ = 24					; size = 1
?RegisterImageSourceClass@OBS@@UAEXPB_W0P6GPAXPAVXElement@@@ZP6G_N1_N@Z3@Z PROC ; OBS::RegisterImageSourceClass, COMDAT
; _this$ = ecx

; 56   : {

	push	ebp
	mov	ebp, esp
	sub	esp, 8
	mov	DWORD PTR _this$[ebp], ecx

; 57   :     if(!lpClassName || !*lpClassName)

	cmp	DWORD PTR _lpClassName$[ebp], 0
	je	SHORT $LN3@RegisterIm
	mov	eax, DWORD PTR _lpClassName$[ebp]
	movzx	ecx, WORD PTR [eax]
	test	ecx, ecx
	jne	SHORT $LN4@RegisterIm
$LN3@RegisterIm:

; 58   :     {
; 59   :         AppWarning(TEXT("OBS::RegisterImageSourceClass: No class name specified"));

	push	OFFSET $SG4294966868
	call	DWORD PTR __imp_?AppWarning@@YAXPB_WZZ
	add	esp, 4

; 60   :         return;

	jmp	$LN5@RegisterIm
$LN4@RegisterIm:

; 61   :     }
; 62   : 
; 63   :     if(!createProc)

	cmp	DWORD PTR _createProc$[ebp], 0
	jne	SHORT $LN2@RegisterIm

; 64   :     {
; 65   :         AppWarning(TEXT("OBS::RegisterImageSourceClass: No create procedure specified"));

	push	OFFSET $SG4294966867
	call	DWORD PTR __imp_?AppWarning@@YAXPB_WZZ
	add	esp, 4

; 66   :         return;

	jmp	SHORT $LN5@RegisterIm
$LN2@RegisterIm:

; 67   :     }
; 68   : 
; 69   :     if(GetImageSourceClass(lpClassName))

	mov	edx, DWORD PTR _lpClassName$[ebp]
	push	edx
	mov	ecx, DWORD PTR _this$[ebp]
	call	?GetImageSourceClass@OBS@@ABEPAUClassInfo@@PB_W@Z ; OBS::GetImageSourceClass
	test	eax, eax
	je	SHORT $LN1@RegisterIm

; 70   :     {
; 71   :         AppWarning(TEXT("OBS::RegisterImageSourceClass: Tried to register '%s', but it already exists"), lpClassName);

	mov	eax, DWORD PTR _lpClassName$[ebp]
	push	eax
	push	OFFSET $SG4294966866
	call	DWORD PTR __imp_?AppWarning@@YAXPB_WZZ
	add	esp, 8

; 72   :         return;

	jmp	SHORT $LN5@RegisterIm
$LN1@RegisterIm:

; 73   :     }
; 74   : 
; 75   :     ClassInfo *classInfo   = imageSourceClasses.CreateNew();

	mov	ecx, DWORD PTR _this$[ebp]
	add	ecx, 1368				; 00000558H
	call	?CreateNew@?$List@UClassInfo@@@@QAEPAUClassInfo@@XZ ; List<ClassInfo>::CreateNew
	mov	DWORD PTR _classInfo$[ebp], eax

; 76   :     classInfo->strClass    = lpClassName;

	mov	ecx, DWORD PTR _lpClassName$[ebp]
	push	ecx
	mov	ecx, DWORD PTR _classInfo$[ebp]
	call	DWORD PTR __imp_??4String@@QAEAAV0@PB_W@Z

; 77   :     classInfo->strName     = lpDisplayName;

	mov	edx, DWORD PTR _lpDisplayName$[ebp]
	push	edx
	mov	ecx, DWORD PTR _classInfo$[ebp]
	add	ecx, 8
	call	DWORD PTR __imp_??4String@@QAEAAV0@PB_W@Z

; 78   :     classInfo->createProc  = createProc;

	mov	eax, DWORD PTR _classInfo$[ebp]
	mov	ecx, DWORD PTR _createProc$[ebp]
	mov	DWORD PTR [eax+16], ecx

; 79   :     classInfo->configProc  = configProc;

	mov	edx, DWORD PTR _classInfo$[ebp]
	mov	eax, DWORD PTR _configProc$[ebp]
	mov	DWORD PTR [edx+20], eax

; 80   :     classInfo->bDeprecated = bDeprecated;

	mov	ecx, DWORD PTR _classInfo$[ebp]
	mov	dl, BYTE PTR _bDeprecated$[ebp]
	mov	BYTE PTR [ecx+24], dl
$LN5@RegisterIm:

; 81   : }

	mov	esp, ebp
	pop	ebp
	ret	20					; 00000014H
?RegisterImageSourceClass@OBS@@UAEXPB_W0P6GPAXPAVXElement@@@ZP6G_N1_N@Z3@Z ENDP ; OBS::RegisterImageSourceClass
_TEXT	ENDS
; Function compile flags: /Odtp
; File f:\songmm_moon_stone_obs\obs\source\api.cpp
;	COMDAT ?CreateScene@OBS@@AAEPAVScene@@PB_WPAVXElement@@@Z
_TEXT	SEGMENT
_this$ = -8						; size = 4
_i$1 = -4						; size = 4
_lpClassName$ = 8					; size = 4
_data$ = 12						; size = 4
?CreateScene@OBS@@AAEPAVScene@@PB_WPAVXElement@@@Z PROC	; OBS::CreateScene, COMDAT
; _this$ = ecx

; 84   : {

	push	ebp
	mov	ebp, esp
	sub	esp, 8
	mov	DWORD PTR _this$[ebp], ecx

; 85   :     for(UINT i=0; i<sceneClasses.Num(); i++)

	mov	DWORD PTR _i$1[ebp], 0
	jmp	SHORT $LN4@CreateScen
$LN3@CreateScen:
	mov	eax, DWORD PTR _i$1[ebp]
	add	eax, 1
	mov	DWORD PTR _i$1[ebp], eax
$LN4@CreateScen:
	mov	ecx, DWORD PTR _this$[ebp]
	add	ecx, 1360				; 00000550H
	call	?Num@?$List@UClassInfo@@@@QBEIXZ	; List<ClassInfo>::Num
	cmp	DWORD PTR _i$1[ebp], eax
	jae	SHORT $LN2@CreateScen

; 86   :     {
; 87   :         if(sceneClasses[i].strClass.CompareI(lpClassName))

	mov	ecx, DWORD PTR _lpClassName$[ebp]
	push	ecx
	mov	edx, DWORD PTR _i$1[ebp]
	push	edx
	mov	ecx, DWORD PTR _this$[ebp]
	add	ecx, 1360				; 00000550H
	call	??A?$List@UClassInfo@@@@QAEAAUClassInfo@@I@Z ; List<ClassInfo>::operator[]
	mov	ecx, eax
	call	DWORD PTR __imp_?CompareI@String@@QBEHPB_W@Z
	test	eax, eax
	je	SHORT $LN1@CreateScen

; 88   :             return (Scene*)sceneClasses[i].createProc(data);

	mov	eax, DWORD PTR _data$[ebp]
	push	eax
	mov	ecx, DWORD PTR _i$1[ebp]
	push	ecx
	mov	ecx, DWORD PTR _this$[ebp]
	add	ecx, 1360				; 00000550H
	call	??A?$List@UClassInfo@@@@QAEAAUClassInfo@@I@Z ; List<ClassInfo>::operator[]
	mov	edx, DWORD PTR [eax+16]
	call	edx
	jmp	SHORT $LN5@CreateScen
$LN1@CreateScen:

; 89   :     }

	jmp	SHORT $LN3@CreateScen
$LN2@CreateScen:

; 90   : 
; 91   :     AppWarning(TEXT("OBS::CreateScene: Could not find scene class '%s'"), lpClassName);

	mov	eax, DWORD PTR _lpClassName$[ebp]
	push	eax
	push	OFFSET $SG4294966865
	call	DWORD PTR __imp_?AppWarning@@YAXPB_WZZ
	add	esp, 8

; 92   :     return NULL;

	xor	eax, eax
$LN5@CreateScen:

; 93   : }

	mov	esp, ebp
	pop	ebp
	ret	8
?CreateScene@OBS@@AAEPAVScene@@PB_WPAVXElement@@@Z ENDP	; OBS::CreateScene
_TEXT	ENDS
; Function compile flags: /Odtp
; File f:\songmm_moon_stone_obs\obs\source\api.cpp
;	COMDAT ?CreateImageSource@OBS@@UAEPAVImageSource@@PB_WPAVXElement@@@Z
_TEXT	SEGMENT
_this$ = -8						; size = 4
_i$1 = -4						; size = 4
_lpClassName$ = 8					; size = 4
_data$ = 12						; size = 4
?CreateImageSource@OBS@@UAEPAVImageSource@@PB_WPAVXElement@@@Z PROC ; OBS::CreateImageSource, COMDAT
; _this$ = ecx

; 96   : {

	push	ebp
	mov	ebp, esp
	sub	esp, 8
	mov	DWORD PTR _this$[ebp], ecx

; 97   :     for(UINT i=0; i<imageSourceClasses.Num(); i++)

	mov	DWORD PTR _i$1[ebp], 0
	jmp	SHORT $LN4@CreateImag
$LN3@CreateImag:
	mov	eax, DWORD PTR _i$1[ebp]
	add	eax, 1
	mov	DWORD PTR _i$1[ebp], eax
$LN4@CreateImag:
	mov	ecx, DWORD PTR _this$[ebp]
	add	ecx, 1368				; 00000558H
	call	?Num@?$List@UClassInfo@@@@QBEIXZ	; List<ClassInfo>::Num
	cmp	DWORD PTR _i$1[ebp], eax
	jae	SHORT $LN2@CreateImag

; 98   :     {
; 99   :         if(imageSourceClasses[i].strClass.CompareI(lpClassName))

	mov	ecx, DWORD PTR _lpClassName$[ebp]
	push	ecx
	mov	edx, DWORD PTR _i$1[ebp]
	push	edx
	mov	ecx, DWORD PTR _this$[ebp]
	add	ecx, 1368				; 00000558H
	call	??A?$List@UClassInfo@@@@QAEAAUClassInfo@@I@Z ; List<ClassInfo>::operator[]
	mov	ecx, eax
	call	DWORD PTR __imp_?CompareI@String@@QBEHPB_W@Z
	test	eax, eax
	je	SHORT $LN1@CreateImag

; 100  :             return (ImageSource*)imageSourceClasses[i].createProc(data);

	mov	eax, DWORD PTR _data$[ebp]
	push	eax
	mov	ecx, DWORD PTR _i$1[ebp]
	push	ecx
	mov	ecx, DWORD PTR _this$[ebp]
	add	ecx, 1368				; 00000558H
	call	??A?$List@UClassInfo@@@@QAEAAUClassInfo@@I@Z ; List<ClassInfo>::operator[]
	mov	edx, DWORD PTR [eax+16]
	call	edx
	jmp	SHORT $LN5@CreateImag
$LN1@CreateImag:

; 101  :     }

	jmp	SHORT $LN3@CreateImag
$LN2@CreateImag:

; 102  : 
; 103  :     AppWarning(TEXT("OBS::CreateImageSource: Could not find image source class '%s'"), lpClassName);

	mov	eax, DWORD PTR _lpClassName$[ebp]
	push	eax
	push	OFFSET $SG4294966864
	call	DWORD PTR __imp_?AppWarning@@YAXPB_WZZ
	add	esp, 8

; 104  :     return NULL;

	xor	eax, eax
$LN5@CreateImag:

; 105  : }

	mov	esp, ebp
	pop	ebp
	ret	8
?CreateImageSource@OBS@@UAEPAVImageSource@@PB_WPAVXElement@@@Z ENDP ; OBS::CreateImageSource
_TEXT	ENDS
; Function compile flags: /Odtp
; File f:\songmm_moon_stone_obs\obs\source\api.cpp
;	COMDAT ?InsertSourceItem@OBS@@UAEXIPA_W_N@Z
_TEXT	SEGMENT
__macro_lvi$1 = -132					; size = 60
_lvI$ = -72						; size = 60
_this$ = -12						; size = 4
tv73 = -8						; size = 4
_hwndSources$ = -4					; size = 4
_index$ = 8						; size = 4
_name$ = 12						; size = 4
_checked$ = 16						; size = 1
?InsertSourceItem@OBS@@UAEXIPA_W_N@Z PROC		; OBS::InsertSourceItem, COMDAT
; _this$ = ecx

; 164  : {

	push	ebp
	mov	ebp, esp
	sub	esp, 132				; 00000084H
	mov	DWORD PTR _this$[ebp], ecx

; 165  :     LVITEM lvI;
; 166  :     // Initialize LVITEM members that are common to all items.
; 167  :     lvI.mask      = LVIF_TEXT | LVIF_IMAGE | LVIF_STATE;

	mov	DWORD PTR _lvI$[ebp], 11		; 0000000bH

; 168  :     lvI.stateMask = 0;

	mov	DWORD PTR _lvI$[ebp+16], 0

; 169  :     lvI.iSubItem  = 0;

	mov	DWORD PTR _lvI$[ebp+8], 0

; 170  :     lvI.state     = 0;

	mov	DWORD PTR _lvI$[ebp+12], 0

; 171  :     lvI.pszText = name;

	mov	eax, DWORD PTR _name$[ebp]
	mov	DWORD PTR _lvI$[ebp+20], eax

; 172  :     lvI.iItem = index;

	mov	ecx, DWORD PTR _index$[ebp]
	mov	DWORD PTR _lvI$[ebp+4], ecx

; 173  : 
; 174  : 
; 175  :     HWND hwndSources = GetDlgItem(hwndMain, ID_SOURCES);

	push	5013					; 00001395H
	mov	edx, DWORD PTR ?hwndMain@@3PAUHWND__@@A	; hwndMain
	push	edx
	call	DWORD PTR __imp__GetDlgItem@8
	mov	DWORD PTR _hwndSources$[ebp], eax

; 176  : 
; 177  :     ListView_InsertItem(hwndSources, &lvI);

	lea	eax, DWORD PTR _lvI$[ebp]
	push	eax
	push	0
	push	4173					; 0000104dH
	mov	ecx, DWORD PTR _hwndSources$[ebp]
	push	ecx
	call	DWORD PTR __imp__SendMessageW@16

; 178  :     ListView_SetCheckState(hwndSources, index, checked);   

	mov	DWORD PTR __macro_lvi$1[ebp+16], 61440	; 0000f000H
	movzx	edx, BYTE PTR _checked$[ebp]
	test	edx, edx
	je	SHORT $LN3@InsertSour
	mov	DWORD PTR tv73[ebp], 2
	jmp	SHORT $LN4@InsertSour
$LN3@InsertSour:
	mov	DWORD PTR tv73[ebp], 1
$LN4@InsertSour:
	mov	eax, DWORD PTR tv73[ebp]
	shl	eax, 12					; 0000000cH
	mov	DWORD PTR __macro_lvi$1[ebp+12], eax
	lea	ecx, DWORD PTR __macro_lvi$1[ebp]
	push	ecx
	mov	edx, DWORD PTR _index$[ebp]
	push	edx
	push	4139					; 0000102bH
	mov	eax, DWORD PTR _hwndSources$[ebp]
	push	eax
	call	DWORD PTR __imp__SendMessageW@16

; 179  :     ListView_SetColumnWidth(hwndSources, 0, LVSCW_AUTOSIZE_USEHEADER);

	push	65534					; 0000fffeH
	push	0
	push	4126					; 0000101eH
	mov	ecx, DWORD PTR _hwndSources$[ebp]
	push	ecx
	call	DWORD PTR __imp__SendMessageW@16

; 180  :     ListView_SetColumnWidth(hwndSources, 1, LVSCW_AUTOSIZE_USEHEADER);

	push	65534					; 0000fffeH
	push	1
	push	4126					; 0000101eH
	mov	edx, DWORD PTR _hwndSources$[ebp]
	push	edx
	call	DWORD PTR __imp__SendMessageW@16

; 181  : }

	mov	esp, ebp
	pop	ebp
	ret	12					; 0000000cH
?InsertSourceItem@OBS@@UAEXIPA_W_N@Z ENDP		; OBS::InsertSourceItem
_TEXT	ENDS
; Function compile flags: /Odtp
; File f:\songmm_moon_stone_obs\obs\source\api.cpp
;	COMDAT ?SetScene@OBS@@UAE_NPB_W@Z
_TEXT	SEGMENT
_className$1 = -264					; size = 8
$T2 = -256						; size = 8
$T3 = -248						; size = 8
_className$4 = -240					; size = 8
_className$5 = -232					; size = 8
$T6 = -224						; size = 8
$T7 = -216						; size = 4
_textLen$8 = -212					; size = 4
_sourceElement$9 = -208					; size = 4
_sourceElement$10 = -204				; size = 4
tv421 = -200						; size = 4
_globalSourceData$11 = -196				; size = 4
_globalSourceName$12 = -192				; size = 8
_numSources$13 = -184					; size = 4
_globalSourceName$14 = -180				; size = 8
$T15 = -172						; size = 4
_scenes$ = -168						; size = 4
$T16 = -164						; size = 4
_sceneChangeStartTime$ = -160				; size = 4
_sceneData$ = -156					; size = 4
tv527 = -152						; size = 4
_globalSourceData$17 = -148				; size = 4
_id$18 = -144						; size = 4
tv250 = -140						; size = 4
_sceneChangeTime$19 = -136				; size = 4
_id$20 = -132						; size = 4
_previousScene$21 = -128				; size = 4
_lpClass$ = -124					; size = 4
tv507 = -120						; size = 4
tv341 = -116						; size = 4
_source$22 = -112					; size = 4
tv205 = -108						; size = 4
tv480 = -104						; size = 4
_strLBName$23 = -100					; size = 8
tv400 = -92						; size = 4
_source$24 = -88					; size = 4
$T25 = -84						; size = 4
_curSel$ = -80						; size = 4
_numSources$26 = -76					; size = 4
_numSources$27 = -72					; size = 4
$T28 = -68						; size = 4
_sourceElement$29 = -64					; size = 4
_i$30 = -60						; size = 4
_i$31 = -56						; size = 4
_i$32 = -52						; size = 4
_newSceneElement$ = -48					; size = 4
_i$33 = -44						; size = 4
_hwndSources$ = -40					; size = 4
_i$34 = -36						; size = 4
_sources$ = -32						; size = 4
$T35 = -25						; size = 1
_hwndScenes$ = -24					; size = 4
_render$36 = -19					; size = 1
$T37 = -18						; size = 1
$T38 = -17						; size = 1
$T39 = -16						; size = 4
_newScene$ = -12					; size = 4
_bSkipTransition$ = -5					; size = 1
_this$ = -4						; size = 4
_lpScene$ = 8						; size = 4
?SetScene@OBS@@UAE_NPB_W@Z PROC				; OBS::SetScene, COMDAT
; _this$ = ecx

; 184  : {

	push	ebp
	mov	ebp, esp
	sub	esp, 264				; 00000108H
	mov	DWORD PTR _this$[ebp], ecx
	mov	DWORD PTR $T39[ebp], 0

; 185  :     if(bDisableSceneSwitching)

	mov	eax, DWORD PTR _this$[ebp]
	movzx	ecx, BYTE PTR [eax+704]
	test	ecx, ecx
	je	SHORT $LN43@SetScene

; 186  :         return false;

	xor	al, al
	jmp	$LN44@SetScene
$LN43@SetScene:

; 187  : 
; 188  :     HWND hwndScenes = GetDlgItem(hwndMain, ID_SCENES);

	push	5011					; 00001393H
	mov	edx, DWORD PTR ?hwndMain@@3PAUHWND__@@A	; hwndMain
	push	edx
	call	DWORD PTR __imp__GetDlgItem@8
	mov	DWORD PTR _hwndScenes$[ebp], eax

; 189  :     UINT curSel = (UINT)SendMessage(hwndScenes, LB_GETCURSEL, 0, 0);

	push	0
	push	0
	push	392					; 00000188H
	mov	eax, DWORD PTR _hwndScenes$[ebp]
	push	eax
	call	DWORD PTR __imp__SendMessageW@16
	mov	DWORD PTR _curSel$[ebp], eax

; 190  : 
; 191  :     //-------------------------
; 192  : 
; 193  :     if(curSel != LB_ERR)

	cmp	DWORD PTR _curSel$[ebp], -1
	je	$LN42@SetScene

; 194  :     {
; 195  :         UINT textLen = (UINT)SendMessage(hwndScenes, LB_GETTEXTLEN, curSel, 0);

	push	0
	mov	ecx, DWORD PTR _curSel$[ebp]
	push	ecx
	push	394					; 0000018aH
	mov	edx, DWORD PTR _hwndScenes$[ebp]
	push	edx
	call	DWORD PTR __imp__SendMessageW@16
	mov	DWORD PTR _textLen$8[ebp], eax

; 196  : 
; 197  :         String strLBName;

	lea	ecx, DWORD PTR _strLBName$23[ebp]
	call	DWORD PTR __imp_??0String@@QAE@XZ

; 198  :         strLBName.SetLength(textLen);

	mov	eax, DWORD PTR _textLen$8[ebp]
	push	eax
	lea	ecx, DWORD PTR _strLBName$23[ebp]
	call	DWORD PTR __imp_?SetLength@String@@QAEAAV1@I@Z

; 199  : 
; 200  :         SendMessage(hwndScenes, LB_GETTEXT, curSel, (LPARAM)strLBName.Array());

	lea	ecx, DWORD PTR _strLBName$23[ebp]
	call	DWORD PTR __imp_?Array@String@@QBEPA_WXZ
	push	eax
	mov	ecx, DWORD PTR _curSel$[ebp]
	push	ecx
	push	393					; 00000189H
	mov	edx, DWORD PTR _hwndScenes$[ebp]
	push	edx
	call	DWORD PTR __imp__SendMessageW@16

; 201  :         if(!strLBName.CompareI(lpScene))

	mov	eax, DWORD PTR _lpScene$[ebp]
	push	eax
	lea	ecx, DWORD PTR _strLBName$23[ebp]
	call	DWORD PTR __imp_?CompareI@String@@QBEHPB_W@Z
	test	eax, eax
	jne	SHORT $LN41@SetScene

; 202  :         {
; 203  :             UINT id = (UINT)SendMessage(hwndScenes, LB_FINDSTRINGEXACT, -1, (LPARAM)lpScene);

	mov	ecx, DWORD PTR _lpScene$[ebp]
	push	ecx
	push	-1
	push	418					; 000001a2H
	mov	edx, DWORD PTR _hwndScenes$[ebp]
	push	edx
	call	DWORD PTR __imp__SendMessageW@16
	mov	DWORD PTR _id$20[ebp], eax

; 204  :             if(id == LB_ERR)

	cmp	DWORD PTR _id$20[ebp], -1
	jne	SHORT $LN40@SetScene

; 205  :                 return false;

	mov	BYTE PTR $T37[ebp], 0
	lea	ecx, DWORD PTR _strLBName$23[ebp]
	call	DWORD PTR __imp_??1String@@QAE@XZ
	mov	al, BYTE PTR $T37[ebp]
	jmp	$LN44@SetScene
$LN40@SetScene:

; 206  : 
; 207  :             SendMessage(hwndScenes, LB_SETCURSEL, id, 0);

	push	0
	mov	eax, DWORD PTR _id$20[ebp]
	push	eax
	push	390					; 00000186H
	mov	ecx, DWORD PTR _hwndScenes$[ebp]
	push	ecx
	call	DWORD PTR __imp__SendMessageW@16
$LN41@SetScene:

; 208  :         }
; 209  :     }

	lea	ecx, DWORD PTR _strLBName$23[ebp]
	call	DWORD PTR __imp_??1String@@QAE@XZ

; 210  :     else

	jmp	SHORT $LN39@SetScene
$LN42@SetScene:

; 211  :     {
; 212  :         UINT id = (UINT)SendMessage(hwndScenes, LB_FINDSTRINGEXACT, -1, (LPARAM)lpScene);

	mov	edx, DWORD PTR _lpScene$[ebp]
	push	edx
	push	-1
	push	418					; 000001a2H
	mov	eax, DWORD PTR _hwndScenes$[ebp]
	push	eax
	call	DWORD PTR __imp__SendMessageW@16
	mov	DWORD PTR _id$18[ebp], eax

; 213  :         if(id == LB_ERR)

	cmp	DWORD PTR _id$18[ebp], -1
	jne	SHORT $LN38@SetScene

; 214  :             return false;

	xor	al, al
	jmp	$LN44@SetScene
$LN38@SetScene:

; 215  : 
; 216  :         SendMessage(hwndScenes, LB_SETCURSEL, id, 0);

	push	0
	mov	ecx, DWORD PTR _id$18[ebp]
	push	ecx
	push	390					; 00000186H
	mov	edx, DWORD PTR _hwndScenes$[ebp]
	push	edx
	call	DWORD PTR __imp__SendMessageW@16
$LN39@SetScene:

; 217  :     }
; 218  : 
; 219  :     //-------------------------
; 220  : 
; 221  :     XElement *scenes = scenesConfig.GetElement(TEXT("scenes"));

	push	OFFSET $SG4294966855
	mov	ecx, DWORD PTR _this$[ebp]
	add	ecx, 168				; 000000a8H
	call	DWORD PTR __imp_?GetElement@XConfig@@QAEPAVXElement@@PB_W@Z
	mov	DWORD PTR _scenes$[ebp], eax

; 222  :     XElement *newSceneElement = scenes->GetElement(lpScene);

	mov	eax, DWORD PTR _lpScene$[ebp]
	push	eax
	mov	ecx, DWORD PTR _scenes$[ebp]
	call	DWORD PTR __imp_?GetElement@XElement@@QBEPAV1@PB_W@Z
	mov	DWORD PTR _newSceneElement$[ebp], eax

; 223  :     if(!newSceneElement)

	cmp	DWORD PTR _newSceneElement$[ebp], 0
	jne	SHORT $LN37@SetScene

; 224  :         return false;

	xor	al, al
	jmp	$LN44@SetScene
$LN37@SetScene:

; 225  : 
; 226  :     if(sceneElement == newSceneElement)

	mov	ecx, DWORD PTR _this$[ebp]
	mov	edx, DWORD PTR [ecx+212]
	cmp	edx, DWORD PTR _newSceneElement$[ebp]
	jne	SHORT $LN36@SetScene

; 227  :         return true;

	mov	al, 1
	jmp	$LN44@SetScene
$LN36@SetScene:

; 228  : 
; 229  :     sceneElement = newSceneElement;

	mov	eax, DWORD PTR _this$[ebp]
	mov	ecx, DWORD PTR _newSceneElement$[ebp]
	mov	DWORD PTR [eax+212], ecx

; 230  : 
; 231  :     CTSTR lpClass = sceneElement->GetString(TEXT("class"));

	push	0
	push	OFFSET $SG4294966854
	mov	edx, DWORD PTR _this$[ebp]
	mov	ecx, DWORD PTR [edx+212]
	call	DWORD PTR __imp_?GetString@XElement@@QBEPB_WPB_WPA_W@Z
	mov	DWORD PTR _lpClass$[ebp], eax

; 232  :     if(!lpClass)

	cmp	DWORD PTR _lpClass$[ebp], 0
	jne	SHORT $LN35@SetScene

; 233  :     {
; 234  :         AppWarning(TEXT("OBS::SetScene: no class found for scene '%s'"), newSceneElement->GetName());

	mov	ecx, DWORD PTR _newSceneElement$[ebp]
	call	DWORD PTR __imp_?GetName@XBaseItem@@QBEPB_WXZ
	push	eax
	push	OFFSET $SG4294966853
	call	DWORD PTR __imp_?AppWarning@@YAXPB_WZZ
	add	esp, 8

; 235  :         return false;

	xor	al, al
	jmp	$LN44@SetScene
$LN35@SetScene:

; 236  :     }
; 237  : 
; 238  :     DWORD sceneChangeStartTime;
; 239  : 
; 240  :     if(bRunning)

	mov	eax, DWORD PTR _this$[ebp]
	movzx	ecx, BYTE PTR [eax+622]
	test	ecx, ecx
	je	SHORT $LN34@SetScene

; 241  :     {
; 242  :         Log(TEXT("++++++++++++++++++++++++++++++++++++++++++++++++++++++"));

	push	OFFSET $SG4294966852
	call	DWORD PTR __imp_?Log@@YAXPB_WZZ
	add	esp, 4

; 243  :         Log(TEXT("  New Scene"));

	push	OFFSET $SG4294966851
	call	DWORD PTR __imp_?Log@@YAXPB_WZZ
	add	esp, 4

; 244  : 
; 245  :         sceneChangeStartTime = OSGetTime();

	call	DWORD PTR __imp_?OSGetTime@@YGKXZ
	mov	DWORD PTR _sceneChangeStartTime$[ebp], eax
$LN34@SetScene:

; 246  :     }
; 247  : 
; 248  :     XElement *sceneData = newSceneElement->GetElement(TEXT("data"));

	push	OFFSET $SG4294966850
	mov	ecx, DWORD PTR _newSceneElement$[ebp]
	call	DWORD PTR __imp_?GetElement@XElement@@QBEPAV1@PB_W@Z
	mov	DWORD PTR _sceneData$[ebp], eax

; 249  : 
; 250  :     //-------------------------
; 251  : 
; 252  :     Scene *newScene = NULL;

	mov	DWORD PTR _newScene$[ebp], 0

; 253  :     if(bRunning)

	mov	edx, DWORD PTR _this$[ebp]
	movzx	eax, BYTE PTR [edx+622]
	test	eax, eax
	je	SHORT $LN33@SetScene

; 254  :         newScene = CreateScene(lpClass, sceneData);

	mov	ecx, DWORD PTR _sceneData$[ebp]
	push	ecx
	mov	edx, DWORD PTR _lpClass$[ebp]
	push	edx
	mov	ecx, DWORD PTR _this$[ebp]
	call	?CreateScene@OBS@@AAEPAVScene@@PB_WPAVXElement@@@Z ; OBS::CreateScene
	mov	DWORD PTR _newScene$[ebp], eax
$LN33@SetScene:

; 255  : 
; 256  :     //-------------------------
; 257  : 
; 258  :     HWND hwndSources = GetDlgItem(hwndMain, ID_SOURCES);

	push	5013					; 00001395H
	mov	eax, DWORD PTR ?hwndMain@@3PAUHWND__@@A	; hwndMain
	push	eax
	call	DWORD PTR __imp__GetDlgItem@8
	mov	DWORD PTR _hwndSources$[ebp], eax

; 259  : 
; 260  :     SendMessage(hwndSources, WM_SETREDRAW, (WPARAM)FALSE, (LPARAM) 0);

	push	0
	push	0
	push	11					; 0000000bH
	mov	ecx, DWORD PTR _hwndSources$[ebp]
	push	ecx
	call	DWORD PTR __imp__SendMessageW@16

; 261  : 
; 262  :     App->scaleItem = NULL;

	mov	edx, DWORD PTR ?App@@3PAVOBS@@A		; App
	mov	DWORD PTR [edx+772], 0

; 263  : 
; 264  :     bChangingSources = true;

	mov	eax, DWORD PTR _this$[ebp]
	mov	BYTE PTR [eax+705], 1

; 265  :     ListView_DeleteAllItems(hwndSources);

	push	0
	push	0
	push	4105					; 00001009H
	mov	ecx, DWORD PTR _hwndSources$[ebp]
	push	ecx
	call	DWORD PTR __imp__SendMessageW@16

; 266  : 
; 267  :     bool bSkipTransition = !performTransition;

	mov	edx, DWORD PTR _this$[ebp]
	movzx	eax, BYTE PTR [edx+44]
	test	eax, eax
	jne	SHORT $LN46@SetScene
	mov	DWORD PTR tv205[ebp], 1
	jmp	SHORT $LN47@SetScene
$LN46@SetScene:
	mov	DWORD PTR tv205[ebp], 0
$LN47@SetScene:
	mov	cl, BYTE PTR tv205[ebp]
	mov	BYTE PTR _bSkipTransition$[ebp], cl

; 268  : 
; 269  :     XElement *sources = sceneElement->GetElement(TEXT("sources"));

	push	OFFSET $SG4294966849
	mov	edx, DWORD PTR _this$[ebp]
	mov	ecx, DWORD PTR [edx+212]
	call	DWORD PTR __imp_?GetElement@XElement@@QBEPAV1@PB_W@Z
	mov	DWORD PTR _sources$[ebp], eax

; 270  :     if(sources)

	cmp	DWORD PTR _sources$[ebp], 0
	je	$LN25@SetScene

; 271  :     {
; 272  :         UINT numSources = sources->NumElements();

	push	0
	mov	ecx, DWORD PTR _sources$[ebp]
	call	DWORD PTR __imp_?NumElements@XElement@@QAEKPB_W@Z
	mov	DWORD PTR _numSources$27[ebp], eax

; 273  :         ListView_SetItemCount(hwndSources, numSources);

	push	0
	mov	eax, DWORD PTR _numSources$27[ebp]
	push	eax
	push	4143					; 0000102fH
	mov	ecx, DWORD PTR _hwndSources$[ebp]
	push	ecx
	call	DWORD PTR __imp__SendMessageW@16

; 274  : 
; 275  :         for(UINT i=0; i<numSources; i++)

	mov	DWORD PTR _i$30[ebp], 0
	jmp	SHORT $LN31@SetScene
$LN30@SetScene:
	mov	edx, DWORD PTR _i$30[ebp]
	add	edx, 1
	mov	DWORD PTR _i$30[ebp], edx
$LN31@SetScene:
	mov	eax, DWORD PTR _i$30[ebp]
	cmp	eax, DWORD PTR _numSources$27[ebp]
	jae	$LN29@SetScene

; 276  :         {
; 277  :             XElement *sourceElement = sources->GetElementByID(i);

	mov	ecx, DWORD PTR _i$30[ebp]
	push	ecx
	mov	ecx, DWORD PTR _sources$[ebp]
	call	DWORD PTR __imp_?GetElementByID@XElement@@QBEPAV1@K@Z
	mov	DWORD PTR _sourceElement$10[ebp], eax

; 278  :             String className = sourceElement->GetString(TEXT("class"));

	push	0
	push	OFFSET $SG4294966848
	mov	ecx, DWORD PTR _sourceElement$10[ebp]
	call	DWORD PTR __imp_?GetString@XElement@@QBEPB_WPB_WPA_W@Z
	push	eax
	lea	ecx, DWORD PTR _className$4[ebp]
	call	DWORD PTR __imp_??0String@@QAE@PB_W@Z

; 279  : 
; 280  :             if(className == "DeviceCapture") {

	push	OFFSET $SG4294966847
	lea	ecx, DWORD PTR $T6[ebp]
	call	DWORD PTR __imp_??0String@@QAE@PBD@Z
	lea	edx, DWORD PTR $T6[ebp]
	push	edx
	lea	ecx, DWORD PTR _className$4[ebp]
	call	DWORD PTR __imp_??8String@@QBEHABV0@@Z
	mov	DWORD PTR $T16[ebp], eax
	lea	ecx, DWORD PTR $T6[ebp]
	call	DWORD PTR __imp_??1String@@QAE@XZ
	cmp	DWORD PTR $T16[ebp], 0
	je	SHORT $LN28@SetScene

; 281  :                 // There's a capture device in the next scene that isn't a global source,
; 282  :                 // so let's skip the transition since it won't work anyway.
; 283  :                 bSkipTransition = true;

	mov	BYTE PTR _bSkipTransition$[ebp], 1
$LN28@SetScene:

; 284  :             }
; 285  :         }

	lea	ecx, DWORD PTR _className$4[ebp]
	call	DWORD PTR __imp_??1String@@QAE@XZ
	jmp	$LN30@SetScene
$LN29@SetScene:

; 286  : 
; 287  :         for(UINT i=0; i<numSources; i++)

	mov	DWORD PTR _i$34[ebp], 0
	jmp	SHORT $LN27@SetScene
$LN26@SetScene:
	mov	eax, DWORD PTR _i$34[ebp]
	add	eax, 1
	mov	DWORD PTR _i$34[ebp], eax
$LN27@SetScene:
	mov	ecx, DWORD PTR _i$34[ebp]
	cmp	ecx, DWORD PTR _numSources$27[ebp]
	jae	$LN25@SetScene

; 288  :         {
; 289  :             XElement *sourceElement = sources->GetElementByID(i);

	mov	edx, DWORD PTR _i$34[ebp]
	push	edx
	mov	ecx, DWORD PTR _sources$[ebp]
	call	DWORD PTR __imp_?GetElementByID@XElement@@QBEPAV1@K@Z
	mov	DWORD PTR _sourceElement$29[ebp], eax

; 290  :             bool render = sourceElement->GetInt(TEXT("render"), 1) > 0;

	push	1
	push	OFFSET $SG4294966846
	mov	ecx, DWORD PTR _sourceElement$29[ebp]
	call	DWORD PTR __imp_?GetInt@XElement@@QBEHPB_WH@Z
	test	eax, eax
	jle	SHORT $LN48@SetScene
	mov	DWORD PTR tv250[ebp], 1
	jmp	SHORT $LN49@SetScene
$LN48@SetScene:
	mov	DWORD PTR tv250[ebp], 0
$LN49@SetScene:
	mov	al, BYTE PTR tv250[ebp]
	mov	BYTE PTR _render$36[ebp], al

; 291  : 
; 292  :             InsertSourceItem(i, (LPWSTR)sourceElement->GetName(), render);

	movzx	ecx, BYTE PTR _render$36[ebp]
	push	ecx
	mov	ecx, DWORD PTR _sourceElement$29[ebp]
	call	DWORD PTR __imp_?GetName@XBaseItem@@QBEPB_WXZ
	push	eax
	mov	edx, DWORD PTR _i$34[ebp]
	push	edx
	mov	eax, DWORD PTR _this$[ebp]
	mov	edx, DWORD PTR [eax]
	mov	ecx, DWORD PTR _this$[ebp]
	mov	eax, DWORD PTR [edx+28]
	call	eax

; 293  : 
; 294  :             // Do not add image sources yet in case we're skipping the transition.
; 295  :             // This fixes the issue where capture devices sources that used the
; 296  :             // same device as one in the previous scene would just go blank
; 297  :             // after switching.
; 298  :             if(bRunning && newScene && !bSkipTransition)

	mov	ecx, DWORD PTR _this$[ebp]
	movzx	edx, BYTE PTR [ecx+622]
	test	edx, edx
	je	SHORT $LN24@SetScene
	cmp	DWORD PTR _newScene$[ebp], 0
	je	SHORT $LN24@SetScene
	movzx	eax, BYTE PTR _bSkipTransition$[ebp]
	test	eax, eax
	jne	SHORT $LN24@SetScene

; 299  :                 newScene->AddImageSource(sourceElement);

	mov	ecx, DWORD PTR _sourceElement$29[ebp]
	push	ecx
	mov	edx, DWORD PTR _newScene$[ebp]
	mov	eax, DWORD PTR [edx]
	mov	ecx, DWORD PTR _newScene$[ebp]
	mov	edx, DWORD PTR [eax+8]
	call	edx
$LN24@SetScene:

; 300  :         }

	jmp	$LN26@SetScene
$LN25@SetScene:

; 301  :     }
; 302  : 
; 303  :     bChangingSources = false;

	mov	eax, DWORD PTR _this$[ebp]
	mov	BYTE PTR [eax+705], 0

; 304  :     SendMessage(hwndSources, WM_SETREDRAW, (WPARAM)TRUE, (LPARAM) 0);

	push	0
	push	1
	push	11					; 0000000bH
	mov	ecx, DWORD PTR _hwndSources$[ebp]
	push	ecx
	call	DWORD PTR __imp__SendMessageW@16

; 305  :     RedrawWindow(hwndSources, NULL, NULL, RDW_ERASE | RDW_FRAME | RDW_INVALIDATE | RDW_ALLCHILDREN);

	push	1157					; 00000485H
	push	0
	push	0
	mov	edx, DWORD PTR _hwndSources$[ebp]
	push	edx
	call	DWORD PTR __imp__RedrawWindow@16

; 306  : 
; 307  :     if(scene && newScene && newScene->HasMissingSources())

	mov	eax, DWORD PTR _this$[ebp]
	cmp	DWORD PTR [eax+144], 0
	je	SHORT $LN23@SetScene
	cmp	DWORD PTR _newScene$[ebp], 0
	je	SHORT $LN23@SetScene
	mov	ecx, DWORD PTR _newScene$[ebp]
	call	DWORD PTR __imp_?HasMissingSources@Scene@@QBE_NXZ
	movzx	ecx, al
	test	ecx, ecx
	je	SHORT $LN23@SetScene

; 308  :         OBSMessageBox(hwndMain, Str("Scene.MissingSources"), NULL, 0);

	push	0
	push	0
	push	OFFSET $SG4294966845
	mov	edx, DWORD PTR __imp_?locale@@3PAVLocaleStringLookup@@A
	mov	ecx, DWORD PTR [edx]
	call	DWORD PTR __imp_?LookupString@LocaleStringLookup@@QAEPB_WPB_W@Z
	push	eax
	mov	eax, DWORD PTR ?hwndMain@@3PAUHWND__@@A	; hwndMain
	push	eax
	call	DWORD PTR __imp_?OBSMessageBox@@YAHPAUHWND__@@PB_W1I@Z
	add	esp, 16					; 00000010H
$LN23@SetScene:

; 309  : 
; 310  :     if(bRunning)

	mov	ecx, DWORD PTR _this$[ebp]
	movzx	edx, BYTE PTR [ecx+622]
	test	edx, edx
	je	$LN2@SetScene

; 311  :     {
; 312  :         //todo: cache scenes maybe?  undecided.  not really as necessary with global sources
; 313  :         OSEnterMutex(hSceneMutex);

	mov	eax, DWORD PTR _this$[ebp]
	mov	ecx, DWORD PTR [eax+956]
	push	ecx
	call	DWORD PTR __imp_?OSEnterMutex@@YGXPAX@Z

; 314  : 
; 315  :         UINT numSources;
; 316  : 
; 317  :         if (scene)

	mov	edx, DWORD PTR _this$[ebp]
	cmp	DWORD PTR [edx+144], 0
	je	$LN21@SetScene

; 318  :         {
; 319  :             //shutdown previous scene, if any
; 320  :             numSources = scene->sceneItems.Num();

	mov	eax, DWORD PTR _this$[ebp]
	mov	ecx, DWORD PTR [eax+144]
	add	ecx, 8
	call	?Num@?$List@PAVSceneItem@@@@QBEIXZ	; List<SceneItem *>::Num
	mov	DWORD PTR _numSources$26[ebp], eax

; 321  :             for(UINT i=0; i<numSources; i++)

	mov	DWORD PTR _i$33[ebp], 0
	jmp	SHORT $LN20@SetScene
$LN19@SetScene:
	mov	ecx, DWORD PTR _i$33[ebp]
	add	ecx, 1
	mov	DWORD PTR _i$33[ebp], ecx
$LN20@SetScene:
	mov	edx, DWORD PTR _i$33[ebp]
	cmp	edx, DWORD PTR _numSources$26[ebp]
	jae	$LN18@SetScene

; 322  :             {
; 323  :                 XElement *source = scene->sceneItems[i]->GetElement();

	mov	eax, DWORD PTR _i$33[ebp]
	push	eax
	mov	ecx, DWORD PTR _this$[ebp]
	mov	ecx, DWORD PTR [ecx+144]
	add	ecx, 8
	call	??A?$List@PAVSceneItem@@@@QAEAAPAVSceneItem@@I@Z ; List<SceneItem *>::operator[]
	mov	ecx, DWORD PTR [eax]
	call	DWORD PTR __imp_?GetElement@SceneItem@@QBEPAVXElement@@XZ
	mov	DWORD PTR _source$24[ebp], eax

; 324  :                 String className = source->GetString(TEXT("class"));

	push	0
	push	OFFSET $SG4294966844
	mov	ecx, DWORD PTR _source$24[ebp]
	call	DWORD PTR __imp_?GetString@XElement@@QBEPB_WPB_WPA_W@Z
	push	eax
	lea	ecx, DWORD PTR _className$5[ebp]
	call	DWORD PTR __imp_??0String@@QAE@PB_W@Z

; 325  :                 if(scene->sceneItems[i]->bRender && className == "GlobalSource") {

	mov	edx, DWORD PTR _i$33[ebp]
	push	edx
	mov	eax, DWORD PTR _this$[ebp]
	mov	ecx, DWORD PTR [eax+144]
	add	ecx, 8
	call	??A?$List@PAVSceneItem@@@@QAEAAPAVSceneItem@@I@Z ; List<SceneItem *>::operator[]
	mov	ecx, DWORD PTR [eax]
	movzx	edx, BYTE PTR [ecx+65]
	test	edx, edx
	je	SHORT $LN50@SetScene
	push	OFFSET $SG4294966843
	lea	ecx, DWORD PTR $T2[ebp]
	call	DWORD PTR __imp_??0String@@QAE@PBD@Z
	or	DWORD PTR $T39[ebp], 1
	lea	eax, DWORD PTR $T2[ebp]
	push	eax
	lea	ecx, DWORD PTR _className$5[ebp]
	call	DWORD PTR __imp_??8String@@QBEHABV0@@Z
	test	eax, eax
	je	SHORT $LN50@SetScene
	mov	DWORD PTR tv341[ebp], 1
	jmp	SHORT $LN51@SetScene
$LN50@SetScene:
	mov	DWORD PTR tv341[ebp], 0
$LN51@SetScene:
	mov	cl, BYTE PTR tv341[ebp]
	mov	BYTE PTR $T35[ebp], cl
	mov	edx, DWORD PTR $T39[ebp]
	and	edx, 1
	je	SHORT $LN58@SetScene
	and	DWORD PTR $T39[ebp], -2			; fffffffeH
	lea	ecx, DWORD PTR $T2[ebp]
	call	DWORD PTR __imp_??1String@@QAE@XZ
$LN58@SetScene:
	movzx	eax, BYTE PTR $T35[ebp]
	test	eax, eax
	je	$LN17@SetScene

; 326  :                     XElement *globalSourceData = source->GetElement(TEXT("data"));

	push	OFFSET $SG4294966842
	mov	ecx, DWORD PTR _source$24[ebp]
	call	DWORD PTR __imp_?GetElement@XElement@@QBEPAV1@PB_W@Z
	mov	DWORD PTR _globalSourceData$17[ebp], eax

; 327  :                     String globalSourceName = globalSourceData->GetString(TEXT("name"));

	push	0
	push	OFFSET $SG4294966841
	mov	ecx, DWORD PTR _globalSourceData$17[ebp]
	call	DWORD PTR __imp_?GetString@XElement@@QBEPB_WPB_WPA_W@Z
	push	eax
	lea	ecx, DWORD PTR _globalSourceName$14[ebp]
	call	DWORD PTR __imp_??0String@@QAE@PB_W@Z

; 328  :                     if(App->GetGlobalSource(globalSourceName) != NULL) {

	lea	ecx, DWORD PTR _globalSourceName$14[ebp]
	call	DWORD PTR __imp_??BString@@QBEPA_WXZ
	push	eax
	mov	ecx, DWORD PTR ?App@@3PAVOBS@@A		; App
	call	?GetGlobalSource@OBS@@AAEPAVImageSource@@PB_W@Z ; OBS::GetGlobalSource
	test	eax, eax
	je	SHORT $LN16@SetScene

; 329  :                         App->GetGlobalSource(globalSourceName)->GlobalSourceLeaveScene();

	lea	ecx, DWORD PTR _globalSourceName$14[ebp]
	call	DWORD PTR __imp_??BString@@QBEPA_WXZ
	push	eax
	mov	ecx, DWORD PTR ?App@@3PAVOBS@@A		; App
	call	?GetGlobalSource@OBS@@AAEPAVImageSource@@PB_W@Z ; OBS::GetGlobalSource
	mov	DWORD PTR tv400[ebp], eax
	mov	ecx, DWORD PTR tv400[ebp]
	mov	edx, DWORD PTR [ecx]
	mov	ecx, DWORD PTR tv400[ebp]
	mov	eax, DWORD PTR [edx+32]
	call	eax
$LN16@SetScene:

; 330  :                     }
; 331  :                 }

	lea	ecx, DWORD PTR _globalSourceName$14[ebp]
	call	DWORD PTR __imp_??1String@@QAE@XZ
$LN17@SetScene:

; 332  :             }

	lea	ecx, DWORD PTR _className$5[ebp]
	call	DWORD PTR __imp_??1String@@QAE@XZ
	jmp	$LN19@SetScene
$LN18@SetScene:

; 333  : 
; 334  :             scene->EndScene();

	mov	ecx, DWORD PTR _this$[ebp]
	mov	edx, DWORD PTR [ecx+144]
	mov	eax, DWORD PTR _this$[ebp]
	mov	edx, DWORD PTR [edx]
	mov	ecx, DWORD PTR [eax+144]
	mov	eax, DWORD PTR [edx+40]
	call	eax
$LN21@SetScene:

; 335  :         }
; 336  : 
; 337  :         Scene *previousScene = scene;

	mov	ecx, DWORD PTR _this$[ebp]
	mov	edx, DWORD PTR [ecx+144]
	mov	DWORD PTR _previousScene$21[ebp], edx

; 338  :         scene = newScene;

	mov	eax, DWORD PTR _this$[ebp]
	mov	ecx, DWORD PTR _newScene$[ebp]
	mov	DWORD PTR [eax+144], ecx

; 339  : 
; 340  :         if(newScene && bSkipTransition) {

	cmp	DWORD PTR _newScene$[ebp], 0
	je	$LN11@SetScene
	movzx	edx, BYTE PTR _bSkipTransition$[ebp]
	test	edx, edx
	je	$LN11@SetScene

; 341  :             // If we're skipping the transition because of a non-global
; 342  :             // DirectShow device, delete the scene here and add the
; 343  :             // ImageSources at this point instead.
; 344  :             delete previousScene;

	mov	eax, DWORD PTR _previousScene$21[ebp]
	mov	DWORD PTR $T15[ebp], eax
	mov	ecx, DWORD PTR $T15[ebp]
	mov	DWORD PTR $T28[ebp], ecx
	cmp	DWORD PTR $T28[ebp], 0
	je	SHORT $LN52@SetScene
	push	1
	mov	edx, DWORD PTR $T28[ebp]
	mov	eax, DWORD PTR [edx]
	mov	ecx, DWORD PTR $T28[ebp]
	mov	edx, DWORD PTR [eax]
	call	edx
	mov	DWORD PTR tv421[ebp], eax
	jmp	SHORT $LN53@SetScene
$LN52@SetScene:
	mov	DWORD PTR tv421[ebp], 0
$LN53@SetScene:

; 345  : 
; 346  :             if(sources)

	cmp	DWORD PTR _sources$[ebp], 0
	je	SHORT $LN11@SetScene

; 347  :             {
; 348  :                 UINT numSources = sources->NumElements();

	push	0
	mov	ecx, DWORD PTR _sources$[ebp]
	call	DWORD PTR __imp_?NumElements@XElement@@QAEKPB_W@Z
	mov	DWORD PTR _numSources$13[ebp], eax

; 349  : 
; 350  :                 for(UINT i=0; i<numSources; i++)

	mov	DWORD PTR _i$31[ebp], 0
	jmp	SHORT $LN13@SetScene
$LN12@SetScene:
	mov	eax, DWORD PTR _i$31[ebp]
	add	eax, 1
	mov	DWORD PTR _i$31[ebp], eax
$LN13@SetScene:
	mov	ecx, DWORD PTR _i$31[ebp]
	cmp	ecx, DWORD PTR _numSources$13[ebp]
	jae	SHORT $LN11@SetScene

; 351  :                 {
; 352  :                     XElement *sourceElement = sources->GetElementByID(i);

	mov	edx, DWORD PTR _i$31[ebp]
	push	edx
	mov	ecx, DWORD PTR _sources$[ebp]
	call	DWORD PTR __imp_?GetElementByID@XElement@@QBEPAV1@K@Z
	mov	DWORD PTR _sourceElement$9[ebp], eax

; 353  : 
; 354  :                     if(newScene)

	cmp	DWORD PTR _newScene$[ebp], 0
	je	SHORT $LN10@SetScene

; 355  :                         newScene->AddImageSource(sourceElement);

	mov	eax, DWORD PTR _sourceElement$9[ebp]
	push	eax
	mov	ecx, DWORD PTR _newScene$[ebp]
	mov	edx, DWORD PTR [ecx]
	mov	ecx, DWORD PTR _newScene$[ebp]
	mov	eax, DWORD PTR [edx+8]
	call	eax
$LN10@SetScene:

; 356  :                 }

	jmp	SHORT $LN12@SetScene
$LN11@SetScene:

; 357  :             }
; 358  :         }
; 359  : 
; 360  :         scene->BeginScene();

	mov	ecx, DWORD PTR _this$[ebp]
	mov	edx, DWORD PTR [ecx+144]
	mov	eax, DWORD PTR _this$[ebp]
	mov	edx, DWORD PTR [edx]
	mov	ecx, DWORD PTR [eax+144]
	mov	eax, DWORD PTR [edx+36]
	call	eax

; 361  : 
; 362  :         numSources = scene->sceneItems.Num();

	mov	ecx, DWORD PTR _this$[ebp]
	mov	ecx, DWORD PTR [ecx+144]
	add	ecx, 8
	call	?Num@?$List@PAVSceneItem@@@@QBEIXZ	; List<SceneItem *>::Num
	mov	DWORD PTR _numSources$26[ebp], eax

; 363  :         for(UINT i=0; i<numSources; i++)

	mov	DWORD PTR _i$32[ebp], 0
	jmp	SHORT $LN9@SetScene
$LN8@SetScene:
	mov	edx, DWORD PTR _i$32[ebp]
	add	edx, 1
	mov	DWORD PTR _i$32[ebp], edx
$LN9@SetScene:
	mov	eax, DWORD PTR _i$32[ebp]
	cmp	eax, DWORD PTR _numSources$26[ebp]
	jae	$LN7@SetScene

; 364  :         {
; 365  :             XElement *source = scene->sceneItems[i]->GetElement();

	mov	ecx, DWORD PTR _i$32[ebp]
	push	ecx
	mov	edx, DWORD PTR _this$[ebp]
	mov	ecx, DWORD PTR [edx+144]
	add	ecx, 8
	call	??A?$List@PAVSceneItem@@@@QAEAAPAVSceneItem@@I@Z ; List<SceneItem *>::operator[]
	mov	ecx, DWORD PTR [eax]
	call	DWORD PTR __imp_?GetElement@SceneItem@@QBEPAVXElement@@XZ
	mov	DWORD PTR _source$22[ebp], eax

; 366  : 
; 367  :             String className = source->GetString(TEXT("class"));

	push	0
	push	OFFSET $SG4294966840
	mov	ecx, DWORD PTR _source$22[ebp]
	call	DWORD PTR __imp_?GetString@XElement@@QBEPB_WPB_WPA_W@Z
	push	eax
	lea	ecx, DWORD PTR _className$1[ebp]
	call	DWORD PTR __imp_??0String@@QAE@PB_W@Z

; 368  :             if(scene->sceneItems[i]->bRender && className == "GlobalSource") {

	mov	eax, DWORD PTR _i$32[ebp]
	push	eax
	mov	ecx, DWORD PTR _this$[ebp]
	mov	ecx, DWORD PTR [ecx+144]
	add	ecx, 8
	call	??A?$List@PAVSceneItem@@@@QAEAAPAVSceneItem@@I@Z ; List<SceneItem *>::operator[]
	mov	edx, DWORD PTR [eax]
	movzx	eax, BYTE PTR [edx+65]
	test	eax, eax
	je	SHORT $LN54@SetScene
	push	OFFSET $SG4294966839
	lea	ecx, DWORD PTR $T3[ebp]
	call	DWORD PTR __imp_??0String@@QAE@PBD@Z
	or	DWORD PTR $T39[ebp], 2
	lea	ecx, DWORD PTR $T3[ebp]
	push	ecx
	lea	ecx, DWORD PTR _className$1[ebp]
	call	DWORD PTR __imp_??8String@@QBEHABV0@@Z
	test	eax, eax
	je	SHORT $LN54@SetScene
	mov	DWORD PTR tv480[ebp], 1
	jmp	SHORT $LN55@SetScene
$LN54@SetScene:
	mov	DWORD PTR tv480[ebp], 0
$LN55@SetScene:
	mov	dl, BYTE PTR tv480[ebp]
	mov	BYTE PTR $T38[ebp], dl
	mov	eax, DWORD PTR $T39[ebp]
	and	eax, 2
	je	SHORT $LN59@SetScene
	and	DWORD PTR $T39[ebp], -3			; fffffffdH
	lea	ecx, DWORD PTR $T3[ebp]
	call	DWORD PTR __imp_??1String@@QAE@XZ
$LN59@SetScene:
	movzx	ecx, BYTE PTR $T38[ebp]
	test	ecx, ecx
	je	$LN6@SetScene

; 369  :                 XElement *globalSourceData = source->GetElement(TEXT("data"));

	push	OFFSET $SG4294966838
	mov	ecx, DWORD PTR _source$22[ebp]
	call	DWORD PTR __imp_?GetElement@XElement@@QBEPAV1@PB_W@Z
	mov	DWORD PTR _globalSourceData$11[ebp], eax

; 370  :                 String globalSourceName = globalSourceData->GetString(TEXT("name"));

	push	0
	push	OFFSET $SG4294966837
	mov	ecx, DWORD PTR _globalSourceData$11[ebp]
	call	DWORD PTR __imp_?GetString@XElement@@QBEPB_WPB_WPA_W@Z
	push	eax
	lea	ecx, DWORD PTR _globalSourceName$12[ebp]
	call	DWORD PTR __imp_??0String@@QAE@PB_W@Z

; 371  :                 if(App->GetGlobalSource(globalSourceName) != NULL) {

	lea	ecx, DWORD PTR _globalSourceName$12[ebp]
	call	DWORD PTR __imp_??BString@@QBEPA_WXZ
	push	eax
	mov	ecx, DWORD PTR ?App@@3PAVOBS@@A		; App
	call	?GetGlobalSource@OBS@@AAEPAVImageSource@@PB_W@Z ; OBS::GetGlobalSource
	test	eax, eax
	je	SHORT $LN5@SetScene

; 372  :                     App->GetGlobalSource(globalSourceName)->GlobalSourceEnterScene();

	lea	ecx, DWORD PTR _globalSourceName$12[ebp]
	call	DWORD PTR __imp_??BString@@QBEPA_WXZ
	push	eax
	mov	ecx, DWORD PTR ?App@@3PAVOBS@@A		; App
	call	?GetGlobalSource@OBS@@AAEPAVImageSource@@PB_W@Z ; OBS::GetGlobalSource
	mov	DWORD PTR tv507[ebp], eax
	mov	edx, DWORD PTR tv507[ebp]
	mov	eax, DWORD PTR [edx]
	mov	ecx, DWORD PTR tv507[ebp]
	mov	edx, DWORD PTR [eax+36]
	call	edx
$LN5@SetScene:

; 373  :                 }
; 374  :             }

	lea	ecx, DWORD PTR _globalSourceName$12[ebp]
	call	DWORD PTR __imp_??1String@@QAE@XZ
$LN6@SetScene:

; 375  :         }

	lea	ecx, DWORD PTR _className$1[ebp]
	call	DWORD PTR __imp_??1String@@QAE@XZ
	jmp	$LN8@SetScene
$LN7@SetScene:

; 376  : 
; 377  :         if(!bTransitioning && !bSkipTransition)

	mov	eax, DWORD PTR _this$[ebp]
	movzx	ecx, BYTE PTR [eax+45]
	test	ecx, ecx
	jne	SHORT $LN4@SetScene
	movzx	edx, BYTE PTR _bSkipTransition$[ebp]
	test	edx, edx
	jne	SHORT $LN4@SetScene

; 378  :         {
; 379  :             bTransitioning = true;

	mov	eax, DWORD PTR _this$[ebp]
	mov	BYTE PTR [eax+45], 1

; 380  :             transitionAlpha = 0.0f;

	mov	ecx, DWORD PTR _this$[ebp]
	movss	xmm0, DWORD PTR __real@00000000
	movss	DWORD PTR [ecx+48], xmm0
$LN4@SetScene:

; 381  :         }
; 382  : 
; 383  :         OSLeaveMutex(hSceneMutex);

	mov	edx, DWORD PTR _this$[ebp]
	mov	eax, DWORD PTR [edx+956]
	push	eax
	call	DWORD PTR __imp_?OSLeaveMutex@@YGXPAX@Z

; 384  : 
; 385  :         if(!bSkipTransition) {

	movzx	ecx, BYTE PTR _bSkipTransition$[ebp]
	test	ecx, ecx
	jne	SHORT $LN57@SetScene

; 386  :             // Do not delete the previous scene here, since it has already
; 387  :             // been deleted.
; 388  :             delete previousScene;

	mov	edx, DWORD PTR _previousScene$21[ebp]
	mov	DWORD PTR $T7[ebp], edx
	mov	eax, DWORD PTR $T7[ebp]
	mov	DWORD PTR $T25[ebp], eax
	cmp	DWORD PTR $T25[ebp], 0
	je	SHORT $LN56@SetScene
	push	1
	mov	ecx, DWORD PTR $T25[ebp]
	mov	edx, DWORD PTR [ecx]
	mov	ecx, DWORD PTR $T25[ebp]
	mov	eax, DWORD PTR [edx]
	call	eax
	mov	DWORD PTR tv527[ebp], eax
	jmp	SHORT $LN57@SetScene
$LN56@SetScene:
	mov	DWORD PTR tv527[ebp], 0
$LN57@SetScene:

; 389  :         }
; 390  : 
; 391  :         DWORD sceneChangeTime = OSGetTime() - sceneChangeStartTime;

	call	DWORD PTR __imp_?OSGetTime@@YGKXZ
	sub	eax, DWORD PTR _sceneChangeStartTime$[ebp]
	mov	DWORD PTR _sceneChangeTime$19[ebp], eax

; 392  :         if (sceneChangeTime >= 500)

	cmp	DWORD PTR _sceneChangeTime$19[ebp], 500	; 000001f4H
	jb	SHORT $LN2@SetScene

; 393  :             Log(TEXT("PERFORMANCE WARNING: Scene change took %u ms, maybe some sources should be global sources?"), sceneChangeTime);

	mov	ecx, DWORD PTR _sceneChangeTime$19[ebp]
	push	ecx
	push	OFFSET $SG4294966836
	call	DWORD PTR __imp_?Log@@YAXPB_WZZ
	add	esp, 8
$LN2@SetScene:

; 394  :     }
; 395  : 
; 396  :     if(API != NULL)

	mov	edx, DWORD PTR __imp_?API@@3PAVAPIInterface@@A
	cmp	DWORD PTR [edx], 0
	je	SHORT $LN1@SetScene

; 397  :        ReportSwitchScenes(lpScene);

	mov	eax, DWORD PTR _lpScene$[ebp]
	push	eax
	mov	ecx, DWORD PTR _this$[ebp]
	mov	edx, DWORD PTR [ecx]
	mov	ecx, DWORD PTR _this$[ebp]
	mov	eax, DWORD PTR [edx+112]
	call	eax
$LN1@SetScene:

; 398  : 
; 399  :     return true;

	mov	al, 1
$LN44@SetScene:

; 400  : }

	mov	esp, ebp
	pop	ebp
	ret	4
?SetScene@OBS@@UAE_NPB_W@Z ENDP				; OBS::SetScene
_TEXT	ENDS
; Function compile flags: /Odtp
; File f:\songmm_moon_stone_obs\obs\source\api.cpp
;	COMDAT ?SetSceneCollection@OBS@@UAE_NPB_W@Z
_TEXT	SEGMENT
$T1 = -44						; size = 8
$T2 = -36						; size = 8
$T3 = -28						; size = 8
_strSceneCollectionPath$ = -20				; size = 8
_collection$ = -12					; size = 4
_this$ = -8						; size = 4
$T4 = -2						; size = 1
$T5 = -1						; size = 1
_lpCollection$ = 8					; size = 4
?SetSceneCollection@OBS@@UAE_NPB_W@Z PROC		; OBS::SetSceneCollection, COMDAT
; _this$ = ecx

; 402  : bool OBS::SetSceneCollection(CTSTR lpCollection) {

	push	ebp
	mov	ebp, esp
	sub	esp, 44					; 0000002cH
	mov	DWORD PTR _this$[ebp], ecx

; 403  :     if (bRunning)

	mov	eax, DWORD PTR _this$[ebp]
	movzx	ecx, BYTE PTR [eax+622]
	test	ecx, ecx
	je	SHORT $LN3@SetSceneCo

; 404  :         return false;

	xor	al, al
	jmp	$LN4@SetSceneCo
$LN3@SetSceneCo:

; 405  : 
; 406  :     App->scenesConfig.Save();

	mov	ecx, DWORD PTR ?App@@3PAVOBS@@A		; App
	add	ecx, 168				; 000000a8H
	call	DWORD PTR __imp_?Save@XConfig@@QAEXXZ

; 407  :     CTSTR collection = GetCurrentSceneCollection();

	call	?GetCurrentSceneCollection@OBS@@SAPB_WXZ ; OBS::GetCurrentSceneCollection
	mov	DWORD PTR _collection$[ebp], eax

; 408  :     String strSceneCollectionPath;

	lea	ecx, DWORD PTR _strSceneCollectionPath$[ebp]
	call	DWORD PTR __imp_??0String@@QAE@XZ

; 409  :     strSceneCollectionPath = FormattedString(L"%s\\sceneCollection\\%s.xconfig", lpAppDataPath, collection);

	mov	edx, DWORD PTR _collection$[ebp]
	push	edx
	push	OFFSET ?lpAppDataPath@@3PA_WA		; lpAppDataPath
	push	OFFSET $SG4294966835
	lea	eax, DWORD PTR $T2[ebp]
	push	eax
	call	DWORD PTR __imp_?FormattedString@@YA?AVString@@PB_WZZ
	add	esp, 16					; 00000010H
	push	eax
	lea	ecx, DWORD PTR _strSceneCollectionPath$[ebp]
	call	DWORD PTR __imp_??4String@@QAEAAV0@ABV0@@Z
	lea	ecx, DWORD PTR $T2[ebp]
	call	DWORD PTR __imp_??1String@@QAE@XZ

; 410  : 
; 411  :     if (!App->scenesConfig.Open(strSceneCollectionPath))

	lea	ecx, DWORD PTR _strSceneCollectionPath$[ebp]
	call	DWORD PTR __imp_??BString@@QBEPA_WXZ
	push	eax
	mov	ecx, DWORD PTR ?App@@3PAVOBS@@A		; App
	add	ecx, 168				; 000000a8H
	call	DWORD PTR __imp_?Open@XConfig@@QAE_NPB_W@Z
	movzx	ecx, al
	test	ecx, ecx
	jne	SHORT $LN2@SetSceneCo

; 412  :     {
; 413  :         return false;

	mov	BYTE PTR $T5[ebp], 0
	lea	ecx, DWORD PTR _strSceneCollectionPath$[ebp]
	call	DWORD PTR __imp_??1String@@QAE@XZ
	mov	al, BYTE PTR $T5[ebp]
	jmp	$LN4@SetSceneCo
$LN2@SetSceneCo:

; 414  :     }
; 415  : 
; 416  :     GlobalConfig->SetString(TEXT("General"), TEXT("SceneCollection"), lpCollection);

	mov	edx, DWORD PTR _lpCollection$[ebp]
	push	edx
	push	OFFSET $SG4294966834
	push	OFFSET $SG4294966833
	mov	ecx, DWORD PTR ?GlobalConfig@@3PAVConfigFile@@A ; GlobalConfig
	call	DWORD PTR __imp_?SetString@ConfigFile@@QAEXPB_W00@Z

; 417  :     App->scenesConfig.Close();

	push	0
	mov	ecx, DWORD PTR ?App@@3PAVOBS@@A		; App
	add	ecx, 168				; 000000a8H
	call	DWORD PTR __imp_?Close@XConfig@@QAEX_N@Z

; 418  :     App->ReloadSceneCollection();

	mov	ecx, DWORD PTR ?App@@3PAVOBS@@A		; App
	call	?ReloadSceneCollection@OBS@@AAEXXZ	; OBS::ReloadSceneCollection

; 419  :     ResetSceneCollectionMenu();

	call	?ResetSceneCollectionMenu@OBS@@CAXXZ	; OBS::ResetSceneCollectionMenu

; 420  :     ResetApplicationName();

	call	?ResetApplicationName@OBS@@CAXXZ	; OBS::ResetApplicationName

; 421  :     App->UpdateNotificationAreaIcon();

	mov	ecx, DWORD PTR ?App@@3PAVOBS@@A		; App
	call	?UpdateNotificationAreaIcon@OBS@@QAEHXZ	; OBS::UpdateNotificationAreaIcon

; 422  :     App->scenesConfig.SaveTo(String() << lpAppDataPath << "\\scenes.xconfig");

	push	OFFSET $SG4294966832
	lea	ecx, DWORD PTR $T3[ebp]
	call	DWORD PTR __imp_??0String@@QAE@PBD@Z
	lea	eax, DWORD PTR $T3[ebp]
	push	eax
	push	OFFSET ?lpAppDataPath@@3PA_WA		; lpAppDataPath
	lea	ecx, DWORD PTR $T1[ebp]
	call	DWORD PTR __imp_??0String@@QAE@XZ
	mov	ecx, eax
	call	DWORD PTR __imp_??6String@@QAEAAV0@PB_W@Z
	mov	ecx, eax
	call	DWORD PTR __imp_??6String@@QAEAAV0@ABV0@@Z
	mov	ecx, eax
	call	DWORD PTR __imp_??BString@@QBEPA_WXZ
	push	eax
	mov	ecx, DWORD PTR ?App@@3PAVOBS@@A		; App
	add	ecx, 168				; 000000a8H
	call	DWORD PTR __imp_?SaveTo@XConfig@@QAEXPB_W@Z
	lea	ecx, DWORD PTR $T1[ebp]
	call	DWORD PTR __imp_??1String@@QAE@XZ
	lea	ecx, DWORD PTR $T3[ebp]
	call	DWORD PTR __imp_??1String@@QAE@XZ

; 423  : 
; 424  :     if (API != NULL)

	mov	ecx, DWORD PTR __imp_?API@@3PAVAPIInterface@@A
	cmp	DWORD PTR [ecx], 0
	je	SHORT $LN1@SetSceneCo

; 425  :         ReportSwitchSceneCollections(lpCollection);

	mov	edx, DWORD PTR _lpCollection$[ebp]
	push	edx
	mov	eax, DWORD PTR _this$[ebp]
	mov	edx, DWORD PTR [eax]
	mov	ecx, DWORD PTR _this$[ebp]
	mov	eax, DWORD PTR [edx+116]
	call	eax
$LN1@SetSceneCo:

; 426  : 
; 427  :     return true;

	mov	BYTE PTR $T4[ebp], 1
	lea	ecx, DWORD PTR _strSceneCollectionPath$[ebp]
	call	DWORD PTR __imp_??1String@@QAE@XZ
	mov	al, BYTE PTR $T4[ebp]
$LN4@SetSceneCo:

; 428  : }

	mov	esp, ebp
	pop	ebp
	ret	4
?SetSceneCollection@OBS@@UAE_NPB_W@Z ENDP		; OBS::SetSceneCollection
_TEXT	ENDS
; Function compile flags: /Odtp
; File f:\songmm_moon_stone_obs\obs\source\api.cpp
;	COMDAT ?SetChangedSettings@OBSAPIInterface@@EAEX_N@Z
_TEXT	SEGMENT
_this$ = -4						; size = 4
_isModified$ = 8					; size = 1
?SetChangedSettings@OBSAPIInterface@@EAEX_N@Z PROC	; OBSAPIInterface::SetChangedSettings, COMDAT
; _this$ = ecx

; 448  :     virtual void SetChangedSettings(bool isModified) {App->SetChangedSettings(isModified);}

	push	ebp
	mov	ebp, esp
	push	ecx
	mov	DWORD PTR _this$[ebp], ecx
	movzx	eax, BYTE PTR _isModified$[ebp]
	push	eax
	mov	ecx, DWORD PTR ?App@@3PAVOBS@@A		; App
	call	?SetChangedSettings@OBS@@AAEX_N@Z	; OBS::SetChangedSettings
	mov	esp, ebp
	pop	ebp
	ret	4
?SetChangedSettings@OBSAPIInterface@@EAEX_N@Z ENDP	; OBSAPIInterface::SetChangedSettings
_TEXT	ENDS
; Function compile flags: /Odtp
; File f:\songmm_moon_stone_obs\obs\source\api.cpp
;	COMDAT ?SetAbortApplySettings@OBSAPIInterface@@EAEX_N@Z
_TEXT	SEGMENT
_this$ = -4						; size = 4
_abort$ = 8						; size = 1
?SetAbortApplySettings@OBSAPIInterface@@EAEX_N@Z PROC	; OBSAPIInterface::SetAbortApplySettings, COMDAT
; _this$ = ecx

; 449  :     virtual void SetAbortApplySettings(bool abort) { App->SetAbortApplySettings(abort); }

	push	ebp
	mov	ebp, esp
	push	ecx
	mov	DWORD PTR _this$[ebp], ecx
	movzx	eax, BYTE PTR _abort$[ebp]
	push	eax
	mov	ecx, DWORD PTR ?App@@3PAVOBS@@A		; App
	call	?SetAbortApplySettings@OBS@@AAEX_N@Z	; OBS::SetAbortApplySettings
	mov	esp, ebp
	pop	ebp
	ret	4
?SetAbortApplySettings@OBSAPIInterface@@EAEX_N@Z ENDP	; OBSAPIInterface::SetAbortApplySettings
_TEXT	ENDS
; Function compile flags: /Odtp
; File f:\songmm_moon_stone_obs\obs\source\api.cpp
;	COMDAT ?SetCanOptimizeSettings@OBSAPIInterface@@EAEX_N@Z
_TEXT	SEGMENT
_this$ = -4						; size = 4
_canOptimize$ = 8					; size = 1
?SetCanOptimizeSettings@OBSAPIInterface@@EAEX_N@Z PROC	; OBSAPIInterface::SetCanOptimizeSettings, COMDAT
; _this$ = ecx

; 450  :     virtual void SetCanOptimizeSettings(bool canOptimize) override { App->SetCanOptimizeSettings(canOptimize); }

	push	ebp
	mov	ebp, esp
	push	ecx
	mov	DWORD PTR _this$[ebp], ecx
	movzx	eax, BYTE PTR _canOptimize$[ebp]
	push	eax
	mov	ecx, DWORD PTR ?App@@3PAVOBS@@A		; App
	call	?SetCanOptimizeSettings@OBS@@AAEX_N@Z	; OBS::SetCanOptimizeSettings
	mov	esp, ebp
	pop	ebp
	ret	4
?SetCanOptimizeSettings@OBSAPIInterface@@EAEX_N@Z ENDP	; OBSAPIInterface::SetCanOptimizeSettings
_TEXT	ENDS
; Function compile flags: /Odtp
; File f:\songmm_moon_stone_obs\obs\source\api.cpp
;	COMDAT ?EnterSceneMutex@OBSAPIInterface@@UAEXXZ
_TEXT	SEGMENT
_this$ = -4						; size = 4
?EnterSceneMutex@OBSAPIInterface@@UAEXXZ PROC		; OBSAPIInterface::EnterSceneMutex, COMDAT
; _this$ = ecx

; 453  :     virtual void EnterSceneMutex() {App->EnterSceneMutex();}

	push	ebp
	mov	ebp, esp
	push	ecx
	mov	DWORD PTR _this$[ebp], ecx
	mov	ecx, DWORD PTR ?App@@3PAVOBS@@A		; App
	call	?EnterSceneMutex@OBS@@QAEXXZ		; OBS::EnterSceneMutex
	mov	esp, ebp
	pop	ebp
	ret	0
?EnterSceneMutex@OBSAPIInterface@@UAEXXZ ENDP		; OBSAPIInterface::EnterSceneMutex
_TEXT	ENDS
; Function compile flags: /Odtp
; File f:\songmm_moon_stone_obs\obs\source\api.cpp
;	COMDAT ?LeaveSceneMutex@OBSAPIInterface@@UAEXXZ
_TEXT	SEGMENT
_this$ = -4						; size = 4
?LeaveSceneMutex@OBSAPIInterface@@UAEXXZ PROC		; OBSAPIInterface::LeaveSceneMutex, COMDAT
; _this$ = ecx

; 454  :     virtual void LeaveSceneMutex() {App->LeaveSceneMutex();}

	push	ebp
	mov	ebp, esp
	push	ecx
	mov	DWORD PTR _this$[ebp], ecx
	mov	ecx, DWORD PTR ?App@@3PAVOBS@@A		; App
	call	?LeaveSceneMutex@OBS@@QAEXXZ		; OBS::LeaveSceneMutex
	mov	esp, ebp
	pop	ebp
	ret	0
?LeaveSceneMutex@OBSAPIInterface@@UAEXXZ ENDP		; OBSAPIInterface::LeaveSceneMutex
_TEXT	ENDS
; Function compile flags: /Odtp
; File f:\songmm_moon_stone_obs\obs\source\api.cpp
;	COMDAT ?StartStopStream@OBSAPIInterface@@UAEXXZ
_TEXT	SEGMENT
_this$ = -4						; size = 4
?StartStopStream@OBSAPIInterface@@UAEXXZ PROC		; OBSAPIInterface::StartStopStream, COMDAT
; _this$ = ecx

; 457  :     {

	push	ebp
	mov	ebp, esp
	push	ecx
	mov	DWORD PTR _this$[ebp], ecx

; 458  :         PostMessage(hwndMain, WM_COMMAND, MAKEWPARAM(ID_STARTSTOP, 0), 0);

	push	0
	push	5003					; 0000138bH
	push	273					; 00000111H
	mov	eax, DWORD PTR ?hwndMain@@3PAUHWND__@@A	; hwndMain
	push	eax
	call	DWORD PTR __imp__PostMessageW@16

; 459  :     }

	mov	esp, ebp
	pop	ebp
	ret	0
?StartStopStream@OBSAPIInterface@@UAEXXZ ENDP		; OBSAPIInterface::StartStopStream
_TEXT	ENDS
; Function compile flags: /Odtp
; File f:\songmm_moon_stone_obs\obs\source\api.cpp
;	COMDAT ?StartStopPreview@OBSAPIInterface@@UAEXXZ
_TEXT	SEGMENT
_this$ = -4						; size = 4
?StartStopPreview@OBSAPIInterface@@UAEXXZ PROC		; OBSAPIInterface::StartStopPreview, COMDAT
; _this$ = ecx

; 462  :     {

	push	ebp
	mov	ebp, esp
	push	ecx
	mov	DWORD PTR _this$[ebp], ecx

; 463  :         PostMessage(hwndMain, WM_COMMAND, MAKEWPARAM(ID_TESTSTREAM, 0), 0);

	push	0
	push	5015					; 00001397H
	push	273					; 00000111H
	mov	eax, DWORD PTR ?hwndMain@@3PAUHWND__@@A	; hwndMain
	push	eax
	call	DWORD PTR __imp__PostMessageW@16

; 464  :     }

	mov	esp, ebp
	pop	ebp
	ret	0
?StartStopPreview@OBSAPIInterface@@UAEXXZ ENDP		; OBSAPIInterface::StartStopPreview
_TEXT	ENDS
; Function compile flags: /Odtp
; File f:\songmm_moon_stone_obs\obs\source\api.cpp
;	COMDAT ?StartStopRecording@OBSAPIInterface@@UAEXXZ
_TEXT	SEGMENT
_this$ = -4						; size = 4
?StartStopRecording@OBSAPIInterface@@UAEXXZ PROC	; OBSAPIInterface::StartStopRecording, COMDAT
; _this$ = ecx

; 467  :     {

	push	ebp
	mov	ebp, esp
	push	ecx
	mov	DWORD PTR _this$[ebp], ecx

; 468  :         PostMessage(hwndMain, WM_COMMAND, MAKEWPARAM(ID_TOGGLERECORDING, 0), 0);

	push	0
	push	5002					; 0000138aH
	push	273					; 00000111H
	mov	eax, DWORD PTR ?hwndMain@@3PAUHWND__@@A	; hwndMain
	push	eax
	call	DWORD PTR __imp__PostMessageW@16

; 469  :     }

	mov	esp, ebp
	pop	ebp
	ret	0
?StartStopRecording@OBSAPIInterface@@UAEXXZ ENDP	; OBSAPIInterface::StartStopRecording
_TEXT	ENDS
; Function compile flags: /Odtp
; File f:\songmm_moon_stone_obs\obs\source\api.cpp
;	COMDAT ?StartStopRecordingReplayBuffer@OBSAPIInterface@@UAEXXZ
_TEXT	SEGMENT
_this$ = -4						; size = 4
?StartStopRecordingReplayBuffer@OBSAPIInterface@@UAEXXZ PROC ; OBSAPIInterface::StartStopRecordingReplayBuffer, COMDAT
; _this$ = ecx

; 472  :     {

	push	ebp
	mov	ebp, esp
	push	ecx
	mov	DWORD PTR _this$[ebp], ecx

; 473  :         PostMessage(hwndMain, WM_COMMAND, MAKEWPARAM(ID_TOGGLERECORDINGREPLAYBUFFER, 0), 0);

	push	0
	push	5001					; 00001389H
	push	273					; 00000111H
	mov	eax, DWORD PTR ?hwndMain@@3PAUHWND__@@A	; hwndMain
	push	eax
	call	DWORD PTR __imp__PostMessageW@16

; 474  :     }

	mov	esp, ebp
	pop	ebp
	ret	0
?StartStopRecordingReplayBuffer@OBSAPIInterface@@UAEXXZ ENDP ; OBSAPIInterface::StartStopRecordingReplayBuffer
_TEXT	ENDS
; Function compile flags: /Odtp
; File f:\songmm_moon_stone_obs\obs\source\api.cpp
;	COMDAT ?SaveReplayBuffer@OBSAPIInterface@@UAEXXZ
_TEXT	SEGMENT
_this$ = -4						; size = 4
?SaveReplayBuffer@OBSAPIInterface@@UAEXXZ PROC		; OBSAPIInterface::SaveReplayBuffer, COMDAT
; _this$ = ecx

; 477  :     {

	push	ebp
	mov	ebp, esp
	push	ecx
	mov	DWORD PTR _this$[ebp], ecx

; 478  :         ::SaveReplayBuffer(App->replayBuffer, (DWORD)(App->GetVideoTime() - App->firstFrameTimestamp));

	mov	ecx, DWORD PTR ?App@@3PAVOBS@@A		; App
	call	?GetVideoTime@OBS@@QBE_KXZ		; OBS::GetVideoTime
	mov	ecx, DWORD PTR ?App@@3PAVOBS@@A		; App
	sub	eax, DWORD PTR [ecx+1112]
	sbb	edx, DWORD PTR [ecx+1116]
	push	eax
	mov	edx, DWORD PTR ?App@@3PAVOBS@@A		; App
	mov	eax, DWORD PTR [edx+1068]
	push	eax
	call	?SaveReplayBuffer@@YAXPAUReplayBuffer@@K@Z ; SaveReplayBuffer
	add	esp, 8

; 479  :     }

	mov	esp, ebp
	pop	ebp
	ret	0
?SaveReplayBuffer@OBSAPIInterface@@UAEXXZ ENDP		; OBSAPIInterface::SaveReplayBuffer
_TEXT	ENDS
; Function compile flags: /Odtp
; File f:\songmm_moon_stone_obs\obs\source\api.cpp
;	COMDAT ?GetStreaming@OBSAPIInterface@@UAE_NXZ
_TEXT	SEGMENT
_this$ = -4						; size = 4
?GetStreaming@OBSAPIInterface@@UAE_NXZ PROC		; OBSAPIInterface::GetStreaming, COMDAT
; _this$ = ecx

; 482  :     {

	push	ebp
	mov	ebp, esp
	push	ecx
	mov	DWORD PTR _this$[ebp], ecx

; 483  :         return App->bRunning;

	mov	eax, DWORD PTR ?App@@3PAVOBS@@A		; App
	mov	al, BYTE PTR [eax+622]

; 484  :     }

	mov	esp, ebp
	pop	ebp
	ret	0
?GetStreaming@OBSAPIInterface@@UAE_NXZ ENDP		; OBSAPIInterface::GetStreaming
_TEXT	ENDS
; Function compile flags: /Odtp
; File f:\songmm_moon_stone_obs\obs\source\api.cpp
;	COMDAT ?GetPreviewOnly@OBSAPIInterface@@UAE_NXZ
_TEXT	SEGMENT
_this$ = -4						; size = 4
?GetPreviewOnly@OBSAPIInterface@@UAE_NXZ PROC		; OBSAPIInterface::GetPreviewOnly, COMDAT
; _this$ = ecx

; 487  :     {

	push	ebp
	mov	ebp, esp
	push	ecx
	mov	DWORD PTR _this$[ebp], ecx

; 488  :         return App->bTestStream;

	mov	eax, DWORD PTR ?App@@3PAVOBS@@A		; App
	mov	al, BYTE PTR [eax+620]

; 489  :     }

	mov	esp, ebp
	pop	ebp
	ret	0
?GetPreviewOnly@OBSAPIInterface@@UAE_NXZ ENDP		; OBSAPIInterface::GetPreviewOnly
_TEXT	ENDS
; Function compile flags: /Odtp
; File f:\songmm_moon_stone_obs\obs\source\api.cpp
;	COMDAT ?GetRecording@OBSAPIInterface@@UBE_NXZ
_TEXT	SEGMENT
_this$ = -4						; size = 4
?GetRecording@OBSAPIInterface@@UBE_NXZ PROC		; OBSAPIInterface::GetRecording, COMDAT
; _this$ = ecx

; 492  :     {

	push	ebp
	mov	ebp, esp
	push	ecx
	mov	DWORD PTR _this$[ebp], ecx

; 493  :         return App->bRecording;

	mov	eax, DWORD PTR ?App@@3PAVOBS@@A		; App
	mov	al, BYTE PTR [eax+623]

; 494  :     }

	mov	esp, ebp
	pop	ebp
	ret	0
?GetRecording@OBSAPIInterface@@UBE_NXZ ENDP		; OBSAPIInterface::GetRecording
_TEXT	ENDS
; Function compile flags: /Odtp
; File f:\songmm_moon_stone_obs\obs\source\api.cpp
;	COMDAT ?GetRecordingReplayBuffer@OBSAPIInterface@@UBE_NXZ
_TEXT	SEGMENT
_this$ = -4						; size = 4
?GetRecordingReplayBuffer@OBSAPIInterface@@UBE_NXZ PROC	; OBSAPIInterface::GetRecordingReplayBuffer, COMDAT
; _this$ = ecx

; 497  :     {

	push	ebp
	mov	ebp, esp
	push	ecx
	mov	DWORD PTR _this$[ebp], ecx

; 498  :         return App->bRecordingReplayBuffer;

	mov	eax, DWORD PTR ?App@@3PAVOBS@@A		; App
	mov	al, BYTE PTR [eax+624]

; 499  :     }

	mov	esp, ebp
	pop	ebp
	ret	0
?GetRecordingReplayBuffer@OBSAPIInterface@@UBE_NXZ ENDP	; OBSAPIInterface::GetRecordingReplayBuffer
_TEXT	ENDS
; Function compile flags: /Odtp
; File f:\songmm_moon_stone_obs\obs\source\api.cpp
;	COMDAT ?GetKeepRecording@OBSAPIInterface@@UBE_NXZ
_TEXT	SEGMENT
_this$ = -4						; size = 4
?GetKeepRecording@OBSAPIInterface@@UBE_NXZ PROC		; OBSAPIInterface::GetKeepRecording, COMDAT
; _this$ = ecx

; 502  :     {

	push	ebp
	mov	ebp, esp
	push	ecx
	mov	DWORD PTR _this$[ebp], ecx

; 503  :         return App->bKeepRecording;

	mov	eax, DWORD PTR ?App@@3PAVOBS@@A		; App
	mov	al, BYTE PTR [eax+629]

; 504  :     }

	mov	esp, ebp
	pop	ebp
	ret	0
?GetKeepRecording@OBSAPIInterface@@UBE_NXZ ENDP		; OBSAPIInterface::GetKeepRecording
_TEXT	ENDS
; Function compile flags: /Odtp
; File f:\songmm_moon_stone_obs\obs\source\api.cpp
;	COMDAT ?RegisterSceneClass@OBSAPIInterface@@UAEXPB_W0P6GPAXPAVXElement@@@ZP6G_N1_N@Z@Z
_TEXT	SEGMENT
_this$ = -4						; size = 4
_lpClassName$ = 8					; size = 4
_lpDisplayName$ = 12					; size = 4
_createProc$ = 16					; size = 4
_configProc$ = 20					; size = 4
?RegisterSceneClass@OBSAPIInterface@@UAEXPB_W0P6GPAXPAVXElement@@@ZP6G_N1_N@Z@Z PROC ; OBSAPIInterface::RegisterSceneClass, COMDAT
; _this$ = ecx

; 507  :     {

	push	ebp
	mov	ebp, esp
	push	ecx
	mov	DWORD PTR _this$[ebp], ecx

; 508  :         App->RegisterSceneClass(lpClassName, lpDisplayName, createProc, configProc, false);

	push	0
	mov	eax, DWORD PTR _configProc$[ebp]
	push	eax
	mov	ecx, DWORD PTR _createProc$[ebp]
	push	ecx
	mov	edx, DWORD PTR _lpDisplayName$[ebp]
	push	edx
	mov	eax, DWORD PTR _lpClassName$[ebp]
	push	eax
	mov	ecx, DWORD PTR ?App@@3PAVOBS@@A		; App
	mov	edx, DWORD PTR [ecx]
	mov	ecx, DWORD PTR ?App@@3PAVOBS@@A		; App
	mov	eax, DWORD PTR [edx+12]
	call	eax

; 509  :     }

	mov	esp, ebp
	pop	ebp
	ret	16					; 00000010H
?RegisterSceneClass@OBSAPIInterface@@UAEXPB_W0P6GPAXPAVXElement@@@ZP6G_N1_N@Z@Z ENDP ; OBSAPIInterface::RegisterSceneClass
_TEXT	ENDS
; Function compile flags: /Odtp
; File f:\songmm_moon_stone_obs\obs\source\api.cpp
;	COMDAT ?RegisterImageSourceClass@OBSAPIInterface@@UAEXPB_W0P6GPAXPAVXElement@@@ZP6G_N1_N@Z@Z
_TEXT	SEGMENT
_this$ = -4						; size = 4
_lpClassName$ = 8					; size = 4
_lpDisplayName$ = 12					; size = 4
_createProc$ = 16					; size = 4
_configProc$ = 20					; size = 4
?RegisterImageSourceClass@OBSAPIInterface@@UAEXPB_W0P6GPAXPAVXElement@@@ZP6G_N1_N@Z@Z PROC ; OBSAPIInterface::RegisterImageSourceClass, COMDAT
; _this$ = ecx

; 512  :     {

	push	ebp
	mov	ebp, esp
	push	ecx
	mov	DWORD PTR _this$[ebp], ecx

; 513  :         App->RegisterImageSourceClass(lpClassName, lpDisplayName, createProc, configProc, false);

	push	0
	mov	eax, DWORD PTR _configProc$[ebp]
	push	eax
	mov	ecx, DWORD PTR _createProc$[ebp]
	push	ecx
	mov	edx, DWORD PTR _lpDisplayName$[ebp]
	push	edx
	mov	eax, DWORD PTR _lpClassName$[ebp]
	push	eax
	mov	ecx, DWORD PTR ?App@@3PAVOBS@@A		; App
	mov	edx, DWORD PTR [ecx]
	mov	ecx, DWORD PTR ?App@@3PAVOBS@@A		; App
	mov	eax, DWORD PTR [edx+16]
	call	eax

; 514  :     }

	mov	esp, ebp
	pop	ebp
	ret	16					; 00000010H
?RegisterImageSourceClass@OBSAPIInterface@@UAEXPB_W0P6GPAXPAVXElement@@@ZP6G_N1_N@Z@Z ENDP ; OBSAPIInterface::RegisterImageSourceClass
_TEXT	ENDS
; Function compile flags: /Odtp
; File f:\songmm_moon_stone_obs\obs\source\api.cpp
;	COMDAT ?CreateImageSource@OBSAPIInterface@@UAEPAVImageSource@@PB_WPAVXElement@@@Z
_TEXT	SEGMENT
_this$ = -4						; size = 4
_lpClassName$ = 8					; size = 4
_data$ = 12						; size = 4
?CreateImageSource@OBSAPIInterface@@UAEPAVImageSource@@PB_WPAVXElement@@@Z PROC ; OBSAPIInterface::CreateImageSource, COMDAT
; _this$ = ecx

; 517  :     {

	push	ebp
	mov	ebp, esp
	push	ecx
	mov	DWORD PTR _this$[ebp], ecx

; 518  :         return App->CreateImageSource(lpClassName, data);

	mov	eax, DWORD PTR _data$[ebp]
	push	eax
	mov	ecx, DWORD PTR _lpClassName$[ebp]
	push	ecx
	mov	edx, DWORD PTR ?App@@3PAVOBS@@A		; App
	mov	eax, DWORD PTR [edx]
	mov	ecx, DWORD PTR ?App@@3PAVOBS@@A		; App
	mov	edx, DWORD PTR [eax+20]
	call	edx

; 519  :     }

	mov	esp, ebp
	pop	ebp
	ret	8
?CreateImageSource@OBSAPIInterface@@UAEPAVImageSource@@PB_WPAVXElement@@@Z ENDP ; OBSAPIInterface::CreateImageSource
_TEXT	ENDS
; Function compile flags: /Odtp
; File f:\songmm_moon_stone_obs\obs\source\api.cpp
;	COMDAT ?GetSceneListElement@OBSAPIInterface@@UAEPAVXElement@@XZ
_TEXT	SEGMENT
_this$ = -4						; size = 4
?GetSceneListElement@OBSAPIInterface@@UAEPAVXElement@@XZ PROC ; OBSAPIInterface::GetSceneListElement, COMDAT
; _this$ = ecx

; 521  :     virtual XElement* GetSceneListElement()         {return App->scenesConfig.GetElement(TEXT("scenes"));}

	push	ebp
	mov	ebp, esp
	push	ecx
	mov	DWORD PTR _this$[ebp], ecx
	push	OFFSET ??_C@_1O@DEJKECHI@?$AAs?$AAc?$AAe?$AAn?$AAe?$AAs?$AA?$AA@
	mov	ecx, DWORD PTR ?App@@3PAVOBS@@A		; App
	add	ecx, 168				; 000000a8H
	call	DWORD PTR __imp_?GetElement@XConfig@@QAEPAVXElement@@PB_W@Z
	mov	esp, ebp
	pop	ebp
	ret	0
?GetSceneListElement@OBSAPIInterface@@UAEPAVXElement@@XZ ENDP ; OBSAPIInterface::GetSceneListElement
_TEXT	ENDS
; Function compile flags: /Odtp
; File f:\songmm_moon_stone_obs\obs\source\api.cpp
;	COMDAT ?GetGlobalSourceListElement@OBSAPIInterface@@UAEPAVXElement@@XZ
_TEXT	SEGMENT
_this$ = -4						; size = 4
?GetGlobalSourceListElement@OBSAPIInterface@@UAEPAVXElement@@XZ PROC ; OBSAPIInterface::GetGlobalSourceListElement, COMDAT
; _this$ = ecx

; 522  :     virtual XElement* GetGlobalSourceListElement()  {return App->scenesConfig.GetElement(TEXT("global sources"));}

	push	ebp
	mov	ebp, esp
	push	ecx
	mov	DWORD PTR _this$[ebp], ecx
	push	OFFSET ??_C@_1BO@MNEEFODP@?$AAg?$AAl?$AAo?$AAb?$AAa?$AAl?$AA?5?$AAs?$AAo?$AAu?$AAr?$AAc?$AAe?$AAs?$AA?$AA@
	mov	ecx, DWORD PTR ?App@@3PAVOBS@@A		; App
	add	ecx, 168				; 000000a8H
	call	DWORD PTR __imp_?GetElement@XConfig@@QAEPAVXElement@@PB_W@Z
	mov	esp, ebp
	pop	ebp
	ret	0
?GetGlobalSourceListElement@OBSAPIInterface@@UAEPAVXElement@@XZ ENDP ; OBSAPIInterface::GetGlobalSourceListElement
_TEXT	ENDS
; Function compile flags: /Odtp
; File f:\songmm_moon_stone_obs\obs\source\api.cpp
;	COMDAT ?SetSourceOrder@OBSAPIInterface@@UAEXAAVStringList@@@Z
_TEXT	SEGMENT
_this$ = -16						; size = 4
_order$ = -12						; size = 4
tv69 = -8						; size = 4
$T1 = -4						; size = 4
_sourceNames$ = 8					; size = 4
?SetSourceOrder@OBSAPIInterface@@UAEXAAVStringList@@@Z PROC ; OBSAPIInterface::SetSourceOrder, COMDAT
; _this$ = ecx

; 525  :     {

	push	ebp
	mov	ebp, esp
	sub	esp, 16					; 00000010H
	mov	DWORD PTR _this$[ebp], ecx

; 526  :         StringList* order = new StringList();

	push	8
	call	??2@YAPAXI@Z				; operator new
	add	esp, 4
	mov	DWORD PTR $T1[ebp], eax
	cmp	DWORD PTR $T1[ebp], 0
	je	SHORT $LN3@SetSourceO
	mov	ecx, DWORD PTR $T1[ebp]
	call	DWORD PTR __imp_??0StringList@@QAE@XZ
	mov	DWORD PTR tv69[ebp], eax
	jmp	SHORT $LN4@SetSourceO
$LN3@SetSourceO:
	mov	DWORD PTR tv69[ebp], 0
$LN4@SetSourceO:
	mov	eax, DWORD PTR tv69[ebp]
	mov	DWORD PTR _order$[ebp], eax

; 527  :         order->CopyList(sourceNames);

	mov	ecx, DWORD PTR _sourceNames$[ebp]
	push	ecx
	mov	ecx, DWORD PTR _order$[ebp]
	call	DWORD PTR __imp_?CopyList@StringList@@QAEXABV1@@Z

; 528  :         PostMessage(hwndMain, OBS_SETSOURCEORDER, 0, (LPARAM) order);

	mov	edx, DWORD PTR _order$[ebp]
	push	edx
	push	0
	push	1029					; 00000405H
	mov	eax, DWORD PTR ?hwndMain@@3PAUHWND__@@A	; hwndMain
	push	eax
	call	DWORD PTR __imp__PostMessageW@16

; 529  :     }

	mov	esp, ebp
	pop	ebp
	ret	4
?SetSourceOrder@OBSAPIInterface@@UAEXAAVStringList@@@Z ENDP ; OBSAPIInterface::SetSourceOrder
_TEXT	ENDS
; Function compile flags: /Odtp
; File f:\songmm_moon_stone_obs\obs\source\api.cpp
;	COMDAT ?SetSourceRender@OBSAPIInterface@@UAEXPB_W_N@Z
_TEXT	SEGMENT
_this$ = -4						; size = 4
_lpSource$ = 8						; size = 4
_render$ = 12						; size = 1
?SetSourceRender@OBSAPIInterface@@UAEXPB_W_N@Z PROC	; OBSAPIInterface::SetSourceRender, COMDAT
; _this$ = ecx

; 532  :     {

	push	ebp
	mov	ebp, esp
	push	ecx
	mov	DWORD PTR _this$[ebp], ecx

; 533  :         if(!lpSource || !*lpSource)

	cmp	DWORD PTR _lpSource$[ebp], 0
	je	SHORT $LN1@SetSourceR
	mov	eax, DWORD PTR _lpSource$[ebp]
	movzx	ecx, WORD PTR [eax]
	test	ecx, ecx
	jne	SHORT $LN2@SetSourceR
$LN1@SetSourceR:

; 534  :             return;

	jmp	SHORT $LN3@SetSourceR
$LN2@SetSourceR:

; 535  : 
; 536  :         PostMessage(hwndMain, OBS_SETSOURCERENDER, (WPARAM)sdup(lpSource), (LPARAM) render);

	movzx	edx, BYTE PTR _render$[ebp]
	push	edx
	mov	eax, DWORD PTR _lpSource$[ebp]
	push	eax
	call	DWORD PTR __imp_?sdup@@YGPA_WPB_W@Z
	push	eax
	push	1030					; 00000406H
	mov	ecx, DWORD PTR ?hwndMain@@3PAUHWND__@@A	; hwndMain
	push	ecx
	call	DWORD PTR __imp__PostMessageW@16
$LN3@SetSourceR:

; 537  :     }

	mov	esp, ebp
	pop	ebp
	ret	8
?SetSourceRender@OBSAPIInterface@@UAEXPB_W_N@Z ENDP	; OBSAPIInterface::SetSourceRender
_TEXT	ENDS
; Function compile flags: /Odtp
; File f:\songmm_moon_stone_obs\obs\source\api.cpp
;	COMDAT ?SetScene@OBSAPIInterface@@UAE_NPB_W_N@Z
_TEXT	SEGMENT
_this$ = -4						; size = 4
_lpScene$ = 8						; size = 4
_bPost$ = 12						; size = 1
?SetScene@OBSAPIInterface@@UAE_NPB_W_N@Z PROC		; OBSAPIInterface::SetScene, COMDAT
; _this$ = ecx

; 540  :     {

	push	ebp
	mov	ebp, esp
	push	ecx
	mov	DWORD PTR _this$[ebp], ecx

; 541  :         assert(lpScene && *lpScene);
; 542  : 
; 543  :         if(!lpScene || !*lpScene)

	cmp	DWORD PTR _lpScene$[ebp], 0
	je	SHORT $LN2@SetScene
	mov	eax, DWORD PTR _lpScene$[ebp]
	movzx	ecx, WORD PTR [eax]
	test	ecx, ecx
	jne	SHORT $LN3@SetScene
$LN2@SetScene:

; 544  :             return false;

	xor	al, al
	jmp	SHORT $LN4@SetScene
$LN3@SetScene:

; 545  : 
; 546  :         if(bPost)

	movzx	edx, BYTE PTR _bPost$[ebp]
	test	edx, edx
	je	SHORT $LN1@SetScene

; 547  :         {
; 548  :             PostMessage(hwndMain, OBS_SETSCENE, 0, (LPARAM)sdup(lpScene));

	mov	eax, DWORD PTR _lpScene$[ebp]
	push	eax
	call	DWORD PTR __imp_?sdup@@YGPA_WPB_W@Z
	push	eax
	push	0
	push	1028					; 00000404H
	mov	ecx, DWORD PTR ?hwndMain@@3PAUHWND__@@A	; hwndMain
	push	ecx
	call	DWORD PTR __imp__PostMessageW@16

; 549  :             return true;

	mov	al, 1
	jmp	SHORT $LN4@SetScene
$LN1@SetScene:

; 550  :         }
; 551  : 
; 552  :         return App->SetScene(lpScene);

	mov	edx, DWORD PTR _lpScene$[ebp]
	push	edx
	mov	eax, DWORD PTR ?App@@3PAVOBS@@A		; App
	mov	edx, DWORD PTR [eax]
	mov	ecx, DWORD PTR ?App@@3PAVOBS@@A		; App
	mov	eax, DWORD PTR [edx+24]
	call	eax
$LN4@SetScene:

; 553  :     }

	mov	esp, ebp
	pop	ebp
	ret	8
?SetScene@OBSAPIInterface@@UAE_NPB_W_N@Z ENDP		; OBSAPIInterface::SetScene
_TEXT	ENDS
; Function compile flags: /Odtp
; File f:\songmm_moon_stone_obs\obs\source\api.cpp
;	COMDAT ?GetScene@OBSAPIInterface@@UBEPAVScene@@XZ
_TEXT	SEGMENT
_this$ = -4						; size = 4
?GetScene@OBSAPIInterface@@UBEPAVScene@@XZ PROC		; OBSAPIInterface::GetScene, COMDAT
; _this$ = ecx

; 554  :     virtual Scene* GetScene() const             {return App->scene;}

	push	ebp
	mov	ebp, esp
	push	ecx
	mov	DWORD PTR _this$[ebp], ecx
	mov	eax, DWORD PTR ?App@@3PAVOBS@@A		; App
	mov	eax, DWORD PTR [eax+144]
	mov	esp, ebp
	pop	ebp
	ret	0
?GetScene@OBSAPIInterface@@UBEPAVScene@@XZ ENDP		; OBSAPIInterface::GetScene
_TEXT	ENDS
; Function compile flags: /Odtp
; File f:\songmm_moon_stone_obs\obs\source\api.cpp
;	COMDAT ?GetSceneName@OBSAPIInterface@@UBEPB_WXZ
_TEXT	SEGMENT
_this$ = -4						; size = 4
?GetSceneName@OBSAPIInterface@@UBEPB_WXZ PROC		; OBSAPIInterface::GetSceneName, COMDAT
; _this$ = ecx

; 556  :     virtual CTSTR GetSceneName() const          {return App->GetSceneElement()->GetName();}

	push	ebp
	mov	ebp, esp
	push	ecx
	mov	DWORD PTR _this$[ebp], ecx
	mov	ecx, DWORD PTR ?App@@3PAVOBS@@A		; App
	call	?GetSceneElement@OBS@@QBEPAVXElement@@XZ ; OBS::GetSceneElement
	mov	ecx, eax
	call	DWORD PTR __imp_?GetName@XBaseItem@@QBEPB_WXZ
	mov	esp, ebp
	pop	ebp
	ret	0
?GetSceneName@OBSAPIInterface@@UBEPB_WXZ ENDP		; OBSAPIInterface::GetSceneName
_TEXT	ENDS
; Function compile flags: /Odtp
; File f:\songmm_moon_stone_obs\obs\source\api.cpp
;	COMDAT ?GetSceneElement@OBSAPIInterface@@UAEPAVXElement@@XZ
_TEXT	SEGMENT
_this$ = -4						; size = 4
?GetSceneElement@OBSAPIInterface@@UAEPAVXElement@@XZ PROC ; OBSAPIInterface::GetSceneElement, COMDAT
; _this$ = ecx

; 557  :     virtual XElement* GetSceneElement()         {return App->GetSceneElement();}

	push	ebp
	mov	ebp, esp
	push	ecx
	mov	DWORD PTR _this$[ebp], ecx
	mov	ecx, DWORD PTR ?App@@3PAVOBS@@A		; App
	call	?GetSceneElement@OBS@@QBEPAVXElement@@XZ ; OBS::GetSceneElement
	mov	esp, ebp
	pop	ebp
	ret	0
?GetSceneElement@OBSAPIInterface@@UAEPAVXElement@@XZ ENDP ; OBSAPIInterface::GetSceneElement
_TEXT	ENDS
; Function compile flags: /Odtp
; File f:\songmm_moon_stone_obs\obs\source\api.cpp
;	COMDAT ?GetBaseSize@OBSAPIInterface@@UBE?AUVect2@@XZ
_TEXT	SEGMENT
tv86 = -28						; size = 8
tv76 = -20						; size = 8
_this$ = -12						; size = 4
tv82 = -8						; size = 4
tv72 = -4						; size = 4
___$ReturnUdt$ = 8					; size = 4
?GetBaseSize@OBSAPIInterface@@UBE?AUVect2@@XZ PROC	; OBSAPIInterface::GetBaseSize, COMDAT
; _this$ = ecx

; 562  :     virtual Vect2 GetBaseSize() const               {return Vect2(float(App->baseCX), float(App->baseCY));}

	push	ebp
	mov	ebp, esp
	sub	esp, 28					; 0000001cH
	mov	DWORD PTR _this$[ebp], ecx
	mov	eax, DWORD PTR ?App@@3PAVOBS@@A		; App
	mov	ecx, DWORD PTR [eax+860]
	mov	DWORD PTR tv72[ebp], ecx
	cvtsi2sd xmm0, DWORD PTR tv72[ebp]
	mov	edx, DWORD PTR tv72[ebp]
	shr	edx, 31					; 0000001fH
	addsd	xmm0, QWORD PTR __xmm@41f00000000000000000000000000000[edx*8]
	movsd	QWORD PTR tv76[ebp], xmm0
	cvtsd2ss xmm0, QWORD PTR tv76[ebp]
	push	ecx
	movss	DWORD PTR [esp], xmm0
	mov	eax, DWORD PTR ?App@@3PAVOBS@@A		; App
	mov	ecx, DWORD PTR [eax+856]
	mov	DWORD PTR tv82[ebp], ecx
	cvtsi2sd xmm0, DWORD PTR tv82[ebp]
	mov	edx, DWORD PTR tv82[ebp]
	shr	edx, 31					; 0000001fH
	addsd	xmm0, QWORD PTR __xmm@41f00000000000000000000000000000[edx*8]
	movsd	QWORD PTR tv86[ebp], xmm0
	cvtsd2ss xmm0, QWORD PTR tv86[ebp]
	push	ecx
	movss	DWORD PTR [esp], xmm0
	mov	ecx, DWORD PTR ___$ReturnUdt$[ebp]
	call	DWORD PTR __imp_??0Vect2@@QAE@MM@Z
	mov	eax, DWORD PTR ___$ReturnUdt$[ebp]
	mov	esp, ebp
	pop	ebp
	ret	4
?GetBaseSize@OBSAPIInterface@@UBE?AUVect2@@XZ ENDP	; OBSAPIInterface::GetBaseSize
_TEXT	ENDS
; Function compile flags: /Odtp
; File f:\songmm_moon_stone_obs\obs\source\api.cpp
;	COMDAT ?GetRenderFrameSize@OBSAPIInterface@@UBE?AUVect2@@XZ
_TEXT	SEGMENT
_this$ = -4						; size = 4
___$ReturnUdt$ = 8					; size = 4
?GetRenderFrameSize@OBSAPIInterface@@UBE?AUVect2@@XZ PROC ; OBSAPIInterface::GetRenderFrameSize, COMDAT
; _this$ = ecx

; 563  :     virtual Vect2 GetRenderFrameSize() const        {return Vect2(float(App->renderFrameWidth), float(App->renderFrameHeight));}

	push	ebp
	mov	ebp, esp
	push	ecx
	mov	DWORD PTR _this$[ebp], ecx
	mov	eax, DWORD PTR ?App@@3PAVOBS@@A		; App
	cvtsi2ss xmm0, DWORD PTR [eax+640]
	push	ecx
	movss	DWORD PTR [esp], xmm0
	mov	ecx, DWORD PTR ?App@@3PAVOBS@@A		; App
	cvtsi2ss xmm0, DWORD PTR [ecx+636]
	push	ecx
	movss	DWORD PTR [esp], xmm0
	mov	ecx, DWORD PTR ___$ReturnUdt$[ebp]
	call	DWORD PTR __imp_??0Vect2@@QAE@MM@Z
	mov	eax, DWORD PTR ___$ReturnUdt$[ebp]
	mov	esp, ebp
	pop	ebp
	ret	4
?GetRenderFrameSize@OBSAPIInterface@@UBE?AUVect2@@XZ ENDP ; OBSAPIInterface::GetRenderFrameSize
_TEXT	ENDS
; Function compile flags: /Odtp
; File f:\songmm_moon_stone_obs\obs\source\api.cpp
;	COMDAT ?GetRenderFrameOffset@OBSAPIInterface@@UBE?AUVect2@@XZ
_TEXT	SEGMENT
_this$ = -4						; size = 4
___$ReturnUdt$ = 8					; size = 4
?GetRenderFrameOffset@OBSAPIInterface@@UBE?AUVect2@@XZ PROC ; OBSAPIInterface::GetRenderFrameOffset, COMDAT
; _this$ = ecx

; 564  :     virtual Vect2 GetRenderFrameOffset() const      {return Vect2(float(App->renderFrameX), float(App->renderFrameY));}

	push	ebp
	mov	ebp, esp
	push	ecx
	mov	DWORD PTR _this$[ebp], ecx
	mov	eax, DWORD PTR ?App@@3PAVOBS@@A		; App
	cvtsi2ss xmm0, DWORD PTR [eax+648]
	push	ecx
	movss	DWORD PTR [esp], xmm0
	mov	ecx, DWORD PTR ?App@@3PAVOBS@@A		; App
	cvtsi2ss xmm0, DWORD PTR [ecx+644]
	push	ecx
	movss	DWORD PTR [esp], xmm0
	mov	ecx, DWORD PTR ___$ReturnUdt$[ebp]
	call	DWORD PTR __imp_??0Vect2@@QAE@MM@Z
	mov	eax, DWORD PTR ___$ReturnUdt$[ebp]
	mov	esp, ebp
	pop	ebp
	ret	4
?GetRenderFrameOffset@OBSAPIInterface@@UBE?AUVect2@@XZ ENDP ; OBSAPIInterface::GetRenderFrameOffset
_TEXT	ENDS
; Function compile flags: /Odtp
; File f:\songmm_moon_stone_obs\obs\source\api.cpp
;	COMDAT ?GetRenderFrameControlSize@OBSAPIInterface@@UBE?AUVect2@@XZ
_TEXT	SEGMENT
_this$ = -4						; size = 4
___$ReturnUdt$ = 8					; size = 4
?GetRenderFrameControlSize@OBSAPIInterface@@UBE?AUVect2@@XZ PROC ; OBSAPIInterface::GetRenderFrameControlSize, COMDAT
; _this$ = ecx

; 565  :     virtual Vect2 GetRenderFrameControlSize() const {return Vect2(float(App->renderFrameCtrlWidth), float(App->renderFrameCtrlHeight));}

	push	ebp
	mov	ebp, esp
	push	ecx
	mov	DWORD PTR _this$[ebp], ecx
	mov	eax, DWORD PTR ?App@@3PAVOBS@@A		; App
	cvtsi2ss xmm0, DWORD PTR [eax+656]
	push	ecx
	movss	DWORD PTR [esp], xmm0
	mov	ecx, DWORD PTR ?App@@3PAVOBS@@A		; App
	cvtsi2ss xmm0, DWORD PTR [ecx+652]
	push	ecx
	movss	DWORD PTR [esp], xmm0
	mov	ecx, DWORD PTR ___$ReturnUdt$[ebp]
	call	DWORD PTR __imp_??0Vect2@@QAE@MM@Z
	mov	eax, DWORD PTR ___$ReturnUdt$[ebp]
	mov	esp, ebp
	pop	ebp
	ret	4
?GetRenderFrameControlSize@OBSAPIInterface@@UBE?AUVect2@@XZ ENDP ; OBSAPIInterface::GetRenderFrameControlSize
_TEXT	ENDS
; Function compile flags: /Odtp
; File f:\songmm_moon_stone_obs\obs\source\api.cpp
;	COMDAT ?GetOutputSize@OBSAPIInterface@@UBE?AUVect2@@XZ
_TEXT	SEGMENT
tv86 = -28						; size = 8
tv76 = -20						; size = 8
_this$ = -12						; size = 4
tv82 = -8						; size = 4
tv72 = -4						; size = 4
___$ReturnUdt$ = 8					; size = 4
?GetOutputSize@OBSAPIInterface@@UBE?AUVect2@@XZ PROC	; OBSAPIInterface::GetOutputSize, COMDAT
; _this$ = ecx

; 566  :     virtual Vect2 GetOutputSize() const             {return Vect2(float(App->outputCX), float(App->outputCY));}

	push	ebp
	mov	ebp, esp
	sub	esp, 28					; 0000001cH
	mov	DWORD PTR _this$[ebp], ecx
	mov	eax, DWORD PTR ?App@@3PAVOBS@@A		; App
	mov	ecx, DWORD PTR [eax+876]
	mov	DWORD PTR tv72[ebp], ecx
	cvtsi2sd xmm0, DWORD PTR tv72[ebp]
	mov	edx, DWORD PTR tv72[ebp]
	shr	edx, 31					; 0000001fH
	addsd	xmm0, QWORD PTR __xmm@41f00000000000000000000000000000[edx*8]
	movsd	QWORD PTR tv76[ebp], xmm0
	cvtsd2ss xmm0, QWORD PTR tv76[ebp]
	push	ecx
	movss	DWORD PTR [esp], xmm0
	mov	eax, DWORD PTR ?App@@3PAVOBS@@A		; App
	mov	ecx, DWORD PTR [eax+872]
	mov	DWORD PTR tv82[ebp], ecx
	cvtsi2sd xmm0, DWORD PTR tv82[ebp]
	mov	edx, DWORD PTR tv82[ebp]
	shr	edx, 31					; 0000001fH
	addsd	xmm0, QWORD PTR __xmm@41f00000000000000000000000000000[edx*8]
	movsd	QWORD PTR tv86[ebp], xmm0
	cvtsd2ss xmm0, QWORD PTR tv86[ebp]
	push	ecx
	movss	DWORD PTR [esp], xmm0
	mov	ecx, DWORD PTR ___$ReturnUdt$[ebp]
	call	DWORD PTR __imp_??0Vect2@@QAE@MM@Z
	mov	eax, DWORD PTR ___$ReturnUdt$[ebp]
	mov	esp, ebp
	pop	ebp
	ret	4
?GetOutputSize@OBSAPIInterface@@UBE?AUVect2@@XZ ENDP	; OBSAPIInterface::GetOutputSize
_TEXT	ENDS
; Function compile flags: /Odtp
; File f:\songmm_moon_stone_obs\obs\source\api.cpp
;	COMDAT ?GetBaseSize@OBSAPIInterface@@UBEXAAI0@Z
_TEXT	SEGMENT
_this$ = -4						; size = 4
_width$ = 8						; size = 4
_height$ = 12						; size = 4
?GetBaseSize@OBSAPIInterface@@UBEXAAI0@Z PROC		; OBSAPIInterface::GetBaseSize, COMDAT
; _this$ = ecx

; 568  :     virtual void GetBaseSize(UINT &width, UINT &height) const               {App->GetBaseSize(width, height);}

	push	ebp
	mov	ebp, esp
	push	ecx
	mov	DWORD PTR _this$[ebp], ecx
	mov	eax, DWORD PTR _height$[ebp]
	push	eax
	mov	ecx, DWORD PTR _width$[ebp]
	push	ecx
	mov	ecx, DWORD PTR ?App@@3PAVOBS@@A		; App
	call	?GetBaseSize@OBS@@QBEXAAI0@Z		; OBS::GetBaseSize
	mov	esp, ebp
	pop	ebp
	ret	8
?GetBaseSize@OBSAPIInterface@@UBEXAAI0@Z ENDP		; OBSAPIInterface::GetBaseSize
_TEXT	ENDS
; Function compile flags: /Odtp
; File f:\songmm_moon_stone_obs\obs\source\api.cpp
;	COMDAT ?GetRenderFrameSize@OBSAPIInterface@@UBEXAAI0@Z
_TEXT	SEGMENT
_this$ = -4						; size = 4
_width$ = 8						; size = 4
_height$ = 12						; size = 4
?GetRenderFrameSize@OBSAPIInterface@@UBEXAAI0@Z PROC	; OBSAPIInterface::GetRenderFrameSize, COMDAT
; _this$ = ecx

; 569  :     virtual void GetRenderFrameSize(UINT &width, UINT &height) const        {App->GetRenderFrameSize(width, height);}

	push	ebp
	mov	ebp, esp
	push	ecx
	mov	DWORD PTR _this$[ebp], ecx
	mov	eax, DWORD PTR _height$[ebp]
	push	eax
	mov	ecx, DWORD PTR _width$[ebp]
	push	ecx
	mov	ecx, DWORD PTR ?App@@3PAVOBS@@A		; App
	call	?GetRenderFrameSize@OBS@@QBEXAAI0@Z	; OBS::GetRenderFrameSize
	mov	esp, ebp
	pop	ebp
	ret	8
?GetRenderFrameSize@OBSAPIInterface@@UBEXAAI0@Z ENDP	; OBSAPIInterface::GetRenderFrameSize
_TEXT	ENDS
; Function compile flags: /Odtp
; File f:\songmm_moon_stone_obs\obs\source\api.cpp
;	COMDAT ?GetRenderFrameOffset@OBSAPIInterface@@UBEXAAI0@Z
_TEXT	SEGMENT
_this$ = -4						; size = 4
_x$ = 8							; size = 4
_y$ = 12						; size = 4
?GetRenderFrameOffset@OBSAPIInterface@@UBEXAAI0@Z PROC	; OBSAPIInterface::GetRenderFrameOffset, COMDAT
; _this$ = ecx

; 570  :     virtual void GetRenderFrameOffset(UINT &x, UINT &y) const               {App->GetRenderFrameOffset(x, y);}

	push	ebp
	mov	ebp, esp
	push	ecx
	mov	DWORD PTR _this$[ebp], ecx
	mov	eax, DWORD PTR _y$[ebp]
	push	eax
	mov	ecx, DWORD PTR _x$[ebp]
	push	ecx
	mov	ecx, DWORD PTR ?App@@3PAVOBS@@A		; App
	call	?GetRenderFrameOffset@OBS@@QBEXAAI0@Z	; OBS::GetRenderFrameOffset
	mov	esp, ebp
	pop	ebp
	ret	8
?GetRenderFrameOffset@OBSAPIInterface@@UBEXAAI0@Z ENDP	; OBSAPIInterface::GetRenderFrameOffset
_TEXT	ENDS
; Function compile flags: /Odtp
; File f:\songmm_moon_stone_obs\obs\source\api.cpp
;	COMDAT ?GetRenderFrameControlSize@OBSAPIInterface@@UBEXAAI0@Z
_TEXT	SEGMENT
_this$ = -4						; size = 4
_width$ = 8						; size = 4
_height$ = 12						; size = 4
?GetRenderFrameControlSize@OBSAPIInterface@@UBEXAAI0@Z PROC ; OBSAPIInterface::GetRenderFrameControlSize, COMDAT
; _this$ = ecx

; 571  :     virtual void GetRenderFrameControlSize(UINT &width, UINT &height) const {App->GetRenderFrameControlSize(width, height);}

	push	ebp
	mov	ebp, esp
	push	ecx
	mov	DWORD PTR _this$[ebp], ecx
	mov	eax, DWORD PTR _height$[ebp]
	push	eax
	mov	ecx, DWORD PTR _width$[ebp]
	push	ecx
	mov	ecx, DWORD PTR ?App@@3PAVOBS@@A		; App
	call	?GetRenderFrameControlSize@OBS@@QBEXAAI0@Z ; OBS::GetRenderFrameControlSize
	mov	esp, ebp
	pop	ebp
	ret	8
?GetRenderFrameControlSize@OBSAPIInterface@@UBEXAAI0@Z ENDP ; OBSAPIInterface::GetRenderFrameControlSize
_TEXT	ENDS
; Function compile flags: /Odtp
; File f:\songmm_moon_stone_obs\obs\source\api.cpp
;	COMDAT ?GetOutputSize@OBSAPIInterface@@UBEXAAI0@Z
_TEXT	SEGMENT
_this$ = -4						; size = 4
_width$ = 8						; size = 4
_height$ = 12						; size = 4
?GetOutputSize@OBSAPIInterface@@UBEXAAI0@Z PROC		; OBSAPIInterface::GetOutputSize, COMDAT
; _this$ = ecx

; 572  :     virtual void GetOutputSize(UINT &width, UINT &height) const             {App->GetOutputSize(width, height);}

	push	ebp
	mov	ebp, esp
	push	ecx
	mov	DWORD PTR _this$[ebp], ecx
	mov	eax, DWORD PTR _height$[ebp]
	push	eax
	mov	ecx, DWORD PTR _width$[ebp]
	push	ecx
	mov	ecx, DWORD PTR ?App@@3PAVOBS@@A		; App
	call	?GetOutputSize@OBS@@QBEXAAI0@Z		; OBS::GetOutputSize
	mov	esp, ebp
	pop	ebp
	ret	8
?GetOutputSize@OBSAPIInterface@@UBEXAAI0@Z ENDP		; OBSAPIInterface::GetOutputSize
_TEXT	ENDS
; Function compile flags: /Odtp
; File f:\songmm_moon_stone_obs\obs\source\api.cpp
;	COMDAT ?MapWindowToFramePos@OBSAPIInterface@@UBE?AUVect2@@U2@@Z
_TEXT	SEGMENT
_this$ = -4						; size = 4
___$ReturnUdt$ = 8					; size = 4
_mousePos$ = 12						; size = 8
?MapWindowToFramePos@OBSAPIInterface@@UBE?AUVect2@@U2@@Z PROC ; OBSAPIInterface::MapWindowToFramePos, COMDAT
; _this$ = ecx

; 574  :     virtual Vect2 MapWindowToFramePos(Vect2 mousePos) const     {return App->MapWindowToFramePos(mousePos);}

	push	ebp
	mov	ebp, esp
	push	ecx
	mov	DWORD PTR _this$[ebp], ecx
	sub	esp, 8
	mov	ecx, esp
	lea	eax, DWORD PTR _mousePos$[ebp]
	push	eax
	call	DWORD PTR __imp_??0Vect2@@QAE@ABU0@@Z
	mov	ecx, DWORD PTR ___$ReturnUdt$[ebp]
	push	ecx
	call	?MapWindowToFramePos@OBS@@CA?AUVect2@@U2@@Z ; OBS::MapWindowToFramePos
	add	esp, 12					; 0000000cH
	mov	eax, DWORD PTR ___$ReturnUdt$[ebp]
	mov	esp, ebp
	pop	ebp
	ret	12					; 0000000cH
?MapWindowToFramePos@OBSAPIInterface@@UBE?AUVect2@@U2@@Z ENDP ; OBSAPIInterface::MapWindowToFramePos
_TEXT	ENDS
; Function compile flags: /Odtp
; File f:\songmm_moon_stone_obs\obs\source\api.cpp
;	COMDAT ?MapFrameToWindowPos@OBSAPIInterface@@UBE?AUVect2@@U2@@Z
_TEXT	SEGMENT
_this$ = -4						; size = 4
___$ReturnUdt$ = 8					; size = 4
_framePos$ = 12						; size = 8
?MapFrameToWindowPos@OBSAPIInterface@@UBE?AUVect2@@U2@@Z PROC ; OBSAPIInterface::MapFrameToWindowPos, COMDAT
; _this$ = ecx

; 575  :     virtual Vect2 MapFrameToWindowPos(Vect2 framePos) const     {return App->MapFrameToWindowPos(framePos);}

	push	ebp
	mov	ebp, esp
	push	ecx
	mov	DWORD PTR _this$[ebp], ecx
	sub	esp, 8
	mov	ecx, esp
	lea	eax, DWORD PTR _framePos$[ebp]
	push	eax
	call	DWORD PTR __imp_??0Vect2@@QAE@ABU0@@Z
	mov	ecx, DWORD PTR ___$ReturnUdt$[ebp]
	push	ecx
	call	?MapFrameToWindowPos@OBS@@CA?AUVect2@@U2@@Z ; OBS::MapFrameToWindowPos
	add	esp, 12					; 0000000cH
	mov	eax, DWORD PTR ___$ReturnUdt$[ebp]
	mov	esp, ebp
	pop	ebp
	ret	12					; 0000000cH
?MapFrameToWindowPos@OBSAPIInterface@@UBE?AUVect2@@U2@@Z ENDP ; OBSAPIInterface::MapFrameToWindowPos
_TEXT	ENDS
; Function compile flags: /Odtp
; File f:\songmm_moon_stone_obs\obs\source\api.cpp
;	COMDAT ?MapWindowToFrameSize@OBSAPIInterface@@UBE?AUVect2@@U2@@Z
_TEXT	SEGMENT
_this$ = -4						; size = 4
___$ReturnUdt$ = 8					; size = 4
_windowSize$ = 12					; size = 8
?MapWindowToFrameSize@OBSAPIInterface@@UBE?AUVect2@@U2@@Z PROC ; OBSAPIInterface::MapWindowToFrameSize, COMDAT
; _this$ = ecx

; 576  :     virtual Vect2 MapWindowToFrameSize(Vect2 windowSize) const  {return App->MapWindowToFrameSize(windowSize);}

	push	ebp
	mov	ebp, esp
	push	ecx
	mov	DWORD PTR _this$[ebp], ecx
	sub	esp, 8
	mov	ecx, esp
	lea	eax, DWORD PTR _windowSize$[ebp]
	push	eax
	call	DWORD PTR __imp_??0Vect2@@QAE@ABU0@@Z
	mov	ecx, DWORD PTR ___$ReturnUdt$[ebp]
	push	ecx
	call	?MapWindowToFrameSize@OBS@@CA?AUVect2@@U2@@Z ; OBS::MapWindowToFrameSize
	add	esp, 12					; 0000000cH
	mov	eax, DWORD PTR ___$ReturnUdt$[ebp]
	mov	esp, ebp
	pop	ebp
	ret	12					; 0000000cH
?MapWindowToFrameSize@OBSAPIInterface@@UBE?AUVect2@@U2@@Z ENDP ; OBSAPIInterface::MapWindowToFrameSize
_TEXT	ENDS
; Function compile flags: /Odtp
; File f:\songmm_moon_stone_obs\obs\source\api.cpp
;	COMDAT ?MapFrameToWindowSize@OBSAPIInterface@@UBE?AUVect2@@U2@@Z
_TEXT	SEGMENT
_this$ = -4						; size = 4
___$ReturnUdt$ = 8					; size = 4
_frameSize$ = 12					; size = 8
?MapFrameToWindowSize@OBSAPIInterface@@UBE?AUVect2@@U2@@Z PROC ; OBSAPIInterface::MapFrameToWindowSize, COMDAT
; _this$ = ecx

; 577  :     virtual Vect2 MapFrameToWindowSize(Vect2 frameSize) const   {return App->MapFrameToWindowSize(frameSize);}

	push	ebp
	mov	ebp, esp
	push	ecx
	mov	DWORD PTR _this$[ebp], ecx
	sub	esp, 8
	mov	ecx, esp
	lea	eax, DWORD PTR _frameSize$[ebp]
	push	eax
	call	DWORD PTR __imp_??0Vect2@@QAE@ABU0@@Z
	mov	ecx, DWORD PTR ___$ReturnUdt$[ebp]
	push	ecx
	call	?MapFrameToWindowSize@OBS@@CA?AUVect2@@U2@@Z ; OBS::MapFrameToWindowSize
	add	esp, 12					; 0000000cH
	mov	eax, DWORD PTR ___$ReturnUdt$[ebp]
	mov	esp, ebp
	pop	ebp
	ret	12					; 0000000cH
?MapFrameToWindowSize@OBSAPIInterface@@UBE?AUVect2@@U2@@Z ENDP ; OBSAPIInterface::MapFrameToWindowSize
_TEXT	ENDS
; Function compile flags: /Odtp
; File f:\songmm_moon_stone_obs\obs\source\api.cpp
;	COMDAT ?GetWindowToFrameScale@OBSAPIInterface@@UBE?AUVect2@@XZ
_TEXT	SEGMENT
_this$ = -4						; size = 4
___$ReturnUdt$ = 8					; size = 4
?GetWindowToFrameScale@OBSAPIInterface@@UBE?AUVect2@@XZ PROC ; OBSAPIInterface::GetWindowToFrameScale, COMDAT
; _this$ = ecx

; 578  :     virtual Vect2 GetWindowToFrameScale() const                 {return App->GetWindowToFrameScale();}

	push	ebp
	mov	ebp, esp
	push	ecx
	mov	DWORD PTR _this$[ebp], ecx
	mov	eax, DWORD PTR ___$ReturnUdt$[ebp]
	push	eax
	call	?GetWindowToFrameScale@OBS@@CA?AUVect2@@XZ ; OBS::GetWindowToFrameScale
	add	esp, 4
	mov	eax, DWORD PTR ___$ReturnUdt$[ebp]
	mov	esp, ebp
	pop	ebp
	ret	4
?GetWindowToFrameScale@OBSAPIInterface@@UBE?AUVect2@@XZ ENDP ; OBSAPIInterface::GetWindowToFrameScale
_TEXT	ENDS
; Function compile flags: /Odtp
; File f:\songmm_moon_stone_obs\obs\source\api.cpp
;	COMDAT ?GetFrameToWindowScale@OBSAPIInterface@@UBE?AUVect2@@XZ
_TEXT	SEGMENT
_this$ = -4						; size = 4
___$ReturnUdt$ = 8					; size = 4
?GetFrameToWindowScale@OBSAPIInterface@@UBE?AUVect2@@XZ PROC ; OBSAPIInterface::GetFrameToWindowScale, COMDAT
; _this$ = ecx

; 579  :     virtual Vect2 GetFrameToWindowScale() const                 {return App->GetFrameToWindowScale();}

	push	ebp
	mov	ebp, esp
	push	ecx
	mov	DWORD PTR _this$[ebp], ecx
	mov	eax, DWORD PTR ___$ReturnUdt$[ebp]
	push	eax
	call	?GetFrameToWindowScale@OBS@@CA?AUVect2@@XZ ; OBS::GetFrameToWindowScale
	add	esp, 4
	mov	eax, DWORD PTR ___$ReturnUdt$[ebp]
	mov	esp, ebp
	pop	ebp
	ret	4
?GetFrameToWindowScale@OBSAPIInterface@@UBE?AUVect2@@XZ ENDP ; OBSAPIInterface::GetFrameToWindowScale
_TEXT	ENDS
; Function compile flags: /Odtp
; File f:\songmm_moon_stone_obs\obs\source\api.cpp
;	COMDAT ?GetMaxFPS@OBSAPIInterface@@UBEIXZ
_TEXT	SEGMENT
_this$ = -8						; size = 4
tv73 = -4						; size = 4
?GetMaxFPS@OBSAPIInterface@@UBEIXZ PROC			; OBSAPIInterface::GetMaxFPS, COMDAT
; _this$ = ecx

; 581  :     virtual UINT GetMaxFPS() const                  {return App->bRunning ? App->fps : AppConfig->GetInt(TEXT("Video"), TEXT("FPS"), 30);}

	push	ebp
	mov	ebp, esp
	sub	esp, 8
	mov	DWORD PTR _this$[ebp], ecx
	mov	eax, DWORD PTR ?App@@3PAVOBS@@A		; App
	movzx	ecx, BYTE PTR [eax+622]
	test	ecx, ecx
	je	SHORT $LN3@GetMaxFPS
	mov	edx, DWORD PTR ?App@@3PAVOBS@@A		; App
	mov	eax, DWORD PTR [edx+892]
	mov	DWORD PTR tv73[ebp], eax
	jmp	SHORT $LN4@GetMaxFPS
$LN3@GetMaxFPS:
	push	30					; 0000001eH
