; Listing generated by Microsoft (R) Optimizing Compiler Version 18.00.21005.1 

	TITLE	F:\songmm_moon_stone_obs\OBS\Source\Encoder_QSV.cpp
	.686P
	.XMM
	include listing.inc
	.model	flat

INCLUDELIB OLDNAMES

PUBLIC	?emulation_prevention_pattern@?CF@??ProcessEncodedFrame@QSVEncoder@@QAEXAAV?$List@UDataPacket@@@@AAV?$List@W4PacketType@@@@KAAKI@Z@4QBEB ; `QSVEncoder::ProcessEncodedFrame'::`37'::emulation_prevention_pattern
PUBLIC	??_7QSVEncoder@@6B@				; QSVEncoder::`vftable'
PUBLIC	??_R0?AUencode_task@QSVEncoder@@@8		; QSVEncoder::encode_task `RTTI Type Descriptor'
PUBLIC	??_R4QSVEncoder@@6B@				; QSVEncoder::`RTTI Complete Object Locator'
PUBLIC	??_R0?AUmfxFrameData@@@8			; mfxFrameData `RTTI Type Descriptor'
PUBLIC	??_7VideoEncoder@@6B@				; VideoEncoder::`vftable'
PUBLIC	??_R0?AVVideoEncoder@@@8			; VideoEncoder `RTTI Type Descriptor'
PUBLIC	??_R2QSVEncoder@@8				; QSVEncoder::`RTTI Base Class Array'
PUBLIC	?usageStr@?A0x7e09c670@@3PAPB_WA		; `anonymous namespace'::usageStr
PUBLIC	?rate_control_str@?A0x7e09c670@@3PAU<unnamed-type-rate_control_str>@1@A ; `anonymous namespace'::rate_control_str
PUBLIC	?implStr@?A0x7e09c670@@3PAPB_WA			; `anonymous namespace'::implStr
PUBLIC	?start_seq@?8??ProcessEncodedFrame@QSVEncoder@@QAEXAAV?$List@UDataPacket@@@@AAV?$List@W4PacketType@@@@KAAKI@Z@4QBEB ; `QSVEncoder::ProcessEncodedFrame'::`9'::start_seq
PUBLIC	??_R0?AUx264_nal_t@@@8				; x264_nal_t `RTTI Type Descriptor'
PUBLIC	??_R1A@?0A@EA@VideoEncoder@@8			; VideoEncoder::`RTTI Base Class Descriptor at (0,-1,0,64)'
PUBLIC	??_R4VideoEncoder@@6B@				; VideoEncoder::`RTTI Complete Object Locator'
PUBLIC	__TI2CPA_W
PUBLIC	??_R0?AUVideoPacket@@@8				; VideoPacket `RTTI Type Descriptor'
PUBLIC	??_R0PA_W@8					; wchar_t * `RTTI Type Descriptor'
PUBLIC	??_R0?AVQSVEncoder@@@8				; QSVEncoder `RTTI Type Descriptor'
PUBLIC	??_R0_J@8					; __int64 `RTTI Type Descriptor'
PUBLIC	??_R3VideoEncoder@@8				; VideoEncoder::`RTTI Class Hierarchy Descriptor'
PUBLIC	__CT??_R0PA_W@84
PUBLIC	??_R2VideoEncoder@@8				; VideoEncoder::`RTTI Base Class Array'
PUBLIC	??_R0?AUDataPacket@@@8				; DataPacket `RTTI Type Descriptor'
PUBLIC	__CTA2PA_W
PUBLIC	??_R1A@?0A@EA@QSVEncoder@@8			; QSVEncoder::`RTTI Base Class Descriptor at (0,-1,0,64)'
PUBLIC	?npos@?$basic_string@DU?$char_traits@D@std@@V?$allocator@D@2@@std@@2IB ; std::basic_string<char,std::char_traits<char>,std::allocator<char> >::npos
PUBLIC	?npos@?$basic_string@_WU?$char_traits@_W@std@@V?$allocator@_W@2@@std@@2IB ; std::basic_string<wchar_t,std::char_traits<wchar_t>,std::allocator<wchar_t> >::npos
PUBLIC	__CT??_R0PAX@84
PUBLIC	??_R3QSVEncoder@@8				; QSVEncoder::`RTTI Class Hierarchy Descriptor'
PUBLIC	??_R0PAX@8					; void * `RTTI Type Descriptor'
PUBLIC	??_C@_1GA@FFPJBDII@?$AAR?$AAe?$AAc?$AAa?$AAl?$AAc?$AAu?$AAl?$AAa?$AAt?$AAe?$AAd?$AA?5?$AAb?$AAf?$AAr?$AAa?$AAm?$AAe?$AA_?$AAd?$AAe?$AAl?$AAa?$AAy?$AA?3?$AA?5?$AA?$CF?$AAu?$AA?0?$AA?5?$AAi@ ; `string'
PUBLIC	??_C@_1EG@IOAIFOJM@?$AAb?$AAf?$AAr?$AAa?$AAm?$AAe?$AA_?$AAd?$AAe?$AAl?$AAa?$AAy?$AA?$DN?$AA?$CF?$AAu?$AA?5?$AA?$DO?$AA?$DN?$AA?5?$AAi?$AAn?$AAi?$AAt?$AA_?$AAp?$AAt?$AAs?$AA?4?$AAN?$AAu?$AAm?$AA?$DN@ ; `string'
PUBLIC	??_C@_1O@GNHABGLI@?$AAU?$AAs?$AAe?$AAC?$AAB?$AAR?$AA?$AA@ ; `string'
PUBLIC	??_C@_1BO@PCCCHKLK@?$AAV?$AAi?$AAd?$AAe?$AAo?$AA?5?$AAE?$AAn?$AAc?$AAo?$AAd?$AAi?$AAn?$AAg?$AA?$AA@ ; `string'
PUBLIC	??_C@_1GC@LANNAHFH@?$AAC?$AAo?$AAn?$AAf?$AAi?$AAg?$AAu?$AAr?$AAe?$AAd?$AA?5?$AAb?$AAi?$AAt?$AAr?$AAa?$AAt?$AAe?$AA?5?$AA?$CF?$AAd?$AA?5?$AAe?$AAx?$AAc?$AAe?$AAe?$AAd?$AAs?$AA?5?$AAQ?$AAS@ ; `string'
PUBLIC	??_C@_1CC@INKCNOFG@?$AAK?$AAe?$AAy?$AAf?$AAr?$AAa?$AAm?$AAe?$AAI?$AAn?$AAt?$AAe?$AAr?$AAv?$AAa?$AAl?$AA?$AA@ ; `string'
PUBLIC	??_C@_1BE@ODBMCAAO@?$AAQ?$AAS?$AAV?$AAP?$AAr?$AAe?$AAs?$AAe?$AAt?$AA?$AA@ ; `string'
PUBLIC	??_C@_19PKICIIJD@?$AAh?$AAi?$AAg?$AAh?$AA?$AA@	; `string'
PUBLIC	??_C@_1BI@CHOFIDHM@?$AAX?$AA2?$AA6?$AA4?$AAP?$AAr?$AAo?$AAf?$AAi?$AAl?$AAe?$AA?$AA@ ; `string'
PUBLIC	??_C@_1DG@KLBNDPKC@?$AAQ?$AAS?$AAV?$AAU?$AAs?$AAe?$AAV?$AAi?$AAd?$AAe?$AAo?$AAE?$AAn?$AAc?$AAo?$AAd?$AAe?$AAr?$AAS?$AAe?$AAt?$AAt?$AAi?$AAn?$AAg?$AAs?$AA?$AA@ ; `string'
PUBLIC	??_C@_1CE@FAHANJKA@?$AAC?$AAu?$AAs?$AAt?$AAo?$AAm?$AAQ?$AAS?$AAV?$AAS?$AAe?$AAt?$AAt?$AAi?$AAn?$AAg?$AAs?$AA?$AA@ ; `string'
PUBLIC	??_C@_1EI@EDAOEDLO@?$AAU?$AAs?$AAi?$AAn?$AAg?$AA?5?$AAc?$AAu?$AAs?$AAt?$AAo?$AAm?$AA?5?$AAe?$AAn?$AAc?$AAo?$AAd?$AAe?$AAr?$AA?5?$AAs?$AAe?$AAt?$AAt?$AAi?$AAn?$AAg?$AAs?$AA?3?$AA?5?$AA?$CC@ ; `string'
PUBLIC	??_C@_06IONMGJI@keyint?$AA@			; `string'
PUBLIC	??_C@_07IBIPAAJI@bframes?$AA@			; `string'
PUBLIC	??_C@_07DKALODOL@qsvimpl?$AA@			; `string'
PUBLIC	??_C@_05GMGJDJAH@d3d11?$AA@			; `string'
PUBLIC	??_C@_04PGKLGAGG@d3d9?$AA@			; `string'
PUBLIC	??_C@_07LNMDFKEJ@profile?$AA@			; `string'
PUBLIC	??_C@_1BC@PBFEDEIE@?$AAb?$AAa?$AAs?$AAe?$AAl?$AAi?$AAn?$AAe?$AA?$AA@ ; `string'
PUBLIC	??_C@_19NACPGGMO@?$AAm?$AAa?$AAi?$AAn?$AA?$AA@	; `string'
PUBLIC	??_C@_1HC@EHFMGPIB@?$AAQ?$AAS?$AAV?$AA?3?$AA?5?$AAU?$AAn?$AAr?$AAe?$AAc?$AAo?$AAg?$AAn?$AAi?$AAz?$AAe?$AAd?$AA?5?$AAp?$AAr?$AAo?$AAf?$AAi?$AAl?$AAe?$AA?5?$AA?8?$AA?$CF?$AAs?$AA?8?$AA?0?$AA?5@ ; `string'
PUBLIC	??_C@_1EI@MGAFFPDA@?$AAE?$AAn?$AAc?$AAo?$AAd?$AAe?$AAr?$AA?4?$AAQ?$AAS?$AAV?$AA?4?$AAH?$AAe?$AAl?$AAp?$AAe?$AAr?$AAL?$AAa?$AAu?$AAn?$AAc?$AAh?$AAF?$AAa?$AAi?$AAl?$AAe?$AAd?$AAV?$AAi@ ; `string'
PUBLIC	??_C@_1EI@BEBMIADP@?$AAQ?$AAS?$AAV?$AA?5?$AAi?$AAs?$AA?5?$AAn?$AAo?$AA?5?$AAl?$AAo?$AAn?$AAg?$AAe?$AAr?$AA?5?$AAs?$AAu?$AAp?$AAp?$AAo?$AAr?$AAt?$AAe?$AAd?$AA?5?$AAo?$AAn?$AA?5?$AAV?$AAi@ ; `string'
PUBLIC	??_C@_1DO@OPJHFIHF@?$AAE?$AAn?$AAc?$AAo?$AAd?$AAe?$AAr?$AA?4?$AAQ?$AAS?$AAV?$AA?4?$AAH?$AAe?$AAl?$AAp?$AAe?$AAr?$AAL?$AAa?$AAu?$AAn?$AAc?$AAh?$AAF?$AAa?$AAi?$AAl?$AAe?$AAd?$AA?$AA@ ; `string'
PUBLIC	??_C@_1EG@KGHDNBFC@?$AAC?$AAo?$AAu?$AAl?$AAd?$AAn?$AA?8?$AAt?$AA?5?$AAl?$AAa?$AAu?$AAn?$AAc?$AAh?$AA?5?$AAQ?$AAS?$AAV?$AAH?$AAe?$AAl?$AAp?$AAe?$AAr?$AA?4?$AAe?$AAx?$AAe?$AA?3?$AA?5?$AA?$CF@ ; `string'
PUBLIC	??_C@_1BK@BCABKOOC@?$AAi?$AAn?$AAi?$AAt?$AA_?$AAr?$AAe?$AAq?$AAu?$AAe?$AAs?$AAt?$AA?$AA@ ; `string'
PUBLIC	??_C@_1CA@CDIPFIBO@?$AAU?$AAs?$AAe?$AAC?$AAu?$AAs?$AAt?$AAo?$AAm?$AAP?$AAa?$AAr?$AAa?$AAm?$AAs?$AA?$AA@ ; `string'
PUBLIC	??_C@_1BO@ENCKOBAL@?$AAQ?$AAS?$AAV?$AA?5?$AA?$CI?$AAA?$AAd?$AAv?$AAa?$AAn?$AAc?$AAe?$AAd?$AA?$CJ?$AA?$AA@ ; `string'
PUBLIC	??_C@_1DK@IPJBHBLN@?$AAQ?$AAS?$AAV?$AA?3?$AA?5?$AAU?$AAs?$AAi?$AAn?$AAg?$AA?5?$AAc?$AAu?$AAs?$AAt?$AAo?$AAm?$AA?5?$AAp?$AAa?$AAr?$AAa?$AAm?$AAe?$AAt?$AAe?$AAr?$AAs?$AA?$AA@ ; `string'
PUBLIC	??_C@_1CE@IBGNPBIO@?$AAR?$AAa?$AAt?$AAe?$AAC?$AAo?$AAn?$AAt?$AAr?$AAo?$AAl?$AAM?$AAe?$AAt?$AAh?$AAo?$AAd?$AA?$AA@ ; `string'
PUBLIC	??_C@_1CC@HBKEGJCM@?$AAU?$AAs?$AAe?$AAG?$AAl?$AAo?$AAb?$AAa?$AAl?$AAB?$AAi?$AAt?$AAr?$AAa?$AAt?$AAe?$AA?$AA@ ; `string'
PUBLIC	??_C@_1CI@KDHOMFIK@?$AAU?$AAs?$AAe?$AAG?$AAl?$AAo?$AAb?$AAa?$AAl?$AAB?$AAu?$AAf?$AAf?$AAe?$AAr?$AAS?$AAi?$AAz?$AAe?$AA?$AA@ ; `string'
PUBLIC	??_C@_1BG@IDKHPHBG@?$AAT?$AAa?$AAr?$AAg?$AAe?$AAt?$AAK?$AAb?$AAp?$AAs?$AA?$AA@ ; `string'
PUBLIC	??_C@_1BO@CJMDAOPJ@?$AAB?$AAu?$AAf?$AAf?$AAe?$AAr?$AAS?$AAi?$AAz?$AAe?$AAI?$AAn?$AAK?$AAB?$AA?$AA@ ; `string'
PUBLIC	??_C@_1BA@IBNIMAHO@?$AAM?$AAa?$AAx?$AAK?$AAb?$AAp?$AAs?$AA?$AA@ ; `string'
PUBLIC	??_C@_1BC@OHENPEDC@?$AAA?$AAc?$AAc?$AAu?$AAr?$AAa?$AAc?$AAy?$AA?$AA@ ; `string'
PUBLIC	??_C@_1BI@CJLLPJDH@?$AAC?$AAo?$AAn?$AAv?$AAe?$AAr?$AAg?$AAe?$AAn?$AAc?$AAe?$AA?$AA@ ; `string'
PUBLIC	??_C@_17OJMDMMIO@?$AAQ?$AAP?$AAI?$AA?$AA@	; `string'
PUBLIC	??_C@_17MENCNEJL@?$AAQ?$AAP?$AAP?$AA?$AA@	; `string'
PUBLIC	??_C@_17DOMCELIP@?$AAQ?$AAP?$AAB?$AA?$AA@	; `string'
PUBLIC	??_C@_1BG@OLCPADEI@?$AAI?$AAC?$AAQ?$AAQ?$AAu?$AAa?$AAl?$AAi?$AAt?$AAy?$AA?$AA@ ; `string'
PUBLIC	??_C@_1BA@IAHEMFAP@?$AAL?$AAA?$AAD?$AAe?$AAp?$AAt?$AAh?$AA?$AA@ ; `string'
PUBLIC	??_C@_1BM@MFIKDNIH@?$AAi?$AAn?$AAi?$AAt?$AA_?$AAr?$AAe?$AAs?$AAp?$AAo?$AAn?$AAs?$AAe?$AA?$AA@ ; `string'
PUBLIC	??_C@_1DI@NLPDPCNO@?$AAE?$AAn?$AAc?$AAo?$AAd?$AAe?$AAr?$AA?4?$AAQ?$AAS?$AAV?$AA?4?$AAH?$AAe?$AAl?$AAp?$AAe?$AAr?$AAE?$AAa?$AAr?$AAl?$AAy?$AAE?$AAx?$AAi?$AAt?$AA?$AA@ ; `string'
PUBLIC	??_C@_1HC@HGAJLDHP@?$AAF?$AAa?$AAi?$AAl?$AAe?$AAd?$AA?5?$AAt?$AAo?$AA?5?$AAg?$AAe?$AAt?$AA?5?$AAe?$AAx?$AAi?$AAt?$AA?5?$AAc?$AAo?$AAd?$AAe?$AA?5?$AAw?$AAh?$AAi?$AAl?$AAe?$AA?5?$AAi?$AAn@ ; `string'
PUBLIC	??_C@_1DK@KOIAJGOC@?$AAE?$AAn?$AAc?$AAo?$AAd?$AAe?$AAr?$AA?4?$AAQ?$AAS?$AAV?$AA?4?$AAI?$AAn?$AAc?$AAo?$AAm?$AAp?$AAa?$AAt?$AAi?$AAb?$AAl?$AAe?$AAI?$AAm?$AAp?$AAl?$AA?$AA@ ; `string'
PUBLIC	??_C@_1LO@DHEHLBEE@?$AAQ?$AAS?$AAV?$AAH?$AAe?$AAl?$AAp?$AAe?$AAr?$AA?4?$AAe?$AAx?$AAe?$AA?5?$AAh?$AAa?$AAs?$AA?5?$AAe?$AAx?$AAi?$AAt?$AAe?$AAd?$AA?5?$AAb?$AAe?$AAc?$AAa?$AAu?$AAs?$AAe@ ; `string'
PUBLIC	??_C@_1DE@MCCIFHMH@?$AAE?$AAn?$AAc?$AAo?$AAd?$AAe?$AAr?$AA?4?$AAQ?$AAS?$AAV?$AA?4?$AAN?$AAo?$AAV?$AAa?$AAl?$AAi?$AAd?$AAC?$AAo?$AAn?$AAf?$AAi?$AAg?$AA?$AA@ ; `string'
PUBLIC	??_C@_1IC@JEHGHKKI@?$AAQ?$AAS?$AAV?$AAH?$AAe?$AAl?$AAp?$AAe?$AAr?$AA?4?$AAe?$AAx?$AAe?$AA?5?$AAh?$AAa?$AAs?$AA?5?$AAe?$AAx?$AAi?$AAt?$AAe?$AAd?$AA?5?$AAb?$AAe?$AAc?$AAa?$AAu?$AAs?$AAe@ ; `string'
PUBLIC	??_C@_1GG@IFDPCDFB@?$AAQ?$AAS?$AAV?$AAH?$AAe?$AAl?$AAp?$AAe?$AAr?$AA?4?$AAe?$AAx?$AAe?$AA?5?$AAc?$AAo?$AAu?$AAl?$AAd?$AA?5?$AAn?$AAo?$AAt?$AA?5?$AAf?$AAi?$AAn?$AAd?$AA?5?$AAa?$AA?5?$AAv@ ; `string'
PUBLIC	??_C@_1EG@ONGBBGA@?$AAE?$AAn?$AAc?$AAo?$AAd?$AAe?$AAr?$AA?4?$AAQ?$AAS?$AAV?$AA?4?$AAI?$AAn?$AAi?$AAt?$AAC?$AAu?$AAs?$AAt?$AAo?$AAm?$AAP?$AAa?$AAr?$AAa?$AAm?$AAs?$AAF?$AAa?$AAi?$AAl@ ; `string'
PUBLIC	??_C@_1JC@NLDIMFFD@?$AAE?$AAn?$AAc?$AAo?$AAd?$AAe?$AAr?$AA?5?$AAi?$AAn?$AAi?$AAt?$AAi?$AAa?$AAl?$AAi?$AAz?$AAa?$AAt?$AAi?$AAo?$AAn?$AA?5?$AAf?$AAa?$AAi?$AAl?$AAe?$AAd?$AA?5?$AAw?$AAi@ ; `string'
PUBLIC	??_C@_1HA@GIELBKIB@?$AAQ?$AAS?$AAV?$AAH?$AAe?$AAl?$AAp?$AAe?$AAr?$AA?4?$AAe?$AAx?$AAe?$AA?5?$AAh?$AAa?$AAs?$AA?5?$AAe?$AAx?$AAi?$AAt?$AAe?$AAd?$AA?5?$AAw?$AAi?$AAt?$AAh?$AA?5?$AAc?$AAo@ ; `string'
PUBLIC	??_C@_1GO@OPENBPNL@?$AAC?$AAo?$AAu?$AAl?$AAd?$AA?5?$AAn?$AAo?$AAt?$AA?5?$AAi?$AAn?$AAi?$AAt?$AAi?$AAa?$AAl?$AAi?$AAz?$AAe?$AA?5?$AAQ?$AAS?$AAV?$AA?5?$AAs?$AAe?$AAs?$AAs?$AAi?$AAo?$AAn@ ; `string'
PUBLIC	??_C@_1FI@HNDPAIDH@?$AAQ?$AAS?$AAV?$AA?5?$AAv?$AAe?$AAr?$AAs?$AAi?$AAo?$AAn?$AA?5?$AA?$CF?$AAu?$AA?4?$AA?$CF?$AAu?$AA?5?$AAu?$AAs?$AAi?$AAn?$AAg?$AA?5?$AA?$CF?$AAs?$AA?$CF?$AAs?$AA?5?$AA?$CI?$AAa?$AAc@ ; `string'
PUBLIC	??_C@_1BO@LPFGHFJC@?$AAb?$AAi?$AAt?$AAs?$AAt?$AAr?$AAe?$AAa?$AAm?$AA_?$AAb?$AAu?$AAf?$AAf?$AA?$AA@ ; `string'
PUBLIC	??_C@_1BG@ONLLBCFI@?$AAf?$AAr?$AAa?$AAm?$AAe?$AA_?$AAb?$AAu?$AAf?$AAf?$AA?$AA@ ; `string'
PUBLIC	??_C@_1FC@PLEAILN@?$AAU?$AAs?$AAi?$AAn?$AAg?$AA?5?$AA?$CF?$AAu?$AA?5?$AAb?$AAi?$AAt?$AAs?$AAt?$AAr?$AAe?$AAa?$AAm?$AAs?$AA?5?$AAa?$AAn?$AAd?$AA?5?$AA?$CF?$AAu?$AA?5?$AAf?$AAr?$AAa?$AAm?$AAe@ ; `string'
PUBLIC	??_C@_1BI@PNGIAEEE@?$AAf?$AAr?$AAa?$AAm?$AAe?$AA_?$AAq?$AAu?$AAe?$AAu?$AAe?$AA?$AA@ ; `string'
PUBLIC	??_C@_1CE@OKHPDFBP@?$AAf?$AAr?$AAa?$AAm?$AAe?$AA_?$AAb?$AAu?$AAf?$AAf?$AA_?$AAs?$AAt?$AAa?$AAt?$AAu?$AAs?$AA?$AA@ ; `string'
PUBLIC	??_C@_1BO@BLGPOMJC@?$AAb?$AAi?$AAt?$AAs?$AAt?$AAr?$AAe?$AAa?$AAm?$AA_?$AAi?$AAn?$AAf?$AAo?$AA?$AA@ ; `string'
PUBLIC	??_C@_1CC@CNJHBCEC@?$AAf?$AAi?$AAl?$AAl?$AAe?$AAd?$AA_?$AAb?$AAi?$AAt?$AAs?$AAt?$AAr?$AAe?$AAa?$AAm?$AA?$AA@ ; `string'
PUBLIC	??_C@_19LLIMCLGL@?$AAs?$AAt?$AAo?$AAp?$AA?$AA@	; `string'
PUBLIC	??_C@_1CA@KDLBGFEM@?$AAe?$AAn?$AAc?$AAo?$AAd?$AAe?$AAr?$AA_?$AAf?$AAl?$AAu?$AAs?$AAh?$AAe?$AAd?$AA?$AA@ ; `string'
PUBLIC	??_C@_1FA@PLGDJKOD@?$AAT?$AAe?$AAr?$AAm?$AAi?$AAn?$AAa?$AAt?$AAi?$AAn?$AAg?$AA?5?$AAQ?$AAS?$AAV?$AAH?$AAe?$AAl?$AAp?$AAe?$AAr?$AA?4?$AAe?$AAx?$AAe?$AA?5?$AAa?$AAf?$AAt?$AAe?$AAr?$AA?5@ ; `string'
PUBLIC	??_C@_1CO@CDPCGBKB@?$AAU?$AAn?$AAh?$AAa?$AAn?$AAd?$AAl?$AAe?$AAd?$AA?5?$AAf?$AAr?$AAa?$AAm?$AAe?$AAt?$AAy?$AAp?$AAe?$AA?5?$AA?$CF?$AAu?$AA?$AA@ ; `string'
PUBLIC	??_C@_1DK@NCJGJBIK@?$AAE?$AAr?$AAr?$AAo?$AAr?$AA?3?$AA?5?$AAa?$AAl?$AAl?$AA?5?$AAf?$AAr?$AAa?$AAm?$AAe?$AAs?$AA?5?$AAa?$AAr?$AAe?$AA?5?$AAi?$AAn?$AA?5?$AAu?$AAs?$AAe?$AA?$AA@ ; `string'
PUBLIC	??_C@_1CA@JOCIALON@?$AAQ?$AAu?$AAe?$AAu?$AAe?$AAE?$AAn?$AAc?$AAo?$AAd?$AAe?$AAT?$AAa?$AAs?$AAk?$AA?$AA@ ; `string'
PUBLIC	??_C@_1DA@KMEGBFDO@?$AAQ?$AAS?$AAV?$AA?5?$AAe?$AAn?$AAc?$AAo?$AAd?$AAe?$AAr?$AA?5?$AAi?$AAs?$AA?5?$AAt?$AAo?$AAo?$AA?5?$AAs?$AAl?$AAo?$AAw?$AA?$AA@ ; `string'
PUBLIC	??_C@_1CM@LDBFCFIL@?$AAQ?$AAS?$AAV?$AAH?$AAe?$AAl?$AAp?$AAe?$AAr?$AA?4?$AAe?$AAx?$AAe?$AA?5?$AAe?$AAx?$AAi?$AAt?$AAe?$AAd?$AA?$CB?$AA?$AA@ ; `string'
PUBLIC	??_C@_1FA@BILEIEBO@?$AAQ?$AAS?$AAV?$AAH?$AAe?$AAl?$AAp?$AAe?$AAr?$AA?4?$AAe?$AAx?$AAe?$AA?5?$AAw?$AAa?$AAs?$AA?5?$AAk?$AAi?$AAl?$AAl?$AAe?$AAd?$AA?0?$AA?5?$AAe?$AAn?$AAc?$AAo?$AAd?$AAe@ ; `string'
PUBLIC	??_C@_1JK@CGJBOKOI@?$AAQ?$AAS?$AAV?$AAH?$AAe?$AAl?$AAp?$AAe?$AAr?$AA?4?$AAe?$AAx?$AAe?$AA?5?$AAh?$AAa?$AAs?$AA?5?$AAe?$AAx?$AAi?$AAt?$AAe?$AAd?$AA?5?$AAb?$AAe?$AAc?$AAa?$AAu?$AAs?$AAe@ ; `string'
PUBLIC	??_C@_1EM@POGNGIIP@?$AAQ?$AAS?$AAV?$AAH?$AAe?$AAl?$AAp?$AAe?$AAr?$AA?4?$AAe?$AAx?$AAe?$AA?5?$AAh?$AAa?$AAs?$AA?5?$AAe?$AAx?$AAi?$AAt?$AAe?$AAd?$AA?5?$AAw?$AAi?$AAt?$AAh?$AA?5?$AAc?$AAo@ ; `string'
PUBLIC	??_C@_1CI@CHNAFGEH@?$AAP?$AAr?$AAo?$AAc?$AAe?$AAs?$AAs?$AAE?$AAn?$AAc?$AAo?$AAd?$AAe?$AAd?$AAF?$AAr?$AAa?$AAm?$AAe?$AA?$AA@ ; `string'
PUBLIC	??_C@_1BI@JCHINCJN@?$AAs?$AAp?$AAs?$AAp?$AAp?$AAs?$AA_?$AAs?$AAi?$AAz?$AAe?$AA?$AA@ ; `string'
PUBLIC	??_C@_1BC@ENMPJGED@?$AAs?$AAp?$AAs?$AA_?$AAb?$AAu?$AAf?$AAf?$AA?$AA@ ; `string'
PUBLIC	??_C@_1BC@KHEJELCB@?$AAp?$AAp?$AAs?$AA_?$AAb?$AAu?$AAf?$AAf?$AA?$AA@ ; `string'
PUBLIC	??_C@_07NFANNNEC@UNKNOWN?$AA@			; `string'
PUBLIC	??_C@_1CI@PIFIBIKK@?$AAV?$AAi?$AAd?$AAe?$AAo?$AA?5?$AAE?$AAn?$AAc?$AAo?$AAd?$AAi?$AAn?$AAg?$AA?3?$AA?5?$AAQ?$AAS?$AAV?$AA?$AA@ ; `string'
PUBLIC	??_C@_1BI@HKMIKHPB@?$AA?$AN?$AA?6?$AA?5?$AA?5?$AA?5?$AA?5?$AAf?$AAp?$AAs?$AA?3?$AA?5?$AA?$AA@ ; `string'
PUBLIC	??_C@_1BM@NGONPCKN@?$AA?$AN?$AA?6?$AA?5?$AA?5?$AA?5?$AA?5?$AAw?$AAi?$AAd?$AAt?$AAh?$AA?3?$AA?5?$AA?$AA@ ; `string'
PUBLIC	??_C@_1BG@CGNKKOP@?$AA?0?$AA?5?$AAh?$AAe?$AAi?$AAg?$AAh?$AAt?$AA?3?$AA?5?$AA?$AA@ ; `string'
PUBLIC	??_C@_1CK@EKEMKBOE@?$AA?$AN?$AA?6?$AA?5?$AA?5?$AA?5?$AA?5?$AAt?$AAa?$AAr?$AAg?$AAe?$AAt?$AA?9?$AAu?$AAs?$AAa?$AAg?$AAe?$AA?3?$AA?5?$AA?$AA@ ; `string'
PUBLIC	??_C@_1CA@CJBHDLKD@?$AA?$AN?$AA?6?$AA?5?$AA?5?$AA?5?$AA?5?$AAp?$AAr?$AAo?$AAf?$AAi?$AAl?$AAe?$AA?3?$AA?5?$AA?$AA@ ; `string'
PUBLIC	??_C@_1BI@KDIADLNE@?$AA?$AN?$AA?6?$AA?5?$AA?5?$AA?5?$AA?5?$AAC?$AAB?$AAR?$AA?3?$AA?5?$AA?$AA@ ; `string'
PUBLIC	??_C@_17IHBDLLG@?$AAy?$AAe?$AAs?$AA?$AA@	; `string'
PUBLIC	??_C@_15BPIGNHCD@?$AAn?$AAo?$AA?$AA@		; `string'
PUBLIC	??_C@_1BI@KKGLJLKO@?$AA?$AN?$AA?6?$AA?5?$AA?5?$AA?5?$AA?5?$AAC?$AAF?$AAR?$AA?3?$AA?5?$AA?$AA@ ; `string'
PUBLIC	??_C@_1CI@MGGEJOEN@?$AA?$AN?$AA?6?$AA?5?$AA?5?$AA?5?$AA?5?$AAm?$AAa?$AAx?$AA?5?$AAb?$AAi?$AAt?$AAr?$AAa?$AAt?$AAe?$AA?3?$AA?5?$AA?$AA@ ; `string'
PUBLIC	??_C@_1CI@EBHCIKPJ@?$AA?$AN?$AA?6?$AA?5?$AA?5?$AA?5?$AA?5?$AAb?$AAu?$AAf?$AAf?$AAe?$AAr?$AA?5?$AAs?$AAi?$AAz?$AAe?$AA?3?$AA?5?$AA?$AA@ ; `string'
PUBLIC	??_C@_1CK@LENIODAI@?$AA?$AN?$AA?6?$AA?5?$AA?5?$AA?5?$AA?5?$AAr?$AAa?$AAt?$AAe?$AA?5?$AAc?$AAo?$AAn?$AAt?$AAr?$AAo?$AAl?$AA?3?$AA?5?$AA?$AA@ ; `string'
PUBLIC	??_C@_1GK@LBKOEOMF@?$AAL?$AAi?$AAs?$AAt?$AA?3?$AA?3?$AAI?$AAn?$AAs?$AAe?$AAr?$AAt?$AAA?$AAr?$AAr?$AAa?$AAy?$AA?3?$AA?5?$AA?5?$AAN?$AAU?$AAL?$AAL?$AA?5?$AAa?$AAr?$AAr?$AAa?$AAy?$AA?5?$AAw@ ; `string'
PUBLIC	??_C@_1FI@OMPFMOGB@?$AAO?$AAu?$AAt?$AA?5?$AAo?$AAf?$AA?5?$AAr?$AAa?$AAn?$AAg?$AAe?$AA?$CB?$AA?5?$AA?5?$AAC?$AAi?$AAr?$AAc?$AAu?$AAl?$AAa?$AAr?$AAL?$AAi?$AAs?$AAt?$AA?3?$AA?3?$AAo?$AAp?$AAe@ ; `string'
PUBLIC	??_C@_1O@IENHAHCD@?$AAS?$AAi?$AAg?$AAn?$AAa?$AAl?$AA?$AA@ ; `string'
PUBLIC	??_C@_19PDHPMPEG@?$AAL?$AAo?$AAc?$AAk?$AA?$AA@	; `string'
EXTRN	__imp_??0ProfilerNode@@QAE@PB_W_N@Z:PROC
EXTRN	__imp_??1ProfilerNode@@QAE@XZ:PROC
EXTRN	__imp__ReleaseMutex@4:PROC
EXTRN	__imp_?GetToken@String@@QBE?AV1@H_W@Z:PROC
EXTRN	__imp_?GetTokenList@String@@QBEXAAVStringList@@_WH@Z:PROC
EXTRN	__imp__WaitForMultipleObjects@16:PROC
EXTRN	__imp__htonl@4:PROC
EXTRN	__imp__CreateEventW@16:PROC
EXTRN	__imp__CreateFileMappingW@24:PROC
EXTRN	__imp_?OBSGetAppDataPath@@YAPB_WXZ:PROC
EXTRN	__imp__htons@4:PROC
EXTRN	__imp__TerminateProcess@8:PROC
EXTRN	__imp__GetExitCodeProcess@8:PROC
EXTRN	__imp__SetEvent@4:PROC
EXTRN	__imp__WaitForSingleObject@8:PROC
EXTRN	__imp_?GetString@ConfigFile@@QAE?AVString@@PB_W00@Z:PROC
EXTRN	__imp__CreateProcessW@40:PROC
EXTRN	__imp__UnmapViewOfFile@4:PROC
EXTRN	__imp__MapViewOfFile@20:PROC
EXTRN	__imp__CreateMutexW@12:PROC
EXTRN	__imp_?OutputByte@Serializer@@QAEAAV1@E@Z:PROC
EXTRN	__imp_?OutputWord@Serializer@@QAEAAV1@G@Z:PROC
EXTRN	__imp_?OutputDword@Serializer@@QAEAAV1@K@Z:PROC
EXTRN	__imp_?Serialize@BufferOutputSerializer@@UAEXPBXK@Z:PROC
EXTRN	__imp_?MakeLower@String@@QAEAAV1@XZ:PROC
;	COMDAT ?warning_logged@?N@??CheckQSVHardwareSupport@@YA_N_NPA_N@Z@4_NA
_BSS	SEGMENT
?warning_logged@?N@??CheckQSVHardwareSupport@@YA_N_NPA_N@Z@4_NA DB 01H DUP (?) ; `CheckQSVHardwareSupport'::`13'::warning_logged
_BSS	ENDS
;	COMDAT ??_C@_19PDHPMPEG@?$AAL?$AAo?$AAc?$AAk?$AA?$AA@
CONST	SEGMENT
??_C@_19PDHPMPEG@?$AAL?$AAo?$AAc?$AAk?$AA?$AA@ DB 'L', 00H, 'o', 00H, 'c', 00H
	DB	'k', 00H, 00H, 00H				; `string'
CONST	ENDS
;	COMDAT ??_C@_1O@IENHAHCD@?$AAS?$AAi?$AAg?$AAn?$AAa?$AAl?$AA?$AA@
CONST	SEGMENT
??_C@_1O@IENHAHCD@?$AAS?$AAi?$AAg?$AAn?$AAa?$AAl?$AA?$AA@ DB 'S', 00H, 'i'
	DB	00H, 'g', 00H, 'n', 00H, 'a', 00H, 'l', 00H, 00H, 00H ; `string'
CONST	ENDS
;	COMDAT ??_C@_1FI@OMPFMOGB@?$AAO?$AAu?$AAt?$AA?5?$AAo?$AAf?$AA?5?$AAr?$AAa?$AAn?$AAg?$AAe?$AA?$CB?$AA?5?$AA?5?$AAC?$AAi?$AAr?$AAc?$AAu?$AAl?$AAa?$AAr?$AAL?$AAi?$AAs?$AAt?$AA?3?$AA?3?$AAo?$AAp?$AAe@
CONST	SEGMENT
??_C@_1FI@OMPFMOGB@?$AAO?$AAu?$AAt?$AA?5?$AAo?$AAf?$AA?5?$AAr?$AAa?$AAn?$AAg?$AAe?$AA?$CB?$AA?5?$AA?5?$AAC?$AAi?$AAr?$AAc?$AAu?$AAl?$AAa?$AAr?$AAL?$AAi?$AAs?$AAt?$AA?3?$AA?3?$AAo?$AAp?$AAe@ DB 'O'
	DB	00H, 'u', 00H, 't', 00H, ' ', 00H, 'o', 00H, 'f', 00H, ' ', 00H
	DB	'r', 00H, 'a', 00H, 'n', 00H, 'g', 00H, 'e', 00H, '!', 00H, ' '
	DB	00H, ' ', 00H, 'C', 00H, 'i', 00H, 'r', 00H, 'c', 00H, 'u', 00H
	DB	'l', 00H, 'a', 00H, 'r', 00H, 'L', 00H, 'i', 00H, 's', 00H, 't'
	DB	00H, ':', 00H, ':', 00H, 'o', 00H, 'p', 00H, 'e', 00H, 'r', 00H
	DB	'a', 00H, 't', 00H, 'o', 00H, 'r', 00H, '[', 00H, ']', 00H, '('
	DB	00H, '%', 00H, 'd', 00H, ')', 00H, 00H, 00H	; `string'
CONST	ENDS
;	COMDAT ??_C@_1GK@LBKOEOMF@?$AAL?$AAi?$AAs?$AAt?$AA?3?$AA?3?$AAI?$AAn?$AAs?$AAe?$AAr?$AAt?$AAA?$AAr?$AAr?$AAa?$AAy?$AA?3?$AA?5?$AA?5?$AAN?$AAU?$AAL?$AAL?$AA?5?$AAa?$AAr?$AAr?$AAa?$AAy?$AA?5?$AAw@
CONST	SEGMENT
??_C@_1GK@LBKOEOMF@?$AAL?$AAi?$AAs?$AAt?$AA?3?$AA?3?$AAI?$AAn?$AAs?$AAe?$AAr?$AAt?$AAA?$AAr?$AAr?$AAa?$AAy?$AA?3?$AA?5?$AA?5?$AAN?$AAU?$AAL?$AAL?$AA?5?$AAa?$AAr?$AAr?$AAa?$AAy?$AA?5?$AAw@ DB 'L'
	DB	00H, 'i', 00H, 's', 00H, 't', 00H, ':', 00H, ':', 00H, 'I', 00H
	DB	'n', 00H, 's', 00H, 'e', 00H, 'r', 00H, 't', 00H, 'A', 00H, 'r'
	DB	00H, 'r', 00H, 'a', 00H, 'y', 00H, ':', 00H, ' ', 00H, ' ', 00H
	DB	'N', 00H, 'U', 00H, 'L', 00H, 'L', 00H, ' ', 00H, 'a', 00H, 'r'
	DB	00H, 'r', 00H, 'a', 00H, 'y', 00H, ' ', 00H, 'w', 00H, 'i', 00H
	DB	't', 00H, 'h', 00H, ' ', 00H, 'c', 00H, 'o', 00H, 'u', 00H, 'n'
	DB	00H, 't', 00H, ' ', 00H, 'a', 00H, 'b', 00H, 'o', 00H, 'v', 00H
	DB	'e', 00H, ' ', 00H, 'z', 00H, 'e', 00H, 'r', 00H, 'o', 00H, 00H
	DB	00H						; `string'
CONST	ENDS
;	COMDAT ??_C@_1CK@LENIODAI@?$AA?$AN?$AA?6?$AA?5?$AA?5?$AA?5?$AA?5?$AAr?$AAa?$AAt?$AAe?$AA?5?$AAc?$AAo?$AAn?$AAt?$AAr?$AAo?$AAl?$AA?3?$AA?5?$AA?$AA@
CONST	SEGMENT
??_C@_1CK@LENIODAI@?$AA?$AN?$AA?6?$AA?5?$AA?5?$AA?5?$AA?5?$AAr?$AAa?$AAt?$AAe?$AA?5?$AAc?$AAo?$AAn?$AAt?$AAr?$AAo?$AAl?$AA?3?$AA?5?$AA?$AA@ DB 0dH
	DB	00H, 0aH, 00H, ' ', 00H, ' ', 00H, ' ', 00H, ' ', 00H, 'r', 00H
	DB	'a', 00H, 't', 00H, 'e', 00H, ' ', 00H, 'c', 00H, 'o', 00H, 'n'
	DB	00H, 't', 00H, 'r', 00H, 'o', 00H, 'l', 00H, ':', 00H, ' ', 00H
	DB	00H, 00H					; `string'
CONST	ENDS
;	COMDAT ??_C@_1CI@EBHCIKPJ@?$AA?$AN?$AA?6?$AA?5?$AA?5?$AA?5?$AA?5?$AAb?$AAu?$AAf?$AAf?$AAe?$AAr?$AA?5?$AAs?$AAi?$AAz?$AAe?$AA?3?$AA?5?$AA?$AA@
CONST	SEGMENT
??_C@_1CI@EBHCIKPJ@?$AA?$AN?$AA?6?$AA?5?$AA?5?$AA?5?$AA?5?$AAb?$AAu?$AAf?$AAf?$AAe?$AAr?$AA?5?$AAs?$AAi?$AAz?$AAe?$AA?3?$AA?5?$AA?$AA@ DB 0dH
	DB	00H, 0aH, 00H, ' ', 00H, ' ', 00H, ' ', 00H, ' ', 00H, 'b', 00H
	DB	'u', 00H, 'f', 00H, 'f', 00H, 'e', 00H, 'r', 00H, ' ', 00H, 's'
	DB	00H, 'i', 00H, 'z', 00H, 'e', 00H, ':', 00H, ' ', 00H, 00H, 00H ; `string'
CONST	ENDS
;	COMDAT ??_C@_1CI@MGGEJOEN@?$AA?$AN?$AA?6?$AA?5?$AA?5?$AA?5?$AA?5?$AAm?$AAa?$AAx?$AA?5?$AAb?$AAi?$AAt?$AAr?$AAa?$AAt?$AAe?$AA?3?$AA?5?$AA?$AA@
CONST	SEGMENT
??_C@_1CI@MGGEJOEN@?$AA?$AN?$AA?6?$AA?5?$AA?5?$AA?5?$AA?5?$AAm?$AAa?$AAx?$AA?5?$AAb?$AAi?$AAt?$AAr?$AAa?$AAt?$AAe?$AA?3?$AA?5?$AA?$AA@ DB 0dH
	DB	00H, 0aH, 00H, ' ', 00H, ' ', 00H, ' ', 00H, ' ', 00H, 'm', 00H
	DB	'a', 00H, 'x', 00H, ' ', 00H, 'b', 00H, 'i', 00H, 't', 00H, 'r'
	DB	00H, 'a', 00H, 't', 00H, 'e', 00H, ':', 00H, ' ', 00H, 00H, 00H ; `string'
CONST	ENDS
;	COMDAT ??_C@_1BI@KKGLJLKO@?$AA?$AN?$AA?6?$AA?5?$AA?5?$AA?5?$AA?5?$AAC?$AAF?$AAR?$AA?3?$AA?5?$AA?$AA@
CONST	SEGMENT
??_C@_1BI@KKGLJLKO@?$AA?$AN?$AA?6?$AA?5?$AA?5?$AA?5?$AA?5?$AAC?$AAF?$AAR?$AA?3?$AA?5?$AA?$AA@ DB 0dH
	DB	00H, 0aH, 00H, ' ', 00H, ' ', 00H, ' ', 00H, ' ', 00H, 'C', 00H
	DB	'F', 00H, 'R', 00H, ':', 00H, ' ', 00H, 00H, 00H ; `string'
CONST	ENDS
;	COMDAT ??_C@_15BPIGNHCD@?$AAn?$AAo?$AA?$AA@
CONST	SEGMENT
??_C@_15BPIGNHCD@?$AAn?$AAo?$AA?$AA@ DB 'n', 00H, 'o', 00H, 00H, 00H ; `string'
CONST	ENDS
;	COMDAT ??_C@_17IHBDLLG@?$AAy?$AAe?$AAs?$AA?$AA@
CONST	SEGMENT
??_C@_17IHBDLLG@?$AAy?$AAe?$AAs?$AA?$AA@ DB 'y', 00H, 'e', 00H, 's', 00H, 00H
	DB	00H						; `string'
CONST	ENDS
;	COMDAT ??_C@_1BI@KDIADLNE@?$AA?$AN?$AA?6?$AA?5?$AA?5?$AA?5?$AA?5?$AAC?$AAB?$AAR?$AA?3?$AA?5?$AA?$AA@
CONST	SEGMENT
??_C@_1BI@KDIADLNE@?$AA?$AN?$AA?6?$AA?5?$AA?5?$AA?5?$AA?5?$AAC?$AAB?$AAR?$AA?3?$AA?5?$AA?$AA@ DB 0dH
	DB	00H, 0aH, 00H, ' ', 00H, ' ', 00H, ' ', 00H, ' ', 00H, 'C', 00H
	DB	'B', 00H, 'R', 00H, ':', 00H, ' ', 00H, 00H, 00H ; `string'
CONST	ENDS
;	COMDAT ??_C@_1CA@CJBHDLKD@?$AA?$AN?$AA?6?$AA?5?$AA?5?$AA?5?$AA?5?$AAp?$AAr?$AAo?$AAf?$AAi?$AAl?$AAe?$AA?3?$AA?5?$AA?$AA@
CONST	SEGMENT
??_C@_1CA@CJBHDLKD@?$AA?$AN?$AA?6?$AA?5?$AA?5?$AA?5?$AA?5?$AAp?$AAr?$AAo?$AAf?$AAi?$AAl?$AAe?$AA?3?$AA?5?$AA?$AA@ DB 0dH
	DB	00H, 0aH, 00H, ' ', 00H, ' ', 00H, ' ', 00H, ' ', 00H, 'p', 00H
	DB	'r', 00H, 'o', 00H, 'f', 00H, 'i', 00H, 'l', 00H, 'e', 00H, ':'
	DB	00H, ' ', 00H, 00H, 00H			; `string'
CONST	ENDS
;	COMDAT ??_C@_1CK@EKEMKBOE@?$AA?$AN?$AA?6?$AA?5?$AA?5?$AA?5?$AA?5?$AAt?$AAa?$AAr?$AAg?$AAe?$AAt?$AA?9?$AAu?$AAs?$AAa?$AAg?$AAe?$AA?3?$AA?5?$AA?$AA@
CONST	SEGMENT
??_C@_1CK@EKEMKBOE@?$AA?$AN?$AA?6?$AA?5?$AA?5?$AA?5?$AA?5?$AAt?$AAa?$AAr?$AAg?$AAe?$AAt?$AA?9?$AAu?$AAs?$AAa?$AAg?$AAe?$AA?3?$AA?5?$AA?$AA@ DB 0dH
	DB	00H, 0aH, 00H, ' ', 00H, ' ', 00H, ' ', 00H, ' ', 00H, 't', 00H
	DB	'a', 00H, 'r', 00H, 'g', 00H, 'e', 00H, 't', 00H, '-', 00H, 'u'
	DB	00H, 's', 00H, 'a', 00H, 'g', 00H, 'e', 00H, ':', 00H, ' ', 00H
	DB	00H, 00H					; `string'
CONST	ENDS
;	COMDAT ??_C@_1BG@CGNKKOP@?$AA?0?$AA?5?$AAh?$AAe?$AAi?$AAg?$AAh?$AAt?$AA?3?$AA?5?$AA?$AA@
CONST	SEGMENT
??_C@_1BG@CGNKKOP@?$AA?0?$AA?5?$AAh?$AAe?$AAi?$AAg?$AAh?$AAt?$AA?3?$AA?5?$AA?$AA@ DB ','
	DB	00H, ' ', 00H, 'h', 00H, 'e', 00H, 'i', 00H, 'g', 00H, 'h', 00H
	DB	't', 00H, ':', 00H, ' ', 00H, 00H, 00H	; `string'
CONST	ENDS
;	COMDAT ??_C@_1BM@NGONPCKN@?$AA?$AN?$AA?6?$AA?5?$AA?5?$AA?5?$AA?5?$AAw?$AAi?$AAd?$AAt?$AAh?$AA?3?$AA?5?$AA?$AA@
CONST	SEGMENT
??_C@_1BM@NGONPCKN@?$AA?$AN?$AA?6?$AA?5?$AA?5?$AA?5?$AA?5?$AAw?$AAi?$AAd?$AAt?$AAh?$AA?3?$AA?5?$AA?$AA@ DB 0dH
	DB	00H, 0aH, 00H, ' ', 00H, ' ', 00H, ' ', 00H, ' ', 00H, 'w', 00H
	DB	'i', 00H, 'd', 00H, 't', 00H, 'h', 00H, ':', 00H, ' ', 00H, 00H
	DB	00H						; `string'
CONST	ENDS
;	COMDAT ??_C@_1BI@HKMIKHPB@?$AA?$AN?$AA?6?$AA?5?$AA?5?$AA?5?$AA?5?$AAf?$AAp?$AAs?$AA?3?$AA?5?$AA?$AA@
CONST	SEGMENT
??_C@_1BI@HKMIKHPB@?$AA?$AN?$AA?6?$AA?5?$AA?5?$AA?5?$AA?5?$AAf?$AAp?$AAs?$AA?3?$AA?5?$AA?$AA@ DB 0dH
	DB	00H, 0aH, 00H, ' ', 00H, ' ', 00H, ' ', 00H, ' ', 00H, 'f', 00H
	DB	'p', 00H, 's', 00H, ':', 00H, ' ', 00H, 00H, 00H ; `string'
CONST	ENDS
;	COMDAT ??_C@_1CI@PIFIBIKK@?$AAV?$AAi?$AAd?$AAe?$AAo?$AA?5?$AAE?$AAn?$AAc?$AAo?$AAd?$AAi?$AAn?$AAg?$AA?3?$AA?5?$AAQ?$AAS?$AAV?$AA?$AA@
CONST	SEGMENT
??_C@_1CI@PIFIBIKK@?$AAV?$AAi?$AAd?$AAe?$AAo?$AA?5?$AAE?$AAn?$AAc?$AAo?$AAd?$AAi?$AAn?$AAg?$AA?3?$AA?5?$AAQ?$AAS?$AAV?$AA?$AA@ DB 'V'
	DB	00H, 'i', 00H, 'd', 00H, 'e', 00H, 'o', 00H, ' ', 00H, 'E', 00H
	DB	'n', 00H, 'c', 00H, 'o', 00H, 'd', 00H, 'i', 00H, 'n', 00H, 'g'
	DB	00H, ':', 00H, ' ', 00H, 'Q', 00H, 'S', 00H, 'V', 00H, 00H, 00H ; `string'
CONST	ENDS
;	COMDAT ??_C@_07NFANNNEC@UNKNOWN?$AA@
CONST	SEGMENT
??_C@_07NFANNNEC@UNKNOWN?$AA@ DB 'UNKNOWN', 00H		; `string'
CONST	ENDS
;	COMDAT ??_C@_1BC@KHEJELCB@?$AAp?$AAp?$AAs?$AA_?$AAb?$AAu?$AAf?$AAf?$AA?$AA@
CONST	SEGMENT
??_C@_1BC@KHEJELCB@?$AAp?$AAp?$AAs?$AA_?$AAb?$AAu?$AAf?$AAf?$AA?$AA@ DB 'p'
	DB	00H, 'p', 00H, 's', 00H, '_', 00H, 'b', 00H, 'u', 00H, 'f', 00H
	DB	'f', 00H, 00H, 00H				; `string'
CONST	ENDS
;	COMDAT ??_C@_1BC@ENMPJGED@?$AAs?$AAp?$AAs?$AA_?$AAb?$AAu?$AAf?$AAf?$AA?$AA@
CONST	SEGMENT
??_C@_1BC@ENMPJGED@?$AAs?$AAp?$AAs?$AA_?$AAb?$AAu?$AAf?$AAf?$AA?$AA@ DB 's'
	DB	00H, 'p', 00H, 's', 00H, '_', 00H, 'b', 00H, 'u', 00H, 'f', 00H
	DB	'f', 00H, 00H, 00H				; `string'
CONST	ENDS
;	COMDAT ??_C@_1BI@JCHINCJN@?$AAs?$AAp?$AAs?$AAp?$AAp?$AAs?$AA_?$AAs?$AAi?$AAz?$AAe?$AA?$AA@
CONST	SEGMENT
??_C@_1BI@JCHINCJN@?$AAs?$AAp?$AAs?$AAp?$AAp?$AAs?$AA_?$AAs?$AAi?$AAz?$AAe?$AA?$AA@ DB 's'
	DB	00H, 'p', 00H, 's', 00H, 'p', 00H, 'p', 00H, 's', 00H, '_', 00H
	DB	's', 00H, 'i', 00H, 'z', 00H, 'e', 00H, 00H, 00H ; `string'
CONST	ENDS
;	COMDAT ??_C@_1CI@CHNAFGEH@?$AAP?$AAr?$AAo?$AAc?$AAe?$AAs?$AAs?$AAE?$AAn?$AAc?$AAo?$AAd?$AAe?$AAd?$AAF?$AAr?$AAa?$AAm?$AAe?$AA?$AA@
CONST	SEGMENT
??_C@_1CI@CHNAFGEH@?$AAP?$AAr?$AAo?$AAc?$AAe?$AAs?$AAs?$AAE?$AAn?$AAc?$AAo?$AAd?$AAe?$AAd?$AAF?$AAr?$AAa?$AAm?$AAe?$AA?$AA@ DB 'P'
	DB	00H, 'r', 00H, 'o', 00H, 'c', 00H, 'e', 00H, 's', 00H, 's', 00H
	DB	'E', 00H, 'n', 00H, 'c', 00H, 'o', 00H, 'd', 00H, 'e', 00H, 'd'
	DB	00H, 'F', 00H, 'r', 00H, 'a', 00H, 'm', 00H, 'e', 00H, 00H, 00H ; `string'
CONST	ENDS
;	COMDAT ??_C@_1EM@POGNGIIP@?$AAQ?$AAS?$AAV?$AAH?$AAe?$AAl?$AAp?$AAe?$AAr?$AA?4?$AAe?$AAx?$AAe?$AA?5?$AAh?$AAa?$AAs?$AA?5?$AAe?$AAx?$AAi?$AAt?$AAe?$AAd?$AA?5?$AAw?$AAi?$AAt?$AAh?$AA?5?$AAc?$AAo@
CONST	SEGMENT
??_C@_1EM@POGNGIIP@?$AAQ?$AAS?$AAV?$AAH?$AAe?$AAl?$AAp?$AAe?$AAr?$AA?4?$AAe?$AAx?$AAe?$AA?5?$AAh?$AAa?$AAs?$AA?5?$AAe?$AAx?$AAi?$AAt?$AAe?$AAd?$AA?5?$AAw?$AAi?$AAt?$AAh?$AA?5?$AAc?$AAo@ DB 'Q'
	DB	00H, 'S', 00H, 'V', 00H, 'H', 00H, 'e', 00H, 'l', 00H, 'p', 00H
	DB	'e', 00H, 'r', 00H, '.', 00H, 'e', 00H, 'x', 00H, 'e', 00H, ' '
	DB	00H, 'h', 00H, 'a', 00H, 's', 00H, ' ', 00H, 'e', 00H, 'x', 00H
	DB	'i', 00H, 't', 00H, 'e', 00H, 'd', 00H, ' ', 00H, 'w', 00H, 'i'
	DB	00H, 't', 00H, 'h', 00H, ' ', 00H, 'c', 00H, 'o', 00H, 'd', 00H
	DB	'e', 00H, ' ', 00H, '%', 00H, 'i', 00H, 00H, 00H ; `string'
CONST	ENDS
;	COMDAT ??_C@_1JK@CGJBOKOI@?$AAQ?$AAS?$AAV?$AAH?$AAe?$AAl?$AAp?$AAe?$AAr?$AA?4?$AAe?$AAx?$AAe?$AA?5?$AAh?$AAa?$AAs?$AA?5?$AAe?$AAx?$AAi?$AAt?$AAe?$AAd?$AA?5?$AAb?$AAe?$AAc?$AAa?$AAu?$AAs?$AAe@
CONST	SEGMENT
??_C@_1JK@CGJBOKOI@?$AAQ?$AAS?$AAV?$AAH?$AAe?$AAl?$AAp?$AAe?$AAr?$AA?4?$AAe?$AAx?$AAe?$AA?5?$AAh?$AAa?$AAs?$AA?5?$AAe?$AAx?$AAi?$AAt?$AAe?$AAd?$AA?5?$AAb?$AAe?$AAc?$AAa?$AAu?$AAs?$AAe@ DB 'Q'
	DB	00H, 'S', 00H, 'V', 00H, 'H', 00H, 'e', 00H, 'l', 00H, 'p', 00H
	DB	'e', 00H, 'r', 00H, '.', 00H, 'e', 00H, 'x', 00H, 'e', 00H, ' '
	DB	00H, 'h', 00H, 'a', 00H, 's', 00H, ' ', 00H, 'e', 00H, 'x', 00H
	DB	'i', 00H, 't', 00H, 'e', 00H, 'd', 00H, ' ', 00H, 'b', 00H, 'e'
	DB	00H, 'c', 00H, 'a', 00H, 'u', 00H, 's', 00H, 'e', 00H, ' ', 00H
	DB	'o', 00H, 'f', 00H, ' ', 00H, 'a', 00H, 'n', 00H, ' ', 00H, 'i'
	DB	00H, 'n', 00H, 'c', 00H, 'o', 00H, 'm', 00H, 'p', 00H, 'a', 00H
	DB	't', 00H, 'i', 00H, 'b', 00H, 'l', 00H, 'e', 00H, ' ', 00H, 'q'
	DB	00H, 's', 00H, 'v', 00H, 'i', 00H, 'm', 00H, 'p', 00H, 'l', 00H
	DB	' ', 00H, 'c', 00H, 'u', 00H, 's', 00H, 't', 00H, 'o', 00H, 'm'
	DB	00H, ' ', 00H, 'p', 00H, 'a', 00H, 'r', 00H, 'a', 00H, 'm', 00H
	DB	'e', 00H, 't', 00H, 'e', 00H, 'r', 00H, 00H, 00H ; `string'
CONST	ENDS
;	COMDAT ??_C@_1FA@BILEIEBO@?$AAQ?$AAS?$AAV?$AAH?$AAe?$AAl?$AAp?$AAe?$AAr?$AA?4?$AAe?$AAx?$AAe?$AA?5?$AAw?$AAa?$AAs?$AA?5?$AAk?$AAi?$AAl?$AAl?$AAe?$AAd?$AA?0?$AA?5?$AAe?$AAn?$AAc?$AAo?$AAd?$AAe@
CONST	SEGMENT
??_C@_1FA@BILEIEBO@?$AAQ?$AAS?$AAV?$AAH?$AAe?$AAl?$AAp?$AAe?$AAr?$AA?4?$AAe?$AAx?$AAe?$AA?5?$AAw?$AAa?$AAs?$AA?5?$AAk?$AAi?$AAl?$AAl?$AAe?$AAd?$AA?0?$AA?5?$AAe?$AAn?$AAc?$AAo?$AAd?$AAe@ DB 'Q'
	DB	00H, 'S', 00H, 'V', 00H, 'H', 00H, 'e', 00H, 'l', 00H, 'p', 00H
	DB	'e', 00H, 'r', 00H, '.', 00H, 'e', 00H, 'x', 00H, 'e', 00H, ' '
	DB	00H, 'w', 00H, 'a', 00H, 's', 00H, ' ', 00H, 'k', 00H, 'i', 00H
	DB	'l', 00H, 'l', 00H, 'e', 00H, 'd', 00H, ',', 00H, ' ', 00H, 'e'
	DB	00H, 'n', 00H, 'c', 00H, 'o', 00H, 'd', 00H, 'e', 00H, ' ', 00H
	DB	'f', 00H, 'a', 00H, 'i', 00H, 'l', 00H, 'e', 00H, 'd', 00H, 00H
	DB	00H						; `string'
CONST	ENDS
;	COMDAT ??_C@_1CM@LDBFCFIL@?$AAQ?$AAS?$AAV?$AAH?$AAe?$AAl?$AAp?$AAe?$AAr?$AA?4?$AAe?$AAx?$AAe?$AA?5?$AAe?$AAx?$AAi?$AAt?$AAe?$AAd?$AA?$CB?$AA?$AA@
CONST	SEGMENT
??_C@_1CM@LDBFCFIL@?$AAQ?$AAS?$AAV?$AAH?$AAe?$AAl?$AAp?$AAe?$AAr?$AA?4?$AAe?$AAx?$AAe?$AA?5?$AAe?$AAx?$AAi?$AAt?$AAe?$AAd?$AA?$CB?$AA?$AA@ DB 'Q'
	DB	00H, 'S', 00H, 'V', 00H, 'H', 00H, 'e', 00H, 'l', 00H, 'p', 00H
	DB	'e', 00H, 'r', 00H, '.', 00H, 'e', 00H, 'x', 00H, 'e', 00H, ' '
	DB	00H, 'e', 00H, 'x', 00H, 'i', 00H, 't', 00H, 'e', 00H, 'd', 00H
	DB	'!', 00H, 00H, 00H				; `string'
CONST	ENDS
;	COMDAT ??_C@_1DA@KMEGBFDO@?$AAQ?$AAS?$AAV?$AA?5?$AAe?$AAn?$AAc?$AAo?$AAd?$AAe?$AAr?$AA?5?$AAi?$AAs?$AA?5?$AAt?$AAo?$AAo?$AA?5?$AAs?$AAl?$AAo?$AAw?$AA?$AA@
CONST	SEGMENT
??_C@_1DA@KMEGBFDO@?$AAQ?$AAS?$AAV?$AA?5?$AAe?$AAn?$AAc?$AAo?$AAd?$AAe?$AAr?$AA?5?$AAi?$AAs?$AA?5?$AAt?$AAo?$AAo?$AA?5?$AAs?$AAl?$AAo?$AAw?$AA?$AA@ DB 'Q'
	DB	00H, 'S', 00H, 'V', 00H, ' ', 00H, 'e', 00H, 'n', 00H, 'c', 00H
	DB	'o', 00H, 'd', 00H, 'e', 00H, 'r', 00H, ' ', 00H, 'i', 00H, 's'
	DB	00H, ' ', 00H, 't', 00H, 'o', 00H, 'o', 00H, ' ', 00H, 's', 00H
	DB	'l', 00H, 'o', 00H, 'w', 00H, 00H, 00H	; `string'
CONST	ENDS
;	COMDAT ??_C@_1CA@JOCIALON@?$AAQ?$AAu?$AAe?$AAu?$AAe?$AAE?$AAn?$AAc?$AAo?$AAd?$AAe?$AAT?$AAa?$AAs?$AAk?$AA?$AA@
CONST	SEGMENT
??_C@_1CA@JOCIALON@?$AAQ?$AAu?$AAe?$AAu?$AAe?$AAE?$AAn?$AAc?$AAo?$AAd?$AAe?$AAT?$AAa?$AAs?$AAk?$AA?$AA@ DB 'Q'
	DB	00H, 'u', 00H, 'e', 00H, 'u', 00H, 'e', 00H, 'E', 00H, 'n', 00H
	DB	'c', 00H, 'o', 00H, 'd', 00H, 'e', 00H, 'T', 00H, 'a', 00H, 's'
	DB	00H, 'k', 00H, 00H, 00H			; `string'
CONST	ENDS
;	COMDAT ??_C@_1DK@NCJGJBIK@?$AAE?$AAr?$AAr?$AAo?$AAr?$AA?3?$AA?5?$AAa?$AAl?$AAl?$AA?5?$AAf?$AAr?$AAa?$AAm?$AAe?$AAs?$AA?5?$AAa?$AAr?$AAe?$AA?5?$AAi?$AAn?$AA?5?$AAu?$AAs?$AAe?$AA?$AA@
CONST	SEGMENT
??_C@_1DK@NCJGJBIK@?$AAE?$AAr?$AAr?$AAo?$AAr?$AA?3?$AA?5?$AAa?$AAl?$AAl?$AA?5?$AAf?$AAr?$AAa?$AAm?$AAe?$AAs?$AA?5?$AAa?$AAr?$AAe?$AA?5?$AAi?$AAn?$AA?5?$AAu?$AAs?$AAe?$AA?$AA@ DB 'E'
	DB	00H, 'r', 00H, 'r', 00H, 'o', 00H, 'r', 00H, ':', 00H, ' ', 00H
	DB	'a', 00H, 'l', 00H, 'l', 00H, ' ', 00H, 'f', 00H, 'r', 00H, 'a'
	DB	00H, 'm', 00H, 'e', 00H, 's', 00H, ' ', 00H, 'a', 00H, 'r', 00H
	DB	'e', 00H, ' ', 00H, 'i', 00H, 'n', 00H, ' ', 00H, 'u', 00H, 's'
	DB	00H, 'e', 00H, 00H, 00H			; `string'
CONST	ENDS
;	COMDAT ??_C@_1CO@CDPCGBKB@?$AAU?$AAn?$AAh?$AAa?$AAn?$AAd?$AAl?$AAe?$AAd?$AA?5?$AAf?$AAr?$AAa?$AAm?$AAe?$AAt?$AAy?$AAp?$AAe?$AA?5?$AA?$CF?$AAu?$AA?$AA@
CONST	SEGMENT
??_C@_1CO@CDPCGBKB@?$AAU?$AAn?$AAh?$AAa?$AAn?$AAd?$AAl?$AAe?$AAd?$AA?5?$AAf?$AAr?$AAa?$AAm?$AAe?$AAt?$AAy?$AAp?$AAe?$AA?5?$AA?$CF?$AAu?$AA?$AA@ DB 'U'
	DB	00H, 'n', 00H, 'h', 00H, 'a', 00H, 'n', 00H, 'd', 00H, 'l', 00H
	DB	'e', 00H, 'd', 00H, ' ', 00H, 'f', 00H, 'r', 00H, 'a', 00H, 'm'
	DB	00H, 'e', 00H, 't', 00H, 'y', 00H, 'p', 00H, 'e', 00H, ' ', 00H
	DB	'%', 00H, 'u', 00H, 00H, 00H			; `string'
CONST	ENDS
;	COMDAT ??_C@_1FA@PLGDJKOD@?$AAT?$AAe?$AAr?$AAm?$AAi?$AAn?$AAa?$AAt?$AAi?$AAn?$AAg?$AA?5?$AAQ?$AAS?$AAV?$AAH?$AAe?$AAl?$AAp?$AAe?$AAr?$AA?4?$AAe?$AAx?$AAe?$AA?5?$AAa?$AAf?$AAt?$AAe?$AAr?$AA?5@
CONST	SEGMENT
??_C@_1FA@PLGDJKOD@?$AAT?$AAe?$AAr?$AAm?$AAi?$AAn?$AAa?$AAt?$AAi?$AAn?$AAg?$AA?5?$AAQ?$AAS?$AAV?$AAH?$AAe?$AAl?$AAp?$AAe?$AAr?$AA?4?$AAe?$AAx?$AAe?$AA?5?$AAa?$AAf?$AAt?$AAe?$AAr?$AA?5@ DB 'T'
	DB	00H, 'e', 00H, 'r', 00H, 'm', 00H, 'i', 00H, 'n', 00H, 'a', 00H
	DB	't', 00H, 'i', 00H, 'n', 00H, 'g', 00H, ' ', 00H, 'Q', 00H, 'S'
	DB	00H, 'V', 00H, 'H', 00H, 'e', 00H, 'l', 00H, 'p', 00H, 'e', 00H
	DB	'r', 00H, '.', 00H, 'e', 00H, 'x', 00H, 'e', 00H, ' ', 00H, 'a'
	DB	00H, 'f', 00H, 't', 00H, 'e', 00H, 'r', 00H, ' ', 00H, 't', 00H
	DB	'i', 00H, 'm', 00H, 'e', 00H, 'o', 00H, 'u', 00H, 't', 00H, 00H
	DB	00H						; `string'
CONST	ENDS
;	COMDAT ??_C@_1CA@KDLBGFEM@?$AAe?$AAn?$AAc?$AAo?$AAd?$AAe?$AAr?$AA_?$AAf?$AAl?$AAu?$AAs?$AAh?$AAe?$AAd?$AA?$AA@
CONST	SEGMENT
??_C@_1CA@KDLBGFEM@?$AAe?$AAn?$AAc?$AAo?$AAd?$AAe?$AAr?$AA_?$AAf?$AAl?$AAu?$AAs?$AAh?$AAe?$AAd?$AA?$AA@ DB 'e'
	DB	00H, 'n', 00H, 'c', 00H, 'o', 00H, 'd', 00H, 'e', 00H, 'r', 00H
	DB	'_', 00H, 'f', 00H, 'l', 00H, 'u', 00H, 's', 00H, 'h', 00H, 'e'
	DB	00H, 'd', 00H, 00H, 00H			; `string'
CONST	ENDS
;	COMDAT ??_C@_19LLIMCLGL@?$AAs?$AAt?$AAo?$AAp?$AA?$AA@
CONST	SEGMENT
??_C@_19LLIMCLGL@?$AAs?$AAt?$AAo?$AAp?$AA?$AA@ DB 's', 00H, 't', 00H, 'o', 00H
	DB	'p', 00H, 00H, 00H				; `string'
CONST	ENDS
;	COMDAT ??_C@_1CC@CNJHBCEC@?$AAf?$AAi?$AAl?$AAl?$AAe?$AAd?$AA_?$AAb?$AAi?$AAt?$AAs?$AAt?$AAr?$AAe?$AAa?$AAm?$AA?$AA@
CONST	SEGMENT
??_C@_1CC@CNJHBCEC@?$AAf?$AAi?$AAl?$AAl?$AAe?$AAd?$AA_?$AAb?$AAi?$AAt?$AAs?$AAt?$AAr?$AAe?$AAa?$AAm?$AA?$AA@ DB 'f'
	DB	00H, 'i', 00H, 'l', 00H, 'l', 00H, 'e', 00H, 'd', 00H, '_', 00H
	DB	'b', 00H, 'i', 00H, 't', 00H, 's', 00H, 't', 00H, 'r', 00H, 'e'
	DB	00H, 'a', 00H, 'm', 00H, 00H, 00H		; `string'
CONST	ENDS
;	COMDAT ??_C@_1BO@BLGPOMJC@?$AAb?$AAi?$AAt?$AAs?$AAt?$AAr?$AAe?$AAa?$AAm?$AA_?$AAi?$AAn?$AAf?$AAo?$AA?$AA@
CONST	SEGMENT
??_C@_1BO@BLGPOMJC@?$AAb?$AAi?$AAt?$AAs?$AAt?$AAr?$AAe?$AAa?$AAm?$AA_?$AAi?$AAn?$AAf?$AAo?$AA?$AA@ DB 'b'
	DB	00H, 'i', 00H, 't', 00H, 's', 00H, 't', 00H, 'r', 00H, 'e', 00H
	DB	'a', 00H, 'm', 00H, '_', 00H, 'i', 00H, 'n', 00H, 'f', 00H, 'o'
	DB	00H, 00H, 00H				; `string'
CONST	ENDS
;	COMDAT ??_C@_1CE@OKHPDFBP@?$AAf?$AAr?$AAa?$AAm?$AAe?$AA_?$AAb?$AAu?$AAf?$AAf?$AA_?$AAs?$AAt?$AAa?$AAt?$AAu?$AAs?$AA?$AA@
CONST	SEGMENT
??_C@_1CE@OKHPDFBP@?$AAf?$AAr?$AAa?$AAm?$AAe?$AA_?$AAb?$AAu?$AAf?$AAf?$AA_?$AAs?$AAt?$AAa?$AAt?$AAu?$AAs?$AA?$AA@ DB 'f'
	DB	00H, 'r', 00H, 'a', 00H, 'm', 00H, 'e', 00H, '_', 00H, 'b', 00H
	DB	'u', 00H, 'f', 00H, 'f', 00H, '_', 00H, 's', 00H, 't', 00H, 'a'
	DB	00H, 't', 00H, 'u', 00H, 's', 00H, 00H, 00H	; `string'
CONST	ENDS
;	COMDAT ??_C@_1BI@PNGIAEEE@?$AAf?$AAr?$AAa?$AAm?$AAe?$AA_?$AAq?$AAu?$AAe?$AAu?$AAe?$AA?$AA@
CONST	SEGMENT
??_C@_1BI@PNGIAEEE@?$AAf?$AAr?$AAa?$AAm?$AAe?$AA_?$AAq?$AAu?$AAe?$AAu?$AAe?$AA?$AA@ DB 'f'
	DB	00H, 'r', 00H, 'a', 00H, 'm', 00H, 'e', 00H, '_', 00H, 'q', 00H
	DB	'u', 00H, 'e', 00H, 'u', 00H, 'e', 00H, 00H, 00H ; `string'
CONST	ENDS
;	COMDAT ??_C@_1FC@PLEAILN@?$AAU?$AAs?$AAi?$AAn?$AAg?$AA?5?$AA?$CF?$AAu?$AA?5?$AAb?$AAi?$AAt?$AAs?$AAt?$AAr?$AAe?$AAa?$AAm?$AAs?$AA?5?$AAa?$AAn?$AAd?$AA?5?$AA?$CF?$AAu?$AA?5?$AAf?$AAr?$AAa?$AAm?$AAe@
CONST	SEGMENT
??_C@_1FC@PLEAILN@?$AAU?$AAs?$AAi?$AAn?$AAg?$AA?5?$AA?$CF?$AAu?$AA?5?$AAb?$AAi?$AAt?$AAs?$AAt?$AAr?$AAe?$AAa?$AAm?$AAs?$AA?5?$AAa?$AAn?$AAd?$AA?5?$AA?$CF?$AAu?$AA?5?$AAf?$AAr?$AAa?$AAm?$AAe@ DB 'U'
	DB	00H, 's', 00H, 'i', 00H, 'n', 00H, 'g', 00H, ' ', 00H, '%', 00H
	DB	'u', 00H, ' ', 00H, 'b', 00H, 'i', 00H, 't', 00H, 's', 00H, 't'
	DB	00H, 'r', 00H, 'e', 00H, 'a', 00H, 'm', 00H, 's', 00H, ' ', 00H
	DB	'a', 00H, 'n', 00H, 'd', 00H, ' ', 00H, '%', 00H, 'u', 00H, ' '
	DB	00H, 'f', 00H, 'r', 00H, 'a', 00H, 'm', 00H, 'e', 00H, ' ', 00H
	DB	'b', 00H, 'u', 00H, 'f', 00H, 'f', 00H, 'e', 00H, 'r', 00H, 's'
	DB	00H, 00H, 00H				; `string'
CONST	ENDS
;	COMDAT ??_C@_1BG@ONLLBCFI@?$AAf?$AAr?$AAa?$AAm?$AAe?$AA_?$AAb?$AAu?$AAf?$AAf?$AA?$AA@
CONST	SEGMENT
??_C@_1BG@ONLLBCFI@?$AAf?$AAr?$AAa?$AAm?$AAe?$AA_?$AAb?$AAu?$AAf?$AAf?$AA?$AA@ DB 'f'
	DB	00H, 'r', 00H, 'a', 00H, 'm', 00H, 'e', 00H, '_', 00H, 'b', 00H
	DB	'u', 00H, 'f', 00H, 'f', 00H, 00H, 00H	; `string'
CONST	ENDS
;	COMDAT ??_C@_1BO@LPFGHFJC@?$AAb?$AAi?$AAt?$AAs?$AAt?$AAr?$AAe?$AAa?$AAm?$AA_?$AAb?$AAu?$AAf?$AAf?$AA?$AA@
CONST	SEGMENT
??_C@_1BO@LPFGHFJC@?$AAb?$AAi?$AAt?$AAs?$AAt?$AAr?$AAe?$AAa?$AAm?$AA_?$AAb?$AAu?$AAf?$AAf?$AA?$AA@ DB 'b'
	DB	00H, 'i', 00H, 't', 00H, 's', 00H, 't', 00H, 'r', 00H, 'e', 00H
	DB	'a', 00H, 'm', 00H, '_', 00H, 'b', 00H, 'u', 00H, 'f', 00H, 'f'
	DB	00H, 00H, 00H				; `string'
CONST	ENDS
;	COMDAT ??_C@_1FI@HNDPAIDH@?$AAQ?$AAS?$AAV?$AA?5?$AAv?$AAe?$AAr?$AAs?$AAi?$AAo?$AAn?$AA?5?$AA?$CF?$AAu?$AA?4?$AA?$CF?$AAu?$AA?5?$AAu?$AAs?$AAi?$AAn?$AAg?$AA?5?$AA?$CF?$AAs?$AA?$CF?$AAs?$AA?5?$AA?$CI?$AAa?$AAc@
CONST	SEGMENT
??_C@_1FI@HNDPAIDH@?$AAQ?$AAS?$AAV?$AA?5?$AAv?$AAe?$AAr?$AAs?$AAi?$AAo?$AAn?$AA?5?$AA?$CF?$AAu?$AA?4?$AA?$CF?$AAu?$AA?5?$AAu?$AAs?$AAi?$AAn?$AAg?$AA?5?$AA?$CF?$AAs?$AA?$CF?$AAs?$AA?5?$AA?$CI?$AAa?$AAc@ DB 'Q'
	DB	00H, 'S', 00H, 'V', 00H, ' ', 00H, 'v', 00H, 'e', 00H, 'r', 00H
	DB	's', 00H, 'i', 00H, 'o', 00H, 'n', 00H, ' ', 00H, '%', 00H, 'u'
	DB	00H, '.', 00H, '%', 00H, 'u', 00H, ' ', 00H, 'u', 00H, 's', 00H
	DB	'i', 00H, 'n', 00H, 'g', 00H, ' ', 00H, '%', 00H, 's', 00H, '%'
	DB	00H, 's', 00H, ' ', 00H, '(', 00H, 'a', 00H, 'c', 00H, 't', 00H
	DB	'u', 00H, 'a', 00H, 'l', 00H, ':', 00H, ' ', 00H, '%', 00H, 's'
	DB	00H, '%', 00H, 's', 00H, ')', 00H, 00H, 00H	; `string'
CONST	ENDS
;	COMDAT ??_C@_1GO@OPENBPNL@?$AAC?$AAo?$AAu?$AAl?$AAd?$AA?5?$AAn?$AAo?$AAt?$AA?5?$AAi?$AAn?$AAi?$AAt?$AAi?$AAa?$AAl?$AAi?$AAz?$AAe?$AA?5?$AAQ?$AAS?$AAV?$AA?5?$AAs?$AAe?$AAs?$AAs?$AAi?$AAo?$AAn@
CONST	SEGMENT
??_C@_1GO@OPENBPNL@?$AAC?$AAo?$AAu?$AAl?$AAd?$AA?5?$AAn?$AAo?$AAt?$AA?5?$AAi?$AAn?$AAi?$AAt?$AAi?$AAa?$AAl?$AAi?$AAz?$AAe?$AA?5?$AAQ?$AAS?$AAV?$AA?5?$AAs?$AAe?$AAs?$AAs?$AAi?$AAo?$AAn@ DB 'C'
	DB	00H, 'o', 00H, 'u', 00H, 'l', 00H, 'd', 00H, ' ', 00H, 'n', 00H
	DB	'o', 00H, 't', 00H, ' ', 00H, 'i', 00H, 'n', 00H, 'i', 00H, 't'
	DB	00H, 'i', 00H, 'a', 00H, 'l', 00H, 'i', 00H, 'z', 00H, 'e', 00H
	DB	' ', 00H, 'Q', 00H, 'S', 00H, 'V', 00H, ' ', 00H, 's', 00H, 'e'
	DB	00H, 's', 00H, 's', 00H, 'i', 00H, 'o', 00H, 'n', 00H, ' ', 00H
	DB	'u', 00H, 's', 00H, 'i', 00H, 'n', 00H, 'g', 00H, ' ', 00H, 'c'
	DB	00H, 'u', 00H, 's', 00H, 't', 00H, 'o', 00H, 'm', 00H, ' ', 00H
	DB	's', 00H, 'e', 00H, 't', 00H, 't', 00H, 'i', 00H, 'n', 00H, 'g'
	DB	00H, 's', 00H, 00H, 00H			; `string'
CONST	ENDS
;	COMDAT ??_C@_1HA@GIELBKIB@?$AAQ?$AAS?$AAV?$AAH?$AAe?$AAl?$AAp?$AAe?$AAr?$AA?4?$AAe?$AAx?$AAe?$AA?5?$AAh?$AAa?$AAs?$AA?5?$AAe?$AAx?$AAi?$AAt?$AAe?$AAd?$AA?5?$AAw?$AAi?$AAt?$AAh?$AA?5?$AAc?$AAo@
CONST	SEGMENT
??_C@_1HA@GIELBKIB@?$AAQ?$AAS?$AAV?$AAH?$AAe?$AAl?$AAp?$AAe?$AAr?$AA?4?$AAe?$AAx?$AAe?$AA?5?$AAh?$AAa?$AAs?$AA?5?$AAe?$AAx?$AAi?$AAt?$AAe?$AAd?$AA?5?$AAw?$AAi?$AAt?$AAh?$AA?5?$AAc?$AAo@ DB 'Q'
	DB	00H, 'S', 00H, 'V', 00H, 'H', 00H, 'e', 00H, 'l', 00H, 'p', 00H
	DB	'e', 00H, 'r', 00H, '.', 00H, 'e', 00H, 'x', 00H, 'e', 00H, ' '
	DB	00H, 'h', 00H, 'a', 00H, 's', 00H, ' ', 00H, 'e', 00H, 'x', 00H
	DB	'i', 00H, 't', 00H, 'e', 00H, 'd', 00H, ' ', 00H, 'w', 00H, 'i'
	DB	00H, 't', 00H, 'h', 00H, ' ', 00H, 'c', 00H, 'o', 00H, 'd', 00H
	DB	'e', 00H, ' ', 00H, '%', 00H, 'i', 00H, ' ', 00H, '(', 00H, 'b'
	DB	00H, 'e', 00H, 'f', 00H, 'o', 00H, 'r', 00H, 'e', 00H, ' ', 00H
	DB	'r', 00H, 'e', 00H, 's', 00H, 'p', 00H, 'o', 00H, 'n', 00H, 's'
	DB	00H, 'e', 00H, ')', 00H, 00H, 00H		; `string'
CONST	ENDS
;	COMDAT ??_C@_1JC@NLDIMFFD@?$AAE?$AAn?$AAc?$AAo?$AAd?$AAe?$AAr?$AA?5?$AAi?$AAn?$AAi?$AAt?$AAi?$AAa?$AAl?$AAi?$AAz?$AAa?$AAt?$AAi?$AAo?$AAn?$AA?5?$AAf?$AAa?$AAi?$AAl?$AAe?$AAd?$AA?5?$AAw?$AAi@
CONST	SEGMENT
??_C@_1JC@NLDIMFFD@?$AAE?$AAn?$AAc?$AAo?$AAd?$AAe?$AAr?$AA?5?$AAi?$AAn?$AAi?$AAt?$AAi?$AAa?$AAl?$AAi?$AAz?$AAa?$AAt?$AAi?$AAo?$AAn?$AA?5?$AAf?$AAa?$AAi?$AAl?$AAe?$AAd?$AA?5?$AAw?$AAi@ DB 'E'
	DB	00H, 'n', 00H, 'c', 00H, 'o', 00H, 'd', 00H, 'e', 00H, 'r', 00H
	DB	' ', 00H, 'i', 00H, 'n', 00H, 'i', 00H, 't', 00H, 'i', 00H, 'a'
	DB	00H, 'l', 00H, 'i', 00H, 'z', 00H, 'a', 00H, 't', 00H, 'i', 00H
	DB	'o', 00H, 'n', 00H, ' ', 00H, 'f', 00H, 'a', 00H, 'i', 00H, 'l'
	DB	00H, 'e', 00H, 'd', 00H, ' ', 00H, 'w', 00H, 'i', 00H, 't', 00H
	DB	'h', 00H, ' ', 00H, 'c', 00H, 'o', 00H, 'd', 00H, 'e', 00H, ' '
	DB	00H, '%', 00H, 'i', 00H, ' ', 00H, 'w', 00H, 'h', 00H, 'i', 00H
	DB	'l', 00H, 'e', 00H, ' ', 00H, 'u', 00H, 's', 00H, 'i', 00H, 'n'
	DB	00H, 'g', 00H, ' ', 00H, 'c', 00H, 'u', 00H, 's', 00H, 't', 00H
	DB	'o', 00H, 'm', 00H, ' ', 00H, 'p', 00H, 'a', 00H, 'r', 00H, 'a'
	DB	00H, 'm', 00H, 'e', 00H, 't', 00H, 'e', 00H, 'r', 00H, 's', 00H
	DB	00H, 00H					; `string'
CONST	ENDS
;	COMDAT ??_C@_1EG@ONGBBGA@?$AAE?$AAn?$AAc?$AAo?$AAd?$AAe?$AAr?$AA?4?$AAQ?$AAS?$AAV?$AA?4?$AAI?$AAn?$AAi?$AAt?$AAC?$AAu?$AAs?$AAt?$AAo?$AAm?$AAP?$AAa?$AAr?$AAa?$AAm?$AAs?$AAF?$AAa?$AAi?$AAl@
CONST	SEGMENT
??_C@_1EG@ONGBBGA@?$AAE?$AAn?$AAc?$AAo?$AAd?$AAe?$AAr?$AA?4?$AAQ?$AAS?$AAV?$AA?4?$AAI?$AAn?$AAi?$AAt?$AAC?$AAu?$AAs?$AAt?$AAo?$AAm?$AAP?$AAa?$AAr?$AAa?$AAm?$AAs?$AAF?$AAa?$AAi?$AAl@ DB 'E'
	DB	00H, 'n', 00H, 'c', 00H, 'o', 00H, 'd', 00H, 'e', 00H, 'r', 00H
	DB	'.', 00H, 'Q', 00H, 'S', 00H, 'V', 00H, '.', 00H, 'I', 00H, 'n'
	DB	00H, 'i', 00H, 't', 00H, 'C', 00H, 'u', 00H, 's', 00H, 't', 00H
	DB	'o', 00H, 'm', 00H, 'P', 00H, 'a', 00H, 'r', 00H, 'a', 00H, 'm'
	DB	00H, 's', 00H, 'F', 00H, 'a', 00H, 'i', 00H, 'l', 00H, 'e', 00H
	DB	'd', 00H, 00H, 00H				; `string'
CONST	ENDS
;	COMDAT ??_C@_1GG@IFDPCDFB@?$AAQ?$AAS?$AAV?$AAH?$AAe?$AAl?$AAp?$AAe?$AAr?$AA?4?$AAe?$AAx?$AAe?$AA?5?$AAc?$AAo?$AAu?$AAl?$AAd?$AA?5?$AAn?$AAo?$AAt?$AA?5?$AAf?$AAi?$AAn?$AAd?$AA?5?$AAa?$AA?5?$AAv@
CONST	SEGMENT
??_C@_1GG@IFDPCDFB@?$AAQ?$AAS?$AAV?$AAH?$AAe?$AAl?$AAp?$AAe?$AAr?$AA?4?$AAe?$AAx?$AAe?$AA?5?$AAc?$AAo?$AAu?$AAl?$AAd?$AA?5?$AAn?$AAo?$AAt?$AA?5?$AAf?$AAi?$AAn?$AAd?$AA?5?$AAa?$AA?5?$AAv@ DB 'Q'
	DB	00H, 'S', 00H, 'V', 00H, 'H', 00H, 'e', 00H, 'l', 00H, 'p', 00H
	DB	'e', 00H, 'r', 00H, '.', 00H, 'e', 00H, 'x', 00H, 'e', 00H, ' '
	DB	00H, 'c', 00H, 'o', 00H, 'u', 00H, 'l', 00H, 'd', 00H, ' ', 00H
	DB	'n', 00H, 'o', 00H, 't', 00H, ' ', 00H, 'f', 00H, 'i', 00H, 'n'
	DB	00H, 'd', 00H, ' ', 00H, 'a', 00H, ' ', 00H, 'v', 00H, 'a', 00H
	DB	'l', 00H, 'i', 00H, 'd', 00H, ' ', 00H, 'c', 00H, 'o', 00H, 'n'
	DB	00H, 'f', 00H, 'i', 00H, 'g', 00H, 'u', 00H, 'r', 00H, 'a', 00H
	DB	't', 00H, 'i', 00H, 'o', 00H, 'n', 00H, 00H, 00H ; `string'
CONST	ENDS
;	COMDAT ??_C@_1IC@JEHGHKKI@?$AAQ?$AAS?$AAV?$AAH?$AAe?$AAl?$AAp?$AAe?$AAr?$AA?4?$AAe?$AAx?$AAe?$AA?5?$AAh?$AAa?$AAs?$AA?5?$AAe?$AAx?$AAi?$AAt?$AAe?$AAd?$AA?5?$AAb?$AAe?$AAc?$AAa?$AAu?$AAs?$AAe@
CONST	SEGMENT
??_C@_1IC@JEHGHKKI@?$AAQ?$AAS?$AAV?$AAH?$AAe?$AAl?$AAp?$AAe?$AAr?$AA?4?$AAe?$AAx?$AAe?$AA?5?$AAh?$AAa?$AAs?$AA?5?$AAe?$AAx?$AAi?$AAt?$AAe?$AAd?$AA?5?$AAb?$AAe?$AAc?$AAa?$AAu?$AAs?$AAe@ DB 'Q'
	DB	00H, 'S', 00H, 'V', 00H, 'H', 00H, 'e', 00H, 'l', 00H, 'p', 00H
	DB	'e', 00H, 'r', 00H, '.', 00H, 'e', 00H, 'x', 00H, 'e', 00H, ' '
	DB	00H, 'h', 00H, 'a', 00H, 's', 00H, ' ', 00H, 'e', 00H, 'x', 00H
	DB	'i', 00H, 't', 00H, 'e', 00H, 'd', 00H, ' ', 00H, 'b', 00H, 'e'
	DB	00H, 'c', 00H, 'a', 00H, 'u', 00H, 's', 00H, 'e', 00H, ' ', 00H
	DB	't', 00H, 'h', 00H, 'e', 00H, ' ', 00H, 'e', 00H, 'n', 00H, 'c'
	DB	00H, 'o', 00H, 'd', 00H, 'e', 00H, 'r', 00H, ' ', 00H, 'w', 00H
	DB	'a', 00H, 's', 00H, ' ', 00H, 'n', 00H, 'o', 00H, 't', 00H, ' '
	DB	00H, 'i', 00H, 'n', 00H, 'i', 00H, 't', 00H, 'i', 00H, 'a', 00H
	DB	'l', 00H, 'i', 00H, 'z', 00H, 'e', 00H, 'd', 00H, 00H, 00H ; `string'
CONST	ENDS
;	COMDAT ??_C@_1DE@MCCIFHMH@?$AAE?$AAn?$AAc?$AAo?$AAd?$AAe?$AAr?$AA?4?$AAQ?$AAS?$AAV?$AA?4?$AAN?$AAo?$AAV?$AAa?$AAl?$AAi?$AAd?$AAC?$AAo?$AAn?$AAf?$AAi?$AAg?$AA?$AA@
CONST	SEGMENT
??_C@_1DE@MCCIFHMH@?$AAE?$AAn?$AAc?$AAo?$AAd?$AAe?$AAr?$AA?4?$AAQ?$AAS?$AAV?$AA?4?$AAN?$AAo?$AAV?$AAa?$AAl?$AAi?$AAd?$AAC?$AAo?$AAn?$AAf?$AAi?$AAg?$AA?$AA@ DB 'E'
	DB	00H, 'n', 00H, 'c', 00H, 'o', 00H, 'd', 00H, 'e', 00H, 'r', 00H
	DB	'.', 00H, 'Q', 00H, 'S', 00H, 'V', 00H, '.', 00H, 'N', 00H, 'o'
	DB	00H, 'V', 00H, 'a', 00H, 'l', 00H, 'i', 00H, 'd', 00H, 'C', 00H
	DB	'o', 00H, 'n', 00H, 'f', 00H, 'i', 00H, 'g', 00H, 00H, 00H ; `string'
CONST	ENDS
;	COMDAT ??_C@_1LO@DHEHLBEE@?$AAQ?$AAS?$AAV?$AAH?$AAe?$AAl?$AAp?$AAe?$AAr?$AA?4?$AAe?$AAx?$AAe?$AA?5?$AAh?$AAa?$AAs?$AA?5?$AAe?$AAx?$AAi?$AAt?$AAe?$AAd?$AA?5?$AAb?$AAe?$AAc?$AAa?$AAu?$AAs?$AAe@
CONST	SEGMENT
??_C@_1LO@DHEHLBEE@?$AAQ?$AAS?$AAV?$AAH?$AAe?$AAl?$AAp?$AAe?$AAr?$AA?4?$AAe?$AAx?$AAe?$AA?5?$AAh?$AAa?$AAs?$AA?5?$AAe?$AAx?$AAi?$AAt?$AAe?$AAd?$AA?5?$AAb?$AAe?$AAc?$AAa?$AAu?$AAs?$AAe@ DB 'Q'
	DB	00H, 'S', 00H, 'V', 00H, 'H', 00H, 'e', 00H, 'l', 00H, 'p', 00H
	DB	'e', 00H, 'r', 00H, '.', 00H, 'e', 00H, 'x', 00H, 'e', 00H, ' '
	DB	00H, 'h', 00H, 'a', 00H, 's', 00H, ' ', 00H, 'e', 00H, 'x', 00H
	DB	'i', 00H, 't', 00H, 'e', 00H, 'd', 00H, ' ', 00H, 'b', 00H, 'e'
	DB	00H, 'c', 00H, 'a', 00H, 'u', 00H, 's', 00H, 'e', 00H, ' ', 00H
	DB	'o', 00H, 'f', 00H, ' ', 00H, 'a', 00H, 'n', 00H, ' ', 00H, 'i'
	DB	00H, 'n', 00H, 'c', 00H, 'o', 00H, 'm', 00H, 'p', 00H, 'a', 00H
	DB	't', 00H, 'i', 00H, 'b', 00H, 'l', 00H, 'e', 00H, ' ', 00H, 'q'
	DB	00H, 's', 00H, 'v', 00H, 'i', 00H, 'm', 00H, 'p', 00H, 'l', 00H
	DB	' ', 00H, 'c', 00H, 'u', 00H, 's', 00H, 't', 00H, 'o', 00H, 'm'
	DB	00H, ' ', 00H, 'p', 00H, 'a', 00H, 'r', 00H, 'a', 00H, 'm', 00H
	DB	'e', 00H, 't', 00H, 'e', 00H, 'r', 00H, ' ', 00H, '(', 00H, 'b'
	DB	00H, 'e', 00H, 'f', 00H, 'o', 00H, 'r', 00H, 'e', 00H, ' ', 00H
	DB	'r', 00H, 'e', 00H, 's', 00H, 'p', 00H, 'o', 00H, 'n', 00H, 's'
	DB	00H, 'e', 00H, ')', 00H, 00H, 00H		; `string'
CONST	ENDS
;	COMDAT ??_C@_1DK@KOIAJGOC@?$AAE?$AAn?$AAc?$AAo?$AAd?$AAe?$AAr?$AA?4?$AAQ?$AAS?$AAV?$AA?4?$AAI?$AAn?$AAc?$AAo?$AAm?$AAp?$AAa?$AAt?$AAi?$AAb?$AAl?$AAe?$AAI?$AAm?$AAp?$AAl?$AA?$AA@
CONST	SEGMENT
??_C@_1DK@KOIAJGOC@?$AAE?$AAn?$AAc?$AAo?$AAd?$AAe?$AAr?$AA?4?$AAQ?$AAS?$AAV?$AA?4?$AAI?$AAn?$AAc?$AAo?$AAm?$AAp?$AAa?$AAt?$AAi?$AAb?$AAl?$AAe?$AAI?$AAm?$AAp?$AAl?$AA?$AA@ DB 'E'
	DB	00H, 'n', 00H, 'c', 00H, 'o', 00H, 'd', 00H, 'e', 00H, 'r', 00H
	DB	'.', 00H, 'Q', 00H, 'S', 00H, 'V', 00H, '.', 00H, 'I', 00H, 'n'
	DB	00H, 'c', 00H, 'o', 00H, 'm', 00H, 'p', 00H, 'a', 00H, 't', 00H
	DB	'i', 00H, 'b', 00H, 'l', 00H, 'e', 00H, 'I', 00H, 'm', 00H, 'p'
	DB	00H, 'l', 00H, 00H, 00H			; `string'
CONST	ENDS
;	COMDAT ??_C@_1HC@HGAJLDHP@?$AAF?$AAa?$AAi?$AAl?$AAe?$AAd?$AA?5?$AAt?$AAo?$AA?5?$AAg?$AAe?$AAt?$AA?5?$AAe?$AAx?$AAi?$AAt?$AA?5?$AAc?$AAo?$AAd?$AAe?$AA?5?$AAw?$AAh?$AAi?$AAl?$AAe?$AA?5?$AAi?$AAn@
CONST	SEGMENT
??_C@_1HC@HGAJLDHP@?$AAF?$AAa?$AAi?$AAl?$AAe?$AAd?$AA?5?$AAt?$AAo?$AA?5?$AAg?$AAe?$AAt?$AA?5?$AAe?$AAx?$AAi?$AAt?$AA?5?$AAc?$AAo?$AAd?$AAe?$AA?5?$AAw?$AAh?$AAi?$AAl?$AAe?$AA?5?$AAi?$AAn@ DB 'F'
	DB	00H, 'a', 00H, 'i', 00H, 'l', 00H, 'e', 00H, 'd', 00H, ' ', 00H
	DB	't', 00H, 'o', 00H, ' ', 00H, 'g', 00H, 'e', 00H, 't', 00H, ' '
	DB	00H, 'e', 00H, 'x', 00H, 'i', 00H, 't', 00H, ' ', 00H, 'c', 00H
	DB	'o', 00H, 'd', 00H, 'e', 00H, ' ', 00H, 'w', 00H, 'h', 00H, 'i'
	DB	00H, 'l', 00H, 'e', 00H, ' ', 00H, 'i', 00H, 'n', 00H, 'i', 00H
	DB	't', 00H, 'i', 00H, 'a', 00H, 'l', 00H, 'i', 00H, 'z', 00H, 'i'
	DB	00H, 'n', 00H, 'g', 00H, ' ', 00H, 'Q', 00H, 'S', 00H, 'V', 00H
	DB	'H', 00H, 'e', 00H, 'l', 00H, 'p', 00H, 'e', 00H, 'r', 00H, '.'
	DB	00H, 'e', 00H, 'x', 00H, 'e', 00H, 00H, 00H	; `string'
CONST	ENDS
;	COMDAT ??_C@_1DI@NLPDPCNO@?$AAE?$AAn?$AAc?$AAo?$AAd?$AAe?$AAr?$AA?4?$AAQ?$AAS?$AAV?$AA?4?$AAH?$AAe?$AAl?$AAp?$AAe?$AAr?$AAE?$AAa?$AAr?$AAl?$AAy?$AAE?$AAx?$AAi?$AAt?$AA?$AA@
CONST	SEGMENT
??_C@_1DI@NLPDPCNO@?$AAE?$AAn?$AAc?$AAo?$AAd?$AAe?$AAr?$AA?4?$AAQ?$AAS?$AAV?$AA?4?$AAH?$AAe?$AAl?$AAp?$AAe?$AAr?$AAE?$AAa?$AAr?$AAl?$AAy?$AAE?$AAx?$AAi?$AAt?$AA?$AA@ DB 'E'
	DB	00H, 'n', 00H, 'c', 00H, 'o', 00H, 'd', 00H, 'e', 00H, 'r', 00H
	DB	'.', 00H, 'Q', 00H, 'S', 00H, 'V', 00H, '.', 00H, 'H', 00H, 'e'
	DB	00H, 'l', 00H, 'p', 00H, 'e', 00H, 'r', 00H, 'E', 00H, 'a', 00H
	DB	'r', 00H, 'l', 00H, 'y', 00H, 'E', 00H, 'x', 00H, 'i', 00H, 't'
	DB	00H, 00H, 00H				; `string'
CONST	ENDS
;	COMDAT ??_C@_1BM@MFIKDNIH@?$AAi?$AAn?$AAi?$AAt?$AA_?$AAr?$AAe?$AAs?$AAp?$AAo?$AAn?$AAs?$AAe?$AA?$AA@
CONST	SEGMENT
??_C@_1BM@MFIKDNIH@?$AAi?$AAn?$AAi?$AAt?$AA_?$AAr?$AAe?$AAs?$AAp?$AAo?$AAn?$AAs?$AAe?$AA?$AA@ DB 'i'
	DB	00H, 'n', 00H, 'i', 00H, 't', 00H, '_', 00H, 'r', 00H, 'e', 00H
	DB	's', 00H, 'p', 00H, 'o', 00H, 'n', 00H, 's', 00H, 'e', 00H, 00H
	DB	00H						; `string'
CONST	ENDS
;	COMDAT ??_C@_1BA@IAHEMFAP@?$AAL?$AAA?$AAD?$AAe?$AAp?$AAt?$AAh?$AA?$AA@
CONST	SEGMENT
??_C@_1BA@IAHEMFAP@?$AAL?$AAA?$AAD?$AAe?$AAp?$AAt?$AAh?$AA?$AA@ DB 'L', 00H
	DB	'A', 00H, 'D', 00H, 'e', 00H, 'p', 00H, 't', 00H, 'h', 00H, 00H
	DB	00H						; `string'
CONST	ENDS
;	COMDAT ??_C@_1BG@OLCPADEI@?$AAI?$AAC?$AAQ?$AAQ?$AAu?$AAa?$AAl?$AAi?$AAt?$AAy?$AA?$AA@
CONST	SEGMENT
??_C@_1BG@OLCPADEI@?$AAI?$AAC?$AAQ?$AAQ?$AAu?$AAa?$AAl?$AAi?$AAt?$AAy?$AA?$AA@ DB 'I'
	DB	00H, 'C', 00H, 'Q', 00H, 'Q', 00H, 'u', 00H, 'a', 00H, 'l', 00H
	DB	'i', 00H, 't', 00H, 'y', 00H, 00H, 00H	; `string'
CONST	ENDS
;	COMDAT ??_C@_17DOMCELIP@?$AAQ?$AAP?$AAB?$AA?$AA@
CONST	SEGMENT
??_C@_17DOMCELIP@?$AAQ?$AAP?$AAB?$AA?$AA@ DB 'Q', 00H, 'P', 00H, 'B', 00H
	DB	00H, 00H					; `string'
CONST	ENDS
;	COMDAT ??_C@_17MENCNEJL@?$AAQ?$AAP?$AAP?$AA?$AA@
CONST	SEGMENT
??_C@_17MENCNEJL@?$AAQ?$AAP?$AAP?$AA?$AA@ DB 'Q', 00H, 'P', 00H, 'P', 00H
	DB	00H, 00H					; `string'
CONST	ENDS
;	COMDAT ??_C@_17OJMDMMIO@?$AAQ?$AAP?$AAI?$AA?$AA@
CONST	SEGMENT
??_C@_17OJMDMMIO@?$AAQ?$AAP?$AAI?$AA?$AA@ DB 'Q', 00H, 'P', 00H, 'I', 00H
	DB	00H, 00H					; `string'
CONST	ENDS
;	COMDAT ??_C@_1BI@CJLLPJDH@?$AAC?$AAo?$AAn?$AAv?$AAe?$AAr?$AAg?$AAe?$AAn?$AAc?$AAe?$AA?$AA@
CONST	SEGMENT
??_C@_1BI@CJLLPJDH@?$AAC?$AAo?$AAn?$AAv?$AAe?$AAr?$AAg?$AAe?$AAn?$AAc?$AAe?$AA?$AA@ DB 'C'
	DB	00H, 'o', 00H, 'n', 00H, 'v', 00H, 'e', 00H, 'r', 00H, 'g', 00H
	DB	'e', 00H, 'n', 00H, 'c', 00H, 'e', 00H, 00H, 00H ; `string'
CONST	ENDS
;	COMDAT ??_C@_1BC@OHENPEDC@?$AAA?$AAc?$AAc?$AAu?$AAr?$AAa?$AAc?$AAy?$AA?$AA@
CONST	SEGMENT
??_C@_1BC@OHENPEDC@?$AAA?$AAc?$AAc?$AAu?$AAr?$AAa?$AAc?$AAy?$AA?$AA@ DB 'A'
	DB	00H, 'c', 00H, 'c', 00H, 'u', 00H, 'r', 00H, 'a', 00H, 'c', 00H
	DB	'y', 00H, 00H, 00H				; `string'
CONST	ENDS
;	COMDAT ??_C@_1BA@IBNIMAHO@?$AAM?$AAa?$AAx?$AAK?$AAb?$AAp?$AAs?$AA?$AA@
CONST	SEGMENT
??_C@_1BA@IBNIMAHO@?$AAM?$AAa?$AAx?$AAK?$AAb?$AAp?$AAs?$AA?$AA@ DB 'M', 00H
	DB	'a', 00H, 'x', 00H, 'K', 00H, 'b', 00H, 'p', 00H, 's', 00H, 00H
	DB	00H						; `string'
CONST	ENDS
;	COMDAT ??_C@_1BO@CJMDAOPJ@?$AAB?$AAu?$AAf?$AAf?$AAe?$AAr?$AAS?$AAi?$AAz?$AAe?$AAI?$AAn?$AAK?$AAB?$AA?$AA@
CONST	SEGMENT
??_C@_1BO@CJMDAOPJ@?$AAB?$AAu?$AAf?$AAf?$AAe?$AAr?$AAS?$AAi?$AAz?$AAe?$AAI?$AAn?$AAK?$AAB?$AA?$AA@ DB 'B'
	DB	00H, 'u', 00H, 'f', 00H, 'f', 00H, 'e', 00H, 'r', 00H, 'S', 00H
	DB	'i', 00H, 'z', 00H, 'e', 00H, 'I', 00H, 'n', 00H, 'K', 00H, 'B'
	DB	00H, 00H, 00H				; `string'
CONST	ENDS
;	COMDAT ??_C@_1BG@IDKHPHBG@?$AAT?$AAa?$AAr?$AAg?$AAe?$AAt?$AAK?$AAb?$AAp?$AAs?$AA?$AA@
CONST	SEGMENT
??_C@_1BG@IDKHPHBG@?$AAT?$AAa?$AAr?$AAg?$AAe?$AAt?$AAK?$AAb?$AAp?$AAs?$AA?$AA@ DB 'T'
	DB	00H, 'a', 00H, 'r', 00H, 'g', 00H, 'e', 00H, 't', 00H, 'K', 00H
	DB	'b', 00H, 'p', 00H, 's', 00H, 00H, 00H	; `string'
CONST	ENDS
;	COMDAT ??_C@_1CI@KDHOMFIK@?$AAU?$AAs?$AAe?$AAG?$AAl?$AAo?$AAb?$AAa?$AAl?$AAB?$AAu?$AAf?$AAf?$AAe?$AAr?$AAS?$AAi?$AAz?$AAe?$AA?$AA@
CONST	SEGMENT
??_C@_1CI@KDHOMFIK@?$AAU?$AAs?$AAe?$AAG?$AAl?$AAo?$AAb?$AAa?$AAl?$AAB?$AAu?$AAf?$AAf?$AAe?$AAr?$AAS?$AAi?$AAz?$AAe?$AA?$AA@ DB 'U'
	DB	00H, 's', 00H, 'e', 00H, 'G', 00H, 'l', 00H, 'o', 00H, 'b', 00H
	DB	'a', 00H, 'l', 00H, 'B', 00H, 'u', 00H, 'f', 00H, 'f', 00H, 'e'
	DB	00H, 'r', 00H, 'S', 00H, 'i', 00H, 'z', 00H, 'e', 00H, 00H, 00H ; `string'
CONST	ENDS
;	COMDAT ??_C@_1CC@HBKEGJCM@?$AAU?$AAs?$AAe?$AAG?$AAl?$AAo?$AAb?$AAa?$AAl?$AAB?$AAi?$AAt?$AAr?$AAa?$AAt?$AAe?$AA?$AA@
CONST	SEGMENT
??_C@_1CC@HBKEGJCM@?$AAU?$AAs?$AAe?$AAG?$AAl?$AAo?$AAb?$AAa?$AAl?$AAB?$AAi?$AAt?$AAr?$AAa?$AAt?$AAe?$AA?$AA@ DB 'U'
	DB	00H, 's', 00H, 'e', 00H, 'G', 00H, 'l', 00H, 'o', 00H, 'b', 00H
	DB	'a', 00H, 'l', 00H, 'B', 00H, 'i', 00H, 't', 00H, 'r', 00H, 'a'
	DB	00H, 't', 00H, 'e', 00H, 00H, 00H		; `string'
CONST	ENDS
;	COMDAT ??_C@_1CE@IBGNPBIO@?$AAR?$AAa?$AAt?$AAe?$AAC?$AAo?$AAn?$AAt?$AAr?$AAo?$AAl?$AAM?$AAe?$AAt?$AAh?$AAo?$AAd?$AA?$AA@
CONST	SEGMENT
??_C@_1CE@IBGNPBIO@?$AAR?$AAa?$AAt?$AAe?$AAC?$AAo?$AAn?$AAt?$AAr?$AAo?$AAl?$AAM?$AAe?$AAt?$AAh?$AAo?$AAd?$AA?$AA@ DB 'R'
	DB	00H, 'a', 00H, 't', 00H, 'e', 00H, 'C', 00H, 'o', 00H, 'n', 00H
	DB	't', 00H, 'r', 00H, 'o', 00H, 'l', 00H, 'M', 00H, 'e', 00H, 't'
	DB	00H, 'h', 00H, 'o', 00H, 'd', 00H, 00H, 00H	; `string'
CONST	ENDS
;	COMDAT ??_C@_1DK@IPJBHBLN@?$AAQ?$AAS?$AAV?$AA?3?$AA?5?$AAU?$AAs?$AAi?$AAn?$AAg?$AA?5?$AAc?$AAu?$AAs?$AAt?$AAo?$AAm?$AA?5?$AAp?$AAa?$AAr?$AAa?$AAm?$AAe?$AAt?$AAe?$AAr?$AAs?$AA?$AA@
CONST	SEGMENT
??_C@_1DK@IPJBHBLN@?$AAQ?$AAS?$AAV?$AA?3?$AA?5?$AAU?$AAs?$AAi?$AAn?$AAg?$AA?5?$AAc?$AAu?$AAs?$AAt?$AAo?$AAm?$AA?5?$AAp?$AAa?$AAr?$AAa?$AAm?$AAe?$AAt?$AAe?$AAr?$AAs?$AA?$AA@ DB 'Q'
	DB	00H, 'S', 00H, 'V', 00H, ':', 00H, ' ', 00H, 'U', 00H, 's', 00H
	DB	'i', 00H, 'n', 00H, 'g', 00H, ' ', 00H, 'c', 00H, 'u', 00H, 's'
	DB	00H, 't', 00H, 'o', 00H, 'm', 00H, ' ', 00H, 'p', 00H, 'a', 00H
	DB	'r', 00H, 'a', 00H, 'm', 00H, 'e', 00H, 't', 00H, 'e', 00H, 'r'
	DB	00H, 's', 00H, 00H, 00H			; `string'
CONST	ENDS
;	COMDAT ??_C@_1BO@ENCKOBAL@?$AAQ?$AAS?$AAV?$AA?5?$AA?$CI?$AAA?$AAd?$AAv?$AAa?$AAn?$AAc?$AAe?$AAd?$AA?$CJ?$AA?$AA@
CONST	SEGMENT
??_C@_1BO@ENCKOBAL@?$AAQ?$AAS?$AAV?$AA?5?$AA?$CI?$AAA?$AAd?$AAv?$AAa?$AAn?$AAc?$AAe?$AAd?$AA?$CJ?$AA?$AA@ DB 'Q'
	DB	00H, 'S', 00H, 'V', 00H, ' ', 00H, '(', 00H, 'A', 00H, 'd', 00H
	DB	'v', 00H, 'a', 00H, 'n', 00H, 'c', 00H, 'e', 00H, 'd', 00H, ')'
	DB	00H, 00H, 00H				; `string'
CONST	ENDS
;	COMDAT ??_C@_1CA@CDIPFIBO@?$AAU?$AAs?$AAe?$AAC?$AAu?$AAs?$AAt?$AAo?$AAm?$AAP?$AAa?$AAr?$AAa?$AAm?$AAs?$AA?$AA@
CONST	SEGMENT
??_C@_1CA@CDIPFIBO@?$AAU?$AAs?$AAe?$AAC?$AAu?$AAs?$AAt?$AAo?$AAm?$AAP?$AAa?$AAr?$AAa?$AAm?$AAs?$AA?$AA@ DB 'U'
	DB	00H, 's', 00H, 'e', 00H, 'C', 00H, 'u', 00H, 's', 00H, 't', 00H
	DB	'o', 00H, 'm', 00H, 'P', 00H, 'a', 00H, 'r', 00H, 'a', 00H, 'm'
	DB	00H, 's', 00H, 00H, 00H			; `string'
CONST	ENDS
;	COMDAT ??_C@_1BK@BCABKOOC@?$AAi?$AAn?$AAi?$AAt?$AA_?$AAr?$AAe?$AAq?$AAu?$AAe?$AAs?$AAt?$AA?$AA@
CONST	SEGMENT
??_C@_1BK@BCABKOOC@?$AAi?$AAn?$AAi?$AAt?$AA_?$AAr?$AAe?$AAq?$AAu?$AAe?$AAs?$AAt?$AA?$AA@ DB 'i'
	DB	00H, 'n', 00H, 'i', 00H, 't', 00H, '_', 00H, 'r', 00H, 'e', 00H
	DB	'q', 00H, 'u', 00H, 'e', 00H, 's', 00H, 't', 00H, 00H, 00H ; `string'
CONST	ENDS
;	COMDAT ??_C@_1EG@KGHDNBFC@?$AAC?$AAo?$AAu?$AAl?$AAd?$AAn?$AA?8?$AAt?$AA?5?$AAl?$AAa?$AAu?$AAn?$AAc?$AAh?$AA?5?$AAQ?$AAS?$AAV?$AAH?$AAe?$AAl?$AAp?$AAe?$AAr?$AA?4?$AAe?$AAx?$AAe?$AA?3?$AA?5?$AA?$CF@
CONST	SEGMENT
??_C@_1EG@KGHDNBFC@?$AAC?$AAo?$AAu?$AAl?$AAd?$AAn?$AA?8?$AAt?$AA?5?$AAl?$AAa?$AAu?$AAn?$AAc?$AAh?$AA?5?$AAQ?$AAS?$AAV?$AAH?$AAe?$AAl?$AAp?$AAe?$AAr?$AA?4?$AAe?$AAx?$AAe?$AA?3?$AA?5?$AA?$CF@ DB 'C'
	DB	00H, 'o', 00H, 'u', 00H, 'l', 00H, 'd', 00H, 'n', 00H, '''', 00H
	DB	't', 00H, ' ', 00H, 'l', 00H, 'a', 00H, 'u', 00H, 'n', 00H, 'c'
	DB	00H, 'h', 00H, ' ', 00H, 'Q', 00H, 'S', 00H, 'V', 00H, 'H', 00H
	DB	'e', 00H, 'l', 00H, 'p', 00H, 'e', 00H, 'r', 00H, '.', 00H, 'e'
	DB	00H, 'x', 00H, 'e', 00H, ':', 00H, ' ', 00H, '%', 00H, 'u', 00H
	DB	'!', 00H, 00H, 00H				; `string'
CONST	ENDS
;	COMDAT ??_C@_1DO@OPJHFIHF@?$AAE?$AAn?$AAc?$AAo?$AAd?$AAe?$AAr?$AA?4?$AAQ?$AAS?$AAV?$AA?4?$AAH?$AAe?$AAl?$AAp?$AAe?$AAr?$AAL?$AAa?$AAu?$AAn?$AAc?$AAh?$AAF?$AAa?$AAi?$AAl?$AAe?$AAd?$AA?$AA@
CONST	SEGMENT
??_C@_1DO@OPJHFIHF@?$AAE?$AAn?$AAc?$AAo?$AAd?$AAe?$AAr?$AA?4?$AAQ?$AAS?$AAV?$AA?4?$AAH?$AAe?$AAl?$AAp?$AAe?$AAr?$AAL?$AAa?$AAu?$AAn?$AAc?$AAh?$AAF?$AAa?$AAi?$AAl?$AAe?$AAd?$AA?$AA@ DB 'E'
	DB	00H, 'n', 00H, 'c', 00H, 'o', 00H, 'd', 00H, 'e', 00H, 'r', 00H
	DB	'.', 00H, 'Q', 00H, 'S', 00H, 'V', 00H, '.', 00H, 'H', 00H, 'e'
	DB	00H, 'l', 00H, 'p', 00H, 'e', 00H, 'r', 00H, 'L', 00H, 'a', 00H
	DB	'u', 00H, 'n', 00H, 'c', 00H, 'h', 00H, 'F', 00H, 'a', 00H, 'i'
	DB	00H, 'l', 00H, 'e', 00H, 'd', 00H, 00H, 00H	; `string'
CONST	ENDS
;	COMDAT ??_C@_1EI@BEBMIADP@?$AAQ?$AAS?$AAV?$AA?5?$AAi?$AAs?$AA?5?$AAn?$AAo?$AA?5?$AAl?$AAo?$AAn?$AAg?$AAe?$AAr?$AA?5?$AAs?$AAu?$AAp?$AAp?$AAo?$AAr?$AAt?$AAe?$AAd?$AA?5?$AAo?$AAn?$AA?5?$AAV?$AAi@
CONST	SEGMENT
??_C@_1EI@BEBMIADP@?$AAQ?$AAS?$AAV?$AA?5?$AAi?$AAs?$AA?5?$AAn?$AAo?$AA?5?$AAl?$AAo?$AAn?$AAg?$AAe?$AAr?$AA?5?$AAs?$AAu?$AAp?$AAp?$AAo?$AAr?$AAt?$AAe?$AAd?$AA?5?$AAo?$AAn?$AA?5?$AAV?$AAi@ DB 'Q'
	DB	00H, 'S', 00H, 'V', 00H, ' ', 00H, 'i', 00H, 's', 00H, ' ', 00H
	DB	'n', 00H, 'o', 00H, ' ', 00H, 'l', 00H, 'o', 00H, 'n', 00H, 'g'
	DB	00H, 'e', 00H, 'r', 00H, ' ', 00H, 's', 00H, 'u', 00H, 'p', 00H
	DB	'p', 00H, 'o', 00H, 'r', 00H, 't', 00H, 'e', 00H, 'd', 00H, ' '
	DB	00H, 'o', 00H, 'n', 00H, ' ', 00H, 'V', 00H, 'i', 00H, 's', 00H
	DB	't', 00H, 'a', 00H, 00H, 00H			; `string'
CONST	ENDS
;	COMDAT ??_C@_1EI@MGAFFPDA@?$AAE?$AAn?$AAc?$AAo?$AAd?$AAe?$AAr?$AA?4?$AAQ?$AAS?$AAV?$AA?4?$AAH?$AAe?$AAl?$AAp?$AAe?$AAr?$AAL?$AAa?$AAu?$AAn?$AAc?$AAh?$AAF?$AAa?$AAi?$AAl?$AAe?$AAd?$AAV?$AAi@
CONST	SEGMENT
??_C@_1EI@MGAFFPDA@?$AAE?$AAn?$AAc?$AAo?$AAd?$AAe?$AAr?$AA?4?$AAQ?$AAS?$AAV?$AA?4?$AAH?$AAe?$AAl?$AAp?$AAe?$AAr?$AAL?$AAa?$AAu?$AAn?$AAc?$AAh?$AAF?$AAa?$AAi?$AAl?$AAe?$AAd?$AAV?$AAi@ DB 'E'
	DB	00H, 'n', 00H, 'c', 00H, 'o', 00H, 'd', 00H, 'e', 00H, 'r', 00H
	DB	'.', 00H, 'Q', 00H, 'S', 00H, 'V', 00H, '.', 00H, 'H', 00H, 'e'
	DB	00H, 'l', 00H, 'p', 00H, 'e', 00H, 'r', 00H, 'L', 00H, 'a', 00H
	DB	'u', 00H, 'n', 00H, 'c', 00H, 'h', 00H, 'F', 00H, 'a', 00H, 'i'
	DB	00H, 'l', 00H, 'e', 00H, 'd', 00H, 'V', 00H, 'i', 00H, 's', 00H
	DB	't', 00H, 'a', 00H, 00H, 00H			; `string'
CONST	ENDS
;	COMDAT ??_C@_1HC@EHFMGPIB@?$AAQ?$AAS?$AAV?$AA?3?$AA?5?$AAU?$AAn?$AAr?$AAe?$AAc?$AAo?$AAg?$AAn?$AAi?$AAz?$AAe?$AAd?$AA?5?$AAp?$AAr?$AAo?$AAf?$AAi?$AAl?$AAe?$AA?5?$AA?8?$AA?$CF?$AAs?$AA?8?$AA?0?$AA?5@
CONST	SEGMENT
??_C@_1HC@EHFMGPIB@?$AAQ?$AAS?$AAV?$AA?3?$AA?5?$AAU?$AAn?$AAr?$AAe?$AAc?$AAo?$AAg?$AAn?$AAi?$AAz?$AAe?$AAd?$AA?5?$AAp?$AAr?$AAo?$AAf?$AAi?$AAl?$AAe?$AA?5?$AA?8?$AA?$CF?$AAs?$AA?8?$AA?0?$AA?5@ DB 'Q'
	DB	00H, 'S', 00H, 'V', 00H, ':', 00H, ' ', 00H, 'U', 00H, 'n', 00H
	DB	'r', 00H, 'e', 00H, 'c', 00H, 'o', 00H, 'g', 00H, 'n', 00H, 'i'
	DB	00H, 'z', 00H, 'e', 00H, 'd', 00H, ' ', 00H, 'p', 00H, 'r', 00H
	DB	'o', 00H, 'f', 00H, 'i', 00H, 'l', 00H, 'e', 00H, ' ', 00H, ''''
	DB	00H, '%', 00H, 's', 00H, '''', 00H, ',', 00H, ' ', 00H, 'p', 00H
	DB	'r', 00H, 'o', 00H, 'f', 00H, 'i', 00H, 'l', 00H, 'e', 00H, ' '
	DB	00H, 'r', 00H, 'e', 00H, 's', 00H, 'e', 00H, 't', 00H, ' ', 00H
	DB	't', 00H, 'o', 00H, ' ', 00H, 'd', 00H, 'e', 00H, 'f', 00H, 'a'
	DB	00H, 'u', 00H, 'l', 00H, 't', 00H, 00H, 00H	; `string'
CONST	ENDS
;	COMDAT ??_C@_19NACPGGMO@?$AAm?$AAa?$AAi?$AAn?$AA?$AA@
CONST	SEGMENT
??_C@_19NACPGGMO@?$AAm?$AAa?$AAi?$AAn?$AA?$AA@ DB 'm', 00H, 'a', 00H, 'i', 00H
	DB	'n', 00H, 00H, 00H				; `string'
CONST	ENDS
;	COMDAT ??_C@_1BC@PBFEDEIE@?$AAb?$AAa?$AAs?$AAe?$AAl?$AAi?$AAn?$AAe?$AA?$AA@
CONST	SEGMENT
??_C@_1BC@PBFEDEIE@?$AAb?$AAa?$AAs?$AAe?$AAl?$AAi?$AAn?$AAe?$AA?$AA@ DB 'b'
	DB	00H, 'a', 00H, 's', 00H, 'e', 00H, 'l', 00H, 'i', 00H, 'n', 00H
	DB	'e', 00H, 00H, 00H				; `string'
CONST	ENDS
;	COMDAT ??_C@_07LNMDFKEJ@profile?$AA@
CONST	SEGMENT
??_C@_07LNMDFKEJ@profile?$AA@ DB 'profile', 00H		; `string'
CONST	ENDS
;	COMDAT ??_C@_04PGKLGAGG@d3d9?$AA@
CONST	SEGMENT
??_C@_04PGKLGAGG@d3d9?$AA@ DB 'd3d9', 00H		; `string'
CONST	ENDS
;	COMDAT ??_C@_05GMGJDJAH@d3d11?$AA@
CONST	SEGMENT
??_C@_05GMGJDJAH@d3d11?$AA@ DB 'd3d11', 00H		; `string'
CONST	ENDS
;	COMDAT ??_C@_07DKALODOL@qsvimpl?$AA@
CONST	SEGMENT
??_C@_07DKALODOL@qsvimpl?$AA@ DB 'qsvimpl', 00H		; `string'
CONST	ENDS
;	COMDAT ??_C@_07IBIPAAJI@bframes?$AA@
CONST	SEGMENT
??_C@_07IBIPAAJI@bframes?$AA@ DB 'bframes', 00H		; `string'
CONST	ENDS
;	COMDAT ??_C@_06IONMGJI@keyint?$AA@
CONST	SEGMENT
??_C@_06IONMGJI@keyint?$AA@ DB 'keyint', 00H		; `string'
CONST	ENDS
;	COMDAT ??_C@_1EI@EDAOEDLO@?$AAU?$AAs?$AAi?$AAn?$AAg?$AA?5?$AAc?$AAu?$AAs?$AAt?$AAo?$AAm?$AA?5?$AAe?$AAn?$AAc?$AAo?$AAd?$AAe?$AAr?$AA?5?$AAs?$AAe?$AAt?$AAt?$AAi?$AAn?$AAg?$AAs?$AA?3?$AA?5?$AA?$CC@
CONST	SEGMENT
??_C@_1EI@EDAOEDLO@?$AAU?$AAs?$AAi?$AAn?$AAg?$AA?5?$AAc?$AAu?$AAs?$AAt?$AAo?$AAm?$AA?5?$AAe?$AAn?$AAc?$AAo?$AAd?$AAe?$AAr?$AA?5?$AAs?$AAe?$AAt?$AAt?$AAi?$AAn?$AAg?$AAs?$AA?3?$AA?5?$AA?$CC@ DB 'U'
	DB	00H, 's', 00H, 'i', 00H, 'n', 00H, 'g', 00H, ' ', 00H, 'c', 00H
	DB	'u', 00H, 's', 00H, 't', 00H, 'o', 00H, 'm', 00H, ' ', 00H, 'e'
	DB	00H, 'n', 00H, 'c', 00H, 'o', 00H, 'd', 00H, 'e', 00H, 'r', 00H
	DB	' ', 00H, 's', 00H, 'e', 00H, 't', 00H, 't', 00H, 'i', 00H, 'n'
	DB	00H, 'g', 00H, 's', 00H, ':', 00H, ' ', 00H, '"', 00H, '%', 00H
	DB	's', 00H, '"', 00H, 00H, 00H			; `string'
CONST	ENDS
;	COMDAT ??_C@_1CE@FAHANJKA@?$AAC?$AAu?$AAs?$AAt?$AAo?$AAm?$AAQ?$AAS?$AAV?$AAS?$AAe?$AAt?$AAt?$AAi?$AAn?$AAg?$AAs?$AA?$AA@
CONST	SEGMENT
??_C@_1CE@FAHANJKA@?$AAC?$AAu?$AAs?$AAt?$AAo?$AAm?$AAQ?$AAS?$AAV?$AAS?$AAe?$AAt?$AAt?$AAi?$AAn?$AAg?$AAs?$AA?$AA@ DB 'C'
	DB	00H, 'u', 00H, 's', 00H, 't', 00H, 'o', 00H, 'm', 00H, 'Q', 00H
	DB	'S', 00H, 'V', 00H, 'S', 00H, 'e', 00H, 't', 00H, 't', 00H, 'i'
	DB	00H, 'n', 00H, 'g', 00H, 's', 00H, 00H, 00H	; `string'
CONST	ENDS
;	COMDAT ??_C@_1DG@KLBNDPKC@?$AAQ?$AAS?$AAV?$AAU?$AAs?$AAe?$AAV?$AAi?$AAd?$AAe?$AAo?$AAE?$AAn?$AAc?$AAo?$AAd?$AAe?$AAr?$AAS?$AAe?$AAt?$AAt?$AAi?$AAn?$AAg?$AAs?$AA?$AA@
CONST	SEGMENT
??_C@_1DG@KLBNDPKC@?$AAQ?$AAS?$AAV?$AAU?$AAs?$AAe?$AAV?$AAi?$AAd?$AAe?$AAo?$AAE?$AAn?$AAc?$AAo?$AAd?$AAe?$AAr?$AAS?$AAe?$AAt?$AAt?$AAi?$AAn?$AAg?$AAs?$AA?$AA@ DB 'Q'
	DB	00H, 'S', 00H, 'V', 00H, 'U', 00H, 's', 00H, 'e', 00H, 'V', 00H
	DB	'i', 00H, 'd', 00H, 'e', 00H, 'o', 00H, 'E', 00H, 'n', 00H, 'c'
	DB	00H, 'o', 00H, 'd', 00H, 'e', 00H, 'r', 00H, 'S', 00H, 'e', 00H
	DB	't', 00H, 't', 00H, 'i', 00H, 'n', 00H, 'g', 00H, 's', 00H, 00H
	DB	00H						; `string'
CONST	ENDS
;	COMDAT ??_C@_1BI@CHOFIDHM@?$AAX?$AA2?$AA6?$AA4?$AAP?$AAr?$AAo?$AAf?$AAi?$AAl?$AAe?$AA?$AA@
CONST	SEGMENT
??_C@_1BI@CHOFIDHM@?$AAX?$AA2?$AA6?$AA4?$AAP?$AAr?$AAo?$AAf?$AAi?$AAl?$AAe?$AA?$AA@ DB 'X'
	DB	00H, '2', 00H, '6', 00H, '4', 00H, 'P', 00H, 'r', 00H, 'o', 00H
	DB	'f', 00H, 'i', 00H, 'l', 00H, 'e', 00H, 00H, 00H ; `string'
CONST	ENDS
;	COMDAT ??_C@_19PKICIIJD@?$AAh?$AAi?$AAg?$AAh?$AA?$AA@
CONST	SEGMENT
??_C@_19PKICIIJD@?$AAh?$AAi?$AAg?$AAh?$AA?$AA@ DB 'h', 00H, 'i', 00H, 'g', 00H
	DB	'h', 00H, 00H, 00H				; `string'
CONST	ENDS
;	COMDAT ??_C@_1BE@ODBMCAAO@?$AAQ?$AAS?$AAV?$AAP?$AAr?$AAe?$AAs?$AAe?$AAt?$AA?$AA@
CONST	SEGMENT
??_C@_1BE@ODBMCAAO@?$AAQ?$AAS?$AAV?$AAP?$AAr?$AAe?$AAs?$AAe?$AAt?$AA?$AA@ DB 'Q'
	DB	00H, 'S', 00H, 'V', 00H, 'P', 00H, 'r', 00H, 'e', 00H, 's', 00H
	DB	'e', 00H, 't', 00H, 00H, 00H			; `string'
CONST	ENDS
;	COMDAT ??_C@_1CC@INKCNOFG@?$AAK?$AAe?$AAy?$AAf?$AAr?$AAa?$AAm?$AAe?$AAI?$AAn?$AAt?$AAe?$AAr?$AAv?$AAa?$AAl?$AA?$AA@
CONST	SEGMENT
??_C@_1CC@INKCNOFG@?$AAK?$AAe?$AAy?$AAf?$AAr?$AAa?$AAm?$AAe?$AAI?$AAn?$AAt?$AAe?$AAr?$AAv?$AAa?$AAl?$AA?$AA@ DB 'K'
	DB	00H, 'e', 00H, 'y', 00H, 'f', 00H, 'r', 00H, 'a', 00H, 'm', 00H
	DB	'e', 00H, 'I', 00H, 'n', 00H, 't', 00H, 'e', 00H, 'r', 00H, 'v'
	DB	00H, 'a', 00H, 'l', 00H, 00H, 00H		; `string'
CONST	ENDS
;	COMDAT ??_C@_1GC@LANNAHFH@?$AAC?$AAo?$AAn?$AAf?$AAi?$AAg?$AAu?$AAr?$AAe?$AAd?$AA?5?$AAb?$AAi?$AAt?$AAr?$AAa?$AAt?$AAe?$AA?5?$AA?$CF?$AAd?$AA?5?$AAe?$AAx?$AAc?$AAe?$AAe?$AAd?$AAs?$AA?5?$AAQ?$AAS@
CONST	SEGMENT
??_C@_1GC@LANNAHFH@?$AAC?$AAo?$AAn?$AAf?$AAi?$AAg?$AAu?$AAr?$AAe?$AAd?$AA?5?$AAb?$AAi?$AAt?$AAr?$AAa?$AAt?$AAe?$AA?5?$AA?$CF?$AAd?$AA?5?$AAe?$AAx?$AAc?$AAe?$AAe?$AAd?$AAs?$AA?5?$AAQ?$AAS@ DB 'C'
	DB	00H, 'o', 00H, 'n', 00H, 'f', 00H, 'i', 00H, 'g', 00H, 'u', 00H
	DB	'r', 00H, 'e', 00H, 'd', 00H, ' ', 00H, 'b', 00H, 'i', 00H, 't'
	DB	00H, 'r', 00H, 'a', 00H, 't', 00H, 'e', 00H, ' ', 00H, '%', 00H
	DB	'd', 00H, ' ', 00H, 'e', 00H, 'x', 00H, 'c', 00H, 'e', 00H, 'e'
	DB	00H, 'd', 00H, 's', 00H, ' ', 00H, 'Q', 00H, 'S', 00H, 'V', 00H
	DB	' ', 00H, 'm', 00H, 'a', 00H, 'x', 00H, 'i', 00H, 'm', 00H, 'u'
	DB	00H, 'm', 00H, ' ', 00H, 'o', 00H, 'f', 00H, ' ', 00H, '%', 00H
	DB	'u', 00H, '!', 00H, 00H, 00H			; `string'
CONST	ENDS
;	COMDAT ??_C@_1BO@PCCCHKLK@?$AAV?$AAi?$AAd?$AAe?$AAo?$AA?5?$AAE?$AAn?$AAc?$AAo?$AAd?$AAi?$AAn?$AAg?$AA?$AA@
CONST	SEGMENT
??_C@_1BO@PCCCHKLK@?$AAV?$AAi?$AAd?$AAe?$AAo?$AA?5?$AAE?$AAn?$AAc?$AAo?$AAd?$AAi?$AAn?$AAg?$AA?$AA@ DB 'V'
	DB	00H, 'i', 00H, 'd', 00H, 'e', 00H, 'o', 00H, ' ', 00H, 'E', 00H
	DB	'n', 00H, 'c', 00H, 'o', 00H, 'd', 00H, 'i', 00H, 'n', 00H, 'g'
	DB	00H, 00H, 00H				; `string'
CONST	ENDS
;	COMDAT ??_C@_1O@GNHABGLI@?$AAU?$AAs?$AAe?$AAC?$AAB?$AAR?$AA?$AA@
CONST	SEGMENT
??_C@_1O@GNHABGLI@?$AAU?$AAs?$AAe?$AAC?$AAB?$AAR?$AA?$AA@ DB 'U', 00H, 's'
	DB	00H, 'e', 00H, 'C', 00H, 'B', 00H, 'R', 00H, 00H, 00H ; `string'
CONST	ENDS
;	COMDAT ??_C@_1EG@IOAIFOJM@?$AAb?$AAf?$AAr?$AAa?$AAm?$AAe?$AA_?$AAd?$AAe?$AAl?$AAa?$AAy?$AA?$DN?$AA?$CF?$AAu?$AA?5?$AA?$DO?$AA?$DN?$AA?5?$AAi?$AAn?$AAi?$AAt?$AA_?$AAp?$AAt?$AAs?$AA?4?$AAN?$AAu?$AAm?$AA?$DN@
CONST	SEGMENT
??_C@_1EG@IOAIFOJM@?$AAb?$AAf?$AAr?$AAa?$AAm?$AAe?$AA_?$AAd?$AAe?$AAl?$AAa?$AAy?$AA?$DN?$AA?$CF?$AAu?$AA?5?$AA?$DO?$AA?$DN?$AA?5?$AAi?$AAn?$AAi?$AAt?$AA_?$AAp?$AAt?$AAs?$AA?4?$AAN?$AAu?$AAm?$AA?$DN@ DB 'b'
	DB	00H, 'f', 00H, 'r', 00H, 'a', 00H, 'm', 00H, 'e', 00H, '_', 00H
	DB	'd', 00H, 'e', 00H, 'l', 00H, 'a', 00H, 'y', 00H, '=', 00H, '%'
	DB	00H, 'u', 00H, ' ', 00H, '>', 00H, '=', 00H, ' ', 00H, 'i', 00H
	DB	'n', 00H, 'i', 00H, 't', 00H, '_', 00H, 'p', 00H, 't', 00H, 's'
	DB	00H, '.', 00H, 'N', 00H, 'u', 00H, 'm', 00H, '=', 00H, '%', 00H
	DB	'u', 00H, 00H, 00H				; `string'
CONST	ENDS
;	COMDAT ??_C@_1GA@FFPJBDII@?$AAR?$AAe?$AAc?$AAa?$AAl?$AAc?$AAu?$AAl?$AAa?$AAt?$AAe?$AAd?$AA?5?$AAb?$AAf?$AAr?$AAa?$AAm?$AAe?$AA_?$AAd?$AAe?$AAl?$AAa?$AAy?$AA?3?$AA?5?$AA?$CF?$AAu?$AA?0?$AA?5?$AAi@
CONST	SEGMENT
??_C@_1GA@FFPJBDII@?$AAR?$AAe?$AAc?$AAa?$AAl?$AAc?$AAu?$AAl?$AAa?$AAt?$AAe?$AAd?$AA?5?$AAb?$AAf?$AAr?$AAa?$AAm?$AAe?$AA_?$AAd?$AAe?$AAl?$AAa?$AAy?$AA?3?$AA?5?$AA?$CF?$AAu?$AA?0?$AA?5?$AAi@ DB 'R'
	DB	00H, 'e', 00H, 'c', 00H, 'a', 00H, 'l', 00H, 'c', 00H, 'u', 00H
	DB	'l', 00H, 'a', 00H, 't', 00H, 'e', 00H, 'd', 00H, ' ', 00H, 'b'
	DB	00H, 'f', 00H, 'r', 00H, 'a', 00H, 'm', 00H, 'e', 00H, '_', 00H
	DB	'd', 00H, 'e', 00H, 'l', 00H, 'a', 00H, 'y', 00H, ':', 00H, ' '
	DB	00H, '%', 00H, 'u', 00H, ',', 00H, ' ', 00H, 'i', 00H, 'n', 00H
	DB	'i', 00H, 't', 00H, '_', 00H, 'p', 00H, 't', 00H, 's', 00H, '.'
	DB	00H, 'N', 00H, 'u', 00H, 'm', 00H, ':', 00H, ' ', 00H, '%', 00H
	DB	'u', 00H, 00H, 00H				; `string'
CONST	ENDS
;	COMDAT ??_R0PAX@8
data$r	SEGMENT
??_R0PAX@8 DD	FLAT:??_7type_info@@6B@			; void * `RTTI Type Descriptor'
	DD	00H
	DB	'.PAX', 00H
data$r	ENDS
;	COMDAT ??_R3QSVEncoder@@8
rdata$r	SEGMENT
??_R3QSVEncoder@@8 DD 00H				; QSVEncoder::`RTTI Class Hierarchy Descriptor'
	DD	00H
	DD	02H
	DD	FLAT:??_R2QSVEncoder@@8
rdata$r	ENDS
;	COMDAT __CT??_R0PAX@84
xdata$x	SEGMENT
__CT??_R0PAX@84 DD 01H
	DD	FLAT:??_R0PAX@8
	DD	00H
	DD	0ffffffffH
	ORG $+4
	DD	04H
	DD	00H
xdata$x	ENDS
;	COMDAT ?npos@?$basic_string@_WU?$char_traits@_W@std@@V?$allocator@_W@2@@std@@2IB
CONST	SEGMENT
?npos@?$basic_string@_WU?$char_traits@_W@std@@V?$allocator@_W@2@@std@@2IB DD 0ffffffffH ; std::basic_string<wchar_t,std::char_traits<wchar_t>,std::allocator<wchar_t> >::npos
CONST	ENDS
;	COMDAT ?npos@?$basic_string@DU?$char_traits@D@std@@V?$allocator@D@2@@std@@2IB
CONST	SEGMENT
?npos@?$basic_string@DU?$char_traits@D@std@@V?$allocator@D@2@@std@@2IB DD 0ffffffffH ; std::basic_string<char,std::char_traits<char>,std::allocator<char> >::npos
CONST	ENDS
;	COMDAT ??_R1A@?0A@EA@QSVEncoder@@8
rdata$r	SEGMENT
??_R1A@?0A@EA@QSVEncoder@@8 DD FLAT:??_R0?AVQSVEncoder@@@8 ; QSVEncoder::`RTTI Base Class Descriptor at (0,-1,0,64)'
	DD	01H
	DD	00H
	DD	0ffffffffH
	DD	00H
	DD	040H
	DD	FLAT:??_R3QSVEncoder@@8
rdata$r	ENDS
;	COMDAT __CTA2PA_W
xdata$x	SEGMENT
__CTA2PA_W DD	02H
	DD	FLAT:__CT??_R0PA_W@84
	DD	FLAT:__CT??_R0PAX@84
xdata$x	ENDS
;	COMDAT ??_R0?AUDataPacket@@@8
data$r	SEGMENT
??_R0?AUDataPacket@@@8 DD FLAT:??_7type_info@@6B@	; DataPacket `RTTI Type Descriptor'
	DD	00H
	DB	'.?AUDataPacket@@', 00H
data$r	ENDS
;	COMDAT ??_R2VideoEncoder@@8
rdata$r	SEGMENT
??_R2VideoEncoder@@8 DD FLAT:??_R1A@?0A@EA@VideoEncoder@@8 ; VideoEncoder::`RTTI Base Class Array'
rdata$r	ENDS
;	COMDAT __CT??_R0PA_W@84
xdata$x	SEGMENT
__CT??_R0PA_W@84 DD 01H
	DD	FLAT:??_R0PA_W@8
	DD	00H
	DD	0ffffffffH
	ORG $+4
	DD	04H
	DD	00H
xdata$x	ENDS
;	COMDAT ??_R3VideoEncoder@@8
rdata$r	SEGMENT
??_R3VideoEncoder@@8 DD 00H				; VideoEncoder::`RTTI Class Hierarchy Descriptor'
	DD	00H
	DD	01H
	DD	FLAT:??_R2VideoEncoder@@8
rdata$r	ENDS
;	COMDAT ??_R0_J@8
data$r	SEGMENT
??_R0_J@8 DD	FLAT:??_7type_info@@6B@			; __int64 `RTTI Type Descriptor'
	DD	00H
	DB	'._J', 00H
data$r	ENDS
;	COMDAT ??_R0?AVQSVEncoder@@@8
data$r	SEGMENT
??_R0?AVQSVEncoder@@@8 DD FLAT:??_7type_info@@6B@	; QSVEncoder `RTTI Type Descriptor'
	DD	00H
	DB	'.?AVQSVEncoder@@', 00H
data$r	ENDS
;	COMDAT ??_R0PA_W@8
data$r	SEGMENT
??_R0PA_W@8 DD	FLAT:??_7type_info@@6B@			; wchar_t * `RTTI Type Descriptor'
	DD	00H
	DB	'.PA_W', 00H
data$r	ENDS
;	COMDAT ??_R0?AUVideoPacket@@@8
data$r	SEGMENT
??_R0?AUVideoPacket@@@8 DD FLAT:??_7type_info@@6B@	; VideoPacket `RTTI Type Descriptor'
	DD	00H
	DB	'.?AUVideoPacket@@', 00H
data$r	ENDS
;	COMDAT __TI2CPA_W
xdata$x	SEGMENT
__TI2CPA_W DD	01H
	DD	00H
	DD	00H
	DD	FLAT:__CTA2PA_W
xdata$x	ENDS
;	COMDAT ??_R4VideoEncoder@@6B@
rdata$r	SEGMENT
??_R4VideoEncoder@@6B@ DD 00H				; VideoEncoder::`RTTI Complete Object Locator'
	DD	00H
	DD	00H
	DD	FLAT:??_R0?AVVideoEncoder@@@8
	DD	FLAT:??_R3VideoEncoder@@8
rdata$r	ENDS
;	COMDAT ??_R1A@?0A@EA@VideoEncoder@@8
rdata$r	SEGMENT
??_R1A@?0A@EA@VideoEncoder@@8 DD FLAT:??_R0?AVVideoEncoder@@@8 ; VideoEncoder::`RTTI Base Class Descriptor at (0,-1,0,64)'
	DD	00H
	DD	00H
	DD	0ffffffffH
	DD	00H
	DD	040H
	DD	FLAT:??_R3VideoEncoder@@8
rdata$r	ENDS
;	COMDAT ??_R0?AUx264_nal_t@@@8
data$r	SEGMENT
??_R0?AUx264_nal_t@@@8 DD FLAT:??_7type_info@@6B@	; x264_nal_t `RTTI Type Descriptor'
	DD	00H
	DB	'.?AUx264_nal_t@@', 00H
data$r	ENDS
;	COMDAT ?start_seq@?8??ProcessEncodedFrame@QSVEncoder@@QAEXAAV?$List@UDataPacket@@@@AAV?$List@W4PacketType@@@@KAAKI@Z@4QBEB
CONST	SEGMENT
?start_seq@?8??ProcessEncodedFrame@QSVEncoder@@QAEXAAV?$List@UDataPacket@@@@AAV?$List@W4PacketType@@@@KAAKI@Z@4QBEB DB 00H ; `QSVEncoder::ProcessEncodedFrame'::`9'::start_seq
	DB	00H
	DB	01H
CONST	ENDS
;	COMDAT ??_R2QSVEncoder@@8
rdata$r	SEGMENT
??_R2QSVEncoder@@8 DD FLAT:??_R1A@?0A@EA@QSVEncoder@@8	; QSVEncoder::`RTTI Base Class Array'
	DD	FLAT:??_R1A@?0A@EA@VideoEncoder@@8
rdata$r	ENDS
;	COMDAT ??_R0?AVVideoEncoder@@@8
data$r	SEGMENT
??_R0?AVVideoEncoder@@@8 DD FLAT:??_7type_info@@6B@	; VideoEncoder `RTTI Type Descriptor'
	DD	00H
	DB	'.?AVVideoEncoder@@', 00H
data$r	ENDS
;	COMDAT ??_7VideoEncoder@@6B@
CONST	SEGMENT
??_7VideoEncoder@@6B@ DD FLAT:??_R4VideoEncoder@@6B@	; VideoEncoder::`vftable'
	DD	FLAT:__purecall
	DD	FLAT:?RequestBuffers@VideoEncoder@@MAEXPAX@Z
	DD	FLAT:??_EVideoEncoder@@UAEPAXI@Z
	DD	FLAT:__purecall
	DD	FLAT:__purecall
	DD	FLAT:__purecall
	DD	FLAT:__purecall
	DD	FLAT:?GetSEI@VideoEncoder@@UAEXAAUDataPacket@@@Z
	DD	FLAT:?RequestKeyframe@VideoEncoder@@UAEXXZ
	DD	FLAT:__purecall
	DD	FLAT:?isQSV@VideoEncoder@@UAE_NXZ
	DD	FLAT:?GetBufferedFrames@VideoEncoder@@UAEHXZ
	DD	FLAT:?HasBufferedFrames@VideoEncoder@@UAE_NXZ
CONST	ENDS
;	COMDAT ??_R0?AUmfxFrameData@@@8
data$r	SEGMENT
??_R0?AUmfxFrameData@@@8 DD FLAT:??_7type_info@@6B@	; mfxFrameData `RTTI Type Descriptor'
	DD	00H
	DB	'.?AUmfxFrameData@@', 00H
data$r	ENDS
;	COMDAT ??_R4QSVEncoder@@6B@
rdata$r	SEGMENT
??_R4QSVEncoder@@6B@ DD 00H				; QSVEncoder::`RTTI Complete Object Locator'
	DD	00H
	DD	00H
	DD	FLAT:??_R0?AVQSVEncoder@@@8
	DD	FLAT:??_R3QSVEncoder@@8
rdata$r	ENDS
;	COMDAT ??_R0?AUencode_task@QSVEncoder@@@8
data$r	SEGMENT
??_R0?AUencode_task@QSVEncoder@@@8 DD FLAT:??_7type_info@@6B@ ; QSVEncoder::encode_task `RTTI Type Descriptor'
	DD	00H
	DB	'.?AUencode_task@QSVEncoder@@', 00H
data$r	ENDS
;	COMDAT ??_7QSVEncoder@@6B@
CONST	SEGMENT
??_7QSVEncoder@@6B@ DD FLAT:??_R4QSVEncoder@@6B@	; QSVEncoder::`vftable'
	DD	FLAT:?Encode@QSVEncoder@@UAE_NPAXAAV?$List@UDataPacket@@@@AAV?$List@W4PacketType@@@@KAAK@Z
	DD	FLAT:?RequestBuffers@QSVEncoder@@UAEXPAX@Z
	DD	FLAT:??_EQSVEncoder@@UAEPAXI@Z
	DD	FLAT:?GetBitRate@QSVEncoder@@UBEHXZ
	DD	FLAT:?DynamicBitrateSupported@QSVEncoder@@UBE_NXZ
	DD	FLAT:?SetBitRate@QSVEncoder@@UAE_NKK@Z
	DD	FLAT:?GetHeaders@QSVEncoder@@UAEXAAUDataPacket@@@Z
	DD	FLAT:?GetSEI@QSVEncoder@@UAEXAAUDataPacket@@@Z
	DD	FLAT:?RequestKeyframe@QSVEncoder@@UAEXXZ
	DD	FLAT:?GetInfoString@QSVEncoder@@UBE?AVString@@XZ
	DD	FLAT:?isQSV@QSVEncoder@@UAE_NXZ
	DD	FLAT:?GetBufferedFrames@VideoEncoder@@UAEHXZ
	DD	FLAT:?HasBufferedFrames@QSVEncoder@@UAE_NXZ
CONST	ENDS
;	COMDAT ?emulation_prevention_pattern@?CF@??ProcessEncodedFrame@QSVEncoder@@QAEXAAV?$List@UDataPacket@@@@AAV?$List@W4PacketType@@@@KAAKI@Z@4QBEB
CONST	SEGMENT
?emulation_prevention_pattern@?CF@??ProcessEncodedFrame@QSVEncoder@@QAEXAAV?$List@UDataPacket@@@@AAV?$List@W4PacketType@@@@KAAKI@Z@4QBEB DB 00H ; `QSVEncoder::ProcessEncodedFrame'::`37'::emulation_prevention_pattern
	DB	00H
	DB	03H
?usageStr@?A0x7e09c670@@3PAPB_WA DD FLAT:$SG4294870656	; `anonymous namespace'::usageStr
	DD	FLAT:$SG4294870655
	DD	FLAT:$SG4294870654
	DD	FLAT:$SG4294870653
	DD	FLAT:$SG4294870652
	DD	FLAT:$SG4294870651
	DD	FLAT:$SG4294870650
	DD	FLAT:$SG4294870649
?rate_control_str@?A0x7e09c670@@3PAU<unnamed-type-rate_control_str>@1@A DW 01H ; `anonymous namespace'::rate_control_str
	ORG $+2
	DD	FLAT:$SG4294870648
	DB	00H
	ORG $+3
	DW	02H
	ORG $+2
	DD	FLAT:$SG4294870647
	DB	00H
	ORG $+3
	DW	03H
	ORG $+2
	DD	FLAT:$SG4294870646
	DB	01H
	ORG $+3
	DW	04H
	ORG $+2
	DD	FLAT:$SG4294870645
	DB	00H
	ORG $+3
	DW	08H
	ORG $+2
	DD	FLAT:$SG4294870644
	DB	00H
	ORG $+3
	DW	09H
	ORG $+2
	DD	FLAT:$SG4294870643
	DB	01H
	ORG $+3
	DW	0aH
	ORG $+2
	DD	FLAT:$SG4294870642
	DB	00H
	ORG $+3
	DW	0bH
	ORG $+2
	DD	FLAT:$SG4294870641
	DB	01H
	ORG $+3
?implStr@?A0x7e09c670@@3PAPB_WA DD FLAT:$SG4294870665	; `anonymous namespace'::implStr
	DD	FLAT:$SG4294870664
	DD	FLAT:$SG4294870663
	DD	FLAT:$SG4294870662
	DD	FLAT:$SG4294870661
	DD	FLAT:$SG4294870660
	DD	FLAT:$SG4294870659
	DD	FLAT:$SG4294870658
	DD	FLAT:$SG4294870657
$SG4294870729 DB 00H
$SG4294870726 DB 00H
$SG4294870719 DB 00H
$SG4294870716 DB 00H
$SG4294870700 DB 00H
$SG4294870752 DB 'none', 00H
	ORG $+3
$SG4294870750 DB 'temporal', 00H
	ORG $+3
$SG4294870751 DB 'spatial', 00H
$SG4294870748 DB 'dia', 00H
$SG4294870749 DB 'auto', 00H
	ORG $+3
$SG4294870746 DB 'umh', 00H
$SG4294870747 DB 'hex', 00H
$SG4294870744 DB 'tesa', 00H
	ORG $+3
$SG4294870745 DB 'esa', 00H
$SG4294870742 DB 'strict', 00H
	ORG $+1
$SG4294870743 DB 'none', 00H
	ORG $+3
$SG4294870740 DB 'undef', 00H
	ORG $+2
$SG4294870741 DB 'normal', 00H
	ORG $+1
$SG4294870738 DB 'crop', 00H
	ORG $+3
$SG4294870739 DB 'show', 00H
	ORG $+3
$SG4294870736 DB 'pal', 00H
$SG4294870737 DB 'component', 00H
	ORG $+2
$SG4294870734 DB 'secam', 00H
	ORG $+2
$SG4294870735 DB 'ntsc', 00H
	ORG $+3
$SG4294870732 DB 'undef', 00H
	ORG $+2
$SG4294870733 DB 'mac', 00H
$SG4294870730 DB 'on', 00H
	ORG $+1
$SG4294870731 DB 'off', 00H
$SG4294870728 DB 'bt709', 00H
	ORG $+2
$SG4294870727 DB 'undef', 00H
	ORG $+2
$SG4294870724 DB 'bt470bg', 00H
$SG4294870725 DB 'bt470m', 00H
	ORG $+1
$SG4294870722 DB 'smpte240m', 00H
	ORG $+2
$SG4294870723 DB 'smpte170m', 00H
	ORG $+2
$SG4294870720 DB 'bt2020', 00H
	ORG $+1
$SG4294870721 DB 'film', 00H
	ORG $+3
$SG4294870718 DB 'bt709', 00H
	ORG $+2
$SG4294870717 DB 'undef', 00H
	ORG $+2
$SG4294870714 DB 'bt470bg', 00H
$SG4294870715 DB 'bt470m', 00H
	ORG $+1
$SG4294870712 DB 'smpte240m', 00H
	ORG $+2
$SG4294870713 DB 'smpte170m', 00H
	ORG $+2
$SG4294870710 DB 'log100', 00H
	ORG $+1
$SG4294870711 DB 'linear', 00H
	ORG $+1
$SG4294870708 DB 'iec61966-2-4', 00H
	ORG $+3
$SG4294870709 DB 'log316', 00H
	ORG $+1
$SG4294870706 DB 'iec61966-2-1', 00H
	ORG $+3
$SG4294870707 DB 'bt1361e', 00H
$SG4294870704 DB 'bt2020-12', 00H
	ORG $+2
$SG4294870705 DB 'bt2020-10', 00H
	ORG $+2
$SG4294870702 DB 'bt709', 00H
	ORG $+2
$SG4294870703 DB 'GBR', 00H
$SG4294870701 DB 'undef', 00H
	ORG $+2
$SG4294870698 DB 'bt470bg', 00H
$SG4294870699 DB 'fcc', 00H
$SG4294870696 DB 'smpte240m', 00H
	ORG $+2
$SG4294870697 DB 'smpte170m', 00H
	ORG $+2
$SG4294870694 DB 'bt2020nc', 00H
	ORG $+3
$SG4294870695 DB 'YCgCo', 00H
	ORG $+2
$SG4294870692 DB 'none', 00H
	ORG $+3
$SG4294870693 DB 'bt2020c', 00H
$SG4294870690 DB 'cbr', 00H
$SG4294870691 DB 'vbr', 00H
$SG4294870688 DB 'superfast', 00H
	ORG $+2
$SG4294870689 DB 'ultrafast', 00H
	ORG $+2
$SG4294870686 DB 'faster', 00H
	ORG $+1
$SG4294870687 DB 'veryfast', 00H
	ORG $+3
$SG4294870684 DB 'medium', 00H
	ORG $+1
$SG4294870685 DB 'fast', 00H
	ORG $+3
$SG4294870682 DB 'slower', 00H
	ORG $+1
$SG4294870683 DB 'slow', 00H
	ORG $+3
$SG4294870680 DB 'placebo', 00H
$SG4294870681 DB 'veryslow', 00H
	ORG $+3
$SG4294870678 DB 'animation', 00H
	ORG $+2
$SG4294870679 DB 'film', 00H
	ORG $+3
$SG4294870676 DB 'stillimage', 00H
	ORG $+1
$SG4294870677 DB 'grain', 00H
	ORG $+2
$SG4294870674 DB 'ssim', 00H
	ORG $+3
$SG4294870675 DB 'psnr', 00H
	ORG $+3
$SG4294870672 DB 'zerolatency', 00H
$SG4294870673 DB 'fastdecode', 00H
	ORG $+1
$SG4294870670 DB 'main', 00H
	ORG $+3
$SG4294870671 DB 'baseline', 00H
	ORG $+3
$SG4294870668 DB 'high10', 00H
	ORG $+1
$SG4294870669 DB 'high', 00H
	ORG $+3
$SG4294870666 DB 'high444', 00H
$SG4294870667 DB 'high422', 00H
$SG4294870664 DB 'M', 00H, 'F', 00H, 'X', 00H, '_', 00H, 'I', 00H, 'M', 00H
	DB	'P', 00H, 'L', 00H, '_', 00H, 'S', 00H, 'O', 00H, 'F', 00H, 'T'
	DB	00H, 'W', 00H, 'A', 00H, 'R', 00H, 'E', 00H, 00H, 00H
$SG4294870665 DB 'M', 00H, 'F', 00H, 'X', 00H, '_', 00H, 'I', 00H, 'M', 00H
	DB	'P', 00H, 'L', 00H, '_', 00H, 'A', 00H, 'U', 00H, 'T', 00H, 'O'
	DB	00H, 00H, 00H
$SG4294870662 DB 'M', 00H, 'F', 00H, 'X', 00H, '_', 00H, 'I', 00H, 'M', 00H
	DB	'P', 00H, 'L', 00H, '_', 00H, 'A', 00H, 'U', 00H, 'T', 00H, 'O'
	DB	00H, '_', 00H, 'A', 00H, 'N', 00H, 'Y', 00H, 00H, 00H
$SG4294870663 DB 'M', 00H, 'F', 00H, 'X', 00H, '_', 00H, 'I', 00H, 'M', 00H
	DB	'P', 00H, 'L', 00H, '_', 00H, 'H', 00H, 'A', 00H, 'R', 00H, 'D'
	DB	00H, 'W', 00H, 'A', 00H, 'R', 00H, 'E', 00H, 00H, 00H
$SG4294870660 DB 'M', 00H, 'F', 00H, 'X', 00H, '_', 00H, 'I', 00H, 'M', 00H
	DB	'P', 00H, 'L', 00H, '_', 00H, 'H', 00H, 'A', 00H, 'R', 00H, 'D'
	DB	00H, 'W', 00H, 'A', 00H, 'R', 00H, 'E', 00H, '2', 00H, 00H, 00H
	ORG $+2
$SG4294870661 DB 'M', 00H, 'F', 00H, 'X', 00H, '_', 00H, 'I', 00H, 'M', 00H
	DB	'P', 00H, 'L', 00H, '_', 00H, 'H', 00H, 'A', 00H, 'R', 00H, 'D'
	DB	00H, 'W', 00H, 'A', 00H, 'R', 00H, 'E', 00H, '_', 00H, 'A', 00H
	DB	'N', 00H, 'Y', 00H, 00H, 00H
$SG4294870658 DB 'M', 00H, 'F', 00H, 'X', 00H, '_', 00H, 'I', 00H, 'M', 00H
	DB	'P', 00H, 'L', 00H, '_', 00H, 'H', 00H, 'A', 00H, 'R', 00H, 'D'
	DB	00H, 'W', 00H, 'A', 00H, 'R', 00H, 'E', 00H, '4', 00H, 00H, 00H
	ORG $+2
$SG4294870659 DB 'M', 00H, 'F', 00H, 'X', 00H, '_', 00H, 'I', 00H, 'M', 00H
	DB	'P', 00H, 'L', 00H, '_', 00H, 'H', 00H, 'A', 00H, 'R', 00H, 'D'
	DB	00H, 'W', 00H, 'A', 00H, 'R', 00H, 'E', 00H, '3', 00H, 00H, 00H
	ORG $+2
$SG4294870656 DB 'M', 00H, 'F', 00H, 'X', 00H, '_', 00H, 'T', 00H, 'A', 00H
	DB	'R', 00H, 'G', 00H, 'E', 00H, 'T', 00H, 'U', 00H, 'S', 00H, 'A'
	DB	00H, 'G', 00H, 'E', 00H, '_', 00H, 'U', 00H, 'N', 00H, 'K', 00H
	DB	'N', 00H, 'O', 00H, 'W', 00H, 'N', 00H, 00H, 00H
$SG4294870657 DB 'M', 00H, 'F', 00H, 'X', 00H, '_', 00H, 'I', 00H, 'M', 00H
	DB	'P', 00H, 'L', 00H, '_', 00H, 'U', 00H, 'N', 00H, 'K', 00H, 'N'
	DB	00H, 'O', 00H, 'W', 00H, 'N', 00H, 00H, 00H
	ORG $+2
$SG4294870654 DB 'M', 00H, 'F', 00H, 'X', 00H, '_', 00H, 'T', 00H, 'A', 00H
	DB	'R', 00H, 'G', 00H, 'E', 00H, 'T', 00H, 'U', 00H, 'S', 00H, 'A'
	DB	00H, 'G', 00H, 'E', 00H, '_', 00H, '2', 00H, 00H, 00H
$SG4294870655 DB 'M', 00H, 'F', 00H, 'X', 00H, '_', 00H, 'T', 00H, 'A', 00H
	DB	'R', 00H, 'G', 00H, 'E', 00H, 'T', 00H, 'U', 00H, 'S', 00H, 'A'
	DB	00H, 'G', 00H, 'E', 00H, '_', 00H, '1', 00H, '_', 00H, 'B', 00H
	DB	'E', 00H, 'S', 00H, 'T', 00H, '_', 00H, 'Q', 00H, 'U', 00H, 'A'
	DB	00H, 'L', 00H, 'I', 00H, 'T', 00H, 'Y', 00H, 00H, 00H
	ORG $+2
$SG4294870652 DB 'M', 00H, 'F', 00H, 'X', 00H, '_', 00H, 'T', 00H, 'A', 00H
	DB	'R', 00H, 'G', 00H, 'E', 00H, 'T', 00H, 'U', 00H, 'S', 00H, 'A'
	DB	00H, 'G', 00H, 'E', 00H, '_', 00H, '4', 00H, '_', 00H, 'B', 00H
	DB	'A', 00H, 'L', 00H, 'A', 00H, 'N', 00H, 'C', 00H, 'E', 00H, 'D'
	DB	00H, 00H, 00H
	ORG $+2
$SG4294870653 DB 'M', 00H, 'F', 00H, 'X', 00H, '_', 00H, 'T', 00H, 'A', 00H
	DB	'R', 00H, 'G', 00H, 'E', 00H, 'T', 00H, 'U', 00H, 'S', 00H, 'A'
	DB	00H, 'G', 00H, 'E', 00H, '_', 00H, '3', 00H, 00H, 00H
$SG4294870650 DB 'M', 00H, 'F', 00H, 'X', 00H, '_', 00H, 'T', 00H, 'A', 00H
	DB	'R', 00H, 'G', 00H, 'E', 00H, 'T', 00H, 'U', 00H, 'S', 00H, 'A'
	DB	00H, 'G', 00H, 'E', 00H, '_', 00H, '6', 00H, 00H, 00H
$SG4294870651 DB 'M', 00H, 'F', 00H, 'X', 00H, '_', 00H, 'T', 00H, 'A', 00H
	DB	'R', 00H, 'G', 00H, 'E', 00H, 'T', 00H, 'U', 00H, 'S', 00H, 'A'
	DB	00H, 'G', 00H, 'E', 00H, '_', 00H, '5', 00H, 00H, 00H
$SG4294870648 DB 'CBR', 00H
$SG4294870649 DB 'M', 00H, 'F', 00H, 'X', 00H, '_', 00H, 'T', 00H, 'A', 00H
	DB	'R', 00H, 'G', 00H, 'E', 00H, 'T', 00H, 'U', 00H, 'S', 00H, 'A'
	DB	00H, 'G', 00H, 'E', 00H, '_', 00H, '7', 00H, '_', 00H, 'B', 00H
	DB	'E', 00H, 'S', 00H, 'T', 00H, '_', 00H, 'S', 00H, 'P', 00H, 'E'
	DB	00H, 'E', 00H, 'D', 00H, 00H, 00H
	ORG $+2
$SG4294870646 DB 'CQP', 00H
$SG4294870647 DB 'VBR', 00H
$SG4294870644 DB 'LA', 00H
	ORG $+1
$SG4294870645 DB 'AVBR', 00H
	ORG $+3
$SG4294870642 DB 'VCM', 00H
$SG4294870643 DB 'ICQ', 00H
$SG4294870640 DB ' ', 00H, '|', 00H, ' ', 00H, 'M', 00H, 'F', 00H, 'X', 00H
	DB	'_', 00H, 'I', 00H, 'M', 00H, 'P', 00H, 'L', 00H, '_', 00H, 'V'
	DB	00H, 'I', 00H, 'A', 00H, '_', 00H, 'A', 00H, 'N', 00H, 'Y', 00H
	DB	00H, 00H
$SG4294870641 DB 'LA_ICQ', 00H
	ORG $+1
$SG4294870638 DB ' ', 00H, '|', 00H, ' ', 00H, 'M', 00H, 'F', 00H, 'X', 00H
	DB	'_', 00H, 'I', 00H, 'M', 00H, 'P', 00H, 'L', 00H, '_', 00H, 'V'
	DB	00H, 'I', 00H, 'A', 00H, '_', 00H, 'D', 00H, '3', 00H, 'D', 00H
	DB	'1', 00H, '1', 00H, 00H, 00H
$SG4294870639 DB ' ', 00H, '|', 00H, ' ', 00H, 'M', 00H, 'F', 00H, 'X', 00H
	DB	'_', 00H, 'I', 00H, 'M', 00H, 'P', 00H, 'L', 00H, '_', 00H, 'V'
	DB	00H, 'I', 00H, 'A', 00H, '_', 00H, 'D', 00H, '3', 00H, 'D', 00H
	DB	'9', 00H, 00H, 00H
	ORG $+2
$SG4294870636 DB 'M', 00H, 'F', 00H, 'X', 00H, '_', 00H, 'P', 00H, 'R', 00H
	DB	'O', 00H, 'F', 00H, 'I', 00H, 'L', 00H, 'E', 00H, '_', 00H, 'U'
	DB	00H, 'N', 00H, 'K', 00H, 'N', 00H, 'O', 00H, 'W', 00H, 'N', 00H
	DB	00H, 00H
$SG4294870637 DB 00H, 00H
	ORG $+2
$SG4294870634 DB 'M', 00H, 'F', 00H, 'X', 00H, '_', 00H, 'P', 00H, 'R', 00H
	DB	'O', 00H, 'F', 00H, 'I', 00H, 'L', 00H, 'E', 00H, '_', 00H, 'A'
	DB	00H, 'V', 00H, 'C', 00H, '_', 00H, 'C', 00H, 'O', 00H, 'N', 00H
	DB	'S', 00H, 'T', 00H, 'R', 00H, 'A', 00H, 'I', 00H, 'N', 00H, 'T'
	DB	00H, '_', 00H, 'S', 00H, 'E', 00H, 'T', 00H, '1', 00H, 00H, 00H
$SG4294870635 DB 'M', 00H, 'F', 00H, 'X', 00H, '_', 00H, 'P', 00H, 'R', 00H
	DB	'O', 00H, 'F', 00H, 'I', 00H, 'L', 00H, 'E', 00H, '_', 00H, 'A'
	DB	00H, 'V', 00H, 'C', 00H, '_', 00H, 'C', 00H, 'O', 00H, 'N', 00H
	DB	'S', 00H, 'T', 00H, 'R', 00H, 'A', 00H, 'I', 00H, 'N', 00H, 'T'
	DB	00H, '_', 00H, 'S', 00H, 'E', 00H, 'T', 00H, '0', 00H, 00H, 00H
$SG4294870632 DB 'M', 00H, 'F', 00H, 'X', 00H, '_', 00H, 'P', 00H, 'R', 00H
	DB	'O', 00H, 'F', 00H, 'I', 00H, 'L', 00H, 'E', 00H, '_', 00H, 'A'
	DB	00H, 'V', 00H, 'C', 00H, '_', 00H, 'C', 00H, 'O', 00H, 'N', 00H
	DB	'S', 00H, 'T', 00H, 'R', 00H, 'A', 00H, 'I', 00H, 'N', 00H, 'T'
	DB	00H, '_', 00H, 'S', 00H, 'E', 00H, 'T', 00H, '3', 00H, 00H, 00H
$SG4294870633 DB 'M', 00H, 'F', 00H, 'X', 00H, '_', 00H, 'P', 00H, 'R', 00H
	DB	'O', 00H, 'F', 00H, 'I', 00H, 'L', 00H, 'E', 00H, '_', 00H, 'A'
	DB	00H, 'V', 00H, 'C', 00H, '_', 00H, 'C', 00H, 'O', 00H, 'N', 00H
	DB	'S', 00H, 'T', 00H, 'R', 00H, 'A', 00H, 'I', 00H, 'N', 00H, 'T'
	DB	00H, '_', 00H, 'S', 00H, 'E', 00H, 'T', 00H, '2', 00H, 00H, 00H
$SG4294870630 DB 'M', 00H, 'F', 00H, 'X', 00H, '_', 00H, 'P', 00H, 'R', 00H
	DB	'O', 00H, 'F', 00H, 'I', 00H, 'L', 00H, 'E', 00H, '_', 00H, 'A'
	DB	00H, 'V', 00H, 'C', 00H, '_', 00H, 'C', 00H, 'O', 00H, 'N', 00H
	DB	'S', 00H, 'T', 00H, 'R', 00H, 'A', 00H, 'I', 00H, 'N', 00H, 'T'
	DB	00H, '_', 00H, 'S', 00H, 'E', 00H, 'T', 00H, '5', 00H, 00H, 00H
$SG4294870631 DB 'M', 00H, 'F', 00H, 'X', 00H, '_', 00H, 'P', 00H, 'R', 00H
	DB	'O', 00H, 'F', 00H, 'I', 00H, 'L', 00H, 'E', 00H, '_', 00H, 'A'
	DB	00H, 'V', 00H, 'C', 00H, '_', 00H, 'C', 00H, 'O', 00H, 'N', 00H
	DB	'S', 00H, 'T', 00H, 'R', 00H, 'A', 00H, 'I', 00H, 'N', 00H, 'T'
	DB	00H, '_', 00H, 'S', 00H, 'E', 00H, 'T', 00H, '4', 00H, 00H, 00H
$SG4294870628 DB 'M', 00H, 'F', 00H, 'X', 00H, '_', 00H, 'P', 00H, 'R', 00H
	DB	'O', 00H, 'F', 00H, 'I', 00H, 'L', 00H, 'E', 00H, '_', 00H, 'A'
	DB	00H, 'V', 00H, 'C', 00H, '_', 00H, 'M', 00H, 'A', 00H, 'I', 00H
	DB	'N', 00H, 00H, 00H
	ORG $+2
$SG4294870629 DB 'M', 00H, 'F', 00H, 'X', 00H, '_', 00H, 'P', 00H, 'R', 00H
	DB	'O', 00H, 'F', 00H, 'I', 00H, 'L', 00H, 'E', 00H, '_', 00H, 'A'
	DB	00H, 'V', 00H, 'C', 00H, '_', 00H, 'B', 00H, 'A', 00H, 'S', 00H
	DB	'E', 00H, 'L', 00H, 'I', 00H, 'N', 00H, 'E', 00H, 00H, 00H
	ORG $+2
$SG4294870626 DB 'M', 00H, 'F', 00H, 'X', 00H, '_', 00H, 'P', 00H, 'R', 00H
	DB	'O', 00H, 'F', 00H, 'I', 00H, 'L', 00H, 'E', 00H, '_', 00H, 'A'
	DB	00H, 'V', 00H, 'C', 00H, '_', 00H, 'H', 00H, 'I', 00H, 'G', 00H
	DB	'H', 00H, 00H, 00H
	ORG $+2
$SG4294870627 DB 'M', 00H, 'F', 00H, 'X', 00H, '_', 00H, 'P', 00H, 'R', 00H
	DB	'O', 00H, 'F', 00H, 'I', 00H, 'L', 00H, 'E', 00H, '_', 00H, 'A'
	DB	00H, 'V', 00H, 'C', 00H, '_', 00H, 'E', 00H, 'X', 00H, 'T', 00H
	DB	'E', 00H, 'N', 00H, 'D', 00H, 'E', 00H, 'D', 00H, 00H, 00H
	ORG $+2
$SG4294870624 DB 'M', 00H, 'F', 00H, 'X', 00H, '_', 00H, 'P', 00H, 'R', 00H
	DB	'O', 00H, 'F', 00H, 'I', 00H, 'L', 00H, 'E', 00H, '_', 00H, 'A'
	DB	00H, 'V', 00H, 'C', 00H, '_', 00H, 'C', 00H, 'O', 00H, 'N', 00H
	DB	'S', 00H, 'T', 00H, 'R', 00H, 'A', 00H, 'I', 00H, 'N', 00H, 'E'
	DB	00H, 'D', 00H, '_', 00H, 'H', 00H, 'I', 00H, 'G', 00H, 'H', 00H
	DB	00H, 00H
	ORG $+2
$SG4294870622 DB 'U', 00H, 'N', 00H, 'K', 00H, 'N', 00H, 'O', 00H, 'W', 00H
	DB	'N', 00H, 00H, 00H
$SG4294870621 DB '/', 00H
	ORG $+2
$SG4294870625 DB 'M', 00H, 'F', 00H, 'X', 00H, '_', 00H, 'P', 00H, 'R', 00H
	DB	'O', 00H, 'F', 00H, 'I', 00H, 'L', 00H, 'E', 00H, '_', 00H, 'A'
	DB	00H, 'V', 00H, 'C', 00H, '_', 00H, 'C', 00H, 'O', 00H, 'N', 00H
	DB	'S', 00H, 'T', 00H, 'R', 00H, 'A', 00H, 'I', 00H, 'N', 00H, 'E'
	DB	00H, 'D', 00H, '_', 00H, 'B', 00H, 'A', 00H, 'S', 00H, 'E', 00H
	DB	'L', 00H, 'I', 00H, 'N', 00H, 'E', 00H, 00H, 00H
	ORG $+2
$SG4294870618 DB '%', 00H, 's', 00H, '%', 00H, 'u', 00H, 00H, 00H
	ORG $+2
$SG4294870623 DB 'M', 00H, 'F', 00H, 'X', 00H, '_', 00H, 'P', 00H, 'R', 00H
	DB	'O', 00H, 'F', 00H, 'I', 00H, 'L', 00H, 'E', 00H, '_', 00H, 'A'
	DB	00H, 'V', 00H, 'C', 00H, '_', 00H, 'P', 00H, 'R', 00H, 'O', 00H
	DB	'G', 00H, 'R', 00H, 'E', 00H, 'S', 00H, 'S', 00H, 'I', 00H, 'V'
	DB	00H, 'E', 00H, '_', 00H, 'H', 00H, 'I', 00H, 'G', 00H, 'H', 00H
	DB	00H, 00H
	ORG $+2
$SG4294870620 DB 'QSVHelper.exe', 00H
	ORG $+2
$SG4294870619 DB ' ', 00H
	ORG $+2
$SG4294870617 DB 'GenuineIntel', 00H
	ORG $+3
$SG4294870612 DB 'i', 00H, 'n', 00H, 'i', 00H, 't', 00H, '_', 00H, 'r', 00H
	DB	'e', 00H, 'q', 00H, 'u', 00H, 'e', 00H, 's', 00H, 't', 00H, 00H
	DB	00H
	ORG $+2
$SG4294870424 DB 'E', 00H, 'n', 00H, 'c', 00H, 'o', 00H, 'd', 00H, 'e', 00H
	DB	'r', 00H, '.', 00H, 'Q', 00H, 'S', 00H, 'V', 00H, '.', 00H, 'I'
	DB	00H, 'P', 00H, 'C', 00H, 'I', 00H, 'n', 00H, 'i', 00H, 't', 00H
	DB	00H, 00H
$SG4294870423 DB 'E', 00H, 'n', 00H, 'c', 00H, 'o', 00H, 'd', 00H, 'e', 00H
	DB	'r', 00H, '.', 00H, 'Q', 00H, 'S', 00H, 'V', 00H, '.', 00H, 'N'
	DB	00H, 'o', 00H, 'H', 00H, 'a', 00H, 'r', 00H, 'd', 00H, 'w', 00H
	DB	'a', 00H, 'r', 00H, 'e', 00H, 'S', 00H, 'u', 00H, 'p', 00H, 'p'
	DB	00H, 'o', 00H, 'r', 00H, 't', 00H, 00H, 00H
$SG4294870610 DB 'N', 00H, 'o', 00H, ' ', 00H, 'I', 00H, 'n', 00H, 't', 00H
	DB	'e', 00H, 'l', 00H, ' ', 00H, 'g', 00H, 'r', 00H, 'a', 00H, 'p'
	DB	00H, 'h', 00H, 'i', 00H, 'c', 00H, 's', 00H, ' ', 00H, 'a', 00H
	DB	'd', 00H, 'a', 00H, 'p', 00H, 't', 00H, 'e', 00H, 'r', 00H, ' '
	DB	00H, 'v', 00H, 'i', 00H, 's', 00H, 'i', 00H, 'b', 00H, 'l', 00H
	DB	'e', 00H, ' ', 00H, 'i', 00H, 'n', 00H, ' ', 00H, 'Q', 00H, 'S'
	DB	00H, 'V', 00H, 'H', 00H, 'e', 00H, 'l', 00H, 'p', 00H, 'e', 00H
	DB	'r', 00H, '.', 00H, 'e', 00H, 'x', 00H, 'e', 00H, ',', 00H, ' '
	DB	00H, 'O', 00H, 'p', 00H, 't', 00H, 'i', 00H, 'm', 00H, 'u', 00H
	DB	's', 00H, ' ', 00H, 'p', 00H, 'r', 00H, 'o', 00H, 'b', 00H, 'l'
	DB	00H, 'e', 00H, 'm', 00H, '?', 00H, 00H, 00H
	ORG $+2
$SG4294870611 DB 'F', 00H, 'o', 00H, 'u', 00H, 'n', 00H, 'd', 00H, ' ', 00H
	DB	'Q', 00H, 'S', 00H, 'V', 00H, ' ', 00H, 'h', 00H, 'a', 00H, 'r'
	DB	00H, 'd', 00H, 'w', 00H, 'a', 00H, 'r', 00H, 'e', 00H, ' ', 00H
	DB	's', 00H, 'u', 00H, 'p', 00H, 'p', 00H, 'o', 00H, 'r', 00H, 't'
	DB	00H, 00H, 00H
	ORG $+3
$SG4294870609 DB 'F', 00H, 'a', 00H, 'i', 00H, 'l', 00H, 'e', 00H, 'd', 00H
	DB	' ', 00H, 't', 00H, 'o', 00H, ' ', 00H, 'i', 00H, 'n', 00H, 'i'
	DB	00H, 't', 00H, 'i', 00H, 'a', 00H, 'l', 00H, 'i', 00H, 'z', 00H
	DB	'e', 00H, ' ', 00H, 'Q', 00H, 'S', 00H, 'V', 00H, ' ', 00H, 'h'
	DB	00H, 'a', 00H, 'r', 00H, 'd', 00H, 'w', 00H, 'a', 00H, 'r', 00H
	DB	'e', 00H, ' ', 00H, 's', 00H, 'e', 00H, 's', 00H, 's', 00H, 'i'
	DB	00H, 'o', 00H, 'n', 00H, 00H, 00H
$SG4294870430 DB 'Q', 00H, 'S', 00H, 'V', 00H, ' ', 00H, '(', 00H, 'A', 00H
	DB	'd', 00H, 'v', 00H, 'a', 00H, 'n', 00H, 'c', 00H, 'e', 00H, 'd'
	DB	00H, ')', 00H, 00H, 00H
	ORG $+2
$SG4294870428 DB 'Q', 00H, 'S', 00H, 'V', 00H, ' ', 00H, '(', 00H, 'A', 00H
	DB	'd', 00H, 'v', 00H, 'a', 00H, 'n', 00H, 'c', 00H, 'e', 00H, 'd'
	DB	00H, ')', 00H, 00H, 00H
	ORG $+2
$SG4294870429 DB 'Q', 00H, 'S', 00H, 'V', 00H, ' ', 00H, '(', 00H, 'A', 00H
	DB	'd', 00H, 'v', 00H, 'a', 00H, 'n', 00H, 'c', 00H, 'e', 00H, 'd'
	DB	00H, ')', 00H, 00H, 00H
	ORG $+2
$SG4294870426 DB 'Q', 00H, 'S', 00H, 'V', 00H, ' ', 00H, '(', 00H, 'A', 00H
	DB	'd', 00H, 'v', 00H, 'a', 00H, 'n', 00H, 'c', 00H, 'e', 00H, 'd'
	DB	00H, ')', 00H, 00H, 00H
	ORG $+2
$SG4294870427 DB 'Q', 00H, 'S', 00H, 'V', 00H, ' ', 00H, '(', 00H, 'A', 00H
	DB	'd', 00H, 'v', 00H, 'a', 00H, 'n', 00H, 'c', 00H, 'e', 00H, 'd'
	DB	00H, ')', 00H, 00H, 00H
$SG4294870425 DB 'F', 00H, 'a', 00H, 'i', 00H, 'l', 00H, 'e', 00H, 'd', 00H
	DB	' ', 00H, 't', 00H, 'o', 00H, ' ', 00H, 'i', 00H, 'n', 00H, 'i'
	DB	00H, 't', 00H, 'i', 00H, 'a', 00H, 'l', 00H, 'i', 00H, 'z', 00H
	DB	'e', 00H, ' ', 00H, 'Q', 00H, 'S', 00H, 'V', 00H, ' ', 00H, 'I'
	DB	00H, 'P', 00H, 'C', 00H, ' ', 00H, '''', 00H, '%', 00H, 's', 00H
	DB	'''', 00H, ' ', 00H, '(', 00H, 'f', 00H, 'u', 00H, 'l', 00H, 'l'
	DB	00H, ' ', 00H, 'n', 00H, 'a', 00H, 'm', 00H, 'e', 00H, ':', 00H
	DB	' ', 00H, '''', 00H, '%', 00H, 's', 00H, '''', 00H, ')', 00H, ' '
	DB	00H, '(', 00H, '%', 00H, 'u', 00H, ')', 00H, 00H, 00H
$SG4294870422 DB 'Q', 00H, 'S', 00H, 'V', 00H, ':', 00H, ' ', 00H, 'O', 00H
	DB	'u', 00H, 't', 00H, 'p', 00H, 'u', 00H, 't', 00H, ' ', 00H, 'r'
	DB	00H, 'e', 00H, 's', 00H, 'o', 00H, 'l', 00H, 'u', 00H, 't', 00H
	DB	'i', 00H, 'o', 00H, 'n', 00H, ' ', 00H, 'o', 00H, 'f', 00H, ' '
	DB	00H, '%', 00H, 'u', 00H, 'x', 00H, '%', 00H, 'u', 00H, ' ', 00H
	DB	'e', 00H, 'x', 00H, 'c', 00H, 'e', 00H, 'e', 00H, 'd', 00H, 's'
	DB	00H, ' ', 00H, 't', 00H, 'h', 00H, 'e', 00H, ' ', 00H, 'm', 00H
	DB	'a', 00H, 'x', 00H, 'i', 00H, 'm', 00H, 'u', 00H, 'm', 00H, ' '
	DB	00H, 'o', 00H, 'f', 00H, ' ', 00H, '1', 00H, '9', 00H, '2', 00H
	DB	'0', 00H, 'x', 00H, '1', 00H, '2', 00H, '0', 00H, '0', 00H, ' '
	DB	00H, 's', 00H, 'u', 00H, 'p', 00H, 'p', 00H, 'o', 00H, 'r', 00H
	DB	't', 00H, 'e', 00H, 'd', 00H, ' ', 00H, 'b', 00H, 'y', 00H, ' '
	DB	00H, 'Q', 00H, 'u', 00H, 'i', 00H, 'c', 00H, 'k', 00H, 'S', 00H
	DB	'y', 00H, 'n', 00H, 'c', 00H, ' ', 00H, 'o', 00H, 'n', 00H, ' '
	DB	00H, 'S', 00H, 'a', 00H, 'n', 00H, 'd', 00H, 'y', 00H, ' ', 00H
	DB	'B', 00H, 'r', 00H, 'i', 00H, 'd', 00H, 'g', 00H, 'e', 00H, ' '
	DB	00H, 'a', 00H, 'n', 00H, 'd', 00H, ' ', 00H, 'I', 00H, 'v', 00H
	DB	'y', 00H, ' ', 00H, 'B', 00H, 'r', 00H, 'i', 00H, 'd', 00H, 'g'
	DB	00H, 'e', 00H, ' ', 00H, 'b', 00H, 'a', 00H, 's', 00H, 'e', 00H
	DB	'd', 00H, ' ', 00H, 'p', 00H, 'r', 00H, 'o', 00H, 'c', 00H, 'e'
	DB	00H, 's', 00H, 's', 00H, 'o', 00H, 'r', 00H, 's', 00H, 00H, 00H
$SG4294870420 DB 'Q', 00H, 'S', 00H, 'V', 00H, ':', 00H, ' ', 00H, 'O', 00H
	DB	'u', 00H, 't', 00H, 'p', 00H, 'u', 00H, 't', 00H, ' ', 00H, 'r'
	DB	00H, 'e', 00H, 's', 00H, 'o', 00H, 'l', 00H, 'u', 00H, 't', 00H
	DB	'i', 00H, 'o', 00H, 'n', 00H, ' ', 00H, 'w', 00H, 'i', 00H, 'd'
	DB	00H, 't', 00H, 'h', 00H, ' ', 00H, 'o', 00H, 'f', 00H, ' ', 00H
	DB	'%', 00H, 'u', 00H, ' ', 00H, 'e', 00H, 'x', 00H, 'c', 00H, 'e'
	DB	00H, 'e', 00H, 'd', 00H, 's', 00H, ' ', 00H, 't', 00H, 'h', 00H
	DB	'e', 00H, ' ', 00H, 'm', 00H, 'a', 00H, 'x', 00H, 'i', 00H, 'm'
	DB	00H, 'u', 00H, 'm', 00H, ' ', 00H, 'o', 00H, 'f', 00H, ' ', 00H
	DB	'1', 00H, '9', 00H, '2', 00H, '0', 00H, ' ', 00H, 's', 00H, 'u'
	DB	00H, 'p', 00H, 'p', 00H, 'o', 00H, 'r', 00H, 't', 00H, 'e', 00H
	DB	'd', 00H, ' ', 00H, 'b', 00H, 'y', 00H, ' ', 00H, 'Q', 00H, 'u'
	DB	00H, 'i', 00H, 'c', 00H, 'k', 00H, 'S', 00H, 'y', 00H, 'n', 00H
	DB	'c', 00H, ' ', 00H, 'o', 00H, 'n', 00H, ' ', 00H, 'S', 00H, 'a'
	DB	00H, 'n', 00H, 'd', 00H, 'y', 00H, ' ', 00H, 'B', 00H, 'r', 00H
	DB	'i', 00H, 'd', 00H, 'g', 00H, 'e', 00H, ' ', 00H, 'a', 00H, 'n'
	DB	00H, 'd', 00H, ' ', 00H, 'I', 00H, 'v', 00H, 'y', 00H, ' ', 00H
	DB	'B', 00H, 'r', 00H, 'i', 00H, 'd', 00H, 'g', 00H, 'e', 00H, ' '
	DB	00H, 'b', 00H, 'a', 00H, 's', 00H, 'e', 00H, 'd', 00H, ' ', 00H
	DB	'p', 00H, 'r', 00H, 'o', 00H, 'c', 00H, 'e', 00H, 's', 00H, 's'
	DB	00H, 'o', 00H, 'r', 00H, 's', 00H, 00H, 00H
$SG4294870421 DB 'E', 00H, 'n', 00H, 'c', 00H, 'o', 00H, 'd', 00H, 'e', 00H
	DB	'r', 00H, '.', 00H, 'Q', 00H, 'S', 00H, 'V', 00H, '.', 00H, 'S'
	DB	00H, 'N', 00H, 'B', 00H, 'I', 00H, 'V', 00H, 'B', 00H, 'M', 00H
	DB	'a', 00H, 'x', 00H, 'i', 00H, 'm', 00H, 'u', 00H, 'm', 00H, 'R'
	DB	00H, 'e', 00H, 's', 00H, 'o', 00H, 'l', 00H, 'u', 00H, 't', 00H
	DB	'i', 00H, 'o', 00H, 'n', 00H, 'W', 00H, 'i', 00H, 'd', 00H, 't'
	DB	00H, 'h', 00H, 'H', 00H, 'e', 00H, 'i', 00H, 'g', 00H, 'h', 00H
	DB	't', 00H, 'E', 00H, 'x', 00H, 'c', 00H, 'e', 00H, 'e', 00H, 'd'
	DB	00H, 'e', 00H, 'd', 00H, 00H, 00H
	ORG $+2
$SG4294870418 DB 'Q', 00H, 'S', 00H, 'V', 00H, ':', 00H, ' ', 00H, 'O', 00H
	DB	'u', 00H, 't', 00H, 'p', 00H, 'u', 00H, 't', 00H, ' ', 00H, 'r'
	DB	00H, 'e', 00H, 's', 00H, 'o', 00H, 'l', 00H, 'u', 00H, 't', 00H
	DB	'i', 00H, 'o', 00H, 'n', 00H, ' ', 00H, 'h', 00H, 'e', 00H, 'i'
	DB	00H, 'g', 00H, 'h', 00H, 't', 00H, ' ', 00H, 'o', 00H, 'f', 00H
	DB	' ', 00H, '%', 00H, 'u', 00H, ' ', 00H, 'e', 00H, 'x', 00H, 'c'
	DB	00H, 'e', 00H, 'e', 00H, 'd', 00H, 's', 00H, ' ', 00H, 't', 00H
	DB	'h', 00H, 'e', 00H, ' ', 00H, 'm', 00H, 'a', 00H, 'x', 00H, 'i'
	DB	00H, 'm', 00H, 'u', 00H, 'm', 00H, ' ', 00H, 'o', 00H, 'f', 00H
	DB	' ', 00H, '1', 00H, '2', 00H, '0', 00H, '0', 00H, ' ', 00H, 's'
	DB	00H, 'u', 00H, 'p', 00H, 'p', 00H, 'o', 00H, 'r', 00H, 't', 00H
	DB	'e', 00H, 'd', 00H, ' ', 00H, 'b', 00H, 'y', 00H, ' ', 00H, 'Q'
	DB	00H, 'u', 00H, 'i', 00H, 'c', 00H, 'k', 00H, 'S', 00H, 'y', 00H
	DB	'n', 00H, 'c', 00H, ' ', 00H, 'o', 00H, 'n', 00H, ' ', 00H, 'S'
	DB	00H, 'a', 00H, 'n', 00H, 'd', 00H, 'y', 00H, ' ', 00H, 'B', 00H
	DB	'r', 00H, 'i', 00H, 'd', 00H, 'g', 00H, 'e', 00H, ' ', 00H, 'a'
	DB	00H, 'n', 00H, 'd', 00H, ' ', 00H, 'I', 00H, 'v', 00H, 'y', 00H
	DB	' ', 00H, 'B', 00H, 'r', 00H, 'i', 00H, 'd', 00H, 'g', 00H, 'e'
	DB	00H, ' ', 00H, 'b', 00H, 'a', 00H, 's', 00H, 'e', 00H, 'd', 00H
	DB	' ', 00H, 'p', 00H, 'r', 00H, 'o', 00H, 'c', 00H, 'e', 00H, 's'
	DB	00H, 's', 00H, 'o', 00H, 'r', 00H, 's', 00H, 00H, 00H
	ORG $+2
$SG4294870419 DB 'E', 00H, 'n', 00H, 'c', 00H, 'o', 00H, 'd', 00H, 'e', 00H
	DB	'r', 00H, '.', 00H, 'Q', 00H, 'S', 00H, 'V', 00H, '.', 00H, 'S'
	DB	00H, 'N', 00H, 'B', 00H, 'I', 00H, 'V', 00H, 'B', 00H, 'M', 00H
	DB	'a', 00H, 'x', 00H, 'i', 00H, 'm', 00H, 'u', 00H, 'm', 00H, 'R'
	DB	00H, 'e', 00H, 's', 00H, 'o', 00H, 'l', 00H, 'u', 00H, 't', 00H
	DB	'i', 00H, 'o', 00H, 'n', 00H, 'W', 00H, 'i', 00H, 'd', 00H, 't'
	DB	00H, 'h', 00H, 'E', 00H, 'x', 00H, 'c', 00H, 'e', 00H, 'e', 00H
	DB	'd', 00H, 'e', 00H, 'd', 00H, 00H, 00H
	ORG $+2
$SG4294870416 DB 'C', 00H, 'a', 00H, 'u', 00H, 'g', 00H, 'h', 00H, 't', 00H
	DB	' ', 00H, 'u', 00H, 'n', 00H, 'h', 00H, 'a', 00H, 'n', 00H, 'd'
	DB	00H, 'l', 00H, 'e', 00H, 'd', 00H, ' ', 00H, 'e', 00H, 'x', 00H
	DB	'c', 00H, 'e', 00H, 'p', 00H, 't', 00H, 'i', 00H, 'o', 00H, 'n'
	DB	00H, 00H, 00H
$SG4294870417 DB 'E', 00H, 'n', 00H, 'c', 00H, 'o', 00H, 'd', 00H, 'e', 00H
	DB	'r', 00H, '.', 00H, 'Q', 00H, 'S', 00H, 'V', 00H, '.', 00H, 'S'
	DB	00H, 'N', 00H, 'B', 00H, 'I', 00H, 'V', 00H, 'B', 00H, 'M', 00H
	DB	'a', 00H, 'x', 00H, 'i', 00H, 'm', 00H, 'u', 00H, 'm', 00H, 'R'
	DB	00H, 'e', 00H, 's', 00H, 'o', 00H, 'l', 00H, 'u', 00H, 't', 00H
	DB	'i', 00H, 'o', 00H, 'n', 00H, 'H', 00H, 'e', 00H, 'i', 00H, 'g'
	DB	00H, 'h', 00H, 't', 00H, 'E', 00H, 'x', 00H, 'c', 00H, 'e', 00H
	DB	'e', 00H, 'd', 00H, 'e', 00H, 'd', 00H, 00H, 00H
$SG4294870415 DB 'E', 00H, 'n', 00H, 'c', 00H, 'o', 00H, 'd', 00H, 'e', 00H
	DB	'r', 00H, '.', 00H, 'Q', 00H, 'S', 00H, 'V', 00H, '.', 00H, 'E'
	DB	00H, 'x', 00H, 'c', 00H, 'e', 00H, 'e', 00H, 'd', 00H, 'e', 00H
	DB	'd', 00H, 'R', 00H, 'e', 00H, 's', 00H, 'o', 00H, 'l', 00H, 'u'
	DB	00H, 't', 00H, 'i', 00H, 'o', 00H, 'n', 00H, 'H', 00H, 'e', 00H
	DB	'l', 00H, 'p', 00H, 00H, 00H
PUBLIC	??$_Distance2@PBEH@std@@YAXPBE0AAHUrandom_access_iterator_tag@0@@Z ; std::_Distance2<unsigned char const *,int>
PUBLIC	??$_Iter_cat@PBE@std@@YA?AUrandom_access_iterator_tag@0@ABQBE@Z ; std::_Iter_cat<unsigned char const *>
PUBLIC	??$_Distance2@PAEH@std@@YAXPAE0AAHUrandom_access_iterator_tag@0@@Z ; std::_Distance2<unsigned char *,int>
PUBLIC	??$_Iter_cat@PAE@std@@YA?AUrandom_access_iterator_tag@0@ABQAE@Z ; std::_Iter_cat<unsigned char *>
PUBLIC	??$_Uninit_move@PAXPAXPAX@std@@YAPAPAXPAPAX00AAU?$_Wrap_alloc@V?$allocator@PAX@std@@@0@0U_Scalar_ptr_iterator_tag@0@@Z ; std::_Uninit_move<void *,void *,void *>
PUBLIC	??$_Val_type@PAPAX@std@@YAPAPAXPAPAX@Z		; std::_Val_type<void * *>
PUBLIC	??$_Uninit_copy@PAXPAX@std@@YAPAPAXPAPAX00AAU?$_Wrap_alloc@V?$allocator@PAX@std@@@0@U_Scalar_ptr_iterator_tag@0@@Z ; std::_Uninit_copy<void *,void *>
PUBLIC	??$_Uninit_copy@QAXPAX@std@@YAPAPAXPBQAX0PAPAXAAU?$_Wrap_alloc@V?$allocator@PAX@std@@@0@U_Scalar_ptr_iterator_tag@0@@Z ; std::_Uninit_copy<void * const,void *>
PUBLIC	??$_Ptr_cat@PAXPAX@std@@YA?AU_Scalar_ptr_iterator_tag@0@PBQAXPAPAX@Z ; std::_Ptr_cat<void *,void *>
PUBLIC	??$?RAAEABE@?$equal_to@X@std@@QBE_NAAEABE@Z	; std::equal_to<void>::operator()<unsigned char &,unsigned char const &>
PUBLIC	??$_Distance@PBEH@std@@YAXPBE0AAH@Z		; std::_Distance<unsigned char const *,int>
PUBLIC	??$_Distance@PAEH@std@@YAXPAE0AAH@Z		; std::_Distance<unsigned char *,int>
PUBLIC	?_Unchecked@?$_Vector_const_iterator@V?$_Vector_val@U?$_Simple_types@PAX@std@@@std@@@std@@QBEPBQAXXZ ; std::_Vector_const_iterator<std::_Vector_val<std::_Simple_types<void *> > >::_Unchecked
PUBLIC	??$_Uninit_move@PAPAXPAPAXU?$_Wrap_alloc@V?$allocator@PAX@std@@@std@@@std@@YAPAPAXPAPAX00AAU?$_Wrap_alloc@V?$allocator@PAX@std@@@0@@Z ; std::_Uninit_move<void * *,void * *,std::_Wrap_alloc<std::allocator<void *> > >
PUBLIC	??$destroy@PA_W@?$allocator@_W@std@@QAEXPAPA_W@Z ; std::allocator<wchar_t>::destroy<wchar_t *>
PUBLIC	??$construct@PA_WAAPA_W@?$allocator@_W@std@@QAEXPAPA_WAAPA_W@Z ; std::allocator<wchar_t>::construct<wchar_t *,wchar_t * &>
PUBLIC	??$construct@PAXAAPAX@?$allocator@PAX@std@@QAEXPAPAXAAPAX@Z ; std::allocator<void *>::construct<void *,void * &>
PUBLIC	??$_Uninit_copy@PAPAXPAPAXU?$_Wrap_alloc@V?$allocator@PAX@std@@@std@@@std@@YAPAPAXPAPAX00AAU?$_Wrap_alloc@V?$allocator@PAX@std@@@0@@Z ; std::_Uninit_copy<void * *,void * *,std::_Wrap_alloc<std::allocator<void *> > >
PUBLIC	??$?8PAXPAX@std@@YA_NABV?$allocator@PAX@0@0@Z	; std::operator==<void *,void *>
PUBLIC	??$_Rechecked@PAPAXPAPAX@std@@YAAAPAPAXAAPAPAXPAPAX@Z ; std::_Rechecked<void * *,void * *>
PUBLIC	??$_Uninit_copy@PBQAXPAPAXU?$_Wrap_alloc@V?$allocator@PAX@std@@@std@@@std@@YAPAPAXPBQAX0PAPAXAAU?$_Wrap_alloc@V?$allocator@PAX@std@@@0@@Z ; std::_Uninit_copy<void * const *,void * *,std::_Wrap_alloc<std::allocator<void *> > >
PUBLIC	??$_Unchecked@PAPAX@std@@YAPAPAXPAPAX@Z		; std::_Unchecked<void * *>
PUBLIC	??$_Unchecked@V?$_Vector_val@U?$_Simple_types@PAX@std@@@std@@@std@@YAPBQAXV?$_Vector_const_iterator@V?$_Vector_val@U?$_Simple_types@PAX@std@@@std@@@0@@Z ; std::_Unchecked<std::_Vector_val<std::_Simple_types<void *> > >
PUBLIC	??$_Search@PAEPBEHHU?$equal_to@X@std@@@std@@YAPAEPAE0PBE1U?$equal_to@X@0@PAH3@Z ; std::_Search<unsigned char *,unsigned char const *,int,int,std::equal_to<void> >
PUBLIC	??$_Dist_type@PBE@std@@YAPAHPBE@Z		; std::_Dist_type<unsigned char const *>
PUBLIC	??$_Dist_type@PAE@std@@YAPAHPAE@Z		; std::_Dist_type<unsigned char *>
PUBLIC	??$_Unchecked@PBE@std@@YAPBEPBE@Z		; std::_Unchecked<unsigned char const *>
PUBLIC	?construct@?$allocator@PAX@std@@QAEXPAPAXABQAX@Z ; std::allocator<void *>::construct
PUBLIC	??$_Uninitialized_move@PAPAXPAPAXU?$_Wrap_alloc@V?$allocator@PAX@std@@@std@@@std@@YAPAPAXPAPAX00AAU?$_Wrap_alloc@V?$allocator@PAX@std@@@0@@Z ; std::_Uninitialized_move<void * *,void * *,std::_Wrap_alloc<std::allocator<void *> > >
PUBLIC	??$_Destroy_range@U?$_Wrap_alloc@V?$allocator@PAX@std@@@std@@@std@@YAXPAPAX0AAU?$_Wrap_alloc@V?$allocator@PAX@std@@@0@U_Scalar_ptr_iterator_tag@0@@Z ; std::_Destroy_range<std::_Wrap_alloc<std::allocator<void *> > >
PUBLIC	??$destroy@PA_W@?$allocator_traits@V?$allocator@_W@std@@@std@@SAXAAV?$allocator@_W@1@PAPA_W@Z ; std::allocator_traits<std::allocator<wchar_t> >::destroy<wchar_t *>
PUBLIC	??$construct@PA_WAAPA_W@?$allocator_traits@V?$allocator@_W@std@@@std@@SAXAAV?$allocator@_W@1@PAPA_WAAPA_W@Z ; std::allocator_traits<std::allocator<wchar_t> >::construct<wchar_t *,wchar_t * &>
PUBLIC	??$forward@AAPA_W@std@@YAAAPA_WAAPA_W@Z		; std::forward<wchar_t * &>
PUBLIC	??$?8_W_W@std@@YA_NABV?$allocator@_W@0@0@Z	; std::operator==<wchar_t,wchar_t>
PUBLIC	??$construct@PAXABQAX@?$allocator_traits@V?$allocator@PAX@std@@@std@@SAXAAV?$allocator@PAX@1@PAPAXABQAX@Z ; std::allocator_traits<std::allocator<void *> >::construct<void *,void * const &>
PUBLIC	??$forward@ABQAX@std@@YAABQAXABQAX@Z		; std::forward<void * const &>
PUBLIC	??$construct@PAXAAPAX@?$allocator_traits@V?$allocator@PAX@std@@@std@@SAXAAV?$allocator@PAX@1@PAPAXAAPAX@Z ; std::allocator_traits<std::allocator<void *> >::construct<void *,void * &>
PUBLIC	??$forward@AAPAX@std@@YAAAPAXAAPAX@Z		; std::forward<void * &>
PUBLIC	??$_Uninitialized_copy@PAPAXPAPAXU?$_Wrap_alloc@V?$allocator@PAX@std@@@std@@@std@@YAPAPAXPAPAX00AAU?$_Wrap_alloc@V?$allocator@PAX@std@@@0@@Z ; std::_Uninitialized_copy<void * *,void * *,std::_Wrap_alloc<std::allocator<void *> > >
PUBLIC	??$_Copy_impl@PAPAXPAPAX@std@@YAPAPAXPAPAX00U_Scalar_ptr_iterator_tag@0@@Z ; std::_Copy_impl<void * *,void * *>
PUBLIC	??$_Ptr_cat@PAXPAX@std@@YA?AU_Scalar_ptr_iterator_tag@0@PAPAX0@Z ; std::_Ptr_cat<void *,void *>
PUBLIC	??$?8V?$allocator@PAX@std@@V01@@std@@YA_NABU?$_Wrap_alloc@V?$allocator@PAX@std@@@0@0@Z ; std::operator==<std::allocator<void *>,std::allocator<void *> >
PUBLIC	??$_Uninitialized_copy@V?$_Vector_const_iterator@V?$_Vector_val@U?$_Simple_types@PAX@std@@@std@@@std@@PAPAXU?$_Wrap_alloc@V?$allocator@PAX@std@@@2@@std@@YAPAPAXV?$_Vector_const_iterator@V?$_Vector_val@U?$_Simple_types@PAX@std@@@std@@@0@0PAPAXAAU?$_Wrap_alloc@V?$allocator@PAX@std@@@0@@Z ; std::_Uninitialized_copy<std::_Vector_const_iterator<std::_Vector_val<std::_Simple_types<void *> > >,void * *,std::_Wrap_alloc<std::allocator<void *> > >
PUBLIC	??$?8V?$allocator@_W@std@@V01@@std@@YA_NABU?$_Wrap_alloc@V?$allocator@_W@std@@@0@0@Z ; std::operator==<std::allocator<wchar_t>,std::allocator<wchar_t> >
PUBLIC	??$_Rechecked@PAEPAE@std@@YAAAPAEAAPAEPAE@Z	; std::_Rechecked<unsigned char *,unsigned char *>
PUBLIC	??$_Find_if_not@PAEV<lambda_4f23e6955dca7f806ec2428e9267999f>@@@std@@YAPAEPAE0V<lambda_4f23e6955dca7f806ec2428e9267999f>@@@Z ; std::_Find_if_not<unsigned char *,<lambda_4f23e6955dca7f806ec2428e9267999f> >
PUBLIC	??$_Unchecked@PAE@std@@YAPAEPAE@Z		; std::_Unchecked<unsigned char *>
PUBLIC	??$search@PAEPBEU?$equal_to@X@std@@@std@@YAPAEPAE0PBE1U?$equal_to@X@0@@Z ; std::search<unsigned char *,unsigned char const *,std::equal_to<void> >
PUBLIC	??$_Distance2@PAPB_WH@std@@YAXPAPB_W0AAHUrandom_access_iterator_tag@0@@Z ; std::_Distance2<wchar_t const * *,int>
PUBLIC	??$_Iter_cat@PAPB_W@std@@YA?AUrandom_access_iterator_tag@0@ABQAPB_W@Z ; std::_Iter_cat<wchar_t const * *>
PUBLIC	??$?8DU?$char_traits@D@std@@V?$allocator@D@1@@std@@YA_NABV?$basic_string@DU?$char_traits@D@std@@V?$allocator@D@2@@0@PBD@Z ; std::operator==<char,std::char_traits<char>,std::allocator<char> >
PUBLIC	?append@?$basic_string@_WU?$char_traits@_W@std@@V?$allocator@_W@2@@std@@QAEAAV12@PB_WI@Z ; std::basic_string<wchar_t,std::char_traits<wchar_t>,std::allocator<wchar_t> >::append
PUBLIC	?append@?$basic_string@_WU?$char_traits@_W@std@@V?$allocator@_W@2@@std@@QAEAAV12@ABV12@II@Z ; std::basic_string<wchar_t,std::char_traits<wchar_t>,std::allocator<wchar_t> >::append
PUBLIC	?append@?$basic_string@_WU?$char_traits@_W@std@@V?$allocator@_W@2@@std@@QAEAAV12@PB_W@Z ; std::basic_string<wchar_t,std::char_traits<wchar_t>,std::allocator<wchar_t> >::append
PUBLIC	?append@?$basic_string@_WU?$char_traits@_W@std@@V?$allocator@_W@2@@std@@QAEAAV12@ABV12@@Z ; std::basic_string<wchar_t,std::char_traits<wchar_t>,std::allocator<wchar_t> >::append
PUBLIC	??0?$IPCMutexLock@U?$IPCLockedSignalledArray@Uqueued_frame@@@@@@QAE@AAU?$IPCLockedSignalledArray@Uqueued_frame@@@@@Z ; IPCMutexLock<IPCLockedSignalledArray<queued_frame> >::IPCMutexLock<IPCLockedSignalledArray<queued_frame> >
PUBLIC	??0?$IPCMutexLock@U?$IPCLockedSignalledArray@I@@@@QAE@AAU?$IPCLockedSignalledArray@I@@@Z ; IPCMutexLock<IPCLockedSignalledArray<unsigned int> >::IPCMutexLock<IPCLockedSignalledArray<unsigned int> >
PUBLIC	??0?$IPCMutexLock@U?$IPCLockedSignalledType@H@@@@QAE@AAU?$IPCLockedSignalledType@H@@@Z ; IPCMutexLock<IPCLockedSignalledType<int> >::IPCMutexLock<IPCLockedSignalledType<int> >
PUBLIC	?reserve@?$basic_string@_WU?$char_traits@_W@std@@V?$allocator@_W@2@@std@@QAEXI@Z ; std::basic_string<wchar_t,std::char_traits<wchar_t>,std::allocator<wchar_t> >::reserve
PUBLIC	??Y?$basic_string@_WU?$char_traits@_W@std@@V?$allocator@_W@2@@std@@QAEAAV01@PB_W@Z ; std::basic_string<wchar_t,std::char_traits<wchar_t>,std::allocator<wchar_t> >::operator+=
PUBLIC	??Y?$basic_string@_WU?$char_traits@_W@std@@V?$allocator@_W@2@@std@@QAEAAV01@ABV01@@Z ; std::basic_string<wchar_t,std::char_traits<wchar_t>,std::allocator<wchar_t> >::operator+=
PUBLIC	??$_Allocate@_W@std@@YAPA_WIPA_W@Z		; std::_Allocate<wchar_t>
PUBLIC	??$_Allocate@PAX@std@@YAPAPAXIPAPAX@Z		; std::_Allocate<void *>
PUBLIC	??$_Umove@PAPAX@?$vector@PAXV?$allocator@PAX@std@@@std@@IAEPAPAXPAPAX00@Z ; std::vector<void *,std::allocator<void *> >::_Umove<void * *>
PUBLIC	??$_Destroy_range@U?$_Wrap_alloc@V?$allocator@PAX@std@@@std@@@std@@YAXPAPAX0AAU?$_Wrap_alloc@V?$allocator@PAX@std@@@0@@Z ; std::_Destroy_range<std::_Wrap_alloc<std::allocator<void *> > >
PUBLIC	??$addressof@_W@std@@YAPA_WAA_W@Z		; std::addressof<wchar_t>
PUBLIC	??$destroy@PA_W@?$_Wrap_alloc@V?$allocator@_W@std@@@std@@QAEXPAPA_W@Z ; std::_Wrap_alloc<std::allocator<wchar_t> >::destroy<wchar_t *>
PUBLIC	??$construct@PA_WAAPA_W@?$_Wrap_alloc@V?$allocator@_W@std@@@std@@QAEXPAPA_WAAPA_W@Z ; std::_Wrap_alloc<std::allocator<wchar_t> >::construct<wchar_t *,wchar_t * &>
PUBLIC	??$as@Uspspps_size@@@NamedSharedMemory@@QAEAAUspspps_size@@XZ ; NamedSharedMemory::as<spspps_size>
PUBLIC	??$as@Uinit_response@@@NamedSharedMemory@@QAEAAUinit_response@@XZ ; NamedSharedMemory::as<init_response>
PUBLIC	??$as@H@NamedSharedMemory@@QAEAAHXZ		; NamedSharedMemory::as<int>
PUBLIC	??$move@AAUNamedSharedMemory@@@std@@YA$$QAUNamedSharedMemory@@AAU1@@Z ; std::move<NamedSharedMemory &>
PUBLIC	??$as@Uinit_request@@@NamedSharedMemory@@QAEAAUinit_request@@XZ ; NamedSharedMemory::as<init_request>
PUBLIC	??$?H_WU?$char_traits@_W@std@@V?$allocator@_W@1@@std@@YA?AV?$basic_string@_WU?$char_traits@_W@std@@V?$allocator@_W@2@@0@ABV10@PB_W@Z ; std::operator+<wchar_t,std::char_traits<wchar_t>,std::allocator<wchar_t> >
PUBLIC	??$construct@PAXABQAX@?$_Wrap_alloc@V?$allocator@PAX@std@@@std@@QAEXPAPAXABQAX@Z ; std::_Wrap_alloc<std::allocator<void *> >::construct<void *,void * const &>
PUBLIC	??$construct@PAXAAPAX@?$_Wrap_alloc@V?$allocator@PAX@std@@@std@@QAEXPAPAXAAPAX@Z ; std::_Wrap_alloc<std::allocator<void *> >::construct<void *,void * &>
PUBLIC	??$addressof@QAX@std@@YAPBQAXABQAX@Z		; std::addressof<void * const>
PUBLIC	??$_Ucopy@PAPAX@?$vector@PAXV?$allocator@PAX@std@@@std@@IAEPAPAXPAPAX00@Z ; std::vector<void *,std::allocator<void *> >::_Ucopy<void * *>
PUBLIC	??$_Copy_impl@PAPAXPAPAX@std@@YAPAPAXPAPAX00@Z	; std::_Copy_impl<void * *,void * *>
PUBLIC	??$?9V?$allocator@PAX@std@@V01@@std@@YA_NABU?$_Wrap_alloc@V?$allocator@PAX@std@@@0@0@Z ; std::operator!=<std::allocator<void *>,std::allocator<void *> >
PUBLIC	??$_Ucopy@V?$_Vector_const_iterator@V?$_Vector_val@U?$_Simple_types@PAX@std@@@std@@@std@@@?$vector@PAXV?$allocator@PAX@std@@@std@@IAEPAPAXV?$_Vector_const_iterator@V?$_Vector_val@U?$_Simple_types@PAX@std@@@std@@@1@0PAPAX@Z ; std::vector<void *,std::allocator<void *> >::_Ucopy<std::_Vector_const_iterator<std::_Vector_val<std::_Simple_types<void *> > > >
PUBLIC	??$?9V?$allocator@_W@std@@V01@@std@@YA_NABU?$_Wrap_alloc@V?$allocator@_W@std@@@0@0@Z ; std::operator!=<std::allocator<wchar_t>,std::allocator<wchar_t> >
PUBLIC	??$forward@V?$basic_string@_WU?$char_traits@_W@std@@V?$allocator@_W@2@@std@@@std@@YA$$QAV?$basic_string@_WU?$char_traits@_W@std@@V?$allocator@_W@2@@0@AAV10@@Z ; std::forward<std::basic_string<wchar_t,std::char_traits<wchar_t>,std::allocator<wchar_t> > >
PUBLIC	??$timestampFromMS@_K@?A0x7e09c670@@YA_K_K@Z	; `anonymous namespace'::timestampFromMS<unsigned __int64>
PUBLIC	??$timestampFromMS@K@?A0x7e09c670@@YAKK@Z	; `anonymous namespace'::timestampFromMS<unsigned long>
PUBLIC	??$lock_mutex@U?$IPCLockedSignalledArray@Uqueued_frame@@@@@@YA?AU?$IPCMutexLock@U?$IPCLockedSignalledArray@Uqueued_frame@@@@@@AAU?$IPCLockedSignalledArray@Uqueued_frame@@@@@Z ; lock_mutex<IPCLockedSignalledArray<queued_frame> >
PUBLIC	??$lock_mutex@U?$IPCLockedSignalledArray@I@@@@YA?AU?$IPCMutexLock@U?$IPCLockedSignalledArray@I@@@@AAU?$IPCLockedSignalledArray@I@@@Z ; lock_mutex<IPCLockedSignalledArray<unsigned int> >
PUBLIC	??$find_if_not@PAEV<lambda_4f23e6955dca7f806ec2428e9267999f>@@@std@@YAPAEPAE0V<lambda_4f23e6955dca7f806ec2428e9267999f>@@@Z ; std::find_if_not<unsigned char *,<lambda_4f23e6955dca7f806ec2428e9267999f> >
PUBLIC	??$msFromTimestamp@_K@?A0x7e09c670@@YA_K_K@Z	; `anonymous namespace'::msFromTimestamp<unsigned __int64>
PUBLIC	??$msFromTimestamp@_J@?A0x7e09c670@@YA_J_J@Z	; `anonymous namespace'::msFromTimestamp<__int64>
PUBLIC	??$search@PAEPBE@std@@YAPAEPAE0PBE1@Z		; std::search<unsigned char *,unsigned char const *>
PUBLIC	??$lock_mutex@U?$IPCLockedSignalledType@H@@@@YA?AU?$IPCMutexLock@U?$IPCLockedSignalledType@H@@@@AAU?$IPCLockedSignalledType@H@@@Z ; lock_mutex<IPCLockedSignalledType<int> >
PUBLIC	??$distance@PAPB_W@std@@YAHPAPB_W0@Z		; std::distance<wchar_t const * *>
PUBLIC	??$end@PB_W$08@std@@YAPAPB_WAAY08PB_W@Z		; std::end<wchar_t const *,9>
PUBLIC	??$begin@PB_W$08@std@@YAPAPB_WAAY08PB_W@Z	; std::begin<wchar_t const *,9>
PUBLIC	??$?9DU?$char_traits@D@std@@V?$allocator@D@1@@std@@YA_NABV?$basic_string@DU?$char_traits@D@std@@V?$allocator@D@2@@0@PBD@Z ; std::operator!=<char,std::char_traits<char>,std::allocator<char> >
PUBLIC	??$move@AAUsafe_handle@@@std@@YA$$QAUsafe_handle@@AAU1@@Z ; std::move<safe_handle &>
PUBLIC	?max_size@?$allocator@_W@std@@QBEIXZ		; std::allocator<wchar_t>::max_size
PUBLIC	?max_size@?$allocator@PAX@std@@QBEIXZ		; std::allocator<void *>::max_size
PUBLIC	?max_size@?$allocator_traits@V?$allocator@_W@std@@@std@@SAIABV?$allocator@_W@2@@Z ; std::allocator_traits<std::allocator<wchar_t> >::max_size
PUBLIC	?allocate@?$allocator@_W@std@@QAEPA_WI@Z	; std::allocator<wchar_t>::allocate
PUBLIC	?max_size@?$allocator_traits@V?$allocator@PAX@std@@@std@@SAIABV?$allocator@PAX@2@@Z ; std::allocator_traits<std::allocator<void *> >::max_size
PUBLIC	?max_size@?$_Wrap_alloc@V?$allocator@_W@std@@@std@@QBEIXZ ; std::_Wrap_alloc<std::allocator<wchar_t> >::max_size
PUBLIC	?allocate@?$_Wrap_alloc@V?$allocator@_W@std@@@std@@QAEPA_WI@Z ; std::_Wrap_alloc<std::allocator<wchar_t> >::allocate
PUBLIC	?max_size@?$_Wrap_alloc@V?$allocator@PAX@std@@@std@@QBEIXZ ; std::_Wrap_alloc<std::allocator<void *> >::max_size
PUBLIC	?allocate@?$allocator@PAX@std@@QAEPAPAXI@Z	; std::allocator<void *>::allocate
PUBLIC	??0?$allocator@PAX@std@@QAE@ABV01@@Z		; std::allocator<void *>::allocator<void *>
PUBLIC	?select_on_container_copy_construction@?$allocator@PAX@std@@QBE?AV12@XZ ; std::allocator<void *>::select_on_container_copy_construction
PUBLIC	?deallocate@?$allocator@_W@std@@QAEXPA_WI@Z	; std::allocator<wchar_t>::deallocate
PUBLIC	??0?$allocator@_W@std@@QAE@ABV01@@Z		; std::allocator<wchar_t>::allocator<wchar_t>
PUBLIC	?select_on_container_copy_construction@?$allocator@_W@std@@QBE?AV12@XZ ; std::allocator<wchar_t>::select_on_container_copy_construction
PUBLIC	?_Xlen@?$basic_string@_WU?$char_traits@_W@std@@V?$allocator@_W@2@@std@@QBEXXZ ; std::basic_string<wchar_t,std::char_traits<wchar_t>,std::allocator<wchar_t> >::_Xlen
PUBLIC	?_Inside@?$basic_string@_WU?$char_traits@_W@std@@V?$allocator@_W@2@@std@@QAE_NPB_W@Z ; std::basic_string<wchar_t,std::char_traits<wchar_t>,std::allocator<wchar_t> >::_Inside
PUBLIC	?_Copy@?$basic_string@_WU?$char_traits@_W@std@@V?$allocator@_W@2@@std@@QAEXII@Z ; std::basic_string<wchar_t,std::char_traits<wchar_t>,std::allocator<wchar_t> >::_Copy
PUBLIC	?max_size@?$basic_string@_WU?$char_traits@_W@std@@V?$allocator@_W@2@@std@@QBEIXZ ; std::basic_string<wchar_t,std::char_traits<wchar_t>,std::allocator<wchar_t> >::max_size
PUBLIC	??0?$_Vector_iterator@V?$_Vector_val@U?$_Simple_types@PAX@std@@@std@@@std@@QAE@PAPAXPBU_Container_base0@1@@Z ; std::_Vector_iterator<std::_Vector_val<std::_Simple_types<void *> > >::_Vector_iterator<std::_Vector_val<std::_Simple_types<void *> > >
PUBLIC	??D?$_Vector_const_iterator@V?$_Vector_val@U?$_Simple_types@PAX@std@@@std@@@std@@QBEABQAXXZ ; std::_Vector_const_iterator<std::_Vector_val<std::_Simple_types<void *> > >::operator*
PUBLIC	??0?$_Vector_const_iterator@V?$_Vector_val@U?$_Simple_types@PAX@std@@@std@@@std@@QAE@PAPAXPBU_Container_base0@1@@Z ; std::_Vector_const_iterator<std::_Vector_val<std::_Simple_types<void *> > >::_Vector_const_iterator<std::_Vector_val<std::_Simple_types<void *> > >
PUBLIC	??0?$IPCType@H@@QAE@XZ				; IPCType<int>::IPCType<int>
PUBLIC	??0?$IPCType@H@@QAE@V?$basic_string@_WU?$char_traits@_W@std@@V?$allocator@_W@2@@std@@@Z ; IPCType<int>::IPCType<int>
PUBLIC	??0?$IPCArray@I@@QAE@XZ				; IPCArray<unsigned int>::IPCArray<unsigned int>
PUBLIC	??0?$IPCArray@I@@QAE@V?$basic_string@_WU?$char_traits@_W@std@@V?$allocator@_W@2@@std@@I@Z ; IPCArray<unsigned int>::IPCArray<unsigned int>
PUBLIC	??0?$IPCArray@Uqueued_frame@@@@QAE@XZ		; IPCArray<queued_frame>::IPCArray<queued_frame>
PUBLIC	??0?$IPCArray@Uqueued_frame@@@@QAE@V?$basic_string@_WU?$char_traits@_W@std@@V?$allocator@_W@2@@std@@I@Z ; IPCArray<queued_frame>::IPCArray<queued_frame>
PUBLIC	??0?$IPCSignal@$0A@@@QAE@XZ			; IPCSignal<0>::IPCSignal<0>
PUBLIC	??0?$_Vector_val@U?$_Simple_types@PAX@std@@@std@@QAE@XZ ; std::_Vector_val<std::_Simple_types<void *> >::_Vector_val<std::_Simple_types<void *> >
PUBLIC	?select_on_container_copy_construction@?$allocator_traits@V?$allocator@PAX@std@@@std@@SA?AV?$allocator@PAX@2@ABV32@@Z ; std::allocator_traits<std::allocator<void *> >::select_on_container_copy_construction
PUBLIC	?allocate@?$_Wrap_alloc@V?$allocator@PAX@std@@@std@@QAEPAPAXI@Z ; std::_Wrap_alloc<std::allocator<void *> >::allocate
PUBLIC	??0?$_Wrap_alloc@V?$allocator@PAX@std@@@std@@QAE@ABV?$allocator@PAX@1@@Z ; std::_Wrap_alloc<std::allocator<void *> >::_Wrap_alloc<std::allocator<void *> >
PUBLIC	??0?$_Wrap_alloc@V?$allocator@PAX@std@@@std@@QAE@XZ ; std::_Wrap_alloc<std::allocator<void *> >::_Wrap_alloc<std::allocator<void *> >
PUBLIC	?deallocate@?$allocator@PAX@std@@QAEXPAPAXI@Z	; std::allocator<void *>::deallocate
PUBLIC	?_Xlen@?$vector@PAXV?$allocator@PAX@std@@@std@@IBEXXZ ; std::vector<void *,std::allocator<void *> >::_Xlen
PUBLIC	?_Reallocate@?$vector@PAXV?$allocator@PAX@std@@@std@@IAEXI@Z ; std::vector<void *,std::allocator<void *> >::_Reallocate
PUBLIC	?_Grow_to@?$vector@PAXV?$allocator@PAX@std@@@std@@IBEII@Z ; std::vector<void *,std::allocator<void *> >::_Grow_to
PUBLIC	?max_size@?$vector@PAXV?$allocator@PAX@std@@@std@@QBEIXZ ; std::vector<void *,std::allocator<void *> >::max_size
PUBLIC	?_Unused_capacity@?$vector@PAXV?$allocator@PAX@std@@@std@@QBEIXZ ; std::vector<void *,std::allocator<void *> >::_Unused_capacity
PUBLIC	?_Myptr@?$_String_val@U?$_Simple_types@_W@std@@@std@@QAEPA_WXZ ; std::_String_val<std::_Simple_types<wchar_t> >::_Myptr
PUBLIC	??0?$_String_val@U?$_Simple_types@_W@std@@@std@@QAE@XZ ; std::_String_val<std::_Simple_types<wchar_t> >::_String_val<std::_Simple_types<wchar_t> >
PUBLIC	?select_on_container_copy_construction@?$allocator_traits@V?$allocator@_W@std@@@std@@SA?AV?$allocator@_W@2@ABV32@@Z ; std::allocator_traits<std::allocator<wchar_t> >::select_on_container_copy_construction
PUBLIC	?deallocate@?$_Wrap_alloc@V?$allocator@_W@std@@@std@@QAEXPA_WI@Z ; std::_Wrap_alloc<std::allocator<wchar_t> >::deallocate
PUBLIC	??0?$_Wrap_alloc@V?$allocator@_W@std@@@std@@QAE@ABV?$allocator@_W@1@@Z ; std::_Wrap_alloc<std::allocator<wchar_t> >::_Wrap_alloc<std::allocator<wchar_t> >
PUBLIC	??0?$_Wrap_alloc@V?$allocator@_W@std@@@std@@QAE@XZ ; std::_Wrap_alloc<std::allocator<wchar_t> >::_Wrap_alloc<std::allocator<wchar_t> >
PUBLIC	?_Xran@?$basic_string@_WU?$char_traits@_W@std@@V?$allocator@_W@2@@std@@QBEXXZ ; std::basic_string<wchar_t,std::char_traits<wchar_t>,std::allocator<wchar_t> >::_Xran
PUBLIC	?_Grow@?$basic_string@_WU?$char_traits@_W@std@@V?$allocator@_W@2@@std@@QAE_NI_N@Z ; std::basic_string<wchar_t,std::char_traits<wchar_t>,std::allocator<wchar_t> >::_Grow
PUBLIC	?_Eos@?$basic_string@_WU?$char_traits@_W@std@@V?$allocator@_W@2@@std@@QAEXI@Z ; std::basic_string<wchar_t,std::char_traits<wchar_t>,std::allocator<wchar_t> >::_Eos
PUBLIC	?erase@?$basic_string@_WU?$char_traits@_W@std@@V?$allocator@_W@2@@std@@QAEAAV12@II@Z ; std::basic_string<wchar_t,std::char_traits<wchar_t>,std::allocator<wchar_t> >::erase
PUBLIC	?erase@?$basic_string@_WU?$char_traits@_W@std@@V?$allocator@_W@2@@std@@QAEAAV12@I@Z ; std::basic_string<wchar_t,std::char_traits<wchar_t>,std::allocator<wchar_t> >::erase
PUBLIC	?assign@?$basic_string@_WU?$char_traits@_W@std@@V?$allocator@_W@2@@std@@QAEAAV12@PB_WI@Z ; std::basic_string<wchar_t,std::char_traits<wchar_t>,std::allocator<wchar_t> >::assign
PUBLIC	??D?$_Vector_iterator@V?$_Vector_val@U?$_Simple_types@PAX@std@@@std@@@std@@QBEAAPAXXZ ; std::_Vector_iterator<std::_Vector_val<std::_Simple_types<void *> > >::operator*
PUBLIC	??0?$IPCArray@E@@QAE@V?$basic_string@_WU?$char_traits@_W@std@@V?$allocator@_W@2@@std@@I@Z ; IPCArray<unsigned char>::IPCArray<unsigned char>
PUBLIC	??0?$IPCType@Uspspps_size@@@@QAE@V?$basic_string@_WU?$char_traits@_W@std@@V?$allocator@_W@2@@std@@@Z ; IPCType<spspps_size>::IPCType<spspps_size>
PUBLIC	?Add@?$List@W4PacketType@@@@QAEIABW4PacketType@@@Z ; List<enum PacketType>::Add
PUBLIC	?Clear@?$List@Ux264_nal_t@@@@QAEXXZ		; List<x264_nal_t>::Clear
PUBLIC	?Add@?$List@Ux264_nal_t@@@@QAEIABUx264_nal_t@@@Z ; List<x264_nal_t>::Add
PUBLIC	??0?$IPCType@Uinit_response@@@@QAE@V?$basic_string@_WU?$char_traits@_W@std@@V?$allocator@_W@2@@std@@@Z ; IPCType<init_response>::IPCType<init_response>
PUBLIC	?SetSize@?$List@UVideoPacket@@@@QAEHI@Z		; List<VideoPacket>::SetSize
PUBLIC	?Clear@?$List@UmfxFrameData@@@@QAEXXZ		; List<mfxFrameData>::Clear
PUBLIC	??0?$IPCSignalledType@H@@QAE@XZ			; IPCSignalledType<int>::IPCSignalledType<int>
PUBLIC	??0?$IPCSignalledType@H@@QAE@V?$basic_string@_WU?$char_traits@_W@std@@V?$allocator@_W@2@@std@@@Z ; IPCSignalledType<int>::IPCSignalledType<int>
PUBLIC	??0?$IPCSignalledArray@I@@QAE@XZ		; IPCSignalledArray<unsigned int>::IPCSignalledArray<unsigned int>
PUBLIC	??0?$IPCSignalledArray@I@@QAE@V?$basic_string@_WU?$char_traits@_W@std@@V?$allocator@_W@2@@std@@I@Z ; IPCSignalledArray<unsigned int>::IPCSignalledArray<unsigned int>
PUBLIC	??0?$IPCSignalledArray@Uqueued_frame@@@@QAE@XZ	; IPCSignalledArray<queued_frame>::IPCSignalledArray<queued_frame>
PUBLIC	??0?$IPCSignalledArray@Uqueued_frame@@@@QAE@V?$basic_string@_WU?$char_traits@_W@std@@V?$allocator@_W@2@@std@@I@Z ; IPCSignalledArray<queued_frame>::IPCSignalledArray<queued_frame>
PUBLIC	?Clear@?$List@Uencode_task@QSVEncoder@@@@QAEXXZ	; List<QSVEncoder::encode_task>::Clear
PUBLIC	??0?$IPCType@Uinit_request@@@@QAE@V?$basic_string@_WU?$char_traits@_W@std@@V?$allocator@_W@2@@std@@@Z ; IPCType<init_request>::IPCType<init_request>
PUBLIC	?Add@?$List@_J@@QAEIAB_J@Z			; List<__int64>::Add
PUBLIC	??0?$IPCSignal@$0A@@@QAE@V?$basic_string@_WU?$char_traits@_W@std@@V?$allocator@_W@2@@std@@@Z ; IPCSignal<0>::IPCSignal<0>
PUBLIC	?deallocate@?$_Wrap_alloc@V?$allocator@PAX@std@@@std@@QAEXPAPAXI@Z ; std::_Wrap_alloc<std::allocator<void *> >::deallocate
PUBLIC	?select_on_container_copy_construction@?$_Wrap_alloc@V?$allocator@PAX@std@@@std@@QBE?AU12@XZ ; std::_Wrap_alloc<std::allocator<void *> >::select_on_container_copy_construction
PUBLIC	?_Getal@?$_Vector_alloc@$0A@U?$_Vec_base_types@PAXV?$allocator@PAX@std@@@std@@@std@@QBE?AU?$_Wrap_alloc@V?$allocator@PAX@std@@@2@XZ ; std::_Vector_alloc<0,std::_Vec_base_types<void *,std::allocator<void *> > >::_Getal
PUBLIC	?_Change_alloc@?$_Vector_alloc@$0A@U?$_Vec_base_types@PAXV?$allocator@PAX@std@@@std@@@std@@QAEXABU?$_Wrap_alloc@V?$allocator@PAX@std@@@2@@Z ; std::_Vector_alloc<0,std::_Vec_base_types<void *,std::allocator<void *> > >::_Change_alloc
PUBLIC	??0?$_Vector_alloc@$0A@U?$_Vec_base_types@PAXV?$allocator@PAX@std@@@std@@@std@@QAE@ABV?$allocator@PAX@1@@Z ; std::_Vector_alloc<0,std::_Vec_base_types<void *,std::allocator<void *> > >::_Vector_alloc<0,std::_Vec_base_types<void *,std::allocator<void *> > >
PUBLIC	??0?$allocator@PAX@std@@QAE@XZ			; std::allocator<void *>::allocator<void *>
PUBLIC	?_Orphan_range@?$vector@PAXV?$allocator@PAX@std@@@std@@IBEXPAPAX0@Z ; std::vector<void *,std::allocator<void *> >::_Orphan_range
PUBLIC	?_Tidy@?$vector@PAXV?$allocator@PAX@std@@@std@@IAEXXZ ; std::vector<void *,std::allocator<void *> >::_Tidy
PUBLIC	?_Reserve@?$vector@PAXV?$allocator@PAX@std@@@std@@IAEXI@Z ; std::vector<void *,std::allocator<void *> >::_Reserve
PUBLIC	?_Inside@?$vector@PAXV?$allocator@PAX@std@@@std@@IBE_NPBQAX@Z ; std::vector<void *,std::allocator<void *> >::_Inside
PUBLIC	?_Destroy@?$vector@PAXV?$allocator@PAX@std@@@std@@IAEXPAPAX0@Z ; std::vector<void *,std::allocator<void *> >::_Destroy
PUBLIC	?_Buy@?$vector@PAXV?$allocator@PAX@std@@@std@@IAE_NI@Z ; std::vector<void *,std::allocator<void *> >::_Buy
PUBLIC	?clear@?$vector@PAXV?$allocator@PAX@std@@@std@@QAEXXZ ; std::vector<void *,std::allocator<void *> >::clear
PUBLIC	?empty@?$vector@PAXV?$allocator@PAX@std@@@std@@QBE_NXZ ; std::vector<void *,std::allocator<void *> >::empty
PUBLIC	?end@?$vector@PAXV?$allocator@PAX@std@@@std@@QBE?AV?$_Vector_const_iterator@V?$_Vector_val@U?$_Simple_types@PAX@std@@@std@@@2@XZ ; std::vector<void *,std::allocator<void *> >::end
PUBLIC	?begin@?$vector@PAXV?$allocator@PAX@std@@@std@@QBE?AV?$_Vector_const_iterator@V?$_Vector_val@U?$_Simple_types@PAX@std@@@std@@@2@XZ ; std::vector<void *,std::allocator<void *> >::begin
PUBLIC	?begin@?$vector@PAXV?$allocator@PAX@std@@@std@@QAE?AV?$_Vector_iterator@V?$_Vector_val@U?$_Simple_types@PAX@std@@@std@@@2@XZ ; std::vector<void *,std::allocator<void *> >::begin
PUBLIC	?capacity@?$vector@PAXV?$allocator@PAX@std@@@std@@QBEIXZ ; std::vector<void *,std::allocator<void *> >::capacity
PUBLIC	?Add@?$CircularList@I@@QAEIABI@Z		; CircularList<unsigned int>::Add
PUBLIC	?GetRealIndex@?$CircularList@I@@AAEII@Z		; CircularList<unsigned int>::GetRealIndex
PUBLIC	?_Myptr@?$_String_val@U?$_Simple_types@_W@std@@@std@@QBEPB_WXZ ; std::_String_val<std::_Simple_types<wchar_t> >::_Myptr
PUBLIC	?select_on_container_copy_construction@?$_Wrap_alloc@V?$allocator@_W@std@@@std@@QBE?AU12@XZ ; std::_Wrap_alloc<std::allocator<wchar_t> >::select_on_container_copy_construction
PUBLIC	?_Getal@?$_String_alloc@$0A@U?$_String_base_types@_WV?$allocator@_W@std@@@std@@@std@@QBE?AU?$_Wrap_alloc@V?$allocator@_W@std@@@2@XZ ; std::_String_alloc<0,std::_String_base_types<wchar_t,std::allocator<wchar_t> > >::_Getal
PUBLIC	?_Change_alloc@?$_String_alloc@$0A@U?$_String_base_types@_WV?$allocator@_W@std@@@std@@@std@@QAEXABU?$_Wrap_alloc@V?$allocator@_W@std@@@2@@Z ; std::_String_alloc<0,std::_String_base_types<wchar_t,std::allocator<wchar_t> > >::_Change_alloc
PUBLIC	??0?$_String_alloc@$0A@U?$_String_base_types@_WV?$allocator@_W@std@@@std@@@std@@QAE@ABV?$allocator@_W@1@@Z ; std::_String_alloc<0,std::_String_base_types<wchar_t,std::allocator<wchar_t> > >::_String_alloc<0,std::_String_base_types<wchar_t,std::allocator<wchar_t> > >
PUBLIC	??0?$allocator@_W@std@@QAE@XZ			; std::allocator<wchar_t>::allocator<wchar_t>
PUBLIC	?_Tidy@?$basic_string@_WU?$char_traits@_W@std@@V?$allocator@_W@2@@std@@QAEX_NI@Z ; std::basic_string<wchar_t,std::char_traits<wchar_t>,std::allocator<wchar_t> >::_Tidy
PUBLIC	?size@?$basic_string@_WU?$char_traits@_W@std@@V?$allocator@_W@2@@std@@QBEIXZ ; std::basic_string<wchar_t,std::char_traits<wchar_t>,std::allocator<wchar_t> >::size
PUBLIC	?assign@?$basic_string@_WU?$char_traits@_W@std@@V?$allocator@_W@2@@std@@QAEAAV12@PB_W@Z ; std::basic_string<wchar_t,std::char_traits<wchar_t>,std::allocator<wchar_t> >::assign
PUBLIC	?assign@?$basic_string@_WU?$char_traits@_W@std@@V?$allocator@_W@2@@std@@QAEAAV12@ABV12@II@Z ; std::basic_string<wchar_t,std::char_traits<wchar_t>,std::allocator<wchar_t> >::assign
PUBLIC	?assign@?$basic_string@_WU?$char_traits@_W@std@@V?$allocator@_W@2@@std@@QAEAAV12@ABV12@@Z ; std::basic_string<wchar_t,std::char_traits<wchar_t>,std::allocator<wchar_t> >::assign
PUBLIC	?_Assign_rv@?$basic_string@_WU?$char_traits@_W@std@@V?$allocator@_W@2@@std@@QAEX$$QAV12@@Z ; std::basic_string<wchar_t,std::char_traits<wchar_t>,std::allocator<wchar_t> >::_Assign_rv
PUBLIC	?compare@?$basic_string@DU?$char_traits@D@std@@V?$allocator@D@2@@std@@QBEHIIPBDI@Z ; std::basic_string<char,std::char_traits<char>,std::allocator<char> >::compare
PUBLIC	?append@?$basic_string@DU?$char_traits@D@std@@V?$allocator@D@2@@std@@QAEAAV12@ABV12@II@Z ; std::basic_string<char,std::char_traits<char>,std::allocator<char> >::append
PUBLIC	?Add@?$List@E@@QAEIABE@Z			; List<unsigned char>::Add
PUBLIC	??B?$IPCArray@E@@QAEPAEXZ			; IPCArray<unsigned char>::operator unsigned char *
PUBLIC	??0?$IPCSignalledArray@E@@QAE@V?$basic_string@_WU?$char_traits@_W@std@@V?$allocator@_W@2@@std@@I@Z ; IPCSignalledArray<unsigned char>::IPCSignalledArray<unsigned char>
PUBLIC	??C?$IPCType@Uspspps_size@@@@QAEPAUspspps_size@@XZ ; IPCType<spspps_size>::operator->
PUBLIC	??0?$IPCSignalledType@Uspspps_size@@@@QAE@V?$basic_string@_WU?$char_traits@_W@std@@V?$allocator@_W@2@@std@@@Z ; IPCSignalledType<spspps_size>::IPCSignalledType<spspps_size>
PUBLIC	??1?$IPCMutexLock@U?$IPCLockedSignalledArray@Uqueued_frame@@@@@@QAE@XZ ; IPCMutexLock<IPCLockedSignalledArray<queued_frame> >::~IPCMutexLock<IPCLockedSignalledArray<queued_frame> >
PUBLIC	??1?$IPCMutexLock@U?$IPCLockedSignalledArray@I@@@@QAE@XZ ; IPCMutexLock<IPCLockedSignalledArray<unsigned int> >::~IPCMutexLock<IPCLockedSignalledArray<unsigned int> >
PUBLIC	??6?$List@W4PacketType@@@@QAEAAV0@ABW4PacketType@@@Z ; List<enum PacketType>::operator<<
PUBLIC	??A?$List@UDataPacket@@@@QAEAAUDataPacket@@I@Z	; List<DataPacket>::operator[]
PUBLIC	?Clear@?$List@UDataPacket@@@@QAEXXZ		; List<DataPacket>::Clear
PUBLIC	?SetSize@?$List@UDataPacket@@@@QAEHI@Z		; List<DataPacket>::SetSize
PUBLIC	?Num@?$List@UDataPacket@@@@QBEIXZ		; List<DataPacket>::Num
PUBLIC	??A?$List@Ux264_nal_t@@@@QAEAAUx264_nal_t@@I@Z	; List<x264_nal_t>::operator[]
PUBLIC	??6?$List@Ux264_nal_t@@@@QAEAAV0@ABUx264_nal_t@@@Z ; List<x264_nal_t>::operator<<
PUBLIC	?Num@?$List@Ux264_nal_t@@@@QBEIXZ		; List<x264_nal_t>::Num
PUBLIC	??1?$List@Ux264_nal_t@@@@QAE@XZ			; List<x264_nal_t>::~List<x264_nal_t>
PUBLIC	??0?$List@Ux264_nal_t@@@@QAE@XZ			; List<x264_nal_t>::List<x264_nal_t>
PUBLIC	??1?$IPCMutexLock@U?$IPCLockedSignalledType@H@@@@QAE@XZ ; IPCMutexLock<IPCLockedSignalledType<int> >::~IPCMutexLock<IPCLockedSignalledType<int> >
PUBLIC	??C?$IPCType@Uinit_response@@@@QAEPAUinit_response@@XZ ; IPCType<init_response>::operator->
PUBLIC	??0?$IPCSignalledType@Uinit_response@@@@QAE@V?$basic_string@_WU?$char_traits@_W@std@@V?$allocator@_W@2@@std@@@Z ; IPCSignalledType<init_response>::IPCSignalledType<init_response>
PUBLIC	??A?$List@UVideoPacket@@@@QAEAAUVideoPacket@@I@Z ; List<VideoPacket>::operator[]
PUBLIC	?CreateNew@?$List@UVideoPacket@@@@QAEPAUVideoPacket@@XZ ; List<VideoPacket>::CreateNew
PUBLIC	?Clear@?$List@UVideoPacket@@@@QAEXXZ		; List<VideoPacket>::Clear
PUBLIC	?Num@?$List@UVideoPacket@@@@QBEIXZ		; List<VideoPacket>::Num
PUBLIC	??1?$List@UVideoPacket@@@@QAE@XZ		; List<VideoPacket>::~List<VideoPacket>
PUBLIC	??0?$List@UVideoPacket@@@@QAE@XZ		; List<VideoPacket>::List<VideoPacket>
PUBLIC	??A?$List@UmfxFrameData@@@@QAEAAUmfxFrameData@@I@Z ; List<mfxFrameData>::operator[]
PUBLIC	?SetSize@?$List@UmfxFrameData@@@@QAEHI@Z	; List<mfxFrameData>::SetSize
PUBLIC	?Num@?$List@UmfxFrameData@@@@QBEIXZ		; List<mfxFrameData>::Num
PUBLIC	??1?$List@UmfxFrameData@@@@QAE@XZ		; List<mfxFrameData>::~List<mfxFrameData>
PUBLIC	??0?$List@UmfxFrameData@@@@QAE@XZ		; List<mfxFrameData>::List<mfxFrameData>
PUBLIC	??D?$IPCType@H@@QAEAAHXZ			; IPCType<int>::operator*
PUBLIC	??0?$IPCLockedSignalledType@H@@QAE@XZ		; IPCLockedSignalledType<int>::IPCLockedSignalledType<int>
PUBLIC	??0?$IPCLockedSignalledType@H@@QAE@V?$basic_string@_WU?$char_traits@_W@std@@V?$allocator@_W@2@@std@@@Z ; IPCLockedSignalledType<int>::IPCLockedSignalledType<int>
PUBLIC	??4?$IPCLockedSignalledType@H@@QAEAAU0@$$QAU0@@Z ; IPCLockedSignalledType<int>::operator=
PUBLIC	??7?$IPCLockedSignalledType@H@@QBE_NXZ		; IPCLockedSignalledType<int>::operator!
PUBLIC	??B?$IPCArray@I@@QAEPAIXZ			; IPCArray<unsigned int>::operator unsigned int *
PUBLIC	??0?$IPCLockedSignalledArray@I@@QAE@XZ		; IPCLockedSignalledArray<unsigned int>::IPCLockedSignalledArray<unsigned int>
PUBLIC	??0?$IPCLockedSignalledArray@I@@QAE@V?$basic_string@_WU?$char_traits@_W@std@@V?$allocator@_W@2@@std@@I@Z ; IPCLockedSignalledArray<unsigned int>::IPCLockedSignalledArray<unsigned int>
PUBLIC	??4?$IPCLockedSignalledArray@I@@QAEAAU0@$$QAU0@@Z ; IPCLockedSignalledArray<unsigned int>::operator=
PUBLIC	??7?$IPCLockedSignalledArray@I@@QAE_NXZ		; IPCLockedSignalledArray<unsigned int>::operator!
PUBLIC	??B?$IPCArray@Uqueued_frame@@@@QAEPAUqueued_frame@@XZ ; IPCArray<queued_frame>::operator queued_frame *
PUBLIC	??0?$IPCLockedSignalledArray@Uqueued_frame@@@@QAE@XZ ; IPCLockedSignalledArray<queued_frame>::IPCLockedSignalledArray<queued_frame>
PUBLIC	??0?$IPCLockedSignalledArray@Uqueued_frame@@@@QAE@V?$basic_string@_WU?$char_traits@_W@std@@V?$allocator@_W@2@@std@@I@Z ; IPCLockedSignalledArray<queued_frame>::IPCLockedSignalledArray<queued_frame>
PUBLIC	??4?$IPCLockedSignalledArray@Uqueued_frame@@@@QAEAAU0@$$QAU0@@Z ; IPCLockedSignalledArray<queued_frame>::operator=
PUBLIC	??7?$IPCLockedSignalledArray@Uqueued_frame@@@@QAE_NXZ ; IPCLockedSignalledArray<queued_frame>::operator!
PUBLIC	??A?$List@Uencode_task@QSVEncoder@@@@QBEAAUencode_task@QSVEncoder@@I@Z ; List<QSVEncoder::encode_task>::operator[]
PUBLIC	??A?$List@Uencode_task@QSVEncoder@@@@QAEAAUencode_task@QSVEncoder@@I@Z ; List<QSVEncoder::encode_task>::operator[]
PUBLIC	?SetSize@?$List@Uencode_task@QSVEncoder@@@@QAEHI@Z ; List<QSVEncoder::encode_task>::SetSize
PUBLIC	?Num@?$List@Uencode_task@QSVEncoder@@@@QBEIXZ	; List<QSVEncoder::encode_task>::Num
PUBLIC	??1?$List@Uencode_task@QSVEncoder@@@@QAE@XZ	; List<QSVEncoder::encode_task>::~List<QSVEncoder::encode_task>
PUBLIC	??0?$List@Uencode_task@QSVEncoder@@@@QAE@XZ	; List<QSVEncoder::encode_task>::List<QSVEncoder::encode_task>
PUBLIC	??0?$IPCArray@Ubitstream_info@@@@QAE@XZ		; IPCArray<bitstream_info>::IPCArray<bitstream_info>
PUBLIC	??0?$IPCArray@Ubitstream_info@@@@QAE@V?$basic_string@_WU?$char_traits@_W@std@@V?$allocator@_W@2@@std@@I@Z ; IPCArray<bitstream_info>::IPCArray<bitstream_info>
PUBLIC	??4?$IPCArray@Ubitstream_info@@@@QAEAAU0@$$QAU0@@Z ; IPCArray<bitstream_info>::operator=
PUBLIC	??B?$IPCArray@Ubitstream_info@@@@QAEPAUbitstream_info@@XZ ; IPCArray<bitstream_info>::operator bitstream_info *
PUBLIC	??7?$IPCArray@Ubitstream_info@@@@QBE_NXZ	; IPCArray<bitstream_info>::operator!
PUBLIC	??C?$IPCType@Uinit_request@@@@QAEPAUinit_request@@XZ ; IPCType<init_request>::operator->
PUBLIC	??0?$IPCSignalledType@Uinit_request@@@@QAE@V?$basic_string@_WU?$char_traits@_W@std@@V?$allocator@_W@2@@std@@@Z ; IPCSignalledType<init_request>::IPCSignalledType<init_request>
PUBLIC	??0?$IPCSignal@$00@@QAE@XZ			; IPCSignal<1>::IPCSignal<1>
PUBLIC	??0?$IPCSignal@$00@@QAE@V?$basic_string@_WU?$char_traits@_W@std@@V?$allocator@_W@2@@std@@@Z ; IPCSignal<1>::IPCSignal<1>
PUBLIC	??4?$IPCSignal@$00@@QAEAAU0@$$QAU0@@Z		; IPCSignal<1>::operator=
PUBLIC	??7?$IPCSignal@$00@@QBE_NXZ			; IPCSignal<1>::operator!
PUBLIC	?signal@?$IPCSignal@$00@@QAEXXZ			; IPCSignal<1>::signal
PUBLIC	?is_signalled@?$IPCSignal@$00@@QAE_NK@Z		; IPCSignal<1>::is_signalled
PUBLIC	?FindValueIndex@?$List@_J@@QBEIAB_J@Z		; List<__int64>::FindValueIndex
PUBLIC	??A?$List@_J@@QAEAA_JI@Z			; List<__int64>::operator[]
PUBLIC	??6?$List@_J@@QAEAAV0@AB_J@Z			; List<__int64>::operator<<
PUBLIC	?Clear@?$List@_J@@QAEXXZ			; List<__int64>::Clear
PUBLIC	?Remove@?$List@_J@@QAEXI@Z			; List<__int64>::Remove
PUBLIC	?Num@?$List@_J@@QBEIXZ				; List<__int64>::Num
PUBLIC	??1?$List@_J@@QAE@XZ				; List<__int64>::~List<__int64>
PUBLIC	??0?$List@_J@@QAE@XZ				; List<__int64>::List<__int64>
PUBLIC	?signal@?$IPCSignal@$0A@@@QAEXXZ		; IPCSignal<0>::signal
PUBLIC	?push_back@?$vector@PAXV?$allocator@PAX@std@@@std@@QAEXABQAX@Z ; std::vector<void *,std::allocator<void *> >::push_back
PUBLIC	?front@?$vector@PAXV?$allocator@PAX@std@@@std@@QAEAAPAXXZ ; std::vector<void *,std::allocator<void *> >::front
PUBLIC	??A?$vector@PAXV?$allocator@PAX@std@@@std@@QAEAAPAXI@Z ; std::vector<void *,std::allocator<void *> >::operator[]
PUBLIC	?size@?$vector@PAXV?$allocator@PAX@std@@@std@@QBEIXZ ; std::vector<void *,std::allocator<void *> >::size
PUBLIC	??4?$vector@PAXV?$allocator@PAX@std@@@std@@QAEAAV01@ABV01@@Z ; std::vector<void *,std::allocator<void *> >::operator=
PUBLIC	??1?$vector@PAXV?$allocator@PAX@std@@@std@@QAE@XZ ; std::vector<void *,std::allocator<void *> >::~vector<void *,std::allocator<void *> >
PUBLIC	??0?$vector@PAXV?$allocator@PAX@std@@@std@@QAE@ABV01@@Z ; std::vector<void *,std::allocator<void *> >::vector<void *,std::allocator<void *> >
PUBLIC	??0?$vector@PAXV?$allocator@PAX@std@@@std@@QAE@XZ ; std::vector<void *,std::allocator<void *> >::vector<void *,std::allocator<void *> >
PUBLIC	??A?$CircularList@I@@QAEAAII@Z			; CircularList<unsigned int>::operator[]
PUBLIC	??6?$CircularList@I@@QAEAAV0@ABI@Z		; CircularList<unsigned int>::operator<<
PUBLIC	?Num@?$CircularList@I@@QBEIXZ			; CircularList<unsigned int>::Num
PUBLIC	?Remove@?$CircularList@I@@QAEXI@Z		; CircularList<unsigned int>::Remove
PUBLIC	??0?$CircularList@I@@QAE@XZ			; CircularList<unsigned int>::CircularList<unsigned int>
PUBLIC	?c_str@?$basic_string@_WU?$char_traits@_W@std@@V?$allocator@_W@2@@std@@QBEPB_WXZ ; std::basic_string<wchar_t,std::char_traits<wchar_t>,std::allocator<wchar_t> >::c_str
PUBLIC	??4?$basic_string@_WU?$char_traits@_W@std@@V?$allocator@_W@2@@std@@QAEAAV01@ABV01@@Z ; std::basic_string<wchar_t,std::char_traits<wchar_t>,std::allocator<wchar_t> >::operator=
PUBLIC	??1?$basic_string@_WU?$char_traits@_W@std@@V?$allocator@_W@2@@std@@QAE@XZ ; std::basic_string<wchar_t,std::char_traits<wchar_t>,std::allocator<wchar_t> >::~basic_string<wchar_t,std::char_traits<wchar_t>,std::allocator<wchar_t> >
PUBLIC	??0?$basic_string@_WU?$char_traits@_W@std@@V?$allocator@_W@2@@std@@QAE@$$QAV01@@Z ; std::basic_string<wchar_t,std::char_traits<wchar_t>,std::allocator<wchar_t> >::basic_string<wchar_t,std::char_traits<wchar_t>,std::allocator<wchar_t> >
PUBLIC	??0?$basic_string@_WU?$char_traits@_W@std@@V?$allocator@_W@2@@std@@QAE@PB_W@Z ; std::basic_string<wchar_t,std::char_traits<wchar_t>,std::allocator<wchar_t> >::basic_string<wchar_t,std::char_traits<wchar_t>,std::allocator<wchar_t> >
PUBLIC	??0?$basic_string@_WU?$char_traits@_W@std@@V?$allocator@_W@2@@std@@QAE@XZ ; std::basic_string<wchar_t,std::char_traits<wchar_t>,std::allocator<wchar_t> >::basic_string<wchar_t,std::char_traits<wchar_t>,std::allocator<wchar_t> >
PUBLIC	??0?$basic_string@_WU?$char_traits@_W@std@@V?$allocator@_W@2@@std@@QAE@ABV01@@Z ; std::basic_string<wchar_t,std::char_traits<wchar_t>,std::allocator<wchar_t> >::basic_string<wchar_t,std::char_traits<wchar_t>,std::allocator<wchar_t> >
PUBLIC	?compare@?$basic_string@DU?$char_traits@D@std@@V?$allocator@D@2@@std@@QBEHPBD@Z ; std::basic_string<char,std::char_traits<char>,std::allocator<char> >::compare
PUBLIC	?append@?$basic_string@DU?$char_traits@D@std@@V?$allocator@D@2@@std@@QAEAAV12@ABV12@@Z ; std::basic_string<char,std::char_traits<char>,std::allocator<char> >::append
PUBLIC	??Y?$basic_string@DU?$char_traits@D@std@@V?$allocator@D@2@@std@@QAEAAV01@ABV01@@Z ; std::basic_string<char,std::char_traits<char>,std::allocator<char> >::operator+=
PUBLIC	??0?$basic_string@DU?$char_traits@D@std@@V?$allocator@D@2@@std@@QAE@PBDI@Z ; std::basic_string<char,std::char_traits<char>,std::allocator<char> >::basic_string<char,std::char_traits<char>,std::allocator<char> >
PUBLIC	??0?$basic_string@DU?$char_traits@D@std@@V?$allocator@D@2@@std@@QAE@XZ ; std::basic_string<char,std::char_traits<char>,std::allocator<char> >::basic_string<char,std::char_traits<char>,std::allocator<char> >
PUBLIC	?InsertArray@?$List@E@@QAEXIPBEI@Z		; List<unsigned char>::InsertArray
PUBLIC	?Insert@?$List@E@@QAEXIABE@Z			; List<unsigned char>::Insert
PUBLIC	?CreateQSVEncoder@@YAPAVVideoEncoder@@HHHHPB_W_NAAUColorDescription@@HH1AAVString@@@Z ; CreateQSVEncoder
PUBLIC	??1?$IPCType@H@@QAE@XZ				; IPCType<int>::~IPCType<int>
PUBLIC	??1?$IPCArray@I@@QAE@XZ				; IPCArray<unsigned int>::~IPCArray<unsigned int>
PUBLIC	??1?$IPCArray@Uqueued_frame@@@@QAE@XZ		; IPCArray<queued_frame>::~IPCArray<queued_frame>
PUBLIC	??1?$IPCArray@E@@QAE@XZ				; IPCArray<unsigned char>::~IPCArray<unsigned char>
PUBLIC	??1?$IPCType@Uspspps_size@@@@QAE@XZ		; IPCType<spspps_size>::~IPCType<spspps_size>
PUBLIC	??1?$IPCType@Uinit_response@@@@QAE@XZ		; IPCType<init_response>::~IPCType<init_response>
PUBLIC	??1?$IPCSignalledType@H@@QAE@XZ			; IPCSignalledType<int>::~IPCSignalledType<int>
PUBLIC	??1?$IPCSignalledArray@I@@QAE@XZ		; IPCSignalledArray<unsigned int>::~IPCSignalledArray<unsigned int>
PUBLIC	??1IPCMutex@@QAE@XZ				; IPCMutex::~IPCMutex
PUBLIC	??1?$IPCSignalledArray@Uqueued_frame@@@@QAE@XZ	; IPCSignalledArray<queued_frame>::~IPCSignalledArray<queued_frame>
PUBLIC	??1?$IPCSignalledArray@E@@QAE@XZ		; IPCSignalledArray<unsigned char>::~IPCSignalledArray<unsigned char>
PUBLIC	??1?$IPCSignalledType@Uspspps_size@@@@QAE@XZ	; IPCSignalledType<spspps_size>::~IPCSignalledType<spspps_size>
PUBLIC	??4IPCWaiter@@QAEAAU0@ABU0@@Z			; IPCWaiter::operator=
PUBLIC	??0IPCWaiter@@QAE@ABU0@@Z			; IPCWaiter::IPCWaiter
PUBLIC	??1?$IPCSignalledType@Uinit_response@@@@QAE@XZ	; IPCSignalledType<init_response>::~IPCSignalledType<init_response>
PUBLIC	??1DTSGenerator@?A0x7e09c670@@QAE@XZ		; `anonymous namespace'::DTSGenerator::~DTSGenerator
PUBLIC	??1?$IPCLockedSignalledType@H@@QAE@XZ		; IPCLockedSignalledType<int>::~IPCLockedSignalledType<int>
PUBLIC	??1?$IPCLockedSignalledArray@I@@QAE@XZ		; IPCLockedSignalledArray<unsigned int>::~IPCLockedSignalledArray<unsigned int>
PUBLIC	??1?$IPCLockedSignalledArray@Uqueued_frame@@@@QAE@XZ ; IPCLockedSignalledArray<queued_frame>::~IPCLockedSignalledArray<queued_frame>
PUBLIC	??1?$CircularList@I@@QAE@XZ			; CircularList<unsigned int>::~CircularList<unsigned int>
PUBLIC	??1?$IPCArray@Ubitstream_info@@@@QAE@XZ		; IPCArray<bitstream_info>::~IPCArray<bitstream_info>
PUBLIC	??1?$IPCSignal@$00@@QAE@XZ			; IPCSignal<1>::~IPCSignal<1>
PUBLIC	??0VideoEncoder@@QAE@XZ				; VideoEncoder::VideoEncoder
PUBLIC	??_GQSVEncoder@@UAEPAXI@Z			; QSVEncoder::`scalar deleting destructor'
PUBLIC	?HasBufferedFrames@QSVEncoder@@UAE_NXZ		; QSVEncoder::HasBufferedFrames
PUBLIC	?isQSV@QSVEncoder@@UAE_NXZ			; QSVEncoder::isQSV
PUBLIC	?RequestKeyframe@QSVEncoder@@UAEXXZ		; QSVEncoder::RequestKeyframe
PUBLIC	?SetBitRate@QSVEncoder@@UAE_NKK@Z		; QSVEncoder::SetBitRate
PUBLIC	?DynamicBitrateSupported@QSVEncoder@@UBE_NXZ	; QSVEncoder::DynamicBitrateSupported
PUBLIC	?GetInfoString@QSVEncoder@@UBE?AVString@@XZ	; QSVEncoder::GetInfoString
PUBLIC	?GetBitRate@QSVEncoder@@UBEHXZ			; QSVEncoder::GetBitRate
PUBLIC	?GetSEI@QSVEncoder@@UAEXAAUDataPacket@@@Z	; QSVEncoder::GetSEI
PUBLIC	?GetHeaders@QSVEncoder@@UAEXAAUDataPacket@@@Z	; QSVEncoder::GetHeaders
PUBLIC	?Encode@QSVEncoder@@UAE_NPAXAAV?$List@UDataPacket@@@@AAV?$List@W4PacketType@@@@KAAK@Z ; QSVEncoder::Encode
PUBLIC	?QueueEncodeTask@QSVEncoder@@QAEXPAUmfxFrameSurface1@@K@Z ; QSVEncoder::QueueEncodeTask
PUBLIC	?RequestBuffers@QSVEncoder@@UAEXPAX@Z		; QSVEncoder::RequestBuffers
PUBLIC	?ProcessEncodedFrame@QSVEncoder@@QAEXAAV?$List@UDataPacket@@@@AAV?$List@W4PacketType@@@@KAAKI@Z ; QSVEncoder::ProcessEncodedFrame
PUBLIC	??1QSVEncoder@@UAE@XZ				; QSVEncoder::~QSVEncoder
PUBLIC	??0QSVEncoder@@QAE@HHHHPB_W_NAAUColorDescription@@HH1@Z ; QSVEncoder::QSVEncoder
PUBLIC	?ClearPackets@QSVEncoder@@AAEXXZ		; QSVEncoder::ClearPackets
PUBLIC	?FreeData@VideoPacket@@QAEXXZ			; VideoPacket::FreeData
PUBLIC	?QSVMethodAvailable@@YA_NG@Z			; QSVMethodAvailable
PUBLIC	?IsKnownQSVCPUPlatform@@YA_NXZ			; IsKnownQSVCPUPlatform
PUBLIC	??1?$IPCSignal@$0A@@@QAE@XZ			; IPCSignal<0>::~IPCSignal<0>
PUBLIC	??1?$IPCType@Uinit_request@@@@QAE@XZ		; IPCType<init_request>::~IPCType<init_request>
PUBLIC	??1?$IPCSignalledType@Uinit_request@@@@QAE@XZ	; IPCSignalledType<init_request>::~IPCSignalledType<init_request>
PUBLIC	??1IPCWaiter@@QAE@XZ				; IPCWaiter::~IPCWaiter
PUBLIC	??0IPCWaiter@@QAE@XZ				; IPCWaiter::IPCWaiter
PUBLIC	?CheckQSVHardwareSupport@@YA_N_NPA_N@Z		; CheckQSVHardwareSupport
PUBLIC	?StopHelper@?A0x7e09c670@@YAXAAU?$IPCSignal@$00@@AAUIPCWaiter@@AAUsafe_handle@@@Z ; `anonymous namespace'::StopHelper
PUBLIC	??RDTSGenerator@?A0x7e09c670@@QAE_J_K_J@Z	; `anonymous namespace'::DTSGenerator::operator()
PUBLIC	?add@DTSGenerator@?A0x7e09c670@@QAEX_K@Z	; `anonymous namespace'::DTSGenerator::add
PUBLIC	?Init@DTSGenerator@?A0x7e09c670@@QAEXIAATmfxVersion@@_N_K@Z ; `anonymous namespace'::DTSGenerator::Init
PUBLIC	??0DTSGenerator@?A0x7e09c670@@QAE@XZ		; `anonymous namespace'::DTSGenerator::DTSGenerator
PUBLIC	?qsv_get_cpu_platform@?A0x7e09c670@@YA?AW4qsv_cpu_platform@1@XZ ; `anonymous namespace'::qsv_get_cpu_platform
PUBLIC	?spawn_helper@?A0x7e09c670@@YA_NAAVString@@AAUsafe_handle@@1AAUIPCWaiter@@@Z ; `anonymous namespace'::spawn_helper
PUBLIC	?qsv_profile_str@?A0x7e09c670@@YAPB_WG@Z	; `anonymous namespace'::qsv_profile_str
PUBLIC	?qsv_intf_str@?A0x7e09c670@@YAPB_WI@Z		; `anonymous namespace'::qsv_intf_str
PUBLIC	??0IPCMutex@@QAE@XZ				; IPCMutex::IPCMutex
PUBLIC	??0IPCMutex@@QAE@V?$basic_string@_WU?$char_traits@_W@std@@V?$allocator@_W@2@@std@@@Z ; IPCMutex::IPCMutex
PUBLIC	?unlock@IPCMutex@@QAEXXZ			; IPCMutex::unlock
PUBLIC	?lock@IPCMutex@@QAEXXZ				; IPCMutex::lock
PUBLIC	?wait_for_multiple_objects@IPCWaiter@@AAEKK@Z	; IPCWaiter::wait_for_multiple_objects
PUBLIC	?wait_timeout@IPCWaiter@@QAE_NK@Z		; IPCWaiter::wait_timeout
PUBLIC	?wait_for_two@IPCWaiter@@QAE_NKKK@Z		; IPCWaiter::wait_for_two
PUBLIC	?wait_for@IPCWaiter@@QAE_NKK@Z			; IPCWaiter::wait_for
PUBLIC	?wait@IPCWaiter@@QAE_NK@Z			; IPCWaiter::wait
PUBLIC	?push_back@IPCWaiter@@QAEXABQAX@Z		; IPCWaiter::push_back
PUBLIC	?InitMemory@NamedSharedMemory@@AAEXXZ		; NamedSharedMemory::InitMemory
PUBLIC	?FreeMemory@NamedSharedMemory@@AAEXXZ		; NamedSharedMemory::FreeMemory
PUBLIC	??0NamedSharedMemory@@QAE@XZ			; NamedSharedMemory::NamedSharedMemory
PUBLIC	??0NamedSharedMemory@@QAE@V?$basic_string@_WU?$char_traits@_W@std@@V?$allocator@_W@2@@std@@_K@Z ; NamedSharedMemory::NamedSharedMemory
PUBLIC	??1NamedSharedMemory@@QAE@XZ			; NamedSharedMemory::~NamedSharedMemory
PUBLIC	??4NamedSharedMemory@@QAEAAU0@$$QAU0@@Z		; NamedSharedMemory::operator=
PUBLIC	??INamedSharedMemory@@QAEPAXXZ			; NamedSharedMemory::operator&
PUBLIC	??7NamedSharedMemory@@QBE_NXZ			; NamedSharedMemory::operator!
PUBLIC	??1safe_handle@@QAE@XZ				; safe_handle::~safe_handle
PUBLIC	??0safe_handle@@QAE@PAX@Z			; safe_handle::safe_handle
PUBLIC	??4safe_handle@@QAEAAU0@$$QAU0@@Z		; safe_handle::operator=
PUBLIC	??7safe_handle@@QBE_NXZ				; safe_handle::operator!
PUBLIC	?reset@safe_handle@@QAEXPAX@Z			; safe_handle::reset
PUBLIC	??Bsafe_handle@@QAEPAXXZ			; safe_handle::operator void *
PUBLIC	??_GVideoEncoder@@UAEPAXI@Z			; VideoEncoder::`scalar deleting destructor'
PUBLIC	?HasBufferedFrames@VideoEncoder@@UAE_NXZ	; VideoEncoder::HasBufferedFrames
PUBLIC	?GetBufferedFrames@VideoEncoder@@UAEHXZ		; VideoEncoder::GetBufferedFrames
PUBLIC	?isQSV@VideoEncoder@@UAE_NXZ			; VideoEncoder::isQSV
PUBLIC	?RequestKeyframe@VideoEncoder@@UAEXXZ		; VideoEncoder::RequestKeyframe
PUBLIC	?GetSEI@VideoEncoder@@UAEXAAUDataPacket@@@Z	; VideoEncoder::GetSEI
PUBLIC	??1VideoEncoder@@UAE@XZ				; VideoEncoder::~VideoEncoder
PUBLIC	?RequestBuffers@VideoEncoder@@MAEXPAX@Z		; VideoEncoder::RequestBuffers
PUBLIC	?compare@?$char_traits@D@std@@SAHPBD0I@Z	; std::char_traits<char>::compare
PUBLIC	?assign@?$char_traits@_W@std@@SAXAA_WAB_W@Z	; std::char_traits<wchar_t>::assign
PUBLIC	?move@?$char_traits@_W@std@@SAPA_WPA_WPB_WI@Z	; std::char_traits<wchar_t>::move
PUBLIC	?copy@?$char_traits@_W@std@@SAPA_WPA_WPB_WI@Z	; std::char_traits<wchar_t>::copy
PUBLIC	?length@?$char_traits@_W@std@@SAIPB_W@Z		; std::char_traits<wchar_t>::length
PUBLIC	?max@?$numeric_limits@G@std@@SAGXZ		; std::numeric_limits<unsigned short>::max
PUBLIC	?min@?$numeric_limits@G@std@@SAGXZ		; std::numeric_limits<unsigned short>::min
PUBLIC	_wmemmove
PUBLIC	_wmemcpy
PUBLIC	?mcpyrev@@YGXPAXPBXI@Z				; mcpyrev
EXTRN	??_EVideoEncoder@@UAEPAXI@Z:PROC		; VideoEncoder::`vector deleting destructor'
EXTRN	??_EQSVEncoder@@UAEPAXI@Z:PROC			; QSVEncoder::`vector deleting destructor'
;	COMDAT ?plat@?1??IsKnownQSVCPUPlatform@@YA_NXZ@4W4qsv_cpu_platform@?A0x7e09c670@@A
_BSS	SEGMENT
?plat@?1??IsKnownQSVCPUPlatform@@YA_NXZ@4W4qsv_cpu_platform@?A0x7e09c670@@A DD 01H DUP (?) ; `IsKnownQSVCPUPlatform'::`2'::plat
_BSS	ENDS
;	COMDAT ?plat@?1??QSVMethodAvailable@@YA_NG@Z@4W4qsv_cpu_platform@?A0x7e09c670@@A
_BSS	SEGMENT
?plat@?1??QSVMethodAvailable@@YA_NG@Z@4W4qsv_cpu_platform@?A0x7e09c670@@A DD 01H DUP (?) ; `QSVMethodAvailable'::`2'::plat
	ALIGN	4

__Tuple_alloc DB 01H DUP (?)
_BSS	ENDS
;	COMDAT ?$S2@?1??QSVMethodAvailable@@YA_NG@Z@4IA
_BSS	SEGMENT
?$S2@?1??QSVMethodAvailable@@YA_NG@Z@4IA DD 01H DUP (?)	; S2<`template-parameter-2',bool [ ?? ],unsigned short>
	ALIGN	4

_ignore	DB	01H DUP (?)
	ALIGN	4

_allocator_arg DB 01H DUP (?)
_BSS	ENDS
;	COMDAT ?$S1@?1??IsKnownQSVCPUPlatform@@YA_NXZ@4IA
_BSS	SEGMENT
?$S1@?1??IsKnownQSVCPUPlatform@@YA_NXZ@4IA DD 01H DUP (?) ; S1<`template-parameter-2',KnownQSVCPUPlatform,unsigned int, ?? &>
	ALIGN	4

_piecewise_construct DB 01H DUP (?)
_BSS	ENDS
;	COMDAT xdata$x
xdata$x	SEGMENT
__ehfuncinfo$?CreateQSVEncoder@@YAPAVVideoEncoder@@HHHHPB_W_NAAUColorDescription@@HH1AAVString@@@Z DD 019930522H
	DD	02H
	DD	FLAT:__unwindtable$?CreateQSVEncoder@@YAPAVVideoEncoder@@HHHHPB_W_NAAUColorDescription@@HH1AAVString@@@Z
	DD	01H
	DD	FLAT:__tryblocktable$?CreateQSVEncoder@@YAPAVVideoEncoder@@HHHHPB_W_NAAUColorDescription@@HH1AAVString@@@Z
	DD	2 DUP(00H)
	DD	00H
	DD	00H
__unwindtable$?CreateQSVEncoder@@YAPAVVideoEncoder@@HHHHPB_W_NAAUColorDescription@@HH1AAVString@@@Z DD 0ffffffffH
	DD	00H
	DD	0ffffffffH
	DD	00H
__tryblocktable$?CreateQSVEncoder@@YAPAVVideoEncoder@@HHHHPB_W_NAAUColorDescription@@HH1AAVString@@@Z DD 00H
	DD	00H
	DD	01H
	DD	02H
	DD	FLAT:__catchsym$?CreateQSVEncoder@@YAPAVVideoEncoder@@HHHHPB_W_NAAUColorDescription@@HH1AAVString@@@Z$3
__catchsym$?CreateQSVEncoder@@YAPAVVideoEncoder@@HHHHPB_W_NAAUColorDescription@@HH1AAVString@@@Z$3 DD 01H
	DD	FLAT:??_R0PA_W@8
	DD	0ffffffdcH
	DD	FLAT:__catch$?CreateQSVEncoder@@YAPAVVideoEncoder@@HHHHPB_W_NAAUColorDescription@@HH1AAVString@@@Z$0
	DD	00H
	DD	00H
	DD	00H
	DD	FLAT:__catch$?CreateQSVEncoder@@YAPAVVideoEncoder@@HHHHPB_W_NAAUColorDescription@@HH1AAVString@@@Z$1
xdata$x	ENDS
;	COMDAT xdata$x
xdata$x	SEGMENT
__ehfuncinfo$??0?$vector@PAXV?$allocator@PAX@std@@@std@@QAE@ABV01@@Z DD 019930522H
	DD	02H
	DD	FLAT:__unwindtable$??0?$vector@PAXV?$allocator@PAX@std@@@std@@QAE@ABV01@@Z
	DD	01H
	DD	FLAT:__tryblocktable$??0?$vector@PAXV?$allocator@PAX@std@@@std@@QAE@ABV01@@Z
	DD	2 DUP(00H)
	DD	00H
	DD	00H
__unwindtable$??0?$vector@PAXV?$allocator@PAX@std@@@std@@QAE@ABV01@@Z DD 0ffffffffH
	DD	00H
	DD	0ffffffffH
	DD	00H
__tryblocktable$??0?$vector@PAXV?$allocator@PAX@std@@@std@@QAE@ABV01@@Z DD 00H
	DD	00H
	DD	01H
	DD	01H
	DD	FLAT:__catchsym$??0?$vector@PAXV?$allocator@PAX@std@@@std@@QAE@ABV01@@Z$2
__catchsym$??0?$vector@PAXV?$allocator@PAX@std@@@std@@QAE@ABV01@@Z$2 DD 00H
	DD	00H
	DD	00H
	DD	FLAT:__catch$??0?$vector@PAXV?$allocator@PAX@std@@@std@@QAE@ABV01@@Z$0
xdata$x	ENDS
;	COMDAT xdata$x
xdata$x	SEGMENT
__ehfuncinfo$??4?$vector@PAXV?$allocator@PAX@std@@@std@@QAEAAV01@ABV01@@Z DD 019930522H
	DD	02H
	DD	FLAT:__unwindtable$??4?$vector@PAXV?$allocator@PAX@std@@@std@@QAEAAV01@ABV01@@Z
	DD	01H
	DD	FLAT:__tryblocktable$??4?$vector@PAXV?$allocator@PAX@std@@@std@@QAEAAV01@ABV01@@Z
	DD	2 DUP(00H)
	DD	00H
	DD	00H
__unwindtable$??4?$vector@PAXV?$allocator@PAX@std@@@std@@QAEAAV01@ABV01@@Z DD 0ffffffffH
	DD	00H
	DD	0ffffffffH
	DD	00H
__tryblocktable$??4?$vector@PAXV?$allocator@PAX@std@@@std@@QAEAAV01@ABV01@@Z DD 00H
	DD	00H
	DD	01H
	DD	01H
	DD	FLAT:__catchsym$??4?$vector@PAXV?$allocator@PAX@std@@@std@@QAEAAV01@ABV01@@Z$2
__catchsym$??4?$vector@PAXV?$allocator@PAX@std@@@std@@QAEAAV01@ABV01@@Z$2 DD 00H
	DD	00H
	DD	00H
	DD	FLAT:__catch$??4?$vector@PAXV?$allocator@PAX@std@@@std@@QAEAAV01@ABV01@@Z$0
xdata$x	ENDS
;	COMDAT xdata$x
xdata$x	SEGMENT
__ehfuncinfo$?_Reallocate@?$vector@PAXV?$allocator@PAX@std@@@std@@IAEXI@Z DD 019930522H
	DD	02H
	DD	FLAT:__unwindtable$?_Reallocate@?$vector@PAXV?$allocator@PAX@std@@@std@@IAEXI@Z
	DD	01H
	DD	FLAT:__tryblocktable$?_Reallocate@?$vector@PAXV?$allocator@PAX@std@@@std@@IAEXI@Z
	DD	2 DUP(00H)
	DD	00H
	DD	00H
__unwindtable$?_Reallocate@?$vector@PAXV?$allocator@PAX@std@@@std@@IAEXI@Z DD 0ffffffffH
	DD	00H
	DD	0ffffffffH
	DD	00H
__tryblocktable$?_Reallocate@?$vector@PAXV?$allocator@PAX@std@@@std@@IAEXI@Z DD 00H
	DD	00H
	DD	01H
	DD	01H
	DD	FLAT:__catchsym$?_Reallocate@?$vector@PAXV?$allocator@PAX@std@@@std@@IAEXI@Z$2
__catchsym$?_Reallocate@?$vector@PAXV?$allocator@PAX@std@@@std@@IAEXI@Z$2 DD 00H
	DD	00H
	DD	00H
	DD	FLAT:__catch$?_Reallocate@?$vector@PAXV?$allocator@PAX@std@@@std@@IAEXI@Z$0
xdata$x	ENDS
;	COMDAT xdata$x
xdata$x	SEGMENT
__ehfuncinfo$?_Copy@?$basic_string@_WU?$char_traits@_W@std@@V?$allocator@_W@2@@std@@QAEXII@Z DD 019930522H
	DD	04H
	DD	FLAT:__unwindtable$?_Copy@?$basic_string@_WU?$char_traits@_W@std@@V?$allocator@_W@2@@std@@QAEXII@Z
	DD	02H
	DD	FLAT:__tryblocktable$?_Copy@?$basic_string@_WU?$char_traits@_W@std@@V?$allocator@_W@2@@std@@QAEXII@Z
	DD	2 DUP(00H)
	DD	00H
	DD	00H
__unwindtable$?_Copy@?$basic_string@_WU?$char_traits@_W@std@@V?$allocator@_W@2@@std@@QAEXII@Z DD 0ffffffffH
	DD	00H
	DD	0ffffffffH
	DD	00H
	DD	01H
	DD	00H
	DD	01H
	DD	00H
__tryblocktable$?_Copy@?$basic_string@_WU?$char_traits@_W@std@@V?$allocator@_W@2@@std@@QAEXII@Z DD 02H
	DD	02H
	DD	03H
	DD	01H
	DD	FLAT:__catchsym$?_Copy@?$basic_string@_WU?$char_traits@_W@std@@V?$allocator@_W@2@@std@@QAEXII@Z$4
	DD	00H
	DD	00H
	DD	03H
	DD	01H
	DD	FLAT:__catchsym$?_Copy@?$basic_string@_WU?$char_traits@_W@std@@V?$allocator@_W@2@@std@@QAEXII@Z$5
__catchsym$?_Copy@?$basic_string@_WU?$char_traits@_W@std@@V?$allocator@_W@2@@std@@QAEXII@Z$4 DD 00H
	DD	00H
	DD	00H
	DD	FLAT:__catch$?_Copy@?$basic_string@_WU?$char_traits@_W@std@@V?$allocator@_W@2@@std@@QAEXII@Z$1
__catchsym$?_Copy@?$basic_string@_WU?$char_traits@_W@std@@V?$allocator@_W@2@@std@@QAEXII@Z$5 DD 00H
	DD	00H
	DD	00H
	DD	FLAT:__catch$?_Copy@?$basic_string@_WU?$char_traits@_W@std@@V?$allocator@_W@2@@std@@QAEXII@Z$0
_piecewise_construct$initializer$ DD FLAT:??__Epiecewise_construct@std@@YAXXZ
_allocator_arg$initializer$ DD FLAT:??__Eallocator_arg@std@@YAXXZ
_ignore$initializer$ DD FLAT:??__Eignore@std@@YAXXZ
__Tuple_alloc$initializer$ DD FLAT:??__E_Tuple_alloc@std@@YAXXZ
; Function compile flags: /Odtp
; File f:\songmm_moon_stone_obs\obs\obsapi\utility\inline.h
;	COMDAT ?mcpyrev@@YGXPAXPBXI@Z
_TEXT	SEGMENT
tv75 = -32						; size = 4
tv70 = -28						; size = 4
_iLenMod4$ = -24					; size = 4
_iLenDiv4$ = -20					; size = 4
_destDW$ = -16						; size = 4
_srcDW$ = -12						; size = 4
_srcB$ = -8						; size = 4
_destB$ = -4						; size = 4
_pDest$ = 8						; size = 4
_pSrc$ = 12						; size = 4
_iLen$ = 16						; size = 4
?mcpyrev@@YGXPAXPBXI@Z PROC				; mcpyrev, COMDAT

; 283  : {

	push	ebp
	mov	ebp, esp
	sub	esp, 32					; 00000020H

; 284  :     assert(pDest);
; 285  :     assert(pSrc);
; 286  : 
; 287  :     register size_t iLenMod4 = iLen&3;

	mov	eax, DWORD PTR _iLen$[ebp]
	and	eax, 3
	mov	DWORD PTR _iLenMod4$[ebp], eax

; 288  :     register size_t iLenDiv4 = iLen>>2;

	mov	ecx, DWORD PTR _iLen$[ebp]
	shr	ecx, 2
	mov	DWORD PTR _iLenDiv4$[ebp], ecx

; 289  : 
; 290  :     register BYTE *srcB = (BYTE*)pSrc, *destB = (BYTE*)pDest;

	mov	edx, DWORD PTR _pSrc$[ebp]
	mov	DWORD PTR _srcB$[ebp], edx
	mov	eax, DWORD PTR _pDest$[ebp]
	mov	DWORD PTR _destB$[ebp], eax

; 291  :     register DWORD *srcDW = (DWORD*)(srcB+iLen), *destDW = (DWORD*)(destB+iLen);

	mov	ecx, DWORD PTR _srcB$[ebp]
	add	ecx, DWORD PTR _iLen$[ebp]
	mov	DWORD PTR _srcDW$[ebp], ecx
	mov	edx, DWORD PTR _destB$[ebp]
	add	edx, DWORD PTR _iLen$[ebp]
	mov	DWORD PTR _destDW$[ebp], edx
$LN4@mcpyrev:

; 292  :     while(iLenDiv4--)

	mov	eax, DWORD PTR _iLenDiv4$[ebp]
	mov	DWORD PTR tv70[ebp], eax
	mov	ecx, DWORD PTR _iLenDiv4$[ebp]
	sub	ecx, 1
	mov	DWORD PTR _iLenDiv4$[ebp], ecx
	cmp	DWORD PTR tv70[ebp], 0
	je	SHORT $LN3@mcpyrev

; 293  :         *(--destDW) = *(--srcDW);

	mov	edx, DWORD PTR _srcDW$[ebp]
	sub	edx, 4
	mov	DWORD PTR _srcDW$[ebp], edx
	mov	eax, DWORD PTR _destDW$[ebp]
	sub	eax, 4
	mov	DWORD PTR _destDW$[ebp], eax
	mov	ecx, DWORD PTR _destDW$[ebp]
	mov	edx, DWORD PTR _srcDW$[ebp]
	mov	eax, DWORD PTR [edx]
	mov	DWORD PTR [ecx], eax
	jmp	SHORT $LN4@mcpyrev
$LN3@mcpyrev:

; 294  : 
; 295  :     srcB = (BYTE*)srcDW;

	mov	ecx, DWORD PTR _srcDW$[ebp]
	mov	DWORD PTR _srcB$[ebp], ecx

; 296  :     destB = (BYTE*)destDW;

	mov	edx, DWORD PTR _destDW$[ebp]
	mov	DWORD PTR _destB$[ebp], edx
$LN2@mcpyrev:

; 297  :     while(iLenMod4--)

	mov	eax, DWORD PTR _iLenMod4$[ebp]
	mov	DWORD PTR tv75[ebp], eax
	mov	ecx, DWORD PTR _iLenMod4$[ebp]
	sub	ecx, 1
	mov	DWORD PTR _iLenMod4$[ebp], ecx
	cmp	DWORD PTR tv75[ebp], 0
	je	SHORT $LN5@mcpyrev

; 298  :         *(--destB) = *(--srcB);

	mov	edx, DWORD PTR _srcB$[ebp]
	sub	edx, 1
	mov	DWORD PTR _srcB$[ebp], edx
	mov	eax, DWORD PTR _destB$[ebp]
	sub	eax, 1
	mov	DWORD PTR _destB$[ebp], eax
	mov	ecx, DWORD PTR _destB$[ebp]
	mov	edx, DWORD PTR _srcB$[ebp]
	mov	al, BYTE PTR [edx]
	mov	BYTE PTR [ecx], al
	jmp	SHORT $LN2@mcpyrev
$LN5@mcpyrev:

; 299  : }

	mov	esp, ebp
	pop	ebp
	ret	12					; 0000000cH
?mcpyrev@@YGXPAXPBXI@Z ENDP				; mcpyrev
_TEXT	ENDS
; Function compile flags: /Odtp
; File d:\vs2013\vc\include\wchar.h
;	COMDAT _wmemcpy
_TEXT	SEGMENT
__S1$ = 8						; size = 4
__S2$ = 12						; size = 4
__N$ = 16						; size = 4
_wmemcpy PROC						; COMDAT

; 1271 :         {

	push	ebp
	mov	ebp, esp

; 1272 : #pragma warning( push )
; 1273 : #pragma warning( disable : 4996 6386 )
; 1274 :             return (wchar_t *)memcpy(_S1, _S2, _N*sizeof(wchar_t));

	mov	eax, DWORD PTR __N$[ebp]
	shl	eax, 1
	push	eax
	mov	ecx, DWORD PTR __S2$[ebp]
	push	ecx
	mov	edx, DWORD PTR __S1$[ebp]
	push	edx
	call	_memcpy
	add	esp, 12					; 0000000cH

; 1275 : #pragma warning( pop )
; 1276 :         }

	pop	ebp
	ret	0
_wmemcpy ENDP
_TEXT	ENDS
; Function compile flags: /Odtp
; File d:\vs2013\vc\include\wchar.h
;	COMDAT _wmemmove
_TEXT	SEGMENT
__S1$ = 8						; size = 4
__S2$ = 12						; size = 4
__N$ = 16						; size = 4
_wmemmove PROC						; COMDAT

; 1279 :         {

	push	ebp
	mov	ebp, esp

; 1280 : #pragma warning( push )
; 1281 : #pragma warning( disable : 4996 6386 )
; 1282 : #pragma warning( disable : 6387)
; 1283 :                         /* prefast noise VSW 493303 */
; 1284 :             return (wchar_t *)memmove(_S1, _S2, _N*sizeof(wchar_t));

	mov	eax, DWORD PTR __N$[ebp]
	shl	eax, 1
	push	eax
	mov	ecx, DWORD PTR __S2$[ebp]
	push	ecx
	mov	edx, DWORD PTR __S1$[ebp]
	push	edx
	call	_memmove
	add	esp, 12					; 0000000cH

; 1285 : #pragma warning( pop )
; 1286 :         }

	pop	ebp
	ret	0
_wmemmove ENDP
_TEXT	ENDS
; Function compile flags: /Odtp
; File d:\vs2013\vc\include\limits
;	COMDAT ?min@?$numeric_limits@G@std@@SAGXZ
_TEXT	SEGMENT
?min@?$numeric_limits@G@std@@SAGXZ PROC			; std::numeric_limits<unsigned short>::min, COMDAT

; 536  : 	static _Ty (min)() _THROW0()

	push	ebp
	mov	ebp, esp

; 537  : 		{	// return minimum value
; 538  : 		return (0);

	xor	eax, eax

; 539  : 		}

	pop	ebp
	ret	0
?min@?$numeric_limits@G@std@@SAGXZ ENDP			; std::numeric_limits<unsigned short>::min
_TEXT	ENDS
; Function compile flags: /Odtp
; File d:\vs2013\vc\include\limits
;	COMDAT ?max@?$numeric_limits@G@std@@SAGXZ
_TEXT	SEGMENT
?max@?$numeric_limits@G@std@@SAGXZ PROC			; std::numeric_limits<unsigned short>::max, COMDAT

; 541  : 	static _Ty (max)() _THROW0()

	push	ebp
	mov	ebp, esp

; 542  : 		{	// return maximum value
; 543  : 		return (USHRT_MAX);

	mov	eax, 65535				; 0000ffffH

; 544  : 		}

	pop	ebp
	ret	0
?max@?$numeric_limits@G@std@@SAGXZ ENDP			; std::numeric_limits<unsigned short>::max
_TEXT	ENDS
; Function compile flags: /Odtp
; File d:\vs2013\vc\include\iosfwd
;	COMDAT ?length@?$char_traits@_W@std@@SAIPB_W@Z
_TEXT	SEGMENT
tv68 = -20						; size = 4
tv75 = -16						; size = 4
tv69 = -12						; size = 4
tv72 = -8						; size = 4
tv78 = -2						; size = 2
__First$ = 8						; size = 4
?length@?$char_traits@_W@std@@SAIPB_W@Z PROC		; std::char_traits<wchar_t>::length, COMDAT

; 304  : 		{	// find length of null-terminated sequence

	push	ebp
	mov	ebp, esp
	sub	esp, 20					; 00000014H

; 305  : 		return (*_First == 0 ? 0
; 306  : 			: _CSTD wcslen(_First));

	mov	eax, DWORD PTR __First$[ebp]
	movzx	ecx, WORD PTR [eax]
	test	ecx, ecx
	jne	SHORT $LN3@length
	mov	DWORD PTR tv69[ebp], 0
	jmp	SHORT $LN4@length
$LN3@length:
	mov	edx, DWORD PTR __First$[ebp]
	mov	DWORD PTR tv72[ebp], edx
	mov	eax, DWORD PTR tv72[ebp]
	add	eax, 2
	mov	DWORD PTR tv75[ebp], eax
$LL5@length:
	mov	ecx, DWORD PTR tv72[ebp]
	mov	dx, WORD PTR [ecx]
	mov	WORD PTR tv78[ebp], dx
	add	DWORD PTR tv72[ebp], 2
	cmp	WORD PTR tv78[ebp], 0
	jne	SHORT $LL5@length
	mov	eax, DWORD PTR tv72[ebp]
	sub	eax, DWORD PTR tv75[ebp]
	sar	eax, 1
	mov	DWORD PTR tv68[ebp], eax
	mov	ecx, DWORD PTR tv68[ebp]
	mov	DWORD PTR tv69[ebp], ecx
$LN4@length:
	mov	eax, DWORD PTR tv69[ebp]

; 307  : 		}

	mov	esp, ebp
	pop	ebp
	ret	0
?length@?$char_traits@_W@std@@SAIPB_W@Z ENDP		; std::char_traits<wchar_t>::length
_TEXT	ENDS
; Function compile flags: /Odtp
; File d:\vs2013\vc\include\iosfwd
;	COMDAT ?copy@?$char_traits@_W@std@@SAPA_WPA_WPB_WI@Z
_TEXT	SEGMENT
tv69 = -4						; size = 4
__First1$ = 8						; size = 4
__First2$ = 12						; size = 4
__Count$ = 16						; size = 4
?copy@?$char_traits@_W@std@@SAPA_WPA_WPB_WI@Z PROC	; std::char_traits<wchar_t>::copy, COMDAT

; 311  : 		{	// copy [_First2, _First2 + _Count) to [_First1, ...)

	push	ebp
	mov	ebp, esp
	push	ecx

; 312  : 		return (_Count == 0 ? _First1
; 313  : 			: (_Elem *)_CSTD wmemcpy(_First1, _First2, _Count));

	cmp	DWORD PTR __Count$[ebp], 0
	jne	SHORT $LN3@copy
	mov	eax, DWORD PTR __First1$[ebp]
	mov	DWORD PTR tv69[ebp], eax
	jmp	SHORT $LN4@copy
$LN3@copy:
	mov	ecx, DWORD PTR __Count$[ebp]
	push	ecx
	mov	edx, DWORD PTR __First2$[ebp]
	push	edx
	mov	eax, DWORD PTR __First1$[ebp]
	push	eax
	call	_wmemcpy
	add	esp, 12					; 0000000cH
	mov	DWORD PTR tv69[ebp], eax
$LN4@copy:
	mov	eax, DWORD PTR tv69[ebp]

; 314  : 		}

	mov	esp, ebp
	pop	ebp
	ret	0
?copy@?$char_traits@_W@std@@SAPA_WPA_WPB_WI@Z ENDP	; std::char_traits<wchar_t>::copy
_TEXT	ENDS
; Function compile flags: /Odtp
; File d:\vs2013\vc\include\iosfwd
;	COMDAT ?move@?$char_traits@_W@std@@SAPA_WPA_WPB_WI@Z
_TEXT	SEGMENT
tv69 = -4						; size = 4
__First1$ = 8						; size = 4
__First2$ = 12						; size = 4
__Count$ = 16						; size = 4
?move@?$char_traits@_W@std@@SAPA_WPA_WPB_WI@Z PROC	; std::char_traits<wchar_t>::move, COMDAT

; 334  : 		{	// copy [_First2, _First2 + _Count) to [_First1, ...)

	push	ebp
	mov	ebp, esp
	push	ecx

; 335  : 		return (_Count == 0 ? _First1
; 336  : 			: (_Elem *)_CSTD wmemmove(_First1, _First2, _Count));

	cmp	DWORD PTR __Count$[ebp], 0
	jne	SHORT $LN3@move
	mov	eax, DWORD PTR __First1$[ebp]
	mov	DWORD PTR tv69[ebp], eax
	jmp	SHORT $LN4@move
$LN3@move:
	mov	ecx, DWORD PTR __Count$[ebp]
	push	ecx
	mov	edx, DWORD PTR __First2$[ebp]
	push	edx
	mov	eax, DWORD PTR __First1$[ebp]
	push	eax
	call	_wmemmove
	add	esp, 12					; 0000000cH
	mov	DWORD PTR tv69[ebp], eax
$LN4@move:
	mov	eax, DWORD PTR tv69[ebp]

; 337  : 		}

	mov	esp, ebp
	pop	ebp
	ret	0
?move@?$char_traits@_W@std@@SAPA_WPA_WPB_WI@Z ENDP	; std::char_traits<wchar_t>::move
_TEXT	ENDS
; Function compile flags: /Odtp
; File d:\vs2013\vc\include\iosfwd
;	COMDAT ?assign@?$char_traits@_W@std@@SAXAA_WAB_W@Z
_TEXT	SEGMENT
__Left$ = 8						; size = 4
__Right$ = 12						; size = 4
?assign@?$char_traits@_W@std@@SAXAA_WAB_W@Z PROC	; std::char_traits<wchar_t>::assign, COMDAT

; 346  : 		{	// assign an element

	push	ebp
	mov	ebp, esp

; 347  : 		_Left = _Right;

	mov	eax, DWORD PTR __Left$[ebp]
	mov	ecx, DWORD PTR __Right$[ebp]
	mov	dx, WORD PTR [ecx]
	mov	WORD PTR [eax], dx

; 348  : 		}

	pop	ebp
	ret	0
?assign@?$char_traits@_W@std@@SAXAA_WAB_W@Z ENDP	; std::char_traits<wchar_t>::assign
_TEXT	ENDS
; Function compile flags: /Odtp
; File d:\vs2013\vc\include\iosfwd
;	COMDAT ?compare@?$char_traits@D@std@@SAHPBD0I@Z
_TEXT	SEGMENT
tv69 = -8						; size = 4
tv70 = -4						; size = 4
__First1$ = 8						; size = 4
__First2$ = 12						; size = 4
__Count$ = 16						; size = 4
?compare@?$char_traits@D@std@@SAHPBD0I@Z PROC		; std::char_traits<char>::compare, COMDAT

; 515  : 		{	// compare [_First1, _First1 + _Count) with [_First2, ...)

	push	ebp
	mov	ebp, esp
	sub	esp, 8

; 516  : 		return (_Count == 0 ? 0
; 517  : 			: _CSTD memcmp(_First1, _First2, _Count));

	cmp	DWORD PTR __Count$[ebp], 0
	jne	SHORT $LN3@compare
	mov	DWORD PTR tv70[ebp], 0
	jmp	SHORT $LN4@compare
$LN3@compare:
	mov	eax, DWORD PTR __Count$[ebp]
	push	eax
	mov	ecx, DWORD PTR __First2$[ebp]
	push	ecx
	mov	edx, DWORD PTR __First1$[ebp]
	push	edx
	call	_memcmp
	add	esp, 12					; 0000000cH
	mov	DWORD PTR tv69[ebp], eax
	mov	eax, DWORD PTR tv69[ebp]
	mov	DWORD PTR tv70[ebp], eax
$LN4@compare:
	mov	eax, DWORD PTR tv70[ebp]

; 518  : 		}

	mov	esp, ebp
	pop	ebp
	ret	0
?compare@?$char_traits@D@std@@SAHPBD0I@Z ENDP		; std::char_traits<char>::compare
_TEXT	ENDS
; Function compile flags: /Odtp
; File d:\vs2013\vc\include\utility
;	COMDAT ??__Epiecewise_construct@std@@YAXXZ
text$di	SEGMENT
$T1 = -1						; size = 1
??__Epiecewise_construct@std@@YAXXZ PROC		; std::`dynamic initializer for 'piecewise_construct'', COMDAT

; 70   : 	piecewise_construct_t();

	push	ebp
	mov	ebp, esp
	push	ecx
	xor	eax, eax
	mov	BYTE PTR $T1[ebp], al
	mov	esp, ebp
	pop	ebp
	ret	0
??__Epiecewise_construct@std@@YAXXZ ENDP		; std::`dynamic initializer for 'piecewise_construct''
text$di	ENDS
; Function compile flags: /Odtp
; File d:\vs2013\vc\include\xutility
;	COMDAT ??__Eallocator_arg@std@@YAXXZ
text$di	SEGMENT
$T1 = -1						; size = 1
??__Eallocator_arg@std@@YAXXZ PROC			; std::`dynamic initializer for 'allocator_arg'', COMDAT

; 3451 : const allocator_arg_t allocator_arg = allocator_arg_t();

	push	ebp
	mov	ebp, esp
	push	ecx
	xor	eax, eax
	mov	BYTE PTR $T1[ebp], al
	mov	esp, ebp
	pop	ebp
	ret	0
??__Eallocator_arg@std@@YAXXZ ENDP			; std::`dynamic initializer for 'allocator_arg''
text$di	ENDS
; Function compile flags: /Odtp
; File d:\vs2013\vc\include\tuple
;	COMDAT ??__Eignore@std@@YAXXZ
text$di	SEGMENT
??__Eignore@std@@YAXXZ PROC				; std::`dynamic initializer for 'ignore'', COMDAT

; 59   : const _Ignore ignore;

	push	ebp
	mov	ebp, esp
	mov	ecx, OFFSET _ignore
	call	??0_Ignore@std@@QAE@XZ			; std::_Ignore::_Ignore
	pop	ebp
	ret	0
??__Eignore@std@@YAXXZ ENDP				; std::`dynamic initializer for 'ignore''
text$di	ENDS
; Function compile flags: /Odtp
; File d:\vs2013\vc\include\tuple
;	COMDAT ??__E_Tuple_alloc@std@@YAXXZ
text$di	SEGMENT
$T1 = -1						; size = 1
??__E_Tuple_alloc@std@@YAXXZ PROC			; std::`dynamic initializer for '_Tuple_alloc'', COMDAT

; 66   : const _Tuple_alloc_t _Tuple_alloc = _Tuple_alloc_t();

	push	ebp
	mov	ebp, esp
	push	ecx
	xor	eax, eax
	mov	BYTE PTR $T1[ebp], al
	mov	esp, ebp
	pop	ebp
	ret	0
??__E_Tuple_alloc@std@@YAXXZ ENDP			; std::`dynamic initializer for '_Tuple_alloc''
text$di	ENDS
; Function compile flags: /Odtp
; File f:\songmm_moon_stone_obs\obs\source\obs.h
;	COMDAT ?RequestBuffers@VideoEncoder@@MAEXPAX@Z
_TEXT	SEGMENT
_this$ = -4						; size = 4
_buffers$ = 8						; size = 4
?RequestBuffers@VideoEncoder@@MAEXPAX@Z PROC		; VideoEncoder::RequestBuffers, COMDAT
; _this$ = ecx

; 182  :     virtual void RequestBuffers(LPVOID buffers) {}

	push	ebp
	mov	ebp, esp
	push	ecx
	mov	DWORD PTR _this$[ebp], ecx
	mov	esp, ebp
	pop	ebp
	ret	4
?RequestBuffers@VideoEncoder@@MAEXPAX@Z ENDP		; VideoEncoder::RequestBuffers
_TEXT	ENDS
; Function compile flags: /Odtp
; File f:\songmm_moon_stone_obs\obs\source\obs.h
;	COMDAT ??1VideoEncoder@@UAE@XZ
_TEXT	SEGMENT
_this$ = -4						; size = 4
??1VideoEncoder@@UAE@XZ PROC				; VideoEncoder::~VideoEncoder, COMDAT
; _this$ = ecx

; 185  :     virtual ~VideoEncoder() {}

	push	ebp
	mov	ebp, esp
	push	ecx
	mov	DWORD PTR _this$[ebp], ecx
	mov	eax, DWORD PTR _this$[ebp]
	mov	DWORD PTR [eax], OFFSET ??_7VideoEncoder@@6B@
	mov	esp, ebp
	pop	ebp
	ret	0
??1VideoEncoder@@UAE@XZ ENDP				; VideoEncoder::~VideoEncoder
_TEXT	ENDS
; Function compile flags: /Odtp
; File f:\songmm_moon_stone_obs\obs\source\obs.h
;	COMDAT ?GetSEI@VideoEncoder@@UAEXAAUDataPacket@@@Z
_TEXT	SEGMENT
_this$ = -4						; size = 4
_packet$ = 8						; size = 4
?GetSEI@VideoEncoder@@UAEXAAUDataPacket@@@Z PROC	; VideoEncoder::GetSEI, COMDAT
; _this$ = ecx

; 192  :     virtual void GetSEI(DataPacket &packet) {}

	push	ebp
	mov	ebp, esp
	push	ecx
	mov	DWORD PTR _this$[ebp], ecx
	mov	esp, ebp
	pop	ebp
	ret	4
?GetSEI@VideoEncoder@@UAEXAAUDataPacket@@@Z ENDP	; VideoEncoder::GetSEI
_TEXT	ENDS
; Function compile flags: /Odtp
; File f:\songmm_moon_stone_obs\obs\source\obs.h
;	COMDAT ?RequestKeyframe@VideoEncoder@@UAEXXZ
_TEXT	SEGMENT
_this$ = -4						; size = 4
?RequestKeyframe@VideoEncoder@@UAEXXZ PROC		; VideoEncoder::RequestKeyframe, COMDAT
; _this$ = ecx

; 194  :     virtual void RequestKeyframe() {}

	push	ebp
	mov	ebp, esp
	push	ecx
	mov	DWORD PTR _this$[ebp], ecx
	mov	esp, ebp
	pop	ebp
	ret	0
?RequestKeyframe@VideoEncoder@@UAEXXZ ENDP		; VideoEncoder::RequestKeyframe
_TEXT	ENDS
; Function compile flags: /Odtp
; File f:\songmm_moon_stone_obs\obs\source\obs.h
;	COMDAT ?isQSV@VideoEncoder@@UAE_NXZ
_TEXT	SEGMENT
_this$ = -4						; size = 4
?isQSV@VideoEncoder@@UAE_NXZ PROC			; VideoEncoder::isQSV, COMDAT
; _this$ = ecx

; 198  :     virtual bool isQSV() { return false; }

	push	ebp
	mov	ebp, esp
	push	ecx
	mov	DWORD PTR _this$[ebp], ecx
	xor	al, al
	mov	esp, ebp
	pop	ebp
	ret	0
?isQSV@VideoEncoder@@UAE_NXZ ENDP			; VideoEncoder::isQSV
_TEXT	ENDS
; Function compile flags: /Odtp
; File f:\songmm_moon_stone_obs\obs\source\obs.h
;	COMDAT ?GetBufferedFrames@VideoEncoder@@UAEHXZ
_TEXT	SEGMENT
_this$ = -4						; size = 4
?GetBufferedFrames@VideoEncoder@@UAEHXZ PROC		; VideoEncoder::GetBufferedFrames, COMDAT
; _this$ = ecx

; 200  :     virtual int GetBufferedFrames() { if(HasBufferedFrames()) return -1; return 0; }

	push	ebp
	mov	ebp, esp
	push	ecx
	mov	DWORD PTR _this$[ebp], ecx
	mov	eax, DWORD PTR _this$[ebp]
	mov	edx, DWORD PTR [eax]
	mov	ecx, DWORD PTR _this$[ebp]
	mov	eax, DWORD PTR [edx+48]
	call	eax
	movzx	ecx, al
	test	ecx, ecx
	je	SHORT $LN1@GetBuffere
	or	eax, -1
	jmp	SHORT $LN2@GetBuffere
$LN1@GetBuffere:
	xor	eax, eax
$LN2@GetBuffere:
	mov	esp, ebp
	pop	ebp
	ret	0
?GetBufferedFrames@VideoEncoder@@UAEHXZ ENDP		; VideoEncoder::GetBufferedFrames
_TEXT	ENDS
; Function compile flags: /Odtp
; File f:\songmm_moon_stone_obs\obs\source\obs.h
;	COMDAT ?HasBufferedFrames@VideoEncoder@@UAE_NXZ
_TEXT	SEGMENT
_this$ = -4						; size = 4
?HasBufferedFrames@VideoEncoder@@UAE_NXZ PROC		; VideoEncoder::HasBufferedFrames, COMDAT
; _this$ = ecx

; 201  :     virtual bool HasBufferedFrames() { return false; }

	push	ebp
	mov	ebp, esp
	push	ecx
	mov	DWORD PTR _this$[ebp], ecx
	xor	al, al
	mov	esp, ebp
	pop	ebp
	ret	0
?HasBufferedFrames@VideoEncoder@@UAE_NXZ ENDP		; VideoEncoder::HasBufferedFrames
_TEXT	ENDS
; Function compile flags: /Odtp
;	COMDAT ??_GVideoEncoder@@UAEPAXI@Z
_TEXT	SEGMENT
_this$ = -4						; size = 4
___flags$ = 8						; size = 4
??_GVideoEncoder@@UAEPAXI@Z PROC			; VideoEncoder::`scalar deleting destructor', COMDAT
; _this$ = ecx
	push	ebp
	mov	ebp, esp
	push	ecx
	mov	DWORD PTR _this$[ebp], ecx
	mov	ecx, DWORD PTR _this$[ebp]
	call	??1VideoEncoder@@UAE@XZ			; VideoEncoder::~VideoEncoder
	mov	eax, DWORD PTR ___flags$[ebp]
	and	eax, 1
	je	SHORT $LN1@scalar
	mov	ecx, DWORD PTR _this$[ebp]
	push	ecx
	call	??3@YAXPAX@Z				; operator delete
	add	esp, 4
$LN1@scalar:
	mov	eax, DWORD PTR _this$[ebp]
	mov	esp, ebp
	pop	ebp
	ret	4
??_GVideoEncoder@@UAEPAXI@Z ENDP			; VideoEncoder::`scalar deleting destructor'
_TEXT	ENDS
; Function compile flags: /Odtp
; File f:\songmm_moon_stone_obs\obs\qsvhelper\windowsstuff.h
;	COMDAT ??Bsafe_handle@@QAEPAXXZ
_TEXT	SEGMENT
_this$ = -4						; size = 4
??Bsafe_handle@@QAEPAXXZ PROC				; safe_handle::operator void *, COMDAT
; _this$ = ecx

; 36   :     operator HANDLE() { return h; }

	push	ebp
	mov	ebp, esp
	push	ecx
	mov	DWORD PTR _this$[ebp], ecx
	mov	eax, DWORD PTR _this$[ebp]
	mov	eax, DWORD PTR [eax]
	mov	esp, ebp
	pop	ebp
	ret	0
??Bsafe_handle@@QAEPAXXZ ENDP				; safe_handle::operator void *
_TEXT	ENDS
; Function compile flags: /Odtp
; File f:\songmm_moon_stone_obs\obs\qsvhelper\windowsstuff.h
;	COMDAT ?reset@safe_handle@@QAEXPAX@Z
_TEXT	SEGMENT
_this$ = -4						; size = 4
_h_$ = 8						; size = 4
?reset@safe_handle@@QAEXPAX@Z PROC			; safe_handle::reset, COMDAT
; _this$ = ecx

; 38   :     void reset(HANDLE h_=nullptr) { if(h) CloseHandle(h); h = h_; }

	push	ebp
	mov	ebp, esp
	push	ecx
	mov	DWORD PTR _this$[ebp], ecx
	mov	eax, DWORD PTR _this$[ebp]
	cmp	DWORD PTR [eax], 0
	je	SHORT $LN1@reset
	mov	ecx, DWORD PTR _this$[ebp]
	mov	edx, DWORD PTR [ecx]
	push	edx
	call	DWORD PTR __imp__CloseHandle@4
$LN1@reset:
	mov	eax, DWORD PTR _this$[ebp]
	mov	ecx, DWORD PTR _h_$[ebp]
	mov	DWORD PTR [eax], ecx
	mov	esp, ebp
	pop	ebp
	ret	4
?reset@safe_handle@@QAEXPAX@Z ENDP			; safe_handle::reset
_TEXT	ENDS
; Function compile flags: /Odtp
; File f:\songmm_moon_stone_obs\obs\qsvhelper\windowsstuff.h
;	COMDAT ??7safe_handle@@QBE_NXZ
_TEXT	SEGMENT
_this$ = -8						; size = 4
tv66 = -4						; size = 4
??7safe_handle@@QBE_NXZ PROC				; safe_handle::operator!, COMDAT
; _this$ = ecx

; 40   :     bool operator!() const { return !h; }

	push	ebp
	mov	ebp, esp
	sub	esp, 8
	mov	DWORD PTR _this$[ebp], ecx
	mov	eax, DWORD PTR _this$[ebp]
	cmp	DWORD PTR [eax], 0
	jne	SHORT $LN3@operator
	mov	DWORD PTR tv66[ebp], 1
	jmp	SHORT $LN4@operator
$LN3@operator:
	mov	DWORD PTR tv66[ebp], 0
$LN4@operator:
	mov	al, BYTE PTR tv66[ebp]
	mov	esp, ebp
	pop	ebp
	ret	0
??7safe_handle@@QBE_NXZ ENDP				; safe_handle::operator!
_TEXT	ENDS
; Function compile flags: /Odtp
; File f:\songmm_moon_stone_obs\obs\qsvhelper\windowsstuff.h
;	COMDAT ??4safe_handle@@QAEAAU0@$$QAU0@@Z
_TEXT	SEGMENT
_this$ = -4						; size = 4
_other$ = 8						; size = 4
??4safe_handle@@QAEAAU0@$$QAU0@@Z PROC			; safe_handle::operator=, COMDAT
; _this$ = ecx

; 42   :     safe_handle &operator=(safe_handle &&other) { reset(other.h); other.h = nullptr; return *this; }

	push	ebp
	mov	ebp, esp
	push	ecx
	mov	DWORD PTR _this$[ebp], ecx
	mov	eax, DWORD PTR _other$[ebp]
	mov	ecx, DWORD PTR [eax]
	push	ecx
	mov	ecx, DWORD PTR _this$[ebp]
	call	?reset@safe_handle@@QAEXPAX@Z		; safe_handle::reset
	mov	edx, DWORD PTR _other$[ebp]
	mov	DWORD PTR [edx], 0
	mov	eax, DWORD PTR _this$[ebp]
	mov	esp, ebp
	pop	ebp
	ret	4
??4safe_handle@@QAEAAU0@$$QAU0@@Z ENDP			; safe_handle::operator=
_TEXT	ENDS
; Function compile flags: /Odtp
; File f:\songmm_moon_stone_obs\obs\qsvhelper\windowsstuff.h
;	COMDAT ??0safe_handle@@QAE@PAX@Z
_TEXT	SEGMENT
_this$ = -4						; size = 4
_h$ = 8							; size = 4
??0safe_handle@@QAE@PAX@Z PROC				; safe_handle::safe_handle, COMDAT
; _this$ = ecx

; 44   :     safe_handle(HANDLE h=nullptr) : h(h) {}

	push	ebp
	mov	ebp, esp
	push	ecx
	mov	DWORD PTR _this$[ebp], ecx
	mov	eax, DWORD PTR _this$[ebp]
	mov	ecx, DWORD PTR _h$[ebp]
	mov	DWORD PTR [eax], ecx
	mov	eax, DWORD PTR _this$[ebp]
	mov	esp, ebp
	pop	ebp
	ret	4
??0safe_handle@@QAE@PAX@Z ENDP				; safe_handle::safe_handle
_TEXT	ENDS
; Function compile flags: /Odtp
; File f:\songmm_moon_stone_obs\obs\qsvhelper\windowsstuff.h
;	COMDAT ??1safe_handle@@QAE@XZ
_TEXT	SEGMENT
_this$ = -4						; size = 4
??1safe_handle@@QAE@XZ PROC				; safe_handle::~safe_handle, COMDAT
; _this$ = ecx

; 45   :     ~safe_handle() { if(h) CloseHandle(h); }

	push	ebp
	mov	ebp, esp
	push	ecx
	mov	DWORD PTR _this$[ebp], ecx
	mov	eax, DWORD PTR _this$[ebp]
	cmp	DWORD PTR [eax], 0
	je	SHORT $LN2@safe_handl
	mov	ecx, DWORD PTR _this$[ebp]
	mov	edx, DWORD PTR [ecx]
	push	edx
	call	DWORD PTR __imp__CloseHandle@4
$LN2@safe_handl:
	mov	esp, ebp
	pop	ebp
	ret	0
??1safe_handle@@QAE@XZ ENDP				; safe_handle::~safe_handle
_TEXT	ENDS
; Function compile flags: /Odtp
; File f:\songmm_moon_stone_obs\obs\qsvhelper\windowsstuff.h
;	COMDAT ??7NamedSharedMemory@@QBE_NXZ
_TEXT	SEGMENT
tv71 = -8						; size = 4
_this$ = -4						; size = 4
??7NamedSharedMemory@@QBE_NXZ PROC			; NamedSharedMemory::operator!, COMDAT
; _this$ = ecx

; 58   :     bool operator!() const { return !memory || !file; }

	push	ebp
	mov	ebp, esp
	sub	esp, 8
	mov	DWORD PTR _this$[ebp], ecx
	mov	eax, DWORD PTR _this$[ebp]
	cmp	DWORD PTR [eax+32], 0
	je	SHORT $LN3@operator
	mov	ecx, DWORD PTR _this$[ebp]
	add	ecx, 36					; 00000024H
	call	??7safe_handle@@QBE_NXZ			; safe_handle::operator!
	movzx	ecx, al
	test	ecx, ecx
	jne	SHORT $LN3@operator
	mov	DWORD PTR tv71[ebp], 0
	jmp	SHORT $LN4@operator
$LN3@operator:
	mov	DWORD PTR tv71[ebp], 1
$LN4@operator:
	mov	al, BYTE PTR tv71[ebp]
	mov	esp, ebp
	pop	ebp
	ret	0
??7NamedSharedMemory@@QBE_NXZ ENDP			; NamedSharedMemory::operator!
_TEXT	ENDS
; Function compile flags: /Odtp
; File f:\songmm_moon_stone_obs\obs\qsvhelper\windowsstuff.h
;	COMDAT ??INamedSharedMemory@@QAEPAXXZ
_TEXT	SEGMENT
_this$ = -4						; size = 4
??INamedSharedMemory@@QAEPAXXZ PROC			; NamedSharedMemory::operator&, COMDAT
; _this$ = ecx

; 59   :     void *operator&() { return memory; }

	push	ebp
	mov	ebp, esp
	push	ecx
	mov	DWORD PTR _this$[ebp], ecx
	mov	eax, DWORD PTR _this$[ebp]
	mov	eax, DWORD PTR [eax+32]
	mov	esp, ebp
	pop	ebp
	ret	0
??INamedSharedMemory@@QAEPAXXZ ENDP			; NamedSharedMemory::operator&
_TEXT	ENDS
; Function compile flags: /Odtp
; File f:\songmm_moon_stone_obs\obs\qsvhelper\windowsstuff.h
;	COMDAT ??4NamedSharedMemory@@QAEAAU0@$$QAU0@@Z
_TEXT	SEGMENT
_this$ = -4						; size = 4
_other$ = 8						; size = 4
??4NamedSharedMemory@@QAEAAU0@$$QAU0@@Z PROC		; NamedSharedMemory::operator=, COMDAT
; _this$ = ecx

; 65   :     { FreeMemory(); name = other.name; size = other.size; memory = other.memory; other.memory = nullptr; file = std::move(other.file); return *this; }

	push	ebp
	mov	ebp, esp
	push	ecx
	mov	DWORD PTR _this$[ebp], ecx
	mov	ecx, DWORD PTR _this$[ebp]
	call	?FreeMemory@NamedSharedMemory@@AAEXXZ	; NamedSharedMemory::FreeMemory
	mov	eax, DWORD PTR _other$[ebp]
	push	eax
	mov	ecx, DWORD PTR _this$[ebp]
	call	??4?$basic_string@_WU?$char_traits@_W@std@@V?$allocator@_W@2@@std@@QAEAAV01@ABV01@@Z ; std::basic_string<wchar_t,std::char_traits<wchar_t>,std::allocator<wchar_t> >::operator=
	mov	ecx, DWORD PTR _this$[ebp]
	mov	edx, DWORD PTR _other$[ebp]
	mov	eax, DWORD PTR [edx+24]
	mov	DWORD PTR [ecx+24], eax
	mov	edx, DWORD PTR [edx+28]
	mov	DWORD PTR [ecx+28], edx
	mov	eax, DWORD PTR _this$[ebp]
	mov	ecx, DWORD PTR _other$[ebp]
	mov	edx, DWORD PTR [ecx+32]
	mov	DWORD PTR [eax+32], edx
	mov	eax, DWORD PTR _other$[ebp]
	mov	DWORD PTR [eax+32], 0
	mov	ecx, DWORD PTR _other$[ebp]
	add	ecx, 36					; 00000024H
	push	ecx
	call	??$move@AAUsafe_handle@@@std@@YA$$QAUsafe_handle@@AAU1@@Z ; std::move<safe_handle &>
	add	esp, 4
	push	eax
	mov	ecx, DWORD PTR _this$[ebp]
	add	ecx, 36					; 00000024H
	call	??4safe_handle@@QAEAAU0@$$QAU0@@Z	; safe_handle::operator=
	mov	eax, DWORD PTR _this$[ebp]
	mov	esp, ebp
	pop	ebp
	ret	4
??4NamedSharedMemory@@QAEAAU0@$$QAU0@@Z ENDP		; NamedSharedMemory::operator=
_TEXT	ENDS
; Function compile flags: /Odtp
; File f:\songmm_moon_stone_obs\obs\qsvhelper\windowsstuff.h
;	COMDAT ??1NamedSharedMemory@@QAE@XZ
_TEXT	SEGMENT
_this$ = -4						; size = 4
??1NamedSharedMemory@@QAE@XZ PROC			; NamedSharedMemory::~NamedSharedMemory, COMDAT
; _this$ = ecx

; 70   :     ~NamedSharedMemory() { FreeMemory(); }

	push	ebp
	mov	ebp, esp
	push	ecx
	mov	DWORD PTR _this$[ebp], ecx
	mov	ecx, DWORD PTR _this$[ebp]
	call	?FreeMemory@NamedSharedMemory@@AAEXXZ	; NamedSharedMemory::FreeMemory
	mov	ecx, DWORD PTR _this$[ebp]
	add	ecx, 36					; 00000024H
	call	??1safe_handle@@QAE@XZ			; safe_handle::~safe_handle
	mov	ecx, DWORD PTR _this$[ebp]
	call	??1?$basic_string@_WU?$char_traits@_W@std@@V?$allocator@_W@2@@std@@QAE@XZ ; std::basic_string<wchar_t,std::char_traits<wchar_t>,std::allocator<wchar_t> >::~basic_string<wchar_t,std::char_traits<wchar_t>,std::allocator<wchar_t> >
	mov	esp, ebp
	pop	ebp
	ret	0
??1NamedSharedMemory@@QAE@XZ ENDP			; NamedSharedMemory::~NamedSharedMemory
_TEXT	ENDS
; Function compile flags: /Odtp
; File f:\songmm_moon_stone_obs\obs\qsvhelper\windowsstuff.h
;	COMDAT ??0NamedSharedMemory@@QAE@V?$basic_string@_WU?$char_traits@_W@std@@V?$allocator@_W@2@@std@@_K@Z
_TEXT	SEGMENT
_this$ = -4						; size = 4
_name$ = 8						; size = 24
_size$ = 32						; size = 8
??0NamedSharedMemory@@QAE@V?$basic_string@_WU?$char_traits@_W@std@@V?$allocator@_W@2@@std@@_K@Z PROC ; NamedSharedMemory::NamedSharedMemory, COMDAT
; _this$ = ecx

; 71   :     NamedSharedMemory(std::wstring name, uint64_t size=1) : name(name), size(size), memory(nullptr) { InitMemory(); }

	push	ebp
	mov	ebp, esp
	push	ecx
	mov	DWORD PTR _this$[ebp], ecx
	lea	eax, DWORD PTR _name$[ebp]
	push	eax
	mov	ecx, DWORD PTR _this$[ebp]
	call	??0?$basic_string@_WU?$char_traits@_W@std@@V?$allocator@_W@2@@std@@QAE@ABV01@@Z ; std::basic_string<wchar_t,std::char_traits<wchar_t>,std::allocator<wchar_t> >::basic_string<wchar_t,std::char_traits<wchar_t>,std::allocator<wchar_t> >
	mov	ecx, DWORD PTR _this$[ebp]
	mov	edx, DWORD PTR _size$[ebp]
	mov	DWORD PTR [ecx+24], edx
	mov	eax, DWORD PTR _size$[ebp+4]
	mov	DWORD PTR [ecx+28], eax
	mov	ecx, DWORD PTR _this$[ebp]
	mov	DWORD PTR [ecx+32], 0
	push	0
	mov	ecx, DWORD PTR _this$[ebp]
	add	ecx, 36					; 00000024H
	call	??0safe_handle@@QAE@PAX@Z		; safe_handle::safe_handle
	mov	ecx, DWORD PTR _this$[ebp]
	call	?InitMemory@NamedSharedMemory@@AAEXXZ	; NamedSharedMemory::InitMemory
	lea	ecx, DWORD PTR _name$[ebp]
	call	??1?$basic_string@_WU?$char_traits@_W@std@@V?$allocator@_W@2@@std@@QAE@XZ ; std::basic_string<wchar_t,std::char_traits<wchar_t>,std::allocator<wchar_t> >::~basic_string<wchar_t,std::char_traits<wchar_t>,std::allocator<wchar_t> >
	mov	eax, DWORD PTR _this$[ebp]
	mov	esp, ebp
	pop	ebp
	ret	32					; 00000020H
??0NamedSharedMemory@@QAE@V?$basic_string@_WU?$char_traits@_W@std@@V?$allocator@_W@2@@std@@_K@Z ENDP ; NamedSharedMemory::NamedSharedMemory
_TEXT	ENDS
; Function compile flags: /Odtp
; File f:\songmm_moon_stone_obs\obs\qsvhelper\windowsstuff.h
;	COMDAT ??0NamedSharedMemory@@QAE@XZ
_TEXT	SEGMENT
_this$ = -4						; size = 4
??0NamedSharedMemory@@QAE@XZ PROC			; NamedSharedMemory::NamedSharedMemory, COMDAT
; _this$ = ecx

; 72   :     NamedSharedMemory() : memory(nullptr) {}

	push	ebp
	mov	ebp, esp
	push	ecx
	mov	DWORD PTR _this$[ebp], ecx
	mov	ecx, DWORD PTR _this$[ebp]
	call	??0?$basic_string@_WU?$char_traits@_W@std@@V?$allocator@_W@2@@std@@QAE@XZ ; std::basic_string<wchar_t,std::char_traits<wchar_t>,std::allocator<wchar_t> >::basic_string<wchar_t,std::char_traits<wchar_t>,std::allocator<wchar_t> >
	mov	eax, DWORD PTR _this$[ebp]
	mov	DWORD PTR [eax+32], 0
	push	0
	mov	ecx, DWORD PTR _this$[ebp]
	add	ecx, 36					; 00000024H
	call	??0safe_handle@@QAE@PAX@Z		; safe_handle::safe_handle
	mov	eax, DWORD PTR _this$[ebp]
	mov	esp, ebp
	pop	ebp
	ret	0
??0NamedSharedMemory@@QAE@XZ ENDP			; NamedSharedMemory::NamedSharedMemory
_TEXT	ENDS
; Function compile flags: /Odtp
; File f:\songmm_moon_stone_obs\obs\qsvhelper\windowsstuff.h
;	COMDAT ?FreeMemory@NamedSharedMemory@@AAEXXZ
_TEXT	SEGMENT
_this$ = -4						; size = 4
?FreeMemory@NamedSharedMemory@@AAEXXZ PROC		; NamedSharedMemory::FreeMemory, COMDAT
; _this$ = ecx

; 75   :     void FreeMemory() { if(memory) UnmapViewOfFile(memory); memory = nullptr; }

	push	ebp
	mov	ebp, esp
	push	ecx
	mov	DWORD PTR _this$[ebp], ecx
	mov	eax, DWORD PTR _this$[ebp]
	cmp	DWORD PTR [eax+32], 0
	je	SHORT $LN1@FreeMemory
	mov	ecx, DWORD PTR _this$[ebp]
	mov	edx, DWORD PTR [ecx+32]
	push	edx
	call	DWORD PTR __imp__UnmapViewOfFile@4
$LN1@FreeMemory:
	mov	eax, DWORD PTR _this$[ebp]
	mov	DWORD PTR [eax+32], 0
	mov	esp, ebp
	pop	ebp
	ret	0
?FreeMemory@NamedSharedMemory@@AAEXXZ ENDP		; NamedSharedMemory::FreeMemory
_TEXT	ENDS
; Function compile flags: /Odtp
; File f:\songmm_moon_stone_obs\obs\qsvhelper\windowsstuff.h
;	COMDAT ?InitMemory@NamedSharedMemory@@AAEXXZ
_TEXT	SEGMENT
tv133 = -8						; size = 4
_this$ = -4						; size = 4
?InitMemory@NamedSharedMemory@@AAEXXZ PROC		; NamedSharedMemory::InitMemory, COMDAT
; _this$ = ecx

; 77   :     {

	push	ebp
	mov	ebp, esp
	sub	esp, 8
	mov	DWORD PTR _this$[ebp], ecx

; 78   :         if(!size)

	mov	eax, DWORD PTR _this$[ebp]
	mov	DWORD PTR tv133[ebp], eax
	mov	ecx, DWORD PTR tv133[ebp]
	mov	edx, DWORD PTR tv133[ebp]
	mov	eax, DWORD PTR [ecx+24]
	or	eax, DWORD PTR [edx+28]
	jne	SHORT $LN2@InitMemory

; 79   :             size = 1;

	mov	ecx, DWORD PTR _this$[ebp]
	mov	DWORD PTR [ecx+24], 1
	mov	DWORD PTR [ecx+28], 0
$LN2@InitMemory:

; 80   :         file.reset(CreateFileMapping(INVALID_HANDLE_VALUE, nullptr, PAGE_READWRITE, size>>32, size & 0xffffffff, name.c_str()));

	mov	ecx, DWORD PTR _this$[ebp]
	call	?c_str@?$basic_string@_WU?$char_traits@_W@std@@V?$allocator@_W@2@@std@@QBEPB_WXZ ; std::basic_string<wchar_t,std::char_traits<wchar_t>,std::allocator<wchar_t> >::c_str
	push	eax
	mov	edx, DWORD PTR _this$[ebp]
	mov	eax, DWORD PTR [edx+24]
	mov	ecx, DWORD PTR [edx+28]
	and	ecx, 0
	push	eax
	mov	edx, DWORD PTR _this$[ebp]
	mov	eax, DWORD PTR [edx+24]
	mov	edx, DWORD PTR [edx+28]
	mov	cl, 32					; 00000020H
	call	__aullshr
	push	eax
	push	4
	push	0
	push	-1
	call	DWORD PTR __imp__CreateFileMappingW@24
	push	eax
	mov	ecx, DWORD PTR _this$[ebp]
	add	ecx, 36					; 00000024H
	call	?reset@safe_handle@@QAEXPAX@Z		; safe_handle::reset

; 81   :         if(file)

	mov	ecx, DWORD PTR _this$[ebp]
	add	ecx, 36					; 00000024H
	call	??Bsafe_handle@@QAEPAXXZ		; safe_handle::operator void *
	test	eax, eax
	je	SHORT $LN3@InitMemory

; 82   :             memory = MapViewOfFile(file, FILE_MAP_ALL_ACCESS, 0, 0, 0);

	push	0
	push	0
	push	0
	push	983071					; 000f001fH
	mov	ecx, DWORD PTR _this$[ebp]
	add	ecx, 36					; 00000024H
	call	??Bsafe_handle@@QAEPAXXZ		; safe_handle::operator void *
	push	eax
	call	DWORD PTR __imp__MapViewOfFile@20
	mov	ecx, DWORD PTR _this$[ebp]
	mov	DWORD PTR [ecx+32], eax
$LN3@InitMemory:

; 83   :     }

	mov	esp, ebp
	pop	ebp
	ret	0
?InitMemory@NamedSharedMemory@@AAEXXZ ENDP		; NamedSharedMemory::InitMemory
_TEXT	ENDS
; Function compile flags: /Odtp
; File f:\songmm_moon_stone_obs\obs\qsvhelper\windowsstuff.h
;	COMDAT ?push_back@IPCWaiter@@QAEXABQAX@Z
_TEXT	SEGMENT
_this$ = -4						; size = 4
_h$ = 8							; size = 4
?push_back@IPCWaiter@@QAEXABQAX@Z PROC			; IPCWaiter::push_back, COMDAT
; _this$ = ecx

; 106  :     void push_back(const HANDLE &h) { list.push_back(h); }

	push	ebp
	mov	ebp, esp
	push	ecx
	mov	DWORD PTR _this$[ebp], ecx
	mov	eax, DWORD PTR _h$[ebp]
	push	eax
	mov	ecx, DWORD PTR _this$[ebp]
	call	?push_back@?$vector@PAXV?$allocator@PAX@std@@@std@@QAEXABQAX@Z ; std::vector<void *,std::allocator<void *> >::push_back
	mov	esp, ebp
	pop	ebp
	ret	4
?push_back@IPCWaiter@@QAEXABQAX@Z ENDP			; IPCWaiter::push_back
_TEXT	ENDS
; Function compile flags: /Odtp
; File f:\songmm_moon_stone_obs\obs\qsvhelper\windowsstuff.h
;	COMDAT ?wait@IPCWaiter@@QAE_NK@Z
_TEXT	SEGMENT
tv76 = -12						; size = 4
_res$ = -8						; size = 4
_this$ = -4						; size = 4
_timeout$ = 8						; size = 4
?wait@IPCWaiter@@QAE_NK@Z PROC				; IPCWaiter::wait, COMDAT
; _this$ = ecx

; 107  :     bool wait(DWORD timeout=0) { if(!list.size()) return false; auto res = wait_for_multiple_objects(timeout); return WAIT_OBJECT_0 <= res && res < (WAIT_OBJECT_0+list.size()); }

	push	ebp
	mov	ebp, esp
	sub	esp, 12					; 0000000cH
	mov	DWORD PTR _this$[ebp], ecx
	mov	ecx, DWORD PTR _this$[ebp]
	call	?size@?$vector@PAXV?$allocator@PAX@std@@@std@@QBEIXZ ; std::vector<void *,std::allocator<void *> >::size
	test	eax, eax
	jne	SHORT $LN1@wait
	xor	al, al
	jmp	SHORT $LN2@wait
$LN1@wait:
	mov	eax, DWORD PTR _timeout$[ebp]
	push	eax
	mov	ecx, DWORD PTR _this$[ebp]
	call	?wait_for_multiple_objects@IPCWaiter@@AAEKK@Z ; IPCWaiter::wait_for_multiple_objects
	mov	DWORD PTR _res$[ebp], eax
	cmp	DWORD PTR _res$[ebp], 0
	jb	SHORT $LN4@wait
	mov	ecx, DWORD PTR _this$[ebp]
	call	?size@?$vector@PAXV?$allocator@PAX@std@@@std@@QBEIXZ ; std::vector<void *,std::allocator<void *> >::size
	cmp	DWORD PTR _res$[ebp], eax
	jae	SHORT $LN4@wait
	mov	DWORD PTR tv76[ebp], 1
	jmp	SHORT $LN5@wait
$LN4@wait:
	mov	DWORD PTR tv76[ebp], 0
$LN5@wait:
	mov	al, BYTE PTR tv76[ebp]
$LN2@wait:
	mov	esp, ebp
	pop	ebp
	ret	4
?wait@IPCWaiter@@QAE_NK@Z ENDP				; IPCWaiter::wait
_TEXT	ENDS
; Function compile flags: /Odtp
; File f:\songmm_moon_stone_obs\obs\qsvhelper\windowsstuff.h
;	COMDAT ?wait_for@IPCWaiter@@QAE_NKK@Z
_TEXT	SEGMENT
tv72 = -8						; size = 4
_this$ = -4						; size = 4
_object$ = 8						; size = 4
_timeout$ = 12						; size = 4
?wait_for@IPCWaiter@@QAE_NKK@Z PROC			; IPCWaiter::wait_for, COMDAT
; _this$ = ecx

; 108  :     bool wait_for(DWORD object, DWORD timeout=0) { if(!list.size()) return false; return wait_for_multiple_objects(timeout) == (WAIT_OBJECT_0 + object); }

	push	ebp
	mov	ebp, esp
	sub	esp, 8
	mov	DWORD PTR _this$[ebp], ecx
	mov	ecx, DWORD PTR _this$[ebp]
	call	?size@?$vector@PAXV?$allocator@PAX@std@@@std@@QBEIXZ ; std::vector<void *,std::allocator<void *> >::size
	test	eax, eax
	jne	SHORT $LN1@wait_for
	xor	al, al
	jmp	SHORT $LN2@wait_for
$LN1@wait_for:
	mov	eax, DWORD PTR _timeout$[ebp]
	push	eax
	mov	ecx, DWORD PTR _this$[ebp]
	call	?wait_for_multiple_objects@IPCWaiter@@AAEKK@Z ; IPCWaiter::wait_for_multiple_objects
	cmp	eax, DWORD PTR _object$[ebp]
	jne	SHORT $LN4@wait_for
	mov	DWORD PTR tv72[ebp], 1
	jmp	SHORT $LN5@wait_for
$LN4@wait_for:
	mov	DWORD PTR tv72[ebp], 0
$LN5@wait_for:
	mov	al, BYTE PTR tv72[ebp]
$LN2@wait_for:
	mov	esp, ebp
	pop	ebp
	ret	8
?wait_for@IPCWaiter@@QAE_NKK@Z ENDP			; IPCWaiter::wait_for
_TEXT	ENDS
; Function compile flags: /Odtp
; File f:\songmm_moon_stone_obs\obs\qsvhelper\windowsstuff.h
;	COMDAT ?wait_for_two@IPCWaiter@@QAE_NKKK@Z
_TEXT	SEGMENT
tv73 = -12						; size = 4
_res$ = -8						; size = 4
_this$ = -4						; size = 4
_first$ = 8						; size = 4
_second$ = 12						; size = 4
_timeout$ = 16						; size = 4
?wait_for_two@IPCWaiter@@QAE_NKKK@Z PROC		; IPCWaiter::wait_for_two, COMDAT
; _this$ = ecx

; 109  :     bool wait_for_two(DWORD first, DWORD second, DWORD timeout=0) { if(!list.size()) return false; auto res = wait_for_multiple_objects(timeout); return res == (WAIT_OBJECT_0 + first) || res == (WAIT_OBJECT_0 + second); }

	push	ebp
	mov	ebp, esp
	sub	esp, 12					; 0000000cH
	mov	DWORD PTR _this$[ebp], ecx
	mov	ecx, DWORD PTR _this$[ebp]
	call	?size@?$vector@PAXV?$allocator@PAX@std@@@std@@QBEIXZ ; std::vector<void *,std::allocator<void *> >::size
	test	eax, eax
	jne	SHORT $LN1@wait_for_t
	xor	al, al
	jmp	SHORT $LN2@wait_for_t
$LN1@wait_for_t:
	mov	eax, DWORD PTR _timeout$[ebp]
	push	eax
	mov	ecx, DWORD PTR _this$[ebp]
	call	?wait_for_multiple_objects@IPCWaiter@@AAEKK@Z ; IPCWaiter::wait_for_multiple_objects
	mov	DWORD PTR _res$[ebp], eax
	mov	ecx, DWORD PTR _res$[ebp]
	cmp	ecx, DWORD PTR _first$[ebp]
	je	SHORT $LN4@wait_for_t
	mov	edx, DWORD PTR _res$[ebp]
	cmp	edx, DWORD PTR _second$[ebp]
	je	SHORT $LN4@wait_for_t
	mov	DWORD PTR tv73[ebp], 0
	jmp	SHORT $LN5@wait_for_t
$LN4@wait_for_t:
	mov	DWORD PTR tv73[ebp], 1
$LN5@wait_for_t:
	mov	al, BYTE PTR tv73[ebp]
$LN2@wait_for_t:
	mov	esp, ebp
	pop	ebp
	ret	12					; 0000000cH
?wait_for_two@IPCWaiter@@QAE_NKKK@Z ENDP		; IPCWaiter::wait_for_two
_TEXT	ENDS
; Function compile flags: /Odtp
; File f:\songmm_moon_stone_obs\obs\qsvhelper\windowsstuff.h
;	COMDAT ?wait_timeout@IPCWaiter@@QAE_NK@Z
_TEXT	SEGMENT
tv72 = -8						; size = 4
_this$ = -4						; size = 4
_timeout$ = 8						; size = 4
?wait_timeout@IPCWaiter@@QAE_NK@Z PROC			; IPCWaiter::wait_timeout, COMDAT
; _this$ = ecx

; 110  :     bool wait_timeout(DWORD timeout=0) { if(!list.size()) return false; return wait_for_multiple_objects(timeout) == WAIT_TIMEOUT; }

	push	ebp
	mov	ebp, esp
	sub	esp, 8
	mov	DWORD PTR _this$[ebp], ecx
	mov	ecx, DWORD PTR _this$[ebp]
	call	?size@?$vector@PAXV?$allocator@PAX@std@@@std@@QBEIXZ ; std::vector<void *,std::allocator<void *> >::size
	test	eax, eax
	jne	SHORT $LN1@wait_timeo
	xor	al, al
	jmp	SHORT $LN2@wait_timeo
$LN1@wait_timeo:
	mov	eax, DWORD PTR _timeout$[ebp]
	push	eax
	mov	ecx, DWORD PTR _this$[ebp]
	call	?wait_for_multiple_objects@IPCWaiter@@AAEKK@Z ; IPCWaiter::wait_for_multiple_objects
	cmp	eax, 258				; 00000102H
	jne	SHORT $LN4@wait_timeo
	mov	DWORD PTR tv72[ebp], 1
	jmp	SHORT $LN5@wait_timeo
$LN4@wait_timeo:
	mov	DWORD PTR tv72[ebp], 0
$LN5@wait_timeo:
	mov	al, BYTE PTR tv72[ebp]
$LN2@wait_timeo:
	mov	esp, ebp
	pop	ebp
	ret	4
?wait_timeout@IPCWaiter@@QAE_NK@Z ENDP			; IPCWaiter::wait_timeout
_TEXT	ENDS
; Function compile flags: /Odtp
; File f:\songmm_moon_stone_obs\obs\qsvhelper\windowsstuff.h
;	COMDAT ?wait_for_multiple_objects@IPCWaiter@@AAEKK@Z
_TEXT	SEGMENT
_this$ = -4						; size = 4
_timeout$ = 8						; size = 4
?wait_for_multiple_objects@IPCWaiter@@AAEKK@Z PROC	; IPCWaiter::wait_for_multiple_objects, COMDAT
; _this$ = ecx

; 113  :     DWORD wait_for_multiple_objects(DWORD timeout) { return WaitForMultipleObjects(static_cast<DWORD>(list.size()), &list.front(), false, timeout); }

	push	ebp
	mov	ebp, esp
	push	ecx
	mov	DWORD PTR _this$[ebp], ecx
	mov	eax, DWORD PTR _timeout$[ebp]
	push	eax
	push	0
	mov	ecx, DWORD PTR _this$[ebp]
	call	?front@?$vector@PAXV?$allocator@PAX@std@@@std@@QAEAAPAXXZ ; std::vector<void *,std::allocator<void *> >::front
	push	eax
	mov	ecx, DWORD PTR _this$[ebp]
	call	?size@?$vector@PAXV?$allocator@PAX@std@@@std@@QBEIXZ ; std::vector<void *,std::allocator<void *> >::size
	push	eax
	call	DWORD PTR __imp__WaitForMultipleObjects@16
	mov	esp, ebp
	pop	ebp
	ret	4
?wait_for_multiple_objects@IPCWaiter@@AAEKK@Z ENDP	; IPCWaiter::wait_for_multiple_objects
_TEXT	ENDS
; Function compile flags: /Odtp
; File f:\songmm_moon_stone_obs\obs\qsvhelper\windowsstuff.h
;	COMDAT ?lock@IPCMutex@@QAEXXZ
_TEXT	SEGMENT
_this$ = -4						; size = 4
?lock@IPCMutex@@QAEXXZ PROC				; IPCMutex::lock, COMDAT
; _this$ = ecx

; 120  :     void lock() { if(mutex_) WaitForSingleObject(mutex_, INFINITE); }

	push	ebp
	mov	ebp, esp
	push	ecx
	mov	DWORD PTR _this$[ebp], ecx
	mov	ecx, DWORD PTR _this$[ebp]
	call	??Bsafe_handle@@QAEPAXXZ		; safe_handle::operator void *
	test	eax, eax
	je	SHORT $LN2@lock
	push	-1
	mov	ecx, DWORD PTR _this$[ebp]
	call	??Bsafe_handle@@QAEPAXXZ		; safe_handle::operator void *
	push	eax
	call	DWORD PTR __imp__WaitForSingleObject@8
$LN2@lock:
	mov	esp, ebp
	pop	ebp
	ret	0
?lock@IPCMutex@@QAEXXZ ENDP				; IPCMutex::lock
_TEXT	ENDS
; Function compile flags: /Odtp
; File f:\songmm_moon_stone_obs\obs\qsvhelper\windowsstuff.h
;	COMDAT ?unlock@IPCMutex@@QAEXXZ
_TEXT	SEGMENT
_this$ = -4						; size = 4
?unlock@IPCMutex@@QAEXXZ PROC				; IPCMutex::unlock, COMDAT
; _this$ = ecx

; 121  :     void unlock() { if(mutex_) ReleaseMutex(mutex_); }

	push	ebp
	mov	ebp, esp
	push	ecx
	mov	DWORD PTR _this$[ebp], ecx
	mov	ecx, DWORD PTR _this$[ebp]
	call	??Bsafe_handle@@QAEPAXXZ		; safe_handle::operator void *
	test	eax, eax
	je	SHORT $LN2@unlock
	mov	ecx, DWORD PTR _this$[ebp]
	call	??Bsafe_handle@@QAEPAXXZ		; safe_handle::operator void *
	push	eax
	call	DWORD PTR __imp__ReleaseMutex@4
$LN2@unlock:
	mov	esp, ebp
	pop	ebp
	ret	0
?unlock@IPCMutex@@QAEXXZ ENDP				; IPCMutex::unlock
_TEXT	ENDS
; Function compile flags: /Odtp
; File f:\songmm_moon_stone_obs\obs\qsvhelper\windowsstuff.h
;	COMDAT ??0IPCMutex@@QAE@V?$basic_string@_WU?$char_traits@_W@std@@V?$allocator@_W@2@@std@@@Z
_TEXT	SEGMENT
_this$ = -4						; size = 4
_name$ = 8						; size = 24
??0IPCMutex@@QAE@V?$basic_string@_WU?$char_traits@_W@std@@V?$allocator@_W@2@@std@@@Z PROC ; IPCMutex::IPCMutex, COMDAT
; _this$ = ecx

; 127  :     IPCMutex(std::wstring name) { mutex_.reset(CreateMutex(nullptr, false, name.c_str())); }

	push	ebp
	mov	ebp, esp
	push	ecx
	mov	DWORD PTR _this$[ebp], ecx
	push	0
	mov	ecx, DWORD PTR _this$[ebp]
	call	??0safe_handle@@QAE@PAX@Z		; safe_handle::safe_handle
	lea	ecx, DWORD PTR _name$[ebp]
	call	?c_str@?$basic_string@_WU?$char_traits@_W@std@@V?$allocator@_W@2@@std@@QBEPB_WXZ ; std::basic_string<wchar_t,std::char_traits<wchar_t>,std::allocator<wchar_t> >::c_str
	push	eax
	push	0
	push	0
	call	DWORD PTR __imp__CreateMutexW@12
	push	eax
	mov	ecx, DWORD PTR _this$[ebp]
	call	?reset@safe_handle@@QAEXPAX@Z		; safe_handle::reset
	lea	ecx, DWORD PTR _name$[ebp]
	call	??1?$basic_string@_WU?$char_traits@_W@std@@V?$allocator@_W@2@@std@@QAE@XZ ; std::basic_string<wchar_t,std::char_traits<wchar_t>,std::allocator<wchar_t> >::~basic_string<wchar_t,std::char_traits<wchar_t>,std::allocator<wchar_t> >
	mov	eax, DWORD PTR _this$[ebp]
	mov	esp, ebp
	pop	ebp
	ret	24					; 00000018H
??0IPCMutex@@QAE@V?$basic_string@_WU?$char_traits@_W@std@@V?$allocator@_W@2@@std@@@Z ENDP ; IPCMutex::IPCMutex
_TEXT	ENDS
; Function compile flags: /Odtp
; File f:\songmm_moon_stone_obs\obs\qsvhelper\windowsstuff.h
;	COMDAT ??0IPCMutex@@QAE@XZ
_TEXT	SEGMENT
_this$ = -4						; size = 4
??0IPCMutex@@QAE@XZ PROC				; IPCMutex::IPCMutex, COMDAT
; _this$ = ecx

; 128  :     IPCMutex() {}

	push	ebp
	mov	ebp, esp
	push	ecx
	mov	DWORD PTR _this$[ebp], ecx
	push	0
	mov	ecx, DWORD PTR _this$[ebp]
	call	??0safe_handle@@QAE@PAX@Z		; safe_handle::safe_handle
	mov	eax, DWORD PTR _this$[ebp]
	mov	esp, ebp
	pop	ebp
	ret	0
??0IPCMutex@@QAE@XZ ENDP				; IPCMutex::IPCMutex
_TEXT	ENDS
; Function compile flags: /Odtp
; File f:\songmm_moon_stone_obs\obs\qsvhelper\utilities.h
;	COMDAT ?valid_method@@YA_NG@Z
_TEXT	SEGMENT
tv65 = -4						; size = 4
_method$ = 8						; size = 2
?valid_method@@YA_NG@Z PROC				; valid_method, COMDAT

; 66   : {

	push	ebp
	mov	ebp, esp
	push	ecx

; 67   :     switch (method)

	movzx	eax, WORD PTR _method$[ebp]
	mov	DWORD PTR tv65[ebp], eax
	mov	ecx, DWORD PTR tv65[ebp]
	sub	ecx, 1
	mov	DWORD PTR tv65[ebp], ecx
	cmp	DWORD PTR tv65[ebp], 10			; 0000000aH
	ja	SHORT $LN2@valid_meth
	mov	edx, DWORD PTR tv65[ebp]
	movzx	eax, BYTE PTR $LN6@valid_meth[edx]
	jmp	DWORD PTR $LN7@valid_meth[eax*4]
$LN1@valid_meth:

; 68   :     {
; 69   :     case MFX_RATECONTROL_CBR:
; 70   :     case MFX_RATECONTROL_VBR:
; 71   :     case MFX_RATECONTROL_CQP:
; 72   :     case MFX_RATECONTROL_AVBR:
; 73   :     case MFX_RATECONTROL_LA:
; 74   :     case MFX_RATECONTROL_ICQ:
; 75   :     case MFX_RATECONTROL_VCM:
; 76   :     case MFX_RATECONTROL_LA_ICQ:
; 77   :         return true;

	mov	al, 1
	jmp	SHORT $LN4@valid_meth
$LN2@valid_meth:

; 78   :     }
; 79   :     return false;

	xor	al, al
$LN4@valid_meth:

; 80   : }

	mov	esp, ebp
	pop	ebp
	ret	0
	npad	3
$LN7@valid_meth:
	DD	$LN1@valid_meth
	DD	$LN2@valid_meth
$LN6@valid_meth:
	DB	0
	DB	0
	DB	0
	DB	0
	DB	1
	DB	1
	DB	1
	DB	0
	DB	0
	DB	0
	DB	0
?valid_method@@YA_NG@Z ENDP				; valid_method
_TEXT	ENDS
; Function compile flags: /Odtp
; File f:\songmm_moon_stone_obs\obs\source\encoder_qsv.cpp
;	COMDAT ?qsv_intf_str@?A0x7e09c670@@YAPB_WI@Z
_TEXT	SEGMENT
tv65 = -4						; size = 4
_impl$ = 8						; size = 4
?qsv_intf_str@?A0x7e09c670@@YAPB_WI@Z PROC		; `anonymous namespace'::qsv_intf_str, COMDAT

; 96   :     {

	push	ebp
	mov	ebp, esp
	push	ecx

; 97   :         switch(impl & (-MFX_IMPL_VIA_ANY))

	mov	eax, DWORD PTR _impl$[ebp]
	and	eax, -256				; ffffff00H
	mov	DWORD PTR tv65[ebp], eax
	cmp	DWORD PTR tv65[ebp], 256		; 00000100H
	je	SHORT $LN4@qsv_intf_s
	cmp	DWORD PTR tv65[ebp], 512		; 00000200H
	je	SHORT $LN3@qsv_intf_s
	cmp	DWORD PTR tv65[ebp], 768		; 00000300H
	je	SHORT $LN2@qsv_intf_s
	jmp	SHORT $LN1@qsv_intf_s
$LN4@qsv_intf_s:

; 98   :         {
; 99   : #define VIA_STR(x) case MFX_IMPL_VIA_##x: return TEXT(" | ") TO_STR(MFX_IMPL_VIA_##x)
; 100  :             VIA_STR(ANY);

	mov	eax, OFFSET $SG4294870640
	jmp	SHORT $LN7@qsv_intf_s
$LN3@qsv_intf_s:

; 101  :             VIA_STR(D3D9);

	mov	eax, OFFSET $SG4294870639
	jmp	SHORT $LN7@qsv_intf_s
$LN2@qsv_intf_s:

; 102  :             VIA_STR(D3D11);

	mov	eax, OFFSET $SG4294870638
	jmp	SHORT $LN7@qsv_intf_s
$LN1@qsv_intf_s:

; 103  : #undef VIA_STR
; 104  :         default: return TEXT("");

	mov	eax, OFFSET $SG4294870637
$LN7@qsv_intf_s:

; 105  :         }
; 106  :     };

	mov	esp, ebp
	pop	ebp
	ret	0
?qsv_intf_str@?A0x7e09c670@@YAPB_WI@Z ENDP		; `anonymous namespace'::qsv_intf_str
_TEXT	ENDS
; Function compile flags: /Odtp
; File f:\songmm_moon_stone_obs\obs\source\encoder_qsv.cpp
;	COMDAT ?qsv_profile_str@?A0x7e09c670@@YAPB_WG@Z
_TEXT	SEGMENT
tv65 = -4						; size = 4
_profile$ = 8						; size = 2
?qsv_profile_str@?A0x7e09c670@@YAPB_WG@Z PROC		; `anonymous namespace'::qsv_profile_str, COMDAT

; 109  :     {

	push	ebp
	mov	ebp, esp
	push	ecx

; 110  :         switch (profile)

	movzx	eax, WORD PTR _profile$[ebp]
	mov	DWORD PTR tv65[ebp], eax
	cmp	DWORD PTR tv65[ebp], 578		; 00000242H
	jg	SHORT $LN19@qsv_profil
	cmp	DWORD PTR tv65[ebp], 578		; 00000242H
	je	$LN3@qsv_profil
	cmp	DWORD PTR tv65[ebp], 88			; 00000058H
	jg	SHORT $LN20@qsv_profil
	cmp	DWORD PTR tv65[ebp], 88			; 00000058H
	je	$LN5@qsv_profil
	cmp	DWORD PTR tv65[ebp], 0
	je	$LN14@qsv_profil
	cmp	DWORD PTR tv65[ebp], 66			; 00000042H
	je	$LN7@qsv_profil
	cmp	DWORD PTR tv65[ebp], 77			; 0000004dH
	je	$LN6@qsv_profil
	jmp	$LN15@qsv_profil
$LN20@qsv_profil:
	cmp	DWORD PTR tv65[ebp], 100		; 00000064H
	je	$LN4@qsv_profil
	cmp	DWORD PTR tv65[ebp], 256		; 00000100H
	je	SHORT $LN13@qsv_profil
	cmp	DWORD PTR tv65[ebp], 512		; 00000200H
	je	SHORT $LN12@qsv_profil
	jmp	$LN15@qsv_profil
$LN19@qsv_profil:
	cmp	DWORD PTR tv65[ebp], 4196		; 00001064H
	jg	SHORT $LN21@qsv_profil
	cmp	DWORD PTR tv65[ebp], 4196		; 00001064H
	je	$LN1@qsv_profil
	cmp	DWORD PTR tv65[ebp], 1024		; 00000400H
	je	SHORT $LN11@qsv_profil
	cmp	DWORD PTR tv65[ebp], 2048		; 00000800H
	je	SHORT $LN10@qsv_profil
	cmp	DWORD PTR tv65[ebp], 4096		; 00001000H
	je	SHORT $LN9@qsv_profil
	jmp	SHORT $LN15@qsv_profil
$LN21@qsv_profil:
	cmp	DWORD PTR tv65[ebp], 8192		; 00002000H
	je	SHORT $LN8@qsv_profil
	cmp	DWORD PTR tv65[ebp], 12388		; 00003064H
	je	SHORT $LN2@qsv_profil
	jmp	SHORT $LN15@qsv_profil
$LN14@qsv_profil:

; 111  :         {
; 112  : #define P_STR(x) case x: return TO_STR(x)
; 113  :             P_STR(MFX_PROFILE_UNKNOWN);

	mov	eax, OFFSET $SG4294870636
	jmp	SHORT $LN17@qsv_profil
$LN13@qsv_profil:

; 114  :             P_STR(MFX_PROFILE_AVC_CONSTRAINT_SET0);

	mov	eax, OFFSET $SG4294870635
	jmp	SHORT $LN17@qsv_profil
$LN12@qsv_profil:

; 115  :             P_STR(MFX_PROFILE_AVC_CONSTRAINT_SET1);

	mov	eax, OFFSET $SG4294870634
	jmp	SHORT $LN17@qsv_profil
$LN11@qsv_profil:

; 116  :             P_STR(MFX_PROFILE_AVC_CONSTRAINT_SET2);

	mov	eax, OFFSET $SG4294870633
	jmp	SHORT $LN17@qsv_profil
$LN10@qsv_profil:

; 117  :             P_STR(MFX_PROFILE_AVC_CONSTRAINT_SET3);

	mov	eax, OFFSET $SG4294870632
	jmp	SHORT $LN17@qsv_profil
$LN9@qsv_profil:

; 118  :             P_STR(MFX_PROFILE_AVC_CONSTRAINT_SET4);

	mov	eax, OFFSET $SG4294870631
	jmp	SHORT $LN17@qsv_profil
$LN8@qsv_profil:

; 119  :             P_STR(MFX_PROFILE_AVC_CONSTRAINT_SET5);

	mov	eax, OFFSET $SG4294870630
	jmp	SHORT $LN17@qsv_profil
$LN7@qsv_profil:

; 120  :             P_STR(MFX_PROFILE_AVC_BASELINE);

	mov	eax, OFFSET $SG4294870629
	jmp	SHORT $LN17@qsv_profil
$LN6@qsv_profil:

; 121  :             P_STR(MFX_PROFILE_AVC_MAIN);

	mov	eax, OFFSET $SG4294870628
	jmp	SHORT $LN17@qsv_profil
$LN5@qsv_profil:

; 122  :             P_STR(MFX_PROFILE_AVC_EXTENDED);

	mov	eax, OFFSET $SG4294870627
	jmp	SHORT $LN17@qsv_profil
$LN4@qsv_profil:

; 123  :             P_STR(MFX_PROFILE_AVC_HIGH);

	mov	eax, OFFSET $SG4294870626
	jmp	SHORT $LN17@qsv_profil
$LN3@qsv_profil:

; 124  :             P_STR(MFX_PROFILE_AVC_CONSTRAINED_BASELINE);

	mov	eax, OFFSET $SG4294870625
	jmp	SHORT $LN17@qsv_profil
$LN2@qsv_profil:

; 125  :             P_STR(MFX_PROFILE_AVC_CONSTRAINED_HIGH);

	mov	eax, OFFSET $SG4294870624
	jmp	SHORT $LN17@qsv_profil
$LN1@qsv_profil:

; 126  :             P_STR(MFX_PROFILE_AVC_PROGRESSIVE_HIGH);

	mov	eax, OFFSET $SG4294870623
	jmp	SHORT $LN17@qsv_profil
$LN15@qsv_profil:

; 127  : #undef P_STR
; 128  :         }
; 129  :         return L"UNKNOWN";

	mov	eax, OFFSET $SG4294870622
$LN17@qsv_profil:

; 130  :     }

	mov	esp, ebp
	pop	ebp
	ret	0
?qsv_profile_str@?A0x7e09c670@@YAPB_WG@Z ENDP		; `anonymous namespace'::qsv_profile_str
_TEXT	ENDS
; Function compile flags: /Odtp
; File f:\songmm_moon_stone_obs\obs\source\encoder_qsv.cpp
;	COMDAT ?spawn_helper@?A0x7e09c670@@YA_NAAVString@@AAUsafe_handle@@1AAUIPCWaiter@@@Z
_TEXT	SEGMENT
_si$ = -160						; size = 68
$T1 = -92						; size = 8
$T2 = -84						; size = 8
$T3 = -76						; size = 8
$T4 = -68						; size = 8
$T5 = -60						; size = 8
_pi$ = -52						; size = 16
_helper$ = -36						; size = 8
_helper_name$ = -28					; size = 8
tv165 = -20						; size = 4
_dir_size$ = -16					; size = 4
_helper_path$ = -12					; size = 8
$T6 = -3						; size = 1
$T7 = -2						; size = 1
$T8 = -1						; size = 1
_event_prefix$ = 8					; size = 4
_qsvhelper_process$ = 12				; size = 4
_qsvhelper_thread$ = 16					; size = 4
_process_waiter$ = 20					; size = 4
?spawn_helper@?A0x7e09c670@@YA_NAAVString@@AAUsafe_handle@@1AAUIPCWaiter@@@Z PROC ; `anonymous namespace'::spawn_helper, COMDAT

; 147  :     {

	push	ebp
	mov	ebp, esp
	sub	esp, 160				; 000000a0H

; 148  :         if (OSGetVersion() < 7) return false;

	call	DWORD PTR __imp_?OSGetVersion@@YGHXZ
	cmp	eax, 7
	jge	SHORT $LN2@spawn_help
	xor	al, al
	jmp	$LN3@spawn_help
$LN2@spawn_help:

; 149  : 
; 150  :         String helper_path;

	lea	ecx, DWORD PTR _helper_path$[ebp]
	call	DWORD PTR __imp_??0String@@QAE@XZ

; 151  :         auto dir_size = GetCurrentDirectory(0, NULL);

	push	0
	push	0
	call	DWORD PTR __imp__GetCurrentDirectoryW@8
	mov	DWORD PTR _dir_size$[ebp], eax

; 152  :         helper_path.SetLength(dir_size);

	mov	eax, DWORD PTR _dir_size$[ebp]
	push	eax
	lea	ecx, DWORD PTR _helper_path$[ebp]
	call	DWORD PTR __imp_?SetLength@String@@QAEAAV1@I@Z

; 153  :         GetCurrentDirectory(dir_size, helper_path);

	lea	ecx, DWORD PTR _helper_path$[ebp]
	call	DWORD PTR __imp_??BString@@QBEPA_WXZ
	push	eax
	mov	ecx, DWORD PTR _dir_size$[ebp]
	push	ecx
	call	DWORD PTR __imp__GetCurrentDirectoryW@8

; 154  : 
; 155  :         helper_path << "/";

	push	OFFSET $SG4294870621
	lea	ecx, DWORD PTR $T4[ebp]
	call	DWORD PTR __imp_??0String@@QAE@PBD@Z
	lea	edx, DWORD PTR $T4[ebp]
	push	edx
	lea	ecx, DWORD PTR _helper_path$[ebp]
	call	DWORD PTR __imp_??6String@@QAEAAV0@ABV0@@Z
	lea	ecx, DWORD PTR $T4[ebp]
	call	DWORD PTR __imp_??1String@@QAE@XZ

; 156  : 
; 157  :         String helper = helper_path;

	lea	eax, DWORD PTR _helper_path$[ebp]
	push	eax
	lea	ecx, DWORD PTR _helper$[ebp]
	call	DWORD PTR __imp_??0String@@QAE@ABV0@@Z

; 158  :         String helper_name = "QSVHelper.exe";

	push	OFFSET $SG4294870620
	lea	ecx, DWORD PTR _helper_name$[ebp]
	call	DWORD PTR __imp_??0String@@QAE@PBD@Z

; 159  :         helper << helper_name;

	lea	ecx, DWORD PTR _helper_name$[ebp]
	push	ecx
	lea	ecx, DWORD PTR _helper$[ebp]
	call	DWORD PTR __imp_??6String@@QAEAAV0@ABV0@@Z

; 160  :         
; 161  :         PROCESS_INFORMATION pi;
; 162  :         STARTUPINFO si;
; 163  : 
; 164  :         zero(pi);

	push	16					; 00000010H
	lea	edx, DWORD PTR _pi$[ebp]
	push	edx
	call	??$zero@U_PROCESS_INFORMATION@@@@YAXAAU_PROCESS_INFORMATION@@I@Z ; zero<_PROCESS_INFORMATION>
	add	esp, 8

; 165  :         zero(si);

	push	68					; 00000044H
	lea	eax, DWORD PTR _si$[ebp]
	push	eax
	call	??$zero@U_STARTUPINFOW@@@@YAXAAU_STARTUPINFOW@@I@Z ; zero<_STARTUPINFOW>
	add	esp, 8

; 166  :         si.cb = sizeof(si);

	mov	DWORD PTR _si$[ebp], 68			; 00000044H

; 167  : 
; 168  :         if(!CreateProcess(helper, helper_name+" "+OBSGetAppDataPath(), nullptr, nullptr, false, 0, nullptr, helper_path, &si, &pi))

	push	OFFSET $SG4294870619
	lea	ecx, DWORD PTR $T5[ebp]
	call	DWORD PTR __imp_??0String@@QAE@PBD@Z
	lea	ecx, DWORD PTR _pi$[ebp]
	push	ecx
	lea	edx, DWORD PTR _si$[ebp]
	push	edx
	lea	ecx, DWORD PTR _helper_path$[ebp]
	call	DWORD PTR __imp_??BString@@QBEPA_WXZ
	push	eax
	push	0
	push	0
	push	0
	push	0
	push	0
	call	DWORD PTR __imp_?OBSGetAppDataPath@@YAPB_WXZ
	push	eax
	lea	eax, DWORD PTR $T2[ebp]
	push	eax
	lea	ecx, DWORD PTR $T5[ebp]
	push	ecx
	lea	edx, DWORD PTR $T3[ebp]
	push	edx
	lea	ecx, DWORD PTR _helper_name$[ebp]
	call	DWORD PTR __imp_??HString@@QBE?AV0@ABV0@@Z
	mov	ecx, eax
	call	DWORD PTR __imp_??HString@@QBE?AV0@PB_W@Z
	mov	ecx, eax
	call	DWORD PTR __imp_??BString@@QBEPA_WXZ
	push	eax
	lea	ecx, DWORD PTR _helper$[ebp]
	call	DWORD PTR __imp_??BString@@QBEPA_WXZ
	push	eax
	call	DWORD PTR __imp__CreateProcessW@40
	test	eax, eax
	jne	SHORT $LN5@spawn_help
	mov	DWORD PTR tv165[ebp], 1
	jmp	SHORT $LN6@spawn_help
$LN5@spawn_help:
	mov	DWORD PTR tv165[ebp], 0
$LN6@spawn_help:
	mov	al, BYTE PTR tv165[ebp]
	mov	BYTE PTR $T6[ebp], al
	lea	ecx, DWORD PTR $T2[ebp]
	call	DWORD PTR __imp_??1String@@QAE@XZ
	lea	ecx, DWORD PTR $T3[ebp]
	call	DWORD PTR __imp_??1String@@QAE@XZ
	lea	ecx, DWORD PTR $T5[ebp]
	call	DWORD PTR __imp_??1String@@QAE@XZ
	movzx	ecx, BYTE PTR $T6[ebp]
	test	ecx, ecx
	je	SHORT $LN1@spawn_help

; 169  :             return false;

	mov	BYTE PTR $T8[ebp], 0
	lea	ecx, DWORD PTR _helper_name$[ebp]
	call	DWORD PTR __imp_??1String@@QAE@XZ
	lea	ecx, DWORD PTR _helper$[ebp]
	call	DWORD PTR __imp_??1String@@QAE@XZ
	lea	ecx, DWORD PTR _helper_path$[ebp]
	call	DWORD PTR __imp_??1String@@QAE@XZ
	mov	al, BYTE PTR $T8[ebp]
	jmp	$LN3@spawn_help
$LN1@spawn_help:

; 170  : 
; 171  :         qsvhelper_process.reset(pi.hProcess);

	mov	edx, DWORD PTR _pi$[ebp]
	push	edx
	mov	ecx, DWORD PTR _qsvhelper_process$[ebp]
	call	?reset@safe_handle@@QAEXPAX@Z		; safe_handle::reset

; 172  :         qsvhelper_thread.reset(pi.hThread);

	mov	eax, DWORD PTR _pi$[ebp+4]
	push	eax
	mov	ecx, DWORD PTR _qsvhelper_thread$[ebp]
	call	?reset@safe_handle@@QAEXPAX@Z		; safe_handle::reset

; 173  :         process_waiter.push_back(pi.hProcess);

	lea	ecx, DWORD PTR _pi$[ebp]
	push	ecx
	mov	ecx, DWORD PTR _process_waiter$[ebp]
	call	?push_back@IPCWaiter@@QAEXABQAX@Z	; IPCWaiter::push_back

; 174  :         process_waiter.push_back(pi.hThread);

	lea	edx, DWORD PTR _pi$[ebp+4]
	push	edx
	mov	ecx, DWORD PTR _process_waiter$[ebp]
	call	?push_back@IPCWaiter@@QAEXABQAX@Z	; IPCWaiter::push_back

; 175  : 
; 176  :         event_prefix = FormattedString(TEXT("%s%u"), helper_name.Array(), pi.dwProcessId);

	mov	eax, DWORD PTR _pi$[ebp+8]
	push	eax
	lea	ecx, DWORD PTR _helper_name$[ebp]
	call	DWORD PTR __imp_?Array@String@@QBEPA_WXZ
	push	eax
	push	OFFSET $SG4294870618
	lea	ecx, DWORD PTR $T1[ebp]
	push	ecx
	call	DWORD PTR __imp_?FormattedString@@YA?AVString@@PB_WZZ
	add	esp, 16					; 00000010H
	push	eax
	mov	ecx, DWORD PTR _event_prefix$[ebp]
	call	DWORD PTR __imp_??4String@@QAEAAV0@ABV0@@Z
	lea	ecx, DWORD PTR $T1[ebp]
	call	DWORD PTR __imp_??1String@@QAE@XZ

; 177  : 
; 178  :         return true;

	mov	BYTE PTR $T7[ebp], 1
	lea	ecx, DWORD PTR _helper_name$[ebp]
	call	DWORD PTR __imp_??1String@@QAE@XZ
	lea	ecx, DWORD PTR _helper$[ebp]
	call	DWORD PTR __imp_??1String@@QAE@XZ
	lea	ecx, DWORD PTR _helper_path$[ebp]
	call	DWORD PTR __imp_??1String@@QAE@XZ
	mov	al, BYTE PTR $T7[ebp]
$LN3@spawn_help:

; 179  :     }

	mov	esp, ebp
	pop	ebp
	ret	0
?spawn_helper@?A0x7e09c670@@YA_NAAVString@@AAUsafe_handle@@1AAUIPCWaiter@@@Z ENDP ; `anonymous namespace'::spawn_helper
_TEXT	ENDS
; Function compile flags: /Odtp
; File f:\songmm_moon_stone_obs\obs\source\encoder_qsv.cpp
;	COMDAT ?qsv_get_cpu_platform@?A0x7e09c670@@YA?AW4qsv_cpu_platform@1@XZ
_TEXT	SEGMENT
$T1 = -160						; size = 4
$T2 = -156						; size = 4
$T3 = -152						; size = 4
$T4 = -148						; size = 4
$T5 = -144						; size = 4
$T6 = -140						; size = 4
$T7 = -136						; size = 4
$T8 = -132						; size = 4
$T9 = -128						; size = 4
tv161 = -124						; size = 4
_model$ = -118						; size = 1
_family$ = -117						; size = 1
$T10 = -116						; size = 24
$T11 = -92						; size = 24
$T12 = -68						; size = 24
_vendor$ = -44						; size = 24
_cpuInfo$ = -20						; size = 16
__$ArrayPad$ = -4					; size = 4
?qsv_get_cpu_platform@?A0x7e09c670@@YA?AW4qsv_cpu_platform@1@XZ PROC ; `anonymous namespace'::qsv_get_cpu_platform, COMDAT

; 194  :     {

	push	ebp
	mov	ebp, esp
	sub	esp, 160				; 000000a0H
	mov	eax, DWORD PTR ___security_cookie
	xor	eax, ebp
	mov	DWORD PTR __$ArrayPad$[ebp], eax
	push	ebx
	push	esi

; 195  :         using std::string;
; 196  : 
; 197  :         int cpuInfo[4];
; 198  :         __cpuid(cpuInfo, 0);

	lea	esi, DWORD PTR _cpuInfo$[ebp]
	xor	eax, eax
	xor	ecx, ecx
	cpuid
	mov	DWORD PTR [esi], eax
	mov	DWORD PTR [esi+4], ebx
	mov	DWORD PTR [esi+8], ecx
	mov	DWORD PTR [esi+12], edx

; 199  : 
; 200  :         string vendor;

	lea	ecx, DWORD PTR _vendor$[ebp]
	call	??0?$basic_string@DU?$char_traits@D@std@@V?$allocator@D@2@@std@@QAE@XZ ; std::basic_string<char,std::char_traits<char>,std::allocator<char> >::basic_string<char,std::char_traits<char>,std::allocator<char> >

; 201  :         vendor += string((char*)&cpuInfo[1], 4);

	push	4
	mov	eax, 4
	shl	eax, 0
	lea	ecx, DWORD PTR _cpuInfo$[ebp+eax]
	push	ecx
	lea	ecx, DWORD PTR $T10[ebp]
	call	??0?$basic_string@DU?$char_traits@D@std@@V?$allocator@D@2@@std@@QAE@PBDI@Z ; std::basic_string<char,std::char_traits<char>,std::allocator<char> >::basic_string<char,std::char_traits<char>,std::allocator<char> >
	push	eax
	lea	ecx, DWORD PTR _vendor$[ebp]
	call	??Y?$basic_string@DU?$char_traits@D@std@@V?$allocator@D@2@@std@@QAEAAV01@ABV01@@Z ; std::basic_string<char,std::char_traits<char>,std::allocator<char> >::operator+=
	lea	ecx, DWORD PTR $T10[ebp]
	call	??1?$basic_string@DU?$char_traits@D@std@@V?$allocator@D@2@@std@@QAE@XZ ; std::basic_string<char,std::char_traits<char>,std::allocator<char> >::~basic_string<char,std::char_traits<char>,std::allocator<char> >

; 202  :         vendor += string((char*)&cpuInfo[3], 4);

	push	4
	mov	edx, 4
	imul	eax, edx, 3
	lea	ecx, DWORD PTR _cpuInfo$[ebp+eax]
	push	ecx
	lea	ecx, DWORD PTR $T12[ebp]
	call	??0?$basic_string@DU?$char_traits@D@std@@V?$allocator@D@2@@std@@QAE@PBDI@Z ; std::basic_string<char,std::char_traits<char>,std::allocator<char> >::basic_string<char,std::char_traits<char>,std::allocator<char> >
	push	eax
	lea	ecx, DWORD PTR _vendor$[ebp]
	call	??Y?$basic_string@DU?$char_traits@D@std@@V?$allocator@D@2@@std@@QAEAAV01@ABV01@@Z ; std::basic_string<char,std::char_traits<char>,std::allocator<char> >::operator+=
	lea	ecx, DWORD PTR $T12[ebp]
	call	??1?$basic_string@DU?$char_traits@D@std@@V?$allocator@D@2@@std@@QAE@XZ ; std::basic_string<char,std::char_traits<char>,std::allocator<char> >::~basic_string<char,std::char_traits<char>,std::allocator<char> >

; 203  :         vendor += string((char*)&cpuInfo[2], 4);

	push	4
	mov	edx, 4
	shl	edx, 1
	lea	eax, DWORD PTR _cpuInfo$[ebp+edx]
	push	eax
	lea	ecx, DWORD PTR $T11[ebp]
	call	??0?$basic_string@DU?$char_traits@D@std@@V?$allocator@D@2@@std@@QAE@PBDI@Z ; std::basic_string<char,std::char_traits<char>,std::allocator<char> >::basic_string<char,std::char_traits<char>,std::allocator<char> >
	push	eax
	lea	ecx, DWORD PTR _vendor$[ebp]
	call	??Y?$basic_string@DU?$char_traits@D@std@@V?$allocator@D@2@@std@@QAEAAV01@ABV01@@Z ; std::basic_string<char,std::char_traits<char>,std::allocator<char> >::operator+=
	lea	ecx, DWORD PTR $T11[ebp]
	call	??1?$basic_string@DU?$char_traits@D@std@@V?$allocator@D@2@@std@@QAE@XZ ; std::basic_string<char,std::char_traits<char>,std::allocator<char> >::~basic_string<char,std::char_traits<char>,std::allocator<char> >

; 204  : 
; 205  :         if (vendor != "GenuineIntel")

	push	OFFSET $SG4294870617
	lea	ecx, DWORD PTR _vendor$[ebp]
	push	ecx
	call	??$?9DU?$char_traits@D@std@@V?$allocator@D@1@@std@@YA_NABV?$basic_string@DU?$char_traits@D@std@@V?$allocator@D@2@@0@PBD@Z ; std::operator!=<char,std::char_traits<char>,std::allocator<char> >
	add	esp, 8
	movzx	edx, al
	test	edx, edx
	je	SHORT $LN10@qsv_get_cp

; 206  :             return QSV_CPU_PLATFORM_UNKNOWN;

	mov	DWORD PTR $T1[ebp], 0
	lea	ecx, DWORD PTR _vendor$[ebp]
	call	??1?$basic_string@DU?$char_traits@D@std@@V?$allocator@D@2@@std@@QAE@XZ ; std::basic_string<char,std::char_traits<char>,std::allocator<char> >::~basic_string<char,std::char_traits<char>,std::allocator<char> >
	mov	eax, DWORD PTR $T1[ebp]
	jmp	$LN11@qsv_get_cp
$LN10@qsv_get_cp:

; 207  : 
; 208  :         __cpuid(cpuInfo, 1);

	lea	esi, DWORD PTR _cpuInfo$[ebp]
	mov	eax, 1
	xor	ecx, ecx
	cpuid
	mov	DWORD PTR [esi], eax
	mov	DWORD PTR [esi+4], ebx
	mov	DWORD PTR [esi+8], ecx
	mov	DWORD PTR [esi+12], edx

; 209  :         BYTE model = ((cpuInfo[0] >> 4) & 0xF) + ((cpuInfo[0] >> 12) & 0xF0);

	mov	eax, 4
	imul	ecx, eax, 0
	mov	edx, DWORD PTR _cpuInfo$[ebp+ecx]
	sar	edx, 4
	and	edx, 15					; 0000000fH
	mov	eax, 4
	imul	ecx, eax, 0
	mov	eax, DWORD PTR _cpuInfo$[ebp+ecx]
	sar	eax, 12					; 0000000cH
	and	eax, 240				; 000000f0H
	add	edx, eax
	mov	BYTE PTR _model$[ebp], dl

; 210  :         BYTE family = ((cpuInfo[0] >> 8) & 0xF) + ((cpuInfo[0] >> 20) & 0xFF);

	mov	ecx, 4
	imul	edx, ecx, 0
	mov	eax, DWORD PTR _cpuInfo$[ebp+edx]
	sar	eax, 8
	and	eax, 15					; 0000000fH
	mov	ecx, 4
	imul	edx, ecx, 0
	mov	ecx, DWORD PTR _cpuInfo$[ebp+edx]
	sar	ecx, 20					; 00000014H
	and	ecx, 255				; 000000ffH
	add	eax, ecx
	mov	BYTE PTR _family$[ebp], al

; 211  : 
; 212  :         // See Intel 64 and IA-32 Architectures Software Developer's Manual, Vol 3C Table 35-1
; 213  :         if (family != 6)

	movzx	edx, BYTE PTR _family$[ebp]
	cmp	edx, 6
	je	SHORT $LN9@qsv_get_cp

; 214  :             return QSV_CPU_PLATFORM_UNKNOWN;

	mov	DWORD PTR $T8[ebp], 0
	lea	ecx, DWORD PTR _vendor$[ebp]
	call	??1?$basic_string@DU?$char_traits@D@std@@V?$allocator@D@2@@std@@QAE@XZ ; std::basic_string<char,std::char_traits<char>,std::allocator<char> >::~basic_string<char,std::char_traits<char>,std::allocator<char> >
	mov	eax, DWORD PTR $T8[ebp]
	jmp	$LN11@qsv_get_cp
$LN9@qsv_get_cp:

; 215  : 
; 216  :         switch (model)

	movzx	eax, BYTE PTR _model$[ebp]
	mov	DWORD PTR tv161[ebp], eax
	mov	ecx, DWORD PTR tv161[ebp]
	sub	ecx, 28					; 0000001cH
	mov	DWORD PTR tv161[ebp], ecx
	cmp	DWORD PTR tv161[ebp], 65		; 00000041H
	ja	$LN7@qsv_get_cp
	mov	edx, DWORD PTR tv161[ebp]
	movzx	eax, BYTE PTR $LN13@qsv_get_cp[edx]
	jmp	DWORD PTR $LN14@qsv_get_cp[eax*4]
$LN6@qsv_get_cp:

; 217  :         {
; 218  :         case 0x1C:
; 219  :         case 0x26:
; 220  :         case 0x27:
; 221  :         case 0x35:
; 222  :         case 0x36:
; 223  :             return QSV_CPU_PLATFORM_BNL;

	mov	DWORD PTR $T7[ebp], 1
	lea	ecx, DWORD PTR _vendor$[ebp]
	call	??1?$basic_string@DU?$char_traits@D@std@@V?$allocator@D@2@@std@@QAE@XZ ; std::basic_string<char,std::char_traits<char>,std::allocator<char> >::~basic_string<char,std::char_traits<char>,std::allocator<char> >
	mov	eax, DWORD PTR $T7[ebp]
	jmp	$LN11@qsv_get_cp
$LN5@qsv_get_cp:

; 224  : 
; 225  :         case 0x2a:
; 226  :         case 0x2d:
; 227  :             return QSV_CPU_PLATFORM_SNB;

	mov	DWORD PTR $T5[ebp], 2
	lea	ecx, DWORD PTR _vendor$[ebp]
	call	??1?$basic_string@DU?$char_traits@D@std@@V?$allocator@D@2@@std@@QAE@XZ ; std::basic_string<char,std::char_traits<char>,std::allocator<char> >::~basic_string<char,std::char_traits<char>,std::allocator<char> >
	mov	eax, DWORD PTR $T5[ebp]
	jmp	SHORT $LN11@qsv_get_cp
$LN4@qsv_get_cp:

; 228  : 
; 229  :         case 0x3a:
; 230  :         case 0x3e:
; 231  :             return QSV_CPU_PLATFORM_IVB;

	mov	DWORD PTR $T3[ebp], 3
	lea	ecx, DWORD PTR _vendor$[ebp]
	call	??1?$basic_string@DU?$char_traits@D@std@@V?$allocator@D@2@@std@@QAE@XZ ; std::basic_string<char,std::char_traits<char>,std::allocator<char> >::~basic_string<char,std::char_traits<char>,std::allocator<char> >
	mov	eax, DWORD PTR $T3[ebp]
	jmp	SHORT $LN11@qsv_get_cp
$LN3@qsv_get_cp:

; 232  : 
; 233  :         case 0x37:
; 234  :         case 0x4A:
; 235  :         case 0x4D:
; 236  :         case 0x5A:
; 237  :         case 0x5D:
; 238  :             return QSV_CPU_PLATFORM_SLM;

	mov	DWORD PTR $T9[ebp], 4
	lea	ecx, DWORD PTR _vendor$[ebp]
	call	??1?$basic_string@DU?$char_traits@D@std@@V?$allocator@D@2@@std@@QAE@XZ ; std::basic_string<char,std::char_traits<char>,std::allocator<char> >::~basic_string<char,std::char_traits<char>,std::allocator<char> >
	mov	eax, DWORD PTR $T9[ebp]
	jmp	SHORT $LN11@qsv_get_cp
$LN2@qsv_get_cp:

; 239  : 
; 240  :         case 0x4C:
; 241  :             return QSV_CPU_PLATFORM_CHT;

	mov	DWORD PTR $T4[ebp], 5
	lea	ecx, DWORD PTR _vendor$[ebp]
	call	??1?$basic_string@DU?$char_traits@D@std@@V?$allocator@D@2@@std@@QAE@XZ ; std::basic_string<char,std::char_traits<char>,std::allocator<char> >::~basic_string<char,std::char_traits<char>,std::allocator<char> >
	mov	eax, DWORD PTR $T4[ebp]
	jmp	SHORT $LN11@qsv_get_cp
$LN1@qsv_get_cp:

; 242  : 
; 243  :         case 0x3c:
; 244  :         case 0x3f:
; 245  :         case 0x45:
; 246  :         case 0x46:
; 247  :             return QSV_CPU_PLATFORM_HSW;

	mov	DWORD PTR $T6[ebp], 6
	lea	ecx, DWORD PTR _vendor$[ebp]
	call	??1?$basic_string@DU?$char_traits@D@std@@V?$allocator@D@2@@std@@QAE@XZ ; std::basic_string<char,std::char_traits<char>,std::allocator<char> >::~basic_string<char,std::char_traits<char>,std::allocator<char> >
	mov	eax, DWORD PTR $T6[ebp]
	jmp	SHORT $LN11@qsv_get_cp
$LN7@qsv_get_cp:

; 248  :         }
; 249  : 
; 250  :         return QSV_CPU_PLATFORM_INTEL; //assume newer revisions are at least as capable as haswell

	mov	DWORD PTR $T2[ebp], 7
	lea	ecx, DWORD PTR _vendor$[ebp]
	call	??1?$basic_string@DU?$char_traits@D@std@@V?$allocator@D@2@@std@@QAE@XZ ; std::basic_string<char,std::char_traits<char>,std::allocator<char> >::~basic_string<char,std::char_traits<char>,std::allocator<char> >
	mov	eax, DWORD PTR $T2[ebp]
$LN11@qsv_get_cp:

; 251  :     }

	pop	esi
	pop	ebx
	mov	ecx, DWORD PTR __$ArrayPad$[ebp]
	xor	ecx, ebp
	call	@__security_check_cookie@4
	mov	esp, ebp
	pop	ebp
	ret	0
	npad	3
$LN14@qsv_get_cp:
	DD	$LN6@qsv_get_cp
	DD	$LN5@qsv_get_cp
	DD	$LN3@qsv_get_cp
	DD	$LN4@qsv_get_cp
	DD	$LN1@qsv_get_cp
	DD	$LN2@qsv_get_cp
	DD	$LN7@qsv_get_cp
$LN13@qsv_get_cp:
	DB	0
	DB	6
	DB	6
	DB	6
	DB	6
	DB	6
	DB	6
	DB	6
	DB	6
	DB	6
	DB	0
	DB	0
	DB	6
	DB	6
	DB	1
	DB	6
	DB	6
	DB	1
	DB	6
	DB	6
	DB	6
	DB	6
	DB	6
	DB	6
	DB	6
	DB	0
	DB	0
	DB	2
	DB	6
	DB	6
	DB	3
	DB	6
	DB	4
	DB	6
	DB	3
	DB	4
	DB	6
	DB	6
	DB	6
	DB	6
	DB	6
	DB	4
	DB	4
	DB	6
	DB	6
	DB	6
	DB	2
	DB	6
	DB	5
	DB	2
	DB	6
	DB	6
	DB	6
	DB	6
	DB	6
	DB	6
	DB	6
	DB	6
	DB	6
	DB	6
	DB	6
	DB	6
	DB	2
	DB	6
	DB	6
	DB	2
?qsv_get_cpu_platform@?A0x7e09c670@@YA?AW4qsv_cpu_platform@1@XZ ENDP ; `anonymous namespace'::qsv_get_cpu_platform
_TEXT	ENDS
; Function compile flags: /Odtp
; File f:\songmm_moon_stone_obs\obs\source\encoder_qsv.cpp
;	COMDAT ??0DTSGenerator@?A0x7e09c670@@QAE@XZ
_TEXT	SEGMENT
_this$ = -4						; size = 4
??0DTSGenerator@?A0x7e09c670@@QAE@XZ PROC		; `anonymous namespace'::DTSGenerator::DTSGenerator, COMDAT
; _this$ = ecx

; 268  :         DTSGenerator() : ver_1_6(false), bframes_pyramid(false), bframe_delay(0), use_bs_dts(false) {}

	push	ebp
	mov	ebp, esp
	push	ecx
	mov	DWORD PTR _this$[ebp], ecx
	mov	eax, DWORD PTR _this$[ebp]
	mov	BYTE PTR [eax], 0
	mov	ecx, DWORD PTR _this$[ebp]
	mov	BYTE PTR [ecx+1], 0
	mov	edx, DWORD PTR _this$[ebp]
	mov	DWORD PTR [edx+4], 0
	mov	eax, DWORD PTR _this$[ebp]
	mov	BYTE PTR [eax+8], 0
	mov	ecx, DWORD PTR _this$[ebp]
	add	ecx, 32					; 00000020H
	call	??0?$List@_J@@QAE@XZ			; List<__int64>::List<__int64>
	mov	ecx, DWORD PTR _this$[ebp]
	add	ecx, 40					; 00000028H
	call	??0?$List@_J@@QAE@XZ			; List<__int64>::List<__int64>
	mov	eax, DWORD PTR _this$[ebp]
	mov	esp, ebp
	pop	ebp
	ret	0
??0DTSGenerator@?A0x7e09c670@@QAE@XZ ENDP		; `anonymous namespace'::DTSGenerator::DTSGenerator
_TEXT	ENDS
; Function compile flags: /Odtp
; File f:\songmm_moon_stone_obs\obs\source\encoder_qsv.cpp
;	COMDAT ?Init@DTSGenerator@?A0x7e09c670@@QAEXIAATmfxVersion@@_N_K@Z
_TEXT	SEGMENT
tv85 = -16						; size = 4
tv77 = -12						; size = 4
tv72 = -8						; size = 4
_this$ = -4						; size = 4
_bframe_delay_$ = 8					; size = 4
_ver$ = 12						; size = 4
_use_cfr$ = 16						; size = 1
_frame_ticks_$ = 20					; size = 8
?Init@DTSGenerator@?A0x7e09c670@@QAEXIAATmfxVersion@@_N_K@Z PROC ; `anonymous namespace'::DTSGenerator::Init, COMDAT
; _this$ = ecx

; 271  :         {

	push	ebp
	mov	ebp, esp
	sub	esp, 16					; 00000010H
	mov	DWORD PTR _this$[ebp], ecx

; 272  :             bframe_delay = bframe_delay_;

	mov	eax, DWORD PTR _this$[ebp]
	mov	ecx, DWORD PTR _bframe_delay_$[ebp]
	mov	DWORD PTR [eax+4], ecx

; 273  :             ver_1_6 = (ver.Major >= 1 && ver.Minor >= 6);

	mov	edx, DWORD PTR _ver$[ebp]
	movzx	eax, WORD PTR [edx+2]
	cmp	eax, 1
	jl	SHORT $LN3@Init
	mov	ecx, DWORD PTR _ver$[ebp]
	movzx	edx, WORD PTR [ecx]
	cmp	edx, 6
	jl	SHORT $LN3@Init
	mov	DWORD PTR tv72[ebp], 1
	jmp	SHORT $LN4@Init
$LN3@Init:
	mov	DWORD PTR tv72[ebp], 0
$LN4@Init:
	mov	eax, DWORD PTR _this$[ebp]
	mov	cl, BYTE PTR tv72[ebp]
	mov	BYTE PTR [eax], cl

; 274  :             bframes_pyramid = qsv_get_cpu_platform() >= QSV_CPU_PLATFORM_HSW;

	call	?qsv_get_cpu_platform@?A0x7e09c670@@YA?AW4qsv_cpu_platform@1@XZ ; `anonymous namespace'::qsv_get_cpu_platform
	cmp	eax, 6
	jl	SHORT $LN5@Init
	mov	DWORD PTR tv77[ebp], 1
	jmp	SHORT $LN6@Init
$LN5@Init:
	mov	DWORD PTR tv77[ebp], 0
$LN6@Init:
	mov	edx, DWORD PTR _this$[ebp]
	mov	al, BYTE PTR tv77[ebp]
	mov	BYTE PTR [edx+1], al

; 275  :             use_bs_dts = ver_1_6 && use_cfr;

	mov	ecx, DWORD PTR _this$[ebp]
	movzx	edx, BYTE PTR [ecx]
	test	edx, edx
	je	SHORT $LN7@Init
	movzx	eax, BYTE PTR _use_cfr$[ebp]
	test	eax, eax
	je	SHORT $LN7@Init
	mov	DWORD PTR tv85[ebp], 1
	jmp	SHORT $LN8@Init
$LN7@Init:
	mov	DWORD PTR tv85[ebp], 0
$LN8@Init:
	mov	ecx, DWORD PTR _this$[ebp]
	mov	dl, BYTE PTR tv85[ebp]
	mov	BYTE PTR [ecx+8], dl

; 276  :             frame_ticks = frame_ticks_;

	mov	eax, DWORD PTR _this$[ebp]
	mov	ecx, DWORD PTR _frame_ticks_$[ebp]
	mov	DWORD PTR [eax+16], ecx
	mov	edx, DWORD PTR _frame_ticks_$[ebp+4]
	mov	DWORD PTR [eax+20], edx

; 277  :         }

	mov	esp, ebp
	pop	ebp
	ret	20					; 00000014H
?Init@DTSGenerator@?A0x7e09c670@@QAEXIAATmfxVersion@@_N_K@Z ENDP ; `anonymous namespace'::DTSGenerator::Init
_TEXT	ENDS
; Function compile flags: /Odtp
; File f:\songmm_moon_stone_obs\obs\source\encoder_qsv.cpp
;	COMDAT ?add@DTSGenerator@?A0x7e09c670@@QAEX_K@Z
_TEXT	SEGMENT
$T1 = -32						; size = 8
$T2 = -24						; size = 8
$T3 = -16						; size = 8
tv92 = -8						; size = 4
_this$ = -4						; size = 4
_ts$ = 8						; size = 8
?add@DTSGenerator@?A0x7e09c670@@QAEX_K@Z PROC		; `anonymous namespace'::DTSGenerator::add, COMDAT
; _this$ = ecx

; 280  :         {

	push	ebp
	mov	ebp, esp
	sub	esp, 32					; 00000020H
	mov	DWORD PTR _this$[ebp], ecx

; 281  :             if (use_bs_dts)

	mov	eax, DWORD PTR _this$[ebp]
	movzx	ecx, BYTE PTR [eax+8]
	test	ecx, ecx
	je	SHORT $LN5@add

; 282  :                 return;

	jmp	$LN6@add
$LN5@add:

; 283  : 
; 284  :             if (init_pts.Num() || frames_out == 0)

	mov	ecx, DWORD PTR _this$[ebp]
	add	ecx, 40					; 00000028H
	call	?Num@?$List@_J@@QBEIXZ			; List<__int64>::Num
	test	eax, eax
	jne	SHORT $LN3@add
	mov	edx, DWORD PTR _this$[ebp]
	mov	DWORD PTR tv92[ebp], edx
	mov	eax, DWORD PTR tv92[ebp]
	mov	ecx, DWORD PTR tv92[ebp]
	mov	edx, DWORD PTR [eax+24]
	or	edx, DWORD PTR [ecx+28]
	jne	SHORT $LN4@add
$LN3@add:

; 285  :                 init_pts << ts;

	mov	eax, DWORD PTR _ts$[ebp]
	mov	DWORD PTR $T3[ebp], eax
	mov	ecx, DWORD PTR _ts$[ebp+4]
	mov	DWORD PTR $T3[ebp+4], ecx
	lea	edx, DWORD PTR $T3[ebp]
	push	edx
	mov	ecx, DWORD PTR _this$[ebp]
	add	ecx, 40					; 00000028H
	call	??6?$List@_J@@QAEAAV0@AB_J@Z		; List<__int64>::operator<<
$LN4@add:

; 286  :             
; 287  :             if (!dts.Num() || dts.FindValueIndex(ts) == INVALID)

	mov	ecx, DWORD PTR _this$[ebp]
	add	ecx, 32					; 00000020H
	call	?Num@?$List@_J@@QBEIXZ			; List<__int64>::Num
	test	eax, eax
	je	SHORT $LN1@add
	mov	eax, DWORD PTR _ts$[ebp]
	mov	DWORD PTR $T2[ebp], eax
	mov	ecx, DWORD PTR _ts$[ebp+4]
	mov	DWORD PTR $T2[ebp+4], ecx
	lea	edx, DWORD PTR $T2[ebp]
	push	edx
	mov	ecx, DWORD PTR _this$[ebp]
	add	ecx, 32					; 00000020H
	call	?FindValueIndex@?$List@_J@@QBEIAB_J@Z	; List<__int64>::FindValueIndex
	cmp	eax, -1
	jne	SHORT $LN6@add
$LN1@add:

; 288  :                 dts << ts;

	mov	eax, DWORD PTR _ts$[ebp]
	mov	DWORD PTR $T1[ebp], eax
	mov	ecx, DWORD PTR _ts$[ebp+4]
	mov	DWORD PTR $T1[ebp+4], ecx
	lea	edx, DWORD PTR $T1[ebp]
	push	edx
	mov	ecx, DWORD PTR _this$[ebp]
	add	ecx, 32					; 00000020H
	call	??6?$List@_J@@QAEAAV0@AB_J@Z		; List<__int64>::operator<<
$LN6@add:

; 289  :         }

	mov	esp, ebp
	pop	ebp
	ret	8
?add@DTSGenerator@?A0x7e09c670@@QAEX_K@Z ENDP		; `anonymous namespace'::DTSGenerator::add
_TEXT	ENDS
; Function compile flags: /Odtp
; File f:\songmm_moon_stone_obs\obs\source\encoder_qsv.cpp
;	COMDAT ??RDTSGenerator@?A0x7e09c670@@QAE_J_K_J@Z
_TEXT	SEGMENT
tv231 = -32						; size = 8
_result$ = -24						; size = 8
tv230 = -16						; size = 4
_delay$1 = -12						; size = 4
tv174 = -8						; size = 4
_this$ = -4						; size = 4
_bs_pts$ = 8						; size = 8
_bs_dts$ = 16						; size = 8
??RDTSGenerator@?A0x7e09c670@@QAE_J_K_J@Z PROC		; `anonymous namespace'::DTSGenerator::operator(), COMDAT
; _this$ = ecx

; 292  :         {

	push	ebp
	mov	ebp, esp
	sub	esp, 32					; 00000020H
	push	esi
	push	edi
	mov	DWORD PTR _this$[ebp], ecx

; 293  :             if (use_bs_dts)

	mov	eax, DWORD PTR _this$[ebp]
	movzx	ecx, BYTE PTR [eax+8]
	test	ecx, ecx
	je	SHORT $LN6@operator

; 294  :                 return bs_dts;

	mov	eax, DWORD PTR _bs_dts$[ebp]
	mov	edx, DWORD PTR _bs_dts$[ebp+4]
	jmp	$LN7@operator
$LN6@operator:

; 295  : 
; 296  :             int64_t result = bs_dts;

	mov	edx, DWORD PTR _bs_dts$[ebp]
	mov	DWORD PTR _result$[ebp], edx
	mov	eax, DWORD PTR _bs_dts$[ebp+4]
	mov	DWORD PTR _result$[ebp+4], eax

; 297  : 
; 298  :             if (frames_out == 0 && ver_1_6 && bframes_pyramid)

	mov	ecx, DWORD PTR _this$[ebp]
	mov	DWORD PTR tv174[ebp], ecx
	mov	edx, DWORD PTR tv174[ebp]
	mov	eax, DWORD PTR tv174[ebp]
	mov	ecx, DWORD PTR [edx+24]
	or	ecx, DWORD PTR [eax+28]
	jne	SHORT $LN5@operator
	mov	edx, DWORD PTR _this$[ebp]
	movzx	eax, BYTE PTR [edx]
	test	eax, eax
	je	SHORT $LN5@operator
	mov	ecx, DWORD PTR _this$[ebp]
	movzx	edx, BYTE PTR [ecx+1]
	test	edx, edx
	je	SHORT $LN5@operator

; 299  :             {
; 300  :                 int delay = (int)((bs_pts - bs_dts + frame_ticks / 2) / frame_ticks);

	mov	esi, DWORD PTR _bs_pts$[ebp]
	sub	esi, DWORD PTR _bs_dts$[ebp]
	mov	edi, DWORD PTR _bs_pts$[ebp+4]
	sbb	edi, DWORD PTR _bs_dts$[ebp+4]
	mov	eax, DWORD PTR _this$[ebp]
	push	0
	push	2
	mov	ecx, DWORD PTR [eax+20]
	push	ecx
	mov	edx, DWORD PTR [eax+16]
	push	edx
	call	__aulldiv
	add	esi, eax
	adc	edi, edx
	mov	eax, DWORD PTR _this$[ebp]
	mov	ecx, DWORD PTR [eax+20]
	push	ecx
	mov	edx, DWORD PTR [eax+16]
	push	edx
	push	edi
	push	esi
	call	__aulldiv
	mov	DWORD PTR _delay$1[ebp], eax

; 301  :                 if (delay > 0)

	cmp	DWORD PTR _delay$1[ebp], 0
	jle	SHORT $LN4@operator

; 302  :                     bframe_delay = delay;

	mov	eax, DWORD PTR _this$[ebp]
	mov	ecx, DWORD PTR _delay$1[ebp]
	mov	DWORD PTR [eax+4], ecx
$LN4@operator:

; 303  :                 Log(L"Recalculated bframe_delay: %u, init_pts.Num: %u", bframe_delay, init_pts.Num());

	mov	ecx, DWORD PTR _this$[ebp]
	add	ecx, 40					; 00000028H
	call	?Num@?$List@_J@@QBEIXZ			; List<__int64>::Num
	push	eax
	mov	edx, DWORD PTR _this$[ebp]
	mov	eax, DWORD PTR [edx+4]
	push	eax
	push	OFFSET ??_C@_1GA@FFPJBDII@?$AAR?$AAe?$AAc?$AAa?$AAl?$AAc?$AAu?$AAl?$AAa?$AAt?$AAe?$AAd?$AA?5?$AAb?$AAf?$AAr?$AAa?$AAm?$AAe?$AA_?$AAd?$AAe?$AAl?$AAa?$AAy?$AA?3?$AA?5?$AA?$CF?$AAu?$AA?0?$AA?5?$AAi@
	call	DWORD PTR __imp_?Log@@YAXPB_WZZ
	add	esp, 12					; 0000000cH
$LN5@operator:

; 304  :             }
; 305  : 
; 306  :             if (frames_out <= bframe_delay)

	mov	ecx, DWORD PTR _this$[ebp]
	mov	edx, DWORD PTR [ecx+4]
	xor	eax, eax
	mov	ecx, DWORD PTR _this$[ebp]
	mov	DWORD PTR tv230[ebp], ecx
	mov	DWORD PTR tv231[ebp], edx
	mov	DWORD PTR tv231[ebp+4], eax
	mov	edx, DWORD PTR tv230[ebp]
	mov	eax, DWORD PTR [edx+28]
	cmp	eax, DWORD PTR tv231[ebp+4]
	ja	$LN3@operator
	jb	SHORT $LN9@operator
	mov	ecx, DWORD PTR tv230[ebp]
	mov	edx, DWORD PTR [ecx+24]
	cmp	edx, DWORD PTR tv231[ebp]
	ja	$LN3@operator
$LN9@operator:

; 307  :             {
; 308  :                 if (bframe_delay >= init_pts.Num())

	mov	ecx, DWORD PTR _this$[ebp]
	add	ecx, 40					; 00000028H
	call	?Num@?$List@_J@@QBEIXZ			; List<__int64>::Num
	mov	ecx, DWORD PTR _this$[ebp]
	cmp	DWORD PTR [ecx+4], eax
	jb	SHORT $LN2@operator

; 309  :                 {
; 310  :                     AppWarning(L"bframe_delay=%u >= init_pts.Num=%u", bframe_delay, init_pts.Num());

	mov	ecx, DWORD PTR _this$[ebp]
	add	ecx, 40					; 00000028H
	call	?Num@?$List@_J@@QBEIXZ			; List<__int64>::Num
	push	eax
	mov	edx, DWORD PTR _this$[ebp]
	mov	eax, DWORD PTR [edx+4]
	push	eax
	push	OFFSET ??_C@_1EG@IOAIFOJM@?$AAb?$AAf?$AAr?$AAa?$AAm?$AAe?$AA_?$AAd?$AAe?$AAl?$AAa?$AAy?$AA?$DN?$AA?$CF?$AAu?$AA?5?$AA?$DO?$AA?$DN?$AA?5?$AAi?$AAn?$AAi?$AAt?$AA_?$AAp?$AAt?$AAs?$AA?4?$AAN?$AAu?$AAm?$AA?$DN@
	call	DWORD PTR __imp_?AppWarning@@YAXPB_WZZ
	add	esp, 12					; 0000000cH

; 311  :                     bframe_delay = init_pts.Num() - 1;

	mov	ecx, DWORD PTR _this$[ebp]
	add	ecx, 40					; 00000028H
	call	?Num@?$List@_J@@QBEIXZ			; List<__int64>::Num
	sub	eax, 1
	mov	ecx, DWORD PTR _this$[ebp]
	mov	DWORD PTR [ecx+4], eax
$LN2@operator:

; 312  :                 }
; 313  :                 result = init_pts[(unsigned)frames_out] - init_pts[bframe_delay];

	mov	edx, DWORD PTR _this$[ebp]
	mov	eax, DWORD PTR [edx+24]
	push	eax
	mov	ecx, DWORD PTR _this$[ebp]
	add	ecx, 40					; 00000028H
	call	??A?$List@_J@@QAEAA_JI@Z		; List<__int64>::operator[]
	mov	esi, eax
	mov	ecx, DWORD PTR _this$[ebp]
	mov	edx, DWORD PTR [ecx+4]
	push	edx
	mov	ecx, DWORD PTR _this$[ebp]
	add	ecx, 40					; 00000028H
	call	??A?$List@_J@@QAEAA_JI@Z		; List<__int64>::operator[]
	mov	ecx, DWORD PTR [esi]
	sub	ecx, DWORD PTR [eax]
	mov	edx, DWORD PTR [esi+4]
	sbb	edx, DWORD PTR [eax+4]
	mov	DWORD PTR _result$[ebp], ecx
	mov	DWORD PTR _result$[ebp+4], edx

; 314  :             }
; 315  :             else

	jmp	SHORT $LN1@operator
$LN3@operator:

; 316  :             {
; 317  :                 init_pts.Clear();

	mov	ecx, DWORD PTR _this$[ebp]
	add	ecx, 40					; 00000028H
	call	?Clear@?$List@_J@@QAEXXZ		; List<__int64>::Clear

; 318  :                 result = dts[0];

	push	0
	mov	ecx, DWORD PTR _this$[ebp]
	add	ecx, 32					; 00000020H
	call	??A?$List@_J@@QAEAA_JI@Z		; List<__int64>::operator[]
	mov	ecx, DWORD PTR [eax]
	mov	DWORD PTR _result$[ebp], ecx
	mov	edx, DWORD PTR [eax+4]
	mov	DWORD PTR _result$[ebp+4], edx

; 319  :                 dts.Remove(0);

	push	0
	mov	ecx, DWORD PTR _this$[ebp]
	add	ecx, 32					; 00000020H
	call	?Remove@?$List@_J@@QAEXI@Z		; List<__int64>::Remove
$LN1@operator:

; 320  :             }
; 321  :             //Log(L"bs_dts=%u dts.Num=%u frames_out=%u bframe_delay=%u result=%lli bs_pts=%llu bs_dts=%lli", use_bs_dts, dts.Num(), frames_out, bframe_delay, result, bs_pts, bs_dts);
; 322  : 
; 323  :             frames_out += 1;

	mov	eax, DWORD PTR _this$[ebp]
	mov	ecx, DWORD PTR [eax+24]
	add	ecx, 1
	mov	edx, DWORD PTR [eax+28]
	adc	edx, 0
	mov	eax, DWORD PTR _this$[ebp]
	mov	DWORD PTR [eax+24], ecx
	mov	DWORD PTR [eax+28], edx

; 324  :             return result;

	mov	eax, DWORD PTR _result$[ebp]
	mov	edx, DWORD PTR _result$[ebp+4]
$LN7@operator:

; 325  :         }

	pop	edi
	pop	esi
	mov	esp, ebp
	pop	ebp
	ret	16					; 00000010H
??RDTSGenerator@?A0x7e09c670@@QAE_J_K_J@Z ENDP		; `anonymous namespace'::DTSGenerator::operator()
_TEXT	ENDS
; Function compile flags: /Odtp
; File f:\songmm_moon_stone_obs\obs\source\encoder_qsv.cpp
;	COMDAT ?StopHelper@?A0x7e09c670@@YAXAAU?$IPCSignal@$00@@AAUIPCWaiter@@AAUsafe_handle@@@Z
_TEXT	SEGMENT
_stop$ = 8						; size = 4
_waiter$ = 12						; size = 4
_h$ = 16						; size = 4
?StopHelper@?A0x7e09c670@@YAXAAU?$IPCSignal@$00@@AAUIPCWaiter@@AAUsafe_handle@@@Z PROC ; `anonymous namespace'::StopHelper, COMDAT

; 336  :     {

	push	ebp
	mov	ebp, esp

; 337  :         stop.signal();

	mov	ecx, DWORD PTR _stop$[ebp]
	call	?signal@?$IPCSignal@$00@@QAEXXZ		; IPCSignal<1>::signal

; 338  :         if (waiter.wait_timeout(500))

	push	500					; 000001f4H
	mov	ecx, DWORD PTR _waiter$[ebp]
	call	?wait_timeout@IPCWaiter@@QAE_NK@Z	; IPCWaiter::wait_timeout
	movzx	eax, al
	test	eax, eax
	je	SHORT $LN2@StopHelper

; 339  :             TerminateProcess(h, (UINT)-2);

	push	-2					; fffffffeH
	mov	ecx, DWORD PTR _h$[ebp]
	call	??Bsafe_handle@@QAEPAXXZ		; safe_handle::operator void *
	push	eax
	call	DWORD PTR __imp__TerminateProcess@8
$LN2@StopHelper:

; 340  :     }

	pop	ebp
	ret	0
?StopHelper@?A0x7e09c670@@YAXAAU?$IPCSignal@$00@@AAUIPCWaiter@@AAUsafe_handle@@@Z ENDP ; `anonymous namespace'::StopHelper
_TEXT	ENDS
; Function compile flags: /Odtp
; File f:\songmm_moon_stone_obs\obs\source\encoder_qsv.cpp
;	COMDAT ?CheckQSVHardwareSupport@@YA_N_NPA_N@Z
_TEXT	SEGMENT
$T1 = -104						; size = 8
_waiter$ = -96						; size = 12
tv180 = -84						; size = 4
_event_prefix$ = -80					; size = 8
_code$ = -72						; size = 4
_helper_thread$ = -68					; size = 4
$T2 = -62						; size = 1
$T3 = -61						; size = 1
_helper_process$ = -60					; size = 4
$T4 = -55						; size = 1
$T5 = -54						; size = 1
$T6 = -53						; size = 1
_req$ = -52						; size = 48
__$ArrayPad$ = -4					; size = 4
_log$ = 8						; size = 1
_configurationWarning$ = 12				; size = 4
?CheckQSVHardwareSupport@@YA_N_NPA_N@Z PROC		; CheckQSVHardwareSupport, COMDAT

; 344  : {

	push	ebp
	mov	ebp, esp
	sub	esp, 104				; 00000068H
	mov	eax, DWORD PTR ___security_cookie
	xor	eax, ebp
	mov	DWORD PTR __$ArrayPad$[ebp], eax

; 345  :     safe_handle helper_process, helper_thread;

	push	0
	lea	ecx, DWORD PTR _helper_process$[ebp]
	call	??0safe_handle@@QAE@PAX@Z		; safe_handle::safe_handle
	push	0
	lea	ecx, DWORD PTR _helper_thread$[ebp]
	call	??0safe_handle@@QAE@PAX@Z		; safe_handle::safe_handle

; 346  :     IPCWaiter waiter;

	lea	ecx, DWORD PTR _waiter$[ebp]
	call	??0IPCWaiter@@QAE@XZ

; 347  :     String event_prefix;

	lea	ecx, DWORD PTR _event_prefix$[ebp]
	call	DWORD PTR __imp_??0String@@QAE@XZ

; 348  :     if(!spawn_helper(event_prefix, helper_process, helper_thread, waiter))

	lea	eax, DWORD PTR _waiter$[ebp]
	push	eax
	lea	ecx, DWORD PTR _helper_thread$[ebp]
	push	ecx
	lea	edx, DWORD PTR _helper_process$[ebp]
	push	edx
	lea	eax, DWORD PTR _event_prefix$[ebp]
	push	eax
	call	?spawn_helper@?A0x7e09c670@@YA_NAAVString@@AAUsafe_handle@@1AAUIPCWaiter@@@Z ; `anonymous namespace'::spawn_helper
	add	esp, 16					; 00000010H
	movzx	ecx, al
	test	ecx, ecx
	jne	SHORT $LN9@CheckQSVHa

; 349  :         return false;

	mov	BYTE PTR $T2[ebp], 0
	lea	ecx, DWORD PTR _event_prefix$[ebp]
	call	DWORD PTR __imp_??1String@@QAE@XZ
	lea	ecx, DWORD PTR _waiter$[ebp]
	call	??1IPCWaiter@@QAE@XZ
	lea	ecx, DWORD PTR _helper_thread$[ebp]
	call	??1safe_handle@@QAE@XZ			; safe_handle::~safe_handle
	lea	ecx, DWORD PTR _helper_process$[ebp]
	call	??1safe_handle@@QAE@XZ			; safe_handle::~safe_handle
	mov	al, BYTE PTR $T2[ebp]
	jmp	$LN10@CheckQSVHa
$LN9@CheckQSVHa:

; 350  : 
; 351  :     ipc_init_request req((event_prefix + INIT_REQUEST).Array());

	push	OFFSET $SG4294870612
	lea	edx, DWORD PTR $T1[ebp]
	push	edx
	lea	ecx, DWORD PTR _event_prefix$[ebp]
	call	DWORD PTR __imp_??HString@@QBE?AV0@PB_W@Z
	mov	ecx, eax
	call	DWORD PTR __imp_?Array@String@@QBEPA_WXZ
	sub	esp, 24					; 00000018H
	mov	ecx, esp
	push	eax
	call	??0?$basic_string@_WU?$char_traits@_W@std@@V?$allocator@_W@2@@std@@QAE@PB_W@Z ; std::basic_string<wchar_t,std::char_traits<wchar_t>,std::allocator<wchar_t> >::basic_string<wchar_t,std::char_traits<wchar_t>,std::allocator<wchar_t> >
	lea	ecx, DWORD PTR _req$[ebp]
	call	??0?$IPCSignalledType@Uinit_request@@@@QAE@V?$basic_string@_WU?$char_traits@_W@std@@V?$allocator@_W@2@@std@@@Z ; IPCSignalledType<init_request>::IPCSignalledType<init_request>
	lea	ecx, DWORD PTR $T1[ebp]
	call	DWORD PTR __imp_??1String@@QAE@XZ

; 352  :     req->mode = req->MODE_QUERY;

	lea	ecx, DWORD PTR _req$[ebp]
	call	??C?$IPCType@Uinit_request@@@@QAEPAUinit_request@@XZ ; IPCType<init_request>::operator->
	lea	ecx, DWORD PTR _req$[ebp]
	call	??C?$IPCType@Uinit_request@@@@QAEPAUinit_request@@XZ ; IPCType<init_request>::operator->
	mov	DWORD PTR [eax], 0

; 353  :     req.signal();

	lea	ecx, DWORD PTR _req$[ebp+40]
	call	?signal@?$IPCSignal@$0A@@@QAEXXZ	; IPCSignal<0>::signal

; 354  : 
; 355  :     if(!waiter.wait(INFINITE))

	push	-1
	lea	ecx, DWORD PTR _waiter$[ebp]
	call	?wait@IPCWaiter@@QAE_NK@Z		; IPCWaiter::wait
	movzx	eax, al
	test	eax, eax
	jne	SHORT $LN8@CheckQSVHa

; 356  :         return false;

	mov	BYTE PTR $T3[ebp], 0
	lea	ecx, DWORD PTR _req$[ebp]
	call	??1?$IPCSignalledType@Uinit_request@@@@QAE@XZ
	lea	ecx, DWORD PTR _event_prefix$[ebp]
	call	DWORD PTR __imp_??1String@@QAE@XZ
	lea	ecx, DWORD PTR _waiter$[ebp]
	call	??1IPCWaiter@@QAE@XZ
	lea	ecx, DWORD PTR _helper_thread$[ebp]
	call	??1safe_handle@@QAE@XZ			; safe_handle::~safe_handle
	lea	ecx, DWORD PTR _helper_process$[ebp]
	call	??1safe_handle@@QAE@XZ			; safe_handle::~safe_handle
	mov	al, BYTE PTR $T3[ebp]
	jmp	$LN10@CheckQSVHa
$LN8@CheckQSVHa:

; 357  : 
; 358  :     DWORD code = 0;

	mov	DWORD PTR _code$[ebp], 0

; 359  :     if(!GetExitCodeProcess(helper_process.h, &code))

	lea	ecx, DWORD PTR _code$[ebp]
	push	ecx
	mov	edx, DWORD PTR _helper_process$[ebp]
	push	edx
	call	DWORD PTR __imp__GetExitCodeProcess@8
	test	eax, eax
	jne	SHORT $LN7@CheckQSVHa

; 360  :         return false;

	mov	BYTE PTR $T4[ebp], 0
	lea	ecx, DWORD PTR _req$[ebp]
	call	??1?$IPCSignalledType@Uinit_request@@@@QAE@XZ
	lea	ecx, DWORD PTR _event_prefix$[ebp]
	call	DWORD PTR __imp_??1String@@QAE@XZ
	lea	ecx, DWORD PTR _waiter$[ebp]
	call	??1IPCWaiter@@QAE@XZ
	lea	ecx, DWORD PTR _helper_thread$[ebp]
	call	??1safe_handle@@QAE@XZ			; safe_handle::~safe_handle
	lea	ecx, DWORD PTR _helper_process$[ebp]
	call	??1safe_handle@@QAE@XZ			; safe_handle::~safe_handle
	mov	al, BYTE PTR $T4[ebp]
	jmp	$LN10@CheckQSVHa
$LN7@CheckQSVHa:

; 361  : 
; 362  :     if(code == 0)

	cmp	DWORD PTR _code$[ebp], 0
	jne	SHORT $LN6@CheckQSVHa

; 363  :     {
; 364  :         if(log)

	movzx	eax, BYTE PTR _log$[ebp]
	test	eax, eax
	je	SHORT $LN5@CheckQSVHa

; 365  :             Log(TEXT("Found QSV hardware support"));

	push	OFFSET $SG4294870611
	call	DWORD PTR __imp_?Log@@YAXPB_WZZ
	add	esp, 4
$LN5@CheckQSVHa:

; 366  :         return true;

	mov	BYTE PTR $T6[ebp], 1
	lea	ecx, DWORD PTR _req$[ebp]
	call	??1?$IPCSignalledType@Uinit_request@@@@QAE@XZ
	lea	ecx, DWORD PTR _event_prefix$[ebp]
	call	DWORD PTR __imp_??1String@@QAE@XZ
	lea	ecx, DWORD PTR _waiter$[ebp]
	call	??1IPCWaiter@@QAE@XZ
	lea	ecx, DWORD PTR _helper_thread$[ebp]
	call	??1safe_handle@@QAE@XZ			; safe_handle::~safe_handle
	lea	ecx, DWORD PTR _helper_process$[ebp]
	call	??1safe_handle@@QAE@XZ			; safe_handle::~safe_handle
	mov	al, BYTE PTR $T6[ebp]
	jmp	$LN10@CheckQSVHa
$LN6@CheckQSVHa:

; 367  :     }
; 368  : 
; 369  :     static bool warning_logged = false;
; 370  :     if (code == EXIT_NO_INTEL_GRAPHICS && (!warning_logged || log))

	cmp	DWORD PTR _code$[ebp], 2
	jne	SHORT $LN4@CheckQSVHa
	movzx	ecx, BYTE PTR ?warning_logged@?N@??CheckQSVHardwareSupport@@YA_N_NPA_N@Z@4_NA
	test	ecx, ecx
	je	SHORT $LN3@CheckQSVHa
	movzx	edx, BYTE PTR _log$[ebp]
	test	edx, edx
	je	SHORT $LN4@CheckQSVHa
$LN3@CheckQSVHa:

; 371  :     {
; 372  :         Log(L"No Intel graphics adapter visible in QSVHelper.exe, Optimus problem?");

	push	OFFSET $SG4294870610
	call	DWORD PTR __imp_?Log@@YAXPB_WZZ
	add	esp, 4

; 373  :         warning_logged = true;

	mov	BYTE PTR ?warning_logged@?N@??CheckQSVHardwareSupport@@YA_N_NPA_N@Z@4_NA, 1
$LN4@CheckQSVHa:

; 374  :     }
; 375  : 
; 376  :     if (configurationWarning)

	cmp	DWORD PTR _configurationWarning$[ebp], 0
	je	SHORT $LN2@CheckQSVHa

; 377  :         *configurationWarning = code == EXIT_NO_INTEL_GRAPHICS && qsv_get_cpu_platform() != QSV_CPU_PLATFORM_UNKNOWN;

	cmp	DWORD PTR _code$[ebp], 2
	jne	SHORT $LN12@CheckQSVHa
	call	?qsv_get_cpu_platform@?A0x7e09c670@@YA?AW4qsv_cpu_platform@1@XZ ; `anonymous namespace'::qsv_get_cpu_platform
	test	eax, eax
	je	SHORT $LN12@CheckQSVHa
	mov	DWORD PTR tv180[ebp], 1
	jmp	SHORT $LN13@CheckQSVHa
$LN12@CheckQSVHa:
	mov	DWORD PTR tv180[ebp], 0
$LN13@CheckQSVHa:
	mov	eax, DWORD PTR _configurationWarning$[ebp]
	mov	cl, BYTE PTR tv180[ebp]
	mov	BYTE PTR [eax], cl
$LN2@CheckQSVHa:

; 378  : 
; 379  :     if(log)

	movzx	edx, BYTE PTR _log$[ebp]
	test	edx, edx
	je	SHORT $LN1@CheckQSVHa

; 380  :         Log(TEXT("Failed to initialize QSV hardware session"));

	push	OFFSET $SG4294870609
	call	DWORD PTR __imp_?Log@@YAXPB_WZZ
	add	esp, 4
$LN1@CheckQSVHa:

; 381  :     return false;

	mov	BYTE PTR $T5[ebp], 0
	lea	ecx, DWORD PTR _req$[ebp]
	call	??1?$IPCSignalledType@Uinit_request@@@@QAE@XZ
	lea	ecx, DWORD PTR _event_prefix$[ebp]
	call	DWORD PTR __imp_??1String@@QAE@XZ
	lea	ecx, DWORD PTR _waiter$[ebp]
	call	??1IPCWaiter@@QAE@XZ
	lea	ecx, DWORD PTR _helper_thread$[ebp]
	call	??1safe_handle@@QAE@XZ			; safe_handle::~safe_handle
	lea	ecx, DWORD PTR _helper_process$[ebp]
	call	??1safe_handle@@QAE@XZ			; safe_handle::~safe_handle
	mov	al, BYTE PTR $T5[ebp]
$LN10@CheckQSVHa:

; 382  : }

	mov	ecx, DWORD PTR __$ArrayPad$[ebp]
	xor	ecx, ebp
	call	@__security_check_cookie@4
	mov	esp, ebp
	pop	ebp
	ret	0
?CheckQSVHardwareSupport@@YA_N_NPA_N@Z ENDP		; CheckQSVHardwareSupport
_TEXT	ENDS
; Function compile flags: /Odtp
;	COMDAT ??0IPCWaiter@@QAE@XZ
_TEXT	SEGMENT
_this$ = -4						; size = 4
??0IPCWaiter@@QAE@XZ PROC				; IPCWaiter::IPCWaiter, COMDAT
; _this$ = ecx
	push	ebp
	mov	ebp, esp
	push	ecx
	mov	DWORD PTR _this$[ebp], ecx
	mov	ecx, DWORD PTR _this$[ebp]
	call	??0?$vector@PAXV?$allocator@PAX@std@@@std@@QAE@XZ ; std::vector<void *,std::allocator<void *> >::vector<void *,std::allocator<void *> >
	mov	eax, DWORD PTR _this$[ebp]
	mov	esp, ebp
	pop	ebp
	ret	0
??0IPCWaiter@@QAE@XZ ENDP				; IPCWaiter::IPCWaiter
_TEXT	ENDS
; Function compile flags: /Odtp
;	COMDAT ??1IPCWaiter@@QAE@XZ
