; Listing generated by Microsoft (R) Optimizing Compiler Version 18.00.21005.1 

	TITLE	F:\songmm_moon_stone_obs\OBS\Source\NullOutput.cpp
	.686P
	.XMM
	include listing.inc
	.model	flat

INCLUDELIB OLDNAMES

PUBLIC	??_R2NullAudioEncoder@@8			; NullAudioEncoder::`RTTI Base Class Array'
PUBLIC	??_R1A@?0A@EA@NullAudioEncoder@@8		; NullAudioEncoder::`RTTI Base Class Descriptor at (0,-1,0,64)'
PUBLIC	??_R2NullVideoEncoder@@8			; NullVideoEncoder::`RTTI Base Class Array'
PUBLIC	??_R4NullVideoEncoder@@6B@			; NullVideoEncoder::`RTTI Complete Object Locator'
PUBLIC	??_R0?AVNullVideoEncoder@@@8			; NullVideoEncoder `RTTI Type Descriptor'
PUBLIC	??_R0?AVNullAudioEncoder@@@8			; NullAudioEncoder `RTTI Type Descriptor'
PUBLIC	??_R2NullNetwork@@8				; NullNetwork::`RTTI Base Class Array'
PUBLIC	??_R3NullVideoEncoder@@8			; NullVideoEncoder::`RTTI Class Hierarchy Descriptor'
PUBLIC	??_R1A@?0A@EA@NullVideoEncoder@@8		; NullVideoEncoder::`RTTI Base Class Descriptor at (0,-1,0,64)'
PUBLIC	??_7NullAudioEncoder@@6B@			; NullAudioEncoder::`vftable'
PUBLIC	??_R3NullNetwork@@8				; NullNetwork::`RTTI Class Hierarchy Descriptor'
PUBLIC	??_R4NullNetwork@@6B@				; NullNetwork::`RTTI Complete Object Locator'
PUBLIC	??_R4NullAudioEncoder@@6B@			; NullAudioEncoder::`RTTI Complete Object Locator'
PUBLIC	??_7NullVideoEncoder@@6B@			; NullVideoEncoder::`vftable'
PUBLIC	??_R3NullAudioEncoder@@8			; NullAudioEncoder::`RTTI Class Hierarchy Descriptor'
PUBLIC	??_R1A@?0A@EA@NullNetwork@@8			; NullNetwork::`RTTI Base Class Descriptor at (0,-1,0,64)'
PUBLIC	??_7NullNetwork@@6B@				; NullNetwork::`vftable'
PUBLIC	??_R0?AVNullNetwork@@@8				; NullNetwork `RTTI Type Descriptor'
;	COMDAT ??_R0?AVNullNetwork@@@8
data$r	SEGMENT
??_R0?AVNullNetwork@@@8 DD FLAT:??_7type_info@@6B@	; NullNetwork `RTTI Type Descriptor'
	DD	00H
	DB	'.?AVNullNetwork@@', 00H
data$r	ENDS
;	COMDAT ??_7NullNetwork@@6B@
CONST	SEGMENT
??_7NullNetwork@@6B@ DD FLAT:??_R4NullNetwork@@6B@	; NullNetwork::`vftable'
	DD	FLAT:??_ENullNetwork@@UAEPAXI@Z
	DD	FLAT:?SendPacket@NullNetwork@@EAEXPAEIKW4PacketType@@@Z
	DD	FLAT:?BeginPublishing@NetworkStream@@UAEXXZ
	DD	FLAT:?GetPacketStrain@NullNetwork@@EBENXZ
	DD	FLAT:?GetCurrentSentBytes@NullNetwork@@EAE_KXZ
	DD	FLAT:?NumDroppedFrames@NullNetwork@@EBEKXZ
	DD	FLAT:?NumTotalVideoFrames@NullNetwork@@EBEKXZ
CONST	ENDS
;	COMDAT ??_R1A@?0A@EA@NullNetwork@@8
rdata$r	SEGMENT
??_R1A@?0A@EA@NullNetwork@@8 DD FLAT:??_R0?AVNullNetwork@@@8 ; NullNetwork::`RTTI Base Class Descriptor at (0,-1,0,64)'
	DD	02H
	DD	00H
	DD	0ffffffffH
	DD	00H
	DD	040H
	DD	FLAT:??_R3NullNetwork@@8
rdata$r	ENDS
;	COMDAT ??_R3NullAudioEncoder@@8
rdata$r	SEGMENT
??_R3NullAudioEncoder@@8 DD 00H				; NullAudioEncoder::`RTTI Class Hierarchy Descriptor'
	DD	00H
	DD	02H
	DD	FLAT:??_R2NullAudioEncoder@@8
rdata$r	ENDS
;	COMDAT ??_7NullVideoEncoder@@6B@
CONST	SEGMENT
??_7NullVideoEncoder@@6B@ DD FLAT:??_R4NullVideoEncoder@@6B@ ; NullVideoEncoder::`vftable'
	DD	FLAT:?Encode@NullVideoEncoder@@UAE_NPAXAAV?$List@UDataPacket@@@@AAV?$List@W4PacketType@@@@KAAK@Z
	DD	FLAT:?RequestBuffers@VideoEncoder@@MAEXPAX@Z
	DD	FLAT:??_ENullVideoEncoder@@UAEPAXI@Z
	DD	FLAT:?GetBitRate@NullVideoEncoder@@UBEHXZ
	DD	FLAT:?DynamicBitrateSupported@NullVideoEncoder@@UBE_NXZ
	DD	FLAT:?SetBitRate@NullVideoEncoder@@UAE_NKK@Z
	DD	FLAT:?GetHeaders@NullVideoEncoder@@UAEXAAUDataPacket@@@Z
	DD	FLAT:?GetSEI@VideoEncoder@@UAEXAAUDataPacket@@@Z
	DD	FLAT:?RequestKeyframe@VideoEncoder@@UAEXXZ
	DD	FLAT:?GetInfoString@NullVideoEncoder@@UBE?AVString@@XZ
	DD	FLAT:?isQSV@VideoEncoder@@UAE_NXZ
	DD	FLAT:?GetBufferedFrames@VideoEncoder@@UAEHXZ
	DD	FLAT:?HasBufferedFrames@VideoEncoder@@UAE_NXZ
CONST	ENDS
;	COMDAT ??_R4NullAudioEncoder@@6B@
rdata$r	SEGMENT
??_R4NullAudioEncoder@@6B@ DD 00H			; NullAudioEncoder::`RTTI Complete Object Locator'
	DD	00H
	DD	00H
	DD	FLAT:??_R0?AVNullAudioEncoder@@@8
	DD	FLAT:??_R3NullAudioEncoder@@8
rdata$r	ENDS
;	COMDAT ??_R4NullNetwork@@6B@
rdata$r	SEGMENT
??_R4NullNetwork@@6B@ DD 00H				; NullNetwork::`RTTI Complete Object Locator'
	DD	00H
	DD	00H
	DD	FLAT:??_R0?AVNullNetwork@@@8
	DD	FLAT:??_R3NullNetwork@@8
rdata$r	ENDS
;	COMDAT ??_R3NullNetwork@@8
rdata$r	SEGMENT
??_R3NullNetwork@@8 DD 00H				; NullNetwork::`RTTI Class Hierarchy Descriptor'
	DD	00H
	DD	03H
	DD	FLAT:??_R2NullNetwork@@8
rdata$r	ENDS
;	COMDAT ??_7NullAudioEncoder@@6B@
CONST	SEGMENT
??_7NullAudioEncoder@@6B@ DD FLAT:??_R4NullAudioEncoder@@6B@ ; NullAudioEncoder::`vftable'
	DD	FLAT:?Encode@NullAudioEncoder@@UAE_NPAMIAAUDataPacket@@AA_K@Z
	DD	FLAT:?GetHeaders@NullAudioEncoder@@UAEXAAUDataPacket@@@Z
	DD	FLAT:??_ENullAudioEncoder@@UAEPAXI@Z
	DD	FLAT:?GetFrameSize@NullAudioEncoder@@UBEIXZ
	DD	FLAT:?GetBitRate@NullAudioEncoder@@UBEHXZ
	DD	FLAT:?GetCodec@NullAudioEncoder@@UBEPB_WXZ
	DD	FLAT:?GetInfoString@NullAudioEncoder@@UBE?AVString@@XZ
CONST	ENDS
;	COMDAT ??_R1A@?0A@EA@NullVideoEncoder@@8
rdata$r	SEGMENT
??_R1A@?0A@EA@NullVideoEncoder@@8 DD FLAT:??_R0?AVNullVideoEncoder@@@8 ; NullVideoEncoder::`RTTI Base Class Descriptor at (0,-1,0,64)'
	DD	01H
	DD	00H
	DD	0ffffffffH
	DD	00H
	DD	040H
	DD	FLAT:??_R3NullVideoEncoder@@8
rdata$r	ENDS
;	COMDAT ??_R3NullVideoEncoder@@8
rdata$r	SEGMENT
??_R3NullVideoEncoder@@8 DD 00H				; NullVideoEncoder::`RTTI Class Hierarchy Descriptor'
	DD	00H
	DD	02H
	DD	FLAT:??_R2NullVideoEncoder@@8
rdata$r	ENDS
;	COMDAT ??_R2NullNetwork@@8
rdata$r	SEGMENT
??_R2NullNetwork@@8 DD FLAT:??_R1A@?0A@EA@NullNetwork@@8 ; NullNetwork::`RTTI Base Class Array'
	DD	FLAT:??_R1A@?0A@EA@NetworkStream@@8
	DD	FLAT:??_R1A@?0A@EA@ClosableStream@@8
rdata$r	ENDS
;	COMDAT ??_R0?AVNullAudioEncoder@@@8
data$r	SEGMENT
??_R0?AVNullAudioEncoder@@@8 DD FLAT:??_7type_info@@6B@	; NullAudioEncoder `RTTI Type Descriptor'
	DD	00H
	DB	'.?AVNullAudioEncoder@@', 00H
data$r	ENDS
;	COMDAT ??_R0?AVNullVideoEncoder@@@8
data$r	SEGMENT
??_R0?AVNullVideoEncoder@@@8 DD FLAT:??_7type_info@@6B@	; NullVideoEncoder `RTTI Type Descriptor'
	DD	00H
	DB	'.?AVNullVideoEncoder@@', 00H
data$r	ENDS
;	COMDAT ??_R4NullVideoEncoder@@6B@
rdata$r	SEGMENT
??_R4NullVideoEncoder@@6B@ DD 00H			; NullVideoEncoder::`RTTI Complete Object Locator'
	DD	00H
	DD	00H
	DD	FLAT:??_R0?AVNullVideoEncoder@@@8
	DD	FLAT:??_R3NullVideoEncoder@@8
rdata$r	ENDS
;	COMDAT ??_R2NullVideoEncoder@@8
rdata$r	SEGMENT
??_R2NullVideoEncoder@@8 DD FLAT:??_R1A@?0A@EA@NullVideoEncoder@@8 ; NullVideoEncoder::`RTTI Base Class Array'
	DD	FLAT:??_R1A@?0A@EA@VideoEncoder@@8
rdata$r	ENDS
;	COMDAT ??_R1A@?0A@EA@NullAudioEncoder@@8
rdata$r	SEGMENT
??_R1A@?0A@EA@NullAudioEncoder@@8 DD FLAT:??_R0?AVNullAudioEncoder@@@8 ; NullAudioEncoder::`RTTI Base Class Descriptor at (0,-1,0,64)'
	DD	01H
	DD	00H
	DD	0ffffffffH
	DD	00H
	DD	040H
	DD	FLAT:??_R3NullAudioEncoder@@8
rdata$r	ENDS
;	COMDAT ??_R2NullAudioEncoder@@8
rdata$r	SEGMENT
??_R2NullAudioEncoder@@8 DD FLAT:??_R1A@?0A@EA@NullAudioEncoder@@8 ; NullAudioEncoder::`RTTI Base Class Array'
	DD	FLAT:??_R1A@?0A@EA@AudioEncoder@@8
PUBLIC	??1NullNetwork@@UAE@XZ				; NullNetwork::~NullNetwork
PUBLIC	??_GNullNetwork@@UAEPAXI@Z			; NullNetwork::`scalar deleting destructor'
PUBLIC	??0NullNetwork@@QAE@XZ				; NullNetwork::NullNetwork
PUBLIC	?CreateNullNetwork@@YAPAVNetworkStream@@XZ	; CreateNullNetwork
PUBLIC	??1NullAudioEncoder@@UAE@XZ			; NullAudioEncoder::~NullAudioEncoder
PUBLIC	??_GNullAudioEncoder@@UAEPAXI@Z			; NullAudioEncoder::`scalar deleting destructor'
PUBLIC	??0NullAudioEncoder@@QAE@XZ			; NullAudioEncoder::NullAudioEncoder
PUBLIC	?CreateNullAudioEncoder@@YAPAVAudioEncoder@@XZ	; CreateNullAudioEncoder
PUBLIC	??1NullVideoEncoder@@UAE@XZ			; NullVideoEncoder::~NullVideoEncoder
PUBLIC	??_GNullVideoEncoder@@UAEPAXI@Z			; NullVideoEncoder::`scalar deleting destructor'
PUBLIC	??0NullVideoEncoder@@QAE@XZ			; NullVideoEncoder::NullVideoEncoder
PUBLIC	?CreateNullVideoEncoder@@YAPAVVideoEncoder@@XZ	; CreateNullVideoEncoder
PUBLIC	?NumTotalVideoFrames@NullNetwork@@EBEKXZ	; NullNetwork::NumTotalVideoFrames
PUBLIC	?NumDroppedFrames@NullNetwork@@EBEKXZ		; NullNetwork::NumDroppedFrames
PUBLIC	?GetCurrentSentBytes@NullNetwork@@EAE_KXZ	; NullNetwork::GetCurrentSentBytes
PUBLIC	?GetPacketStrain@NullNetwork@@EBENXZ		; NullNetwork::GetPacketStrain
PUBLIC	?SendPacket@NullNetwork@@EAEXPAEIKW4PacketType@@@Z ; NullNetwork::SendPacket
PUBLIC	?GetInfoString@NullAudioEncoder@@UBE?AVString@@XZ ; NullAudioEncoder::GetInfoString
PUBLIC	?GetCodec@NullAudioEncoder@@UBEPB_WXZ		; NullAudioEncoder::GetCodec
PUBLIC	?GetBitRate@NullAudioEncoder@@UBEHXZ		; NullAudioEncoder::GetBitRate
PUBLIC	?GetFrameSize@NullAudioEncoder@@UBEIXZ		; NullAudioEncoder::GetFrameSize
PUBLIC	?GetHeaders@NullAudioEncoder@@UAEXAAUDataPacket@@@Z ; NullAudioEncoder::GetHeaders
PUBLIC	?Encode@NullAudioEncoder@@UAE_NPAMIAAUDataPacket@@AA_K@Z ; NullAudioEncoder::Encode
PUBLIC	?SetBitRate@NullVideoEncoder@@UAE_NKK@Z		; NullVideoEncoder::SetBitRate
PUBLIC	?DynamicBitrateSupported@NullVideoEncoder@@UBE_NXZ ; NullVideoEncoder::DynamicBitrateSupported
PUBLIC	?GetInfoString@NullVideoEncoder@@UBE?AVString@@XZ ; NullVideoEncoder::GetInfoString
PUBLIC	?GetBitRate@NullVideoEncoder@@UBEHXZ		; NullVideoEncoder::GetBitRate
PUBLIC	?GetHeaders@NullVideoEncoder@@UAEXAAUDataPacket@@@Z ; NullVideoEncoder::GetHeaders
PUBLIC	?Encode@NullVideoEncoder@@UAE_NPAXAAV?$List@UDataPacket@@@@AAV?$List@W4PacketType@@@@KAAK@Z ; NullVideoEncoder::Encode
EXTRN	??_ENullNetwork@@UAEPAXI@Z:PROC			; NullNetwork::`vector deleting destructor'
EXTRN	??_ENullVideoEncoder@@UAEPAXI@Z:PROC		; NullVideoEncoder::`vector deleting destructor'
EXTRN	??_ENullAudioEncoder@@UAEPAXI@Z:PROC		; NullAudioEncoder::`vector deleting destructor'
	ALIGN	4

__Tuple_alloc DB 01H DUP (?)
	ALIGN	4

_ignore	DB	01H DUP (?)
	ALIGN	4

_allocator_arg DB 01H DUP (?)
	ALIGN	4

_piecewise_construct DB 01H DUP (?)
_BSS	ENDS
_piecewise_construct$initializer$ DD FLAT:??__Epiecewise_construct@std@@YAXXZ
_allocator_arg$initializer$ DD FLAT:??__Eallocator_arg@std@@YAXXZ
_ignore$initializer$ DD FLAT:??__Eignore@std@@YAXXZ
__Tuple_alloc$initializer$ DD FLAT:??__E_Tuple_alloc@std@@YAXXZ
; Function compile flags: /Odtp
; File d:\vs2013\vc\include\utility
;	COMDAT ??__Epiecewise_construct@std@@YAXXZ
text$di	SEGMENT
$T1 = -1						; size = 1
??__Epiecewise_construct@std@@YAXXZ PROC		; std::`dynamic initializer for 'piecewise_construct'', COMDAT

; 70   : 	piecewise_construct_t();

	push	ebp
	mov	ebp, esp
	push	ecx
	xor	eax, eax
	mov	BYTE PTR $T1[ebp], al
	mov	esp, ebp
	pop	ebp
	ret	0
??__Epiecewise_construct@std@@YAXXZ ENDP		; std::`dynamic initializer for 'piecewise_construct''
text$di	ENDS
; Function compile flags: /Odtp
; File d:\vs2013\vc\include\xutility
;	COMDAT ??__Eallocator_arg@std@@YAXXZ
text$di	SEGMENT
$T1 = -1						; size = 1
??__Eallocator_arg@std@@YAXXZ PROC			; std::`dynamic initializer for 'allocator_arg'', COMDAT

; 3451 : const allocator_arg_t allocator_arg = allocator_arg_t();

	push	ebp
	mov	ebp, esp
	push	ecx
	xor	eax, eax
	mov	BYTE PTR $T1[ebp], al
	mov	esp, ebp
	pop	ebp
	ret	0
??__Eallocator_arg@std@@YAXXZ ENDP			; std::`dynamic initializer for 'allocator_arg''
text$di	ENDS
; Function compile flags: /Odtp
; File d:\vs2013\vc\include\tuple
;	COMDAT ??__Eignore@std@@YAXXZ
text$di	SEGMENT
??__Eignore@std@@YAXXZ PROC				; std::`dynamic initializer for 'ignore'', COMDAT

; 59   : const _Ignore ignore;

	push	ebp
	mov	ebp, esp
	mov	ecx, OFFSET _ignore
	call	??0_Ignore@std@@QAE@XZ			; std::_Ignore::_Ignore
	pop	ebp
	ret	0
??__Eignore@std@@YAXXZ ENDP				; std::`dynamic initializer for 'ignore''
text$di	ENDS
; Function compile flags: /Odtp
; File d:\vs2013\vc\include\tuple
;	COMDAT ??__E_Tuple_alloc@std@@YAXXZ
text$di	SEGMENT
$T1 = -1						; size = 1
??__E_Tuple_alloc@std@@YAXXZ PROC			; std::`dynamic initializer for '_Tuple_alloc'', COMDAT

; 66   : const _Tuple_alloc_t _Tuple_alloc = _Tuple_alloc_t();

	push	ebp
	mov	ebp, esp
	push	ecx
	xor	eax, eax
	mov	BYTE PTR $T1[ebp], al
	mov	esp, ebp
	pop	ebp
	ret	0
??__E_Tuple_alloc@std@@YAXXZ ENDP			; std::`dynamic initializer for '_Tuple_alloc''
text$di	ENDS
; Function compile flags: /Odtp
; File f:\songmm_moon_stone_obs\obs\source\nulloutput.cpp
;	COMDAT ?Encode@NullVideoEncoder@@UAE_NPAXAAV?$List@UDataPacket@@@@AAV?$List@W4PacketType@@@@KAAK@Z
_TEXT	SEGMENT
_this$ = -4						; size = 4
_picIn$ = 8						; size = 4
_packets$ = 12						; size = 4
_packetTypes$ = 16					; size = 4
_timestamp$ = 20					; size = 4
_out_pts$ = 24						; size = 4
?Encode@NullVideoEncoder@@UAE_NPAXAAV?$List@UDataPacket@@@@AAV?$List@W4PacketType@@@@KAAK@Z PROC ; NullVideoEncoder::Encode, COMDAT
; _this$ = ecx

; 26   :     virtual bool Encode(LPVOID picIn, List<DataPacket> &packets, List<PacketType> &packetTypes, DWORD timestamp, DWORD &out_pts) override {return false;}

	push	ebp
	mov	ebp, esp
	push	ecx
	mov	DWORD PTR _this$[ebp], ecx
	xor	al, al
	mov	esp, ebp
	pop	ebp
	ret	20					; 00000014H
?Encode@NullVideoEncoder@@UAE_NPAXAAV?$List@UDataPacket@@@@AAV?$List@W4PacketType@@@@KAAK@Z ENDP ; NullVideoEncoder::Encode
_TEXT	ENDS
; Function compile flags: /Odtp
; File f:\songmm_moon_stone_obs\obs\source\nulloutput.cpp
;	COMDAT ?GetHeaders@NullVideoEncoder@@UAEXAAUDataPacket@@@Z
_TEXT	SEGMENT
_this$ = -4						; size = 4
_packet$ = 8						; size = 4
?GetHeaders@NullVideoEncoder@@UAEXAAUDataPacket@@@Z PROC ; NullVideoEncoder::GetHeaders, COMDAT
; _this$ = ecx

; 27   :     virtual void GetHeaders(DataPacket &packet) {}

	push	ebp
	mov	ebp, esp
	push	ecx
	mov	DWORD PTR _this$[ebp], ecx
	mov	esp, ebp
	pop	ebp
	ret	4
?GetHeaders@NullVideoEncoder@@UAEXAAUDataPacket@@@Z ENDP ; NullVideoEncoder::GetHeaders
_TEXT	ENDS
; Function compile flags: /Odtp
; File f:\songmm_moon_stone_obs\obs\source\nulloutput.cpp
;	COMDAT ?GetBitRate@NullVideoEncoder@@UBEHXZ
_TEXT	SEGMENT
_this$ = -4						; size = 4
?GetBitRate@NullVideoEncoder@@UBEHXZ PROC		; NullVideoEncoder::GetBitRate, COMDAT
; _this$ = ecx

; 28   :     virtual int  GetBitRate() const {return 0;}

	push	ebp
	mov	ebp, esp
	push	ecx
	mov	DWORD PTR _this$[ebp], ecx
	xor	eax, eax
	mov	esp, ebp
	pop	ebp
	ret	0
?GetBitRate@NullVideoEncoder@@UBEHXZ ENDP		; NullVideoEncoder::GetBitRate
_TEXT	ENDS
; Function compile flags: /Odtp
; File f:\songmm_moon_stone_obs\obs\source\nulloutput.cpp
;	COMDAT ?GetInfoString@NullVideoEncoder@@UBE?AVString@@XZ
_TEXT	SEGMENT
_this$ = -4						; size = 4
___$ReturnUdt$ = 8					; size = 4
?GetInfoString@NullVideoEncoder@@UBE?AVString@@XZ PROC	; NullVideoEncoder::GetInfoString, COMDAT
; _this$ = ecx

; 29   :     virtual String GetInfoString() const {return String();}

	push	ebp
	mov	ebp, esp
	push	ecx
	mov	DWORD PTR _this$[ebp], ecx
	mov	ecx, DWORD PTR ___$ReturnUdt$[ebp]
	call	DWORD PTR __imp_??0String@@QAE@XZ
	mov	eax, DWORD PTR ___$ReturnUdt$[ebp]
	mov	esp, ebp
	pop	ebp
	ret	4
?GetInfoString@NullVideoEncoder@@UBE?AVString@@XZ ENDP	; NullVideoEncoder::GetInfoString
_TEXT	ENDS
; Function compile flags: /Odtp
; File f:\songmm_moon_stone_obs\obs\source\nulloutput.cpp
;	COMDAT ?DynamicBitrateSupported@NullVideoEncoder@@UBE_NXZ
_TEXT	SEGMENT
_this$ = -4						; size = 4
?DynamicBitrateSupported@NullVideoEncoder@@UBE_NXZ PROC	; NullVideoEncoder::DynamicBitrateSupported, COMDAT
; _this$ = ecx

; 31   :     virtual bool DynamicBitrateSupported() const {return true;}

	push	ebp
	mov	ebp, esp
	push	ecx
	mov	DWORD PTR _this$[ebp], ecx
	mov	al, 1
	mov	esp, ebp
	pop	ebp
	ret	0
?DynamicBitrateSupported@NullVideoEncoder@@UBE_NXZ ENDP	; NullVideoEncoder::DynamicBitrateSupported
_TEXT	ENDS
; Function compile flags: /Odtp
; File f:\songmm_moon_stone_obs\obs\source\nulloutput.cpp
;	COMDAT ?SetBitRate@NullVideoEncoder@@UAE_NKK@Z
_TEXT	SEGMENT
_this$ = -4						; size = 4
_maxBitrate$ = 8					; size = 4
_bufferSize$ = 12					; size = 4
?SetBitRate@NullVideoEncoder@@UAE_NKK@Z PROC		; NullVideoEncoder::SetBitRate, COMDAT
; _this$ = ecx

; 32   :     virtual bool SetBitRate(DWORD maxBitrate, DWORD bufferSize) {return false;}

	push	ebp
	mov	ebp, esp
	push	ecx
	mov	DWORD PTR _this$[ebp], ecx
	xor	al, al
	mov	esp, ebp
	pop	ebp
	ret	8
?SetBitRate@NullVideoEncoder@@UAE_NKK@Z ENDP		; NullVideoEncoder::SetBitRate
_TEXT	ENDS
; Function compile flags: /Odtp
; File f:\songmm_moon_stone_obs\obs\source\nulloutput.cpp
;	COMDAT ?Encode@NullAudioEncoder@@UAE_NPAMIAAUDataPacket@@AA_K@Z
_TEXT	SEGMENT
_this$ = -4						; size = 4
_input$ = 8						; size = 4
_numInputFrames$ = 12					; size = 4
_packet$ = 16						; size = 4
_timestamp$ = 20					; size = 4
?Encode@NullAudioEncoder@@UAE_NPAMIAAUDataPacket@@AA_K@Z PROC ; NullAudioEncoder::Encode, COMDAT
; _this$ = ecx

; 38   :     virtual bool    Encode(float *input, UINT numInputFrames, DataPacket &packet, QWORD &timestamp) {return false;}

	push	ebp
	mov	ebp, esp
	push	ecx
	mov	DWORD PTR _this$[ebp], ecx
	xor	al, al
	mov	esp, ebp
	pop	ebp
	ret	16					; 00000010H
?Encode@NullAudioEncoder@@UAE_NPAMIAAUDataPacket@@AA_K@Z ENDP ; NullAudioEncoder::Encode
_TEXT	ENDS
; Function compile flags: /Odtp
; File f:\songmm_moon_stone_obs\obs\source\nulloutput.cpp
;	COMDAT ?GetHeaders@NullAudioEncoder@@UAEXAAUDataPacket@@@Z
_TEXT	SEGMENT
_this$ = -4						; size = 4
_packet$ = 8						; size = 4
?GetHeaders@NullAudioEncoder@@UAEXAAUDataPacket@@@Z PROC ; NullAudioEncoder::GetHeaders, COMDAT
; _this$ = ecx

; 39   :     virtual void    GetHeaders(DataPacket &packet) {}

	push	ebp
	mov	ebp, esp
	push	ecx
	mov	DWORD PTR _this$[ebp], ecx
	mov	esp, ebp
	pop	ebp
	ret	4
?GetHeaders@NullAudioEncoder@@UAEXAAUDataPacket@@@Z ENDP ; NullAudioEncoder::GetHeaders
_TEXT	ENDS
; Function compile flags: /Odtp
; File f:\songmm_moon_stone_obs\obs\source\nulloutput.cpp
;	COMDAT ?GetFrameSize@NullAudioEncoder@@UBEIXZ
_TEXT	SEGMENT
_this$ = -4						; size = 4
?GetFrameSize@NullAudioEncoder@@UBEIXZ PROC		; NullAudioEncoder::GetFrameSize, COMDAT
; _this$ = ecx

; 40   :     virtual UINT    GetFrameSize() const {return 0;}

	push	ebp
	mov	ebp, esp
	push	ecx
	mov	DWORD PTR _this$[ebp], ecx
	xor	eax, eax
	mov	esp, ebp
	pop	ebp
	ret	0
?GetFrameSize@NullAudioEncoder@@UBEIXZ ENDP		; NullAudioEncoder::GetFrameSize
_TEXT	ENDS
; Function compile flags: /Odtp
; File f:\songmm_moon_stone_obs\obs\source\nulloutput.cpp
;	COMDAT ?GetBitRate@NullAudioEncoder@@UBEHXZ
_TEXT	SEGMENT
_this$ = -4						; size = 4
?GetBitRate@NullAudioEncoder@@UBEHXZ PROC		; NullAudioEncoder::GetBitRate, COMDAT
; _this$ = ecx

; 41   :     virtual int     GetBitRate() const {return 0;}

	push	ebp
	mov	ebp, esp
	push	ecx
	mov	DWORD PTR _this$[ebp], ecx
	xor	eax, eax
	mov	esp, ebp
	pop	ebp
	ret	0
?GetBitRate@NullAudioEncoder@@UBEHXZ ENDP		; NullAudioEncoder::GetBitRate
_TEXT	ENDS
; Function compile flags: /Odtp
; File f:\songmm_moon_stone_obs\obs\source\nulloutput.cpp
;	COMDAT ?GetCodec@NullAudioEncoder@@UBEPB_WXZ
_TEXT	SEGMENT
_this$ = -4						; size = 4
?GetCodec@NullAudioEncoder@@UBEPB_WXZ PROC		; NullAudioEncoder::GetCodec, COMDAT
; _this$ = ecx

; 42   :     virtual CTSTR   GetCodec() const {return NULL;}

	push	ebp
	mov	ebp, esp
	push	ecx
	mov	DWORD PTR _this$[ebp], ecx
	xor	eax, eax
	mov	esp, ebp
	pop	ebp
	ret	0
?GetCodec@NullAudioEncoder@@UBEPB_WXZ ENDP		; NullAudioEncoder::GetCodec
_TEXT	ENDS
; Function compile flags: /Odtp
; File f:\songmm_moon_stone_obs\obs\source\nulloutput.cpp
;	COMDAT ?GetInfoString@NullAudioEncoder@@UBE?AVString@@XZ
_TEXT	SEGMENT
_this$ = -4						; size = 4
___$ReturnUdt$ = 8					; size = 4
?GetInfoString@NullAudioEncoder@@UBE?AVString@@XZ PROC	; NullAudioEncoder::GetInfoString, COMDAT
; _this$ = ecx

; 43   :     virtual String  GetInfoString() const {return String();}

	push	ebp
	mov	ebp, esp
	push	ecx
	mov	DWORD PTR _this$[ebp], ecx
	mov	ecx, DWORD PTR ___$ReturnUdt$[ebp]
	call	DWORD PTR __imp_??0String@@QAE@XZ
	mov	eax, DWORD PTR ___$ReturnUdt$[ebp]
	mov	esp, ebp
	pop	ebp
	ret	4
?GetInfoString@NullAudioEncoder@@UBE?AVString@@XZ ENDP	; NullAudioEncoder::GetInfoString
_TEXT	ENDS
; Function compile flags: /Odtp
; File f:\songmm_moon_stone_obs\obs\source\nulloutput.cpp
;	COMDAT ?SendPacket@NullNetwork@@EAEXPAEIKW4PacketType@@@Z
_TEXT	SEGMENT
_this$ = -4						; size = 4
_data$ = 8						; size = 4
_size$ = 12						; size = 4
_timestamp$ = 16					; size = 4
_type$ = 20						; size = 4
?SendPacket@NullNetwork@@EAEXPAEIKW4PacketType@@@Z PROC	; NullNetwork::SendPacket, COMDAT
; _this$ = ecx

; 48   :     virtual void SendPacket(BYTE *data, UINT size, DWORD timestamp, PacketType type) {bytesSent += size;framesRendered++;}

	push	ebp
	mov	ebp, esp
	push	ecx
	mov	DWORD PTR _this$[ebp], ecx
	mov	eax, DWORD PTR _size$[ebp]
	xor	ecx, ecx
	mov	edx, DWORD PTR _this$[ebp]
	add	eax, DWORD PTR [edx+8]
	adc	ecx, DWORD PTR [edx+12]
	mov	edx, DWORD PTR _this$[ebp]
	mov	DWORD PTR [edx+8], eax
	mov	DWORD PTR [edx+12], ecx
	mov	eax, DWORD PTR _this$[ebp]
	mov	ecx, DWORD PTR [eax+16]
	add	ecx, 1
	mov	edx, DWORD PTR _this$[ebp]
	mov	DWORD PTR [edx+16], ecx
	mov	esp, ebp
	pop	ebp
	ret	16					; 00000010H
?SendPacket@NullNetwork@@EAEXPAEIKW4PacketType@@@Z ENDP	; NullNetwork::SendPacket
_TEXT	ENDS
; Function compile flags: /Odtp
; File f:\songmm_moon_stone_obs\obs\source\nulloutput.cpp
;	COMDAT ?GetPacketStrain@NullNetwork@@EBENXZ
_TEXT	SEGMENT
_this$ = -4						; size = 4
?GetPacketStrain@NullNetwork@@EBENXZ PROC		; NullNetwork::GetPacketStrain, COMDAT
; _this$ = ecx

; 50   :     double GetPacketStrain() const {return 0;}

	push	ebp
	mov	ebp, esp
	push	ecx
	mov	DWORD PTR _this$[ebp], ecx
	fldz
	mov	esp, ebp
	pop	ebp
	ret	0
?GetPacketStrain@NullNetwork@@EBENXZ ENDP		; NullNetwork::GetPacketStrain
_TEXT	ENDS
; Function compile flags: /Odtp
; File f:\songmm_moon_stone_obs\obs\source\nulloutput.cpp
;	COMDAT ?GetCurrentSentBytes@NullNetwork@@EAE_KXZ
_TEXT	SEGMENT
_this$ = -4						; size = 4
?GetCurrentSentBytes@NullNetwork@@EAE_KXZ PROC		; NullNetwork::GetCurrentSentBytes, COMDAT
; _this$ = ecx

; 51   :     QWORD GetCurrentSentBytes() {return bytesSent;}

	push	ebp
	mov	ebp, esp
	push	ecx
	mov	DWORD PTR _this$[ebp], ecx
	mov	ecx, DWORD PTR _this$[ebp]
	mov	eax, DWORD PTR [ecx+8]
	mov	edx, DWORD PTR [ecx+12]
	mov	esp, ebp
	pop	ebp
	ret	0
?GetCurrentSentBytes@NullNetwork@@EAE_KXZ ENDP		; NullNetwork::GetCurrentSentBytes
_TEXT	ENDS
; Function compile flags: /Odtp
; File f:\songmm_moon_stone_obs\obs\source\nulloutput.cpp
;	COMDAT ?NumDroppedFrames@NullNetwork@@EBEKXZ
_TEXT	SEGMENT
_this$ = -4						; size = 4
?NumDroppedFrames@NullNetwork@@EBEKXZ PROC		; NullNetwork::NumDroppedFrames, COMDAT
; _this$ = ecx

; 52   :     virtual DWORD NumDroppedFrames() const {return 0;}

	push	ebp
	mov	ebp, esp
	push	ecx
	mov	DWORD PTR _this$[ebp], ecx
	xor	eax, eax
	mov	esp, ebp
	pop	ebp
	ret	0
?NumDroppedFrames@NullNetwork@@EBEKXZ ENDP		; NullNetwork::NumDroppedFrames
_TEXT	ENDS
; Function compile flags: /Odtp
; File f:\songmm_moon_stone_obs\obs\source\nulloutput.cpp
;	COMDAT ?NumTotalVideoFrames@NullNetwork@@EBEKXZ
_TEXT	SEGMENT
_this$ = -4						; size = 4
?NumTotalVideoFrames@NullNetwork@@EBEKXZ PROC		; NullNetwork::NumTotalVideoFrames, COMDAT
; _this$ = ecx

; 53   :     virtual DWORD NumTotalVideoFrames() const {return framesRendered;}

	push	ebp
	mov	ebp, esp
	push	ecx
	mov	DWORD PTR _this$[ebp], ecx
	mov	eax, DWORD PTR _this$[ebp]
	mov	eax, DWORD PTR [eax+16]
	mov	esp, ebp
	pop	ebp
	ret	0
?NumTotalVideoFrames@NullNetwork@@EBEKXZ ENDP		; NullNetwork::NumTotalVideoFrames
_TEXT	ENDS
; Function compile flags: /Odtp
; File f:\songmm_moon_stone_obs\obs\source\nulloutput.cpp
;	COMDAT ?CreateNullVideoEncoder@@YAPAVVideoEncoder@@XZ
_TEXT	SEGMENT
tv72 = -8						; size = 4
$T1 = -4						; size = 4
?CreateNullVideoEncoder@@YAPAVVideoEncoder@@XZ PROC	; CreateNullVideoEncoder, COMDAT

; 60   : VideoEncoder*  CreateNullVideoEncoder() {return new NullVideoEncoder;}

	push	ebp
	mov	ebp, esp
	sub	esp, 8
	push	4
	call	??2@YAPAXI@Z				; operator new
	add	esp, 4
	mov	DWORD PTR $T1[ebp], eax
	cmp	DWORD PTR $T1[ebp], 0
	je	SHORT $LN3@CreateNull
	mov	ecx, DWORD PTR $T1[ebp]
	call	??0NullVideoEncoder@@QAE@XZ
	mov	DWORD PTR tv72[ebp], eax
	jmp	SHORT $LN4@CreateNull
$LN3@CreateNull:
	mov	DWORD PTR tv72[ebp], 0
$LN4@CreateNull:
	mov	eax, DWORD PTR tv72[ebp]
	mov	esp, ebp
	pop	ebp
	ret	0
?CreateNullVideoEncoder@@YAPAVVideoEncoder@@XZ ENDP	; CreateNullVideoEncoder
_TEXT	ENDS
; Function compile flags: /Odtp
;	COMDAT ??0NullVideoEncoder@@QAE@XZ
_TEXT	SEGMENT
_this$ = -4						; size = 4
??0NullVideoEncoder@@QAE@XZ PROC			; NullVideoEncoder::NullVideoEncoder, COMDAT
; _this$ = ecx
	push	ebp
	mov	ebp, esp
	push	ecx
	mov	DWORD PTR _this$[ebp], ecx
	mov	ecx, DWORD PTR _this$[ebp]
	call	??0VideoEncoder@@QAE@XZ
	mov	eax, DWORD PTR _this$[ebp]
	mov	DWORD PTR [eax], OFFSET ??_7NullVideoEncoder@@6B@
	mov	eax, DWORD PTR _this$[ebp]
	mov	esp, ebp
	pop	ebp
	ret	0
??0NullVideoEncoder@@QAE@XZ ENDP			; NullVideoEncoder::NullVideoEncoder
_TEXT	ENDS
; Function compile flags: /Odtp
;	COMDAT ??_GNullVideoEncoder@@UAEPAXI@Z
_TEXT	SEGMENT
_this$ = -4						; size = 4
___flags$ = 8						; size = 4
??_GNullVideoEncoder@@UAEPAXI@Z PROC			; NullVideoEncoder::`scalar deleting destructor', COMDAT
; _this$ = ecx
	push	ebp
	mov	ebp, esp
	push	ecx
	mov	DWORD PTR _this$[ebp], ecx
	mov	ecx, DWORD PTR _this$[ebp]
	call	??1NullVideoEncoder@@UAE@XZ
	mov	eax, DWORD PTR ___flags$[ebp]
	and	eax, 1
	je	SHORT $LN1@scalar
	mov	ecx, DWORD PTR _this$[ebp]
	push	ecx
	call	??3@YAXPAX@Z				; operator delete
	add	esp, 4
$LN1@scalar:
	mov	eax, DWORD PTR _this$[ebp]
	mov	esp, ebp
	pop	ebp
	ret	4
??_GNullVideoEncoder@@UAEPAXI@Z ENDP			; NullVideoEncoder::`scalar deleting destructor'
_TEXT	ENDS
; Function compile flags: /Odtp
;	COMDAT ??1NullVideoEncoder@@UAE@XZ
_TEXT	SEGMENT
_this$ = -4						; size = 4
??1NullVideoEncoder@@UAE@XZ PROC			; NullVideoEncoder::~NullVideoEncoder, COMDAT
; _this$ = ecx
	push	ebp
	mov	ebp, esp
	push	ecx
	mov	DWORD PTR _this$[ebp], ecx
	mov	ecx, DWORD PTR _this$[ebp]
	call	??1VideoEncoder@@UAE@XZ			; VideoEncoder::~VideoEncoder
	mov	esp, ebp
	pop	ebp
	ret	0
??1NullVideoEncoder@@UAE@XZ ENDP			; NullVideoEncoder::~NullVideoEncoder
_TEXT	ENDS
; Function compile flags: /Odtp
; File f:\songmm_moon_stone_obs\obs\source\nulloutput.cpp
;	COMDAT ?CreateNullAudioEncoder@@YAPAVAudioEncoder@@XZ
_TEXT	SEGMENT
tv72 = -8						; size = 4
$T1 = -4						; size = 4
?CreateNullAudioEncoder@@YAPAVAudioEncoder@@XZ PROC	; CreateNullAudioEncoder, COMDAT

; 61   : AudioEncoder*  CreateNullAudioEncoder() {return new NullAudioEncoder;}

	push	ebp
	mov	ebp, esp
	sub	esp, 8
	push	4
	call	??2@YAPAXI@Z				; operator new
	add	esp, 4
	mov	DWORD PTR $T1[ebp], eax
	cmp	DWORD PTR $T1[ebp], 0
	je	SHORT $LN3@CreateNull
	mov	ecx, DWORD PTR $T1[ebp]
	call	??0NullAudioEncoder@@QAE@XZ
	mov	DWORD PTR tv72[ebp], eax
	jmp	SHORT $LN4@CreateNull
$LN3@CreateNull:
	mov	DWORD PTR tv72[ebp], 0
$LN4@CreateNull:
	mov	eax, DWORD PTR tv72[ebp]
	mov	esp, ebp
	pop	ebp
	ret	0
?CreateNullAudioEncoder@@YAPAVAudioEncoder@@XZ ENDP	; CreateNullAudioEncoder
_TEXT	ENDS
; Function compile flags: /Odtp
;	COMDAT ??0NullAudioEncoder@@QAE@XZ
_TEXT	SEGMENT
_this$ = -4						; size = 4
??0NullAudioEncoder@@QAE@XZ PROC			; NullAudioEncoder::NullAudioEncoder, COMDAT
; _this$ = ecx
	push	ebp
	mov	ebp, esp
	push	ecx
	mov	DWORD PTR _this$[ebp], ecx
	mov	ecx, DWORD PTR _this$[ebp]
	call	??0AudioEncoder@@QAE@XZ
	mov	eax, DWORD PTR _this$[ebp]
	mov	DWORD PTR [eax], OFFSET ??_7NullAudioEncoder@@6B@
	mov	eax, DWORD PTR _this$[ebp]
	mov	esp, ebp
	pop	ebp
	ret	0
??0NullAudioEncoder@@QAE@XZ ENDP			; NullAudioEncoder::NullAudioEncoder
_TEXT	ENDS
; Function compile flags: /Odtp
;	COMDAT ??_GNullAudioEncoder@@UAEPAXI@Z
_TEXT	SEGMENT
_this$ = -4						; size = 4
___flags$ = 8						; size = 4
??_GNullAudioEncoder@@UAEPAXI@Z PROC			; NullAudioEncoder::`scalar deleting destructor', COMDAT
; _this$ = ecx
	push	ebp
	mov	ebp, esp
	push	ecx
	mov	DWORD PTR _this$[ebp], ecx
	mov	ecx, DWORD PTR _this$[ebp]
	call	??1NullAudioEncoder@@UAE@XZ
	mov	eax, DWORD PTR ___flags$[ebp]
	and	eax, 1
	je	SHORT $LN1@scalar
	mov	ecx, DWORD PTR _this$[ebp]
	push	ecx
	call	??3@YAXPAX@Z				; operator delete
	add	esp, 4
$LN1@scalar:
	mov	eax, DWORD PTR _this$[ebp]
	mov	esp, ebp
	pop	ebp
	ret	4
??_GNullAudioEncoder@@UAEPAXI@Z ENDP			; NullAudioEncoder::`scalar deleting destructor'
_TEXT	ENDS
; Function compile flags: /Odtp
;	COMDAT ??1NullAudioEncoder@@UAE@XZ
_TEXT	SEGMENT
_this$ = -4						; size = 4
??1NullAudioEncoder@@UAE@XZ PROC			; NullAudioEncoder::~NullAudioEncoder, COMDAT
; _this$ = ecx
	push	ebp
	mov	ebp, esp
	push	ecx
	mov	DWORD PTR _this$[ebp], ecx
	mov	ecx, DWORD PTR _this$[ebp]
	call	??1AudioEncoder@@UAE@XZ			; AudioEncoder::~AudioEncoder
	mov	esp, ebp
	pop	ebp
	ret	0
??1NullAudioEncoder@@UAE@XZ ENDP			; NullAudioEncoder::~NullAudioEncoder
_TEXT	ENDS
; Function compile flags: /Odtp
; File f:\songmm_moon_stone_obs\obs\source\nulloutput.cpp
;	COMDAT ?CreateNullNetwork@@YAPAVNetworkStream@@XZ
_TEXT	SEGMENT
tv72 = -8						; size = 4
$T1 = -4						; size = 4
?CreateNullNetwork@@YAPAVNetworkStream@@XZ PROC		; CreateNullNetwork, COMDAT

; 62   : NetworkStream* CreateNullNetwork()      {return new NullNetwork;}

	push	ebp
	mov	ebp, esp
	sub	esp, 8
	push	24					; 00000018H
	call	??2@YAPAXI@Z				; operator new
	add	esp, 4
	mov	DWORD PTR $T1[ebp], eax
	cmp	DWORD PTR $T1[ebp], 0
	je	SHORT $LN3@CreateNull
	mov	ecx, DWORD PTR $T1[ebp]
	call	??0NullNetwork@@QAE@XZ
	mov	DWORD PTR tv72[ebp], eax
	jmp	SHORT $LN4@CreateNull
$LN3@CreateNull:
	mov	DWORD PTR tv72[ebp], 0
$LN4@CreateNull:
	mov	eax, DWORD PTR tv72[ebp]
	mov	esp, ebp
	pop	ebp
	ret	0
?CreateNullNetwork@@YAPAVNetworkStream@@XZ ENDP		; CreateNullNetwork
_TEXT	ENDS
; Function compile flags: /Odtp
;	COMDAT ??0NullNetwork@@QAE@XZ
_TEXT	SEGMENT
_this$ = -4						; size = 4
??0NullNetwork@@QAE@XZ PROC				; NullNetwork::NullNetwork, COMDAT
; _this$ = ecx
	push	ebp
	mov	ebp, esp
	push	ecx
	mov	DWORD PTR _this$[ebp], ecx
	mov	ecx, DWORD PTR _this$[ebp]
	call	??0NetworkStream@@QAE@XZ
	mov	eax, DWORD PTR _this$[ebp]
	mov	DWORD PTR [eax], OFFSET ??_7NullNetwork@@6B@
	mov	eax, DWORD PTR _this$[ebp]
	mov	esp, ebp
	pop	ebp
	ret	0
??0NullNetwork@@QAE@XZ ENDP				; NullNetwork::NullNetwork
_TEXT	ENDS
; Function compile flags: /Odtp
;	COMDAT ??_GNullNetwork@@UAEPAXI@Z
_TEXT	SEGMENT
_this$ = -4						; size = 4
___flags$ = 8						; size = 4
??_GNullNetwork@@UAEPAXI@Z PROC				; NullNetwork::`scalar deleting destructor', COMDAT
; _this$ = ecx
	push	ebp
	mov	ebp, esp
	push	ecx
	mov	DWORD PTR _this$[ebp], ecx
	mov	ecx, DWORD PTR _this$[ebp]
	call	??1NullNetwork@@UAE@XZ
	mov	eax, DWORD PTR ___flags$[ebp]
	and	eax, 1
	je	SHORT $LN1@scalar
	mov	ecx, DWORD PTR _this$[ebp]
	push	ecx
	call	??3@YAXPAX@Z				; operator delete
	add	esp, 4
$LN1@scalar:
	mov	eax, DWORD PTR _this$[ebp]
	mov	esp, ebp
	pop	ebp
	ret	4
??_GNullNetwork@@UAEPAXI@Z ENDP				; NullNetwork::`scalar deleting destructor'
_TEXT	ENDS
; Function compile flags: /Odtp
;	COMDAT ??1NullNetwork@@UAE@XZ
_TEXT	SEGMENT
_this$ = -4						; size = 4
??1NullNetwork@@UAE@XZ PROC				; NullNetwork::~NullNetwork, COMDAT
; _this$ = ecx
	push	ebp
	mov	ebp, esp
	push	ecx
	mov	DWORD PTR _this$[ebp], ecx
	mov	ecx, DWORD PTR _this$[ebp]
	call	??1NetworkStream@@UAE@XZ		; NetworkStream::~NetworkStream
	mov	esp, ebp
	pop	ebp
	ret	0
??1NullNetwork@@UAE@XZ ENDP				; NullNetwork::~NullNetwork
_TEXT	ENDS
END
