; Listing generated by Microsoft (R) Optimizing Compiler Version 18.00.21005.1 

	TITLE	F:\songmm_moon_stone_obs\OBS\Source\OBS.cpp
	.686P
	.XMM
	include listing.inc
	.model	flat

INCLUDELIB OLDNAMES

PUBLIC	??_C@_0N@LDJIAKLH@Comctl32?4dll?$AA@		; `string'
PUBLIC	??_C@_0BF@IABGBOLM@InitCommonControlsEx?$AA@	; `string'
PUBLIC	??_C@_1CC@HOAGLCLM@?$AAT?$AAe?$AAr?$AAm?$AAi?$AAn?$AAa?$AAt?$AAi?$AAn?$AAg?$AA?5?$AA0?$AAx?$AA?$CF?$AAx?$AA?$AA@ ; `string'
PUBLIC	??_R1A@?0A@EA@Scene@@8				; Scene::`RTTI Base Class Descriptor at (0,-1,0,64)'
PUBLIC	??_R0?AUIconInfo@@@8				; IconInfo `RTTI Type Descriptor'
PUBLIC	??_R1A@?0A@EA@OBS@@8				; OBS::`RTTI Base Class Descriptor at (0,-1,0,64)'
PUBLIC	?SourceStaticProc@@3P6GJPAUHWND__@@IIJ@ZA	; SourceStaticProc
PUBLIC	??_R0?AUAudioDeviceInfo@@@8			; AudioDeviceInfo `RTTI Type Descriptor'
PUBLIC	?listboxProc@@3P6GJPAUHWND__@@IIJ@ZA		; listboxProc
PUBLIC	??_R0?AVOBS@@@8					; OBS `RTTI Type Descriptor'
PUBLIC	??_R0PAVSettingsPane@@@8			; SettingsPane * `RTTI Type Descriptor'
PUBLIC	??_R4OBS@@6B@					; OBS::`RTTI Complete Object Locator'
PUBLIC	??_R2Scene@@8					; Scene::`RTTI Base Class Array'
PUBLIC	?m@?1??CommctrlIsolationAwarePrivatetRgCebPnQQeRff_pbZPgYQP_QYY@@9@4@4UIsolationAwarePrivate_zHGnoyr_zBqHyr_vAsB@@A ; `CommctrlIsolationAwarePrivatetRgCebPnQQeRff_pbZPgYQP_QYY'::`2'::m
PUBLIC	?s_pfn@?1??IsolationAwareInitCommonControlsEx@@9@4@4P6GHPBUtagINITCOMMONCONTROLSEX@@@ZA ; `IsolationAwareInitCommonControlsEx'::`2'::s_pfn
PUBLIC	?s_module@?1??CommctrlIsolationAwarePrivatetRgCebPnQQeRff_pbZPgYQP_QYY@@9@4@4PAUHINSTANCE__@@A ; `CommctrlIsolationAwarePrivatetRgCebPnQQeRff_pbZPgYQP_QYY'::`2'::s_module
PUBLIC	?statusBarData@@3UStatusBarDrawData@@A		; statusBarData
PUBLIC	??_R4Scene@@6B@					; Scene::`RTTI Complete Object Locator'
PUBLIC	?listviewProc@@3P6GJPAUHWND__@@IIJ@ZA		; listviewProc
PUBLIC	??_R0?AVScene@@@8				; Scene `RTTI Type Descriptor'
PUBLIC	?c@?1??CommctrlIsolationAwarePrivatetRgCebPnQQeRff_pbZPgYQP_QYY@@9@4@4UIsolationAwarePrivate_pBAFGnAG_zBqHyr_vAsB@@B ; `CommctrlIsolationAwarePrivatetRgCebPnQQeRff_pbZPgYQP_QYY'::`2'::c
PUBLIC	??_SScene@@6B@					; Scene::`local vftable'
PUBLIC	??_R2OBS@@8					; OBS::`RTTI Base Class Array'
PUBLIC	??_R0?AUFontInfo@@@8				; FontInfo `RTTI Type Descriptor'
PUBLIC	??_R3OBS@@8					; OBS::`RTTI Class Hierarchy Descriptor'
PUBLIC	??_R3Scene@@8					; Scene::`RTTI Class Hierarchy Descriptor'
PUBLIC	??_7OBS@@6B@					; OBS::`vftable'
EXTRN	__imp_?Join@StringList@@QAE?AVString@@V2@@Z:PROC
EXTRN	__imp_?CreateElement@XConfig@@QAEPAVXElement@@PB_W@Z:PROC
EXTRN	__imp_?DeselectAll@Scene@@AAEXXZ:PROC
EXTRN	__imp_?UpdateSettings@Scene@@UAEXXZ:PROC
EXTRN	?UpdateSettings@Scene@@UAEXXZ:PROC		; Scene::UpdateSettings
EXTRN	__imp_?NumSceneItems@Scene@@QBEIXZ:PROC
EXTRN	__imp_?GetSceneItem@Scene@@QBEPAVSceneItem@@I@Z:PROC
EXTRN	__imp_??0Scene@@QAE@XZ:PROC
EXTRN	__imp_?HasValue@?$List@VString@@@@QBEHABVString@@@Z:PROC
EXTRN	__imp__SetWindowPlacement@8:PROC
EXTRN	__imp__EnumDisplayMonitors@16:PROC
EXTRN	__imp__GetDiskFreeSpaceExW@16:PROC
EXTRN	__imp_?InitColorControl@@YAXPAUHINSTANCE__@@@Z:PROC
EXTRN	__imp__RegisterWindowMessageW@4:PROC
EXTRN	__imp__GetThreadId@4:PROC
EXTRN	__imp_?InitVolumeMeter@@YAXPAUHINSTANCE__@@@Z:PROC
EXTRN	__imp__CreateFontIndirectW@4:PROC
EXTRN	__imp__GetCurrentObject@8:PROC
EXTRN	__imp__SetFocus@4:PROC
EXTRN	__imp_?SetVolumeMeterValue@@YAMPAUHWND__@@MMMMMM@Z:PROC
EXTRN	__imp_?OSGetLoadedModuleList@@YGHPAXAAVStringList@@@Z:PROC
EXTRN	__imp_?ResetLogUpdateCallback@@YAXP6AXXZ@Z:PROC
EXTRN	__imp_?InsertImageSource@Scene@@UAEPAVSceneItem@@IPAVXElement@@@Z:PROC
EXTRN	?AddImageSource@Scene@@UAEPAVSceneItem@@PAVXElement@@@Z:PROC ; Scene::AddImageSource
EXTRN	__imp_??1Scene@@UAE@XZ:PROC
EXTRN	?InsertImageSource@Scene@@UAEPAVSceneItem@@IPAVXElement@@@Z:PROC ; Scene::InsertImageSource
EXTRN	__imp_?RemoveImageSource@Scene@@UAEXPAVSceneItem@@@Z:PROC
EXTRN	?Tick@Scene@@UAEXM@Z:PROC			; Scene::Tick
EXTRN	__imp_?AddImageSource@Scene@@UAEPAVSceneItem@@PAVXElement@@@Z:PROC
EXTRN	?RemoveImageSource@Scene@@UAEXPAVSceneItem@@@Z:PROC ; Scene::RemoveImageSource
EXTRN	__imp_?Preprocess@Scene@@UAEXXZ:PROC
EXTRN	?Render@Scene@@UAEXXZ:PROC			; Scene::Render
EXTRN	__imp_?Tick@Scene@@UAEXM@Z:PROC
EXTRN	?Preprocess@Scene@@UAEXXZ:PROC			; Scene::Preprocess
EXTRN	__imp_?RenderSelections@Scene@@UAEXPAVShader@@@Z:PROC
EXTRN	?BeginScene@Scene@@UAEXXZ:PROC			; Scene::BeginScene
EXTRN	__imp_?Render@Scene@@UAEXXZ:PROC
EXTRN	?RenderSelections@Scene@@UAEXPAVShader@@@Z:PROC	; Scene::RenderSelections
EXTRN	__imp_?EndScene@Scene@@UAEXXZ:PROC
EXTRN	__imp_?BeginScene@Scene@@UAEXXZ:PROC
EXTRN	?EndScene@Scene@@UAEXXZ:PROC			; Scene::EndScene
EXTRN	__imp__LoadIconW@8:PROC
EXTRN	__imp__GetWindowPlacement@8:PROC
EXTRN	__imp_?InsertElement@XElement@@QAEPAV1@IPB_W@Z:PROC
EXTRN	__imp_?RemoveElement@XElement@@QAEXPAV1@@Z:PROC
EXTRN	__imp_?InitVolumeControl@@YAXPAUHINSTANCE__@@@Z:PROC
EXTRN	__imp_?SetVolumeControlIcons@@YAXPAUHWND__@@PAUHICON__@@1@Z:PROC
EXTRN	__imp_?SetRender@SceneItem@@QAEX_N@Z:PROC
EXTRN	__imp__TerminateThread@8:PROC
EXTRN	__imp_?InitHotkeyExControl@@YAXPAUHINSTANCE__@@@Z:PROC
EXTRN	__imp_?SetVolumeControlValue@@YAMPAUHWND__@@M@Z:PROC
EXTRN	__imp__MonitorFromWindow@8:PROC
EXTRN	__imp_?OBSGetMainWindow@@YAPAUHWND__@@XZ:PROC
EXTRN	__imp_?OSMonitorDirectoryCallbackStop@@YAXPAUOSDirectoryMonitorData@@@Z:PROC
EXTRN	__imp__Shell_NotifyIconW@8:PROC
EXTRN	__imp__GetSystemTimeAsFileTime@4:PROC
EXTRN	__imp__IsBadReadPtr@8:PROC
EXTRN	__imp__SetMenu@8:PROC
EXTRN	__imp__GetSysColorBrush@4:PROC
EXTRN	__imp_?OBSGetAPIVersion@@YAIXZ:PROC
EXTRN	__imp_?GetFloat@ConfigFile@@QAEMPB_W0M@Z:PROC
EXTRN	__imp_?HasKey@ConfigFile@@QAEHPB_W0@Z:PROC
EXTRN	__imp_?Remove@ConfigFile@@QAEXPB_W0@Z:PROC
EXTRN	__imp_?SetVolumeControlMutedVal@@YAXPAUHWND__@@M@Z:PROC
EXTRN	__imp__GetSystemMetrics@4:PROC
EXTRN	__imp__GetTextColor@4:PROC
EXTRN	__imp__GetMonitorInfoW@8:PROC
EXTRN	__imp__CheckMenuItem@12:PROC
EXTRN	__imp__CreateSolidBrush@4:PROC
?SourceStaticProc@@3P6GJPAUHWND__@@IIJ@ZA DD 01H DUP (?) ; SourceStaticProc
?listboxProc@@3P6GJPAUHWND__@@IIJ@ZA DD 01H DUP (?)	; listboxProc
_BSS	ENDS
;	COMDAT ?m@?1??CommctrlIsolationAwarePrivatetRgCebPnQQeRff_pbZPgYQP_QYY@@9@4@4UIsolationAwarePrivate_zHGnoyr_zBqHyr_vAsB@@A
_BSS	SEGMENT
?m@?1??CommctrlIsolationAwarePrivatetRgCebPnQQeRff_pbZPgYQP_QYY@@9@4@4UIsolationAwarePrivate_zHGnoyr_zBqHyr_vAsB@@A DD 01H DUP (?) ; `CommctrlIsolationAwarePrivatetRgCebPnQQeRff_pbZPgYQP_QYY'::`2'::m
_BSS	ENDS
;	COMDAT ?s_pfn@?1??IsolationAwareInitCommonControlsEx@@9@4@4P6GHPBUtagINITCOMMONCONTROLSEX@@@ZA
_BSS	SEGMENT
?s_pfn@?1??IsolationAwareInitCommonControlsEx@@9@4@4P6GHPBUtagINITCOMMONCONTROLSEX@@@ZA DD 01H DUP (?) ; `IsolationAwareInitCommonControlsEx'::`2'::s_pfn
_BSS	ENDS
;	COMDAT ?s_module@?1??CommctrlIsolationAwarePrivatetRgCebPnQQeRff_pbZPgYQP_QYY@@9@4@4PAUHINSTANCE__@@A
_BSS	SEGMENT
?s_module@?1??CommctrlIsolationAwarePrivatetRgCebPnQQeRff_pbZPgYQP_QYY@@9@4@4PAUHINSTANCE__@@A DD 01H DUP (?) ; `CommctrlIsolationAwarePrivatetRgCebPnQQeRff_pbZPgYQP_QYY'::`2'::s_module
?statusBarData@@3UStatusBarDrawData@@A DB 010H DUP (?)	; statusBarData
?listviewProc@@3P6GJPAUHWND__@@IIJ@ZA DD 01H DUP (?)	; listviewProc
_BSS	ENDS
;	COMDAT ??_7OBS@@6B@
CONST	SEGMENT
??_7OBS@@6B@ DD	FLAT:??_R4OBS@@6B@			; OBS::`vftable'
	DD	FLAT:??_EOBS@@UAEPAXI@Z
	DD	FLAT:?GetIcon@OBS@@UAEPAUHICON__@@PAUHINSTANCE__@@H@Z
	DD	FLAT:?GetFont@OBS@@UAEPAUHFONT__@@PB_WHH@Z
	DD	FLAT:?RegisterSceneClass@OBS@@UAEXPB_W0P6GPAXPAVXElement@@@ZP6G_N1_N@Z3@Z
	DD	FLAT:?RegisterImageSourceClass@OBS@@UAEXPB_W0P6GPAXPAVXElement@@@ZP6G_N1_N@Z3@Z
	DD	FLAT:?CreateImageSource@OBS@@UAEPAVImageSource@@PB_WPAVXElement@@@Z
	DD	FLAT:?SetScene@OBS@@UAE_NPB_W@Z
	DD	FLAT:?InsertSourceItem@OBS@@UAEXIPA_W_N@Z
	DD	FLAT:?SetSceneCollection@OBS@@UAE_NPB_W@Z
	DD	FLAT:?SetDesktopVolume@OBS@@UAEXM_N@Z
	DD	FLAT:?GetDesktopVolume@OBS@@UAEMXZ
	DD	FLAT:?ToggleDesktopMute@OBS@@UAEXXZ
	DD	FLAT:?GetDesktopMuted@OBS@@UAE_NXZ
	DD	FLAT:?SetMicVolume@OBS@@UAEXM_N@Z
	DD	FLAT:?GetMicVolume@OBS@@UAEMXZ
	DD	FLAT:?ToggleMicMute@OBS@@UAEXXZ
	DD	FLAT:?GetMicMuted@OBS@@UAE_NXZ
	DD	FLAT:?ReportStartStreamTrigger@OBS@@UAEXXZ
	DD	FLAT:?ReportStopStreamTrigger@OBS@@UAEXXZ
	DD	FLAT:?ReportStartStreamingTrigger@OBS@@UAEXXZ
	DD	FLAT:?ReportStopStreamingTrigger@OBS@@UAEXXZ
	DD	FLAT:?ReportStartRecordingTrigger@OBS@@UAEXXZ
	DD	FLAT:?ReportStopRecordingTrigger@OBS@@UAEXXZ
	DD	FLAT:?ReportStartRecordingReplayBufferTrigger@OBS@@UAEXXZ
	DD	FLAT:?ReportStopRecordingReplayBufferTrigger@OBS@@UAEXXZ
	DD	FLAT:?ReportReplayBufferSavedTrigger@OBS@@UAEXVString@@I@Z
	DD	FLAT:?ReportOBSStatus@OBS@@UAEX_N0000@Z
	DD	FLAT:?ReportStreamStatus@OBS@@UAEX_N0INIIII@Z
	DD	FLAT:?ReportSwitchScenes@OBS@@UAEXPB_W@Z
	DD	FLAT:?ReportSwitchSceneCollections@OBS@@UAEXPB_W@Z
	DD	FLAT:?ReportScenesChanged@OBS@@UAEXXZ
	DD	FLAT:?ReportSceneCollectionsChanged@OBS@@UAEXXZ
	DD	FLAT:?ReportSourceOrderChanged@OBS@@UAEXXZ
	DD	FLAT:?ReportSourceChanged@OBS@@UAEXPB_WPAVXElement@@@Z
	DD	FLAT:?ReportSourcesAddedOrRemoved@OBS@@UAEXXZ
	DD	FLAT:?ReportMicVolumeChange@OBS@@UAEXM_N0@Z
	DD	FLAT:?ReportDesktopVolumeChange@OBS@@UAEXM_N0@Z
	DD	FLAT:?ReportLogUpdate@OBS@@UAEXPB_WI@Z
CONST	ENDS
;	COMDAT ??_R3Scene@@8
rdata$r	SEGMENT
??_R3Scene@@8 DD 00H					; Scene::`RTTI Class Hierarchy Descriptor'
	DD	00H
	DD	01H
	DD	FLAT:??_R2Scene@@8
rdata$r	ENDS
;	COMDAT ??_R3OBS@@8
rdata$r	SEGMENT
??_R3OBS@@8 DD	00H					; OBS::`RTTI Class Hierarchy Descriptor'
	DD	00H
	DD	01H
	DD	FLAT:??_R2OBS@@8
rdata$r	ENDS
;	COMDAT ??_R0?AUFontInfo@@@8
data$r	SEGMENT
??_R0?AUFontInfo@@@8 DD FLAT:??_7type_info@@6B@		; FontInfo `RTTI Type Descriptor'
	DD	00H
	DB	'.?AUFontInfo@@', 00H
data$r	ENDS
;	COMDAT ??_R2OBS@@8
rdata$r	SEGMENT
??_R2OBS@@8 DD	FLAT:??_R1A@?0A@EA@OBS@@8		; OBS::`RTTI Base Class Array'
rdata$r	ENDS
;	COMDAT ??_SScene@@6B@
CONST	SEGMENT
??_SScene@@6B@ DD FLAT:??_R4Scene@@6B@			; Scene::`local vftable'
	DD	FLAT:??_EScene@@UAEPAXI@Z
	DD	FLAT:?InsertImageSource@Scene@@UAEPAVSceneItem@@IPAVXElement@@@Z
	DD	FLAT:?AddImageSource@Scene@@UAEPAVSceneItem@@PAVXElement@@@Z
	DD	FLAT:?RemoveImageSource@Scene@@UAEXPAVSceneItem@@@Z
	DD	FLAT:?Tick@Scene@@UAEXM@Z
	DD	FLAT:?Preprocess@Scene@@UAEXXZ
	DD	FLAT:?Render@Scene@@UAEXXZ
	DD	FLAT:?UpdateSettings@Scene@@UAEXXZ
	DD	FLAT:?RenderSelections@Scene@@UAEXPAVShader@@@Z
	DD	FLAT:?BeginScene@Scene@@UAEXXZ
	DD	FLAT:?EndScene@Scene@@UAEXXZ
CONST	ENDS
;	COMDAT ?c@?1??CommctrlIsolationAwarePrivatetRgCebPnQQeRff_pbZPgYQP_QYY@@9@4@4UIsolationAwarePrivate_pBAFGnAG_zBqHyr_vAsB@@B
CONST	SEGMENT
?c@?1??CommctrlIsolationAwarePrivatetRgCebPnQQeRff_pbZPgYQP_QYY@@9@4@4UIsolationAwarePrivate_pBAFGnAG_zBqHyr_vAsB@@B DD FLAT:_IsolationAwarePrivatezlybNQyVOeNelJ@4 ; `CommctrlIsolationAwarePrivatetRgCebPnQQeRff_pbZPgYQP_QYY'::`2'::c
	DD	FLAT:??_C@_1BK@BFMCNHEO@?$AAC?$AAo?$AAm?$AAc?$AAt?$AAl?$AA3?$AA2?$AA?4?$AAd?$AAl?$AAl?$AA?$AA@
	DD	FLAT:_IsolationAwarePrivatezlybNQyVOeNeln@4
	DD	FLAT:??_C@_0N@LDJIAKLH@Comctl32?4dll?$AA@
CONST	ENDS
;	COMDAT ??_R0?AVScene@@@8
data$r	SEGMENT
??_R0?AVScene@@@8 DD FLAT:??_7type_info@@6B@		; Scene `RTTI Type Descriptor'
	DD	00H
	DB	'.?AVScene@@', 00H
data$r	ENDS
;	COMDAT ??_R4Scene@@6B@
rdata$r	SEGMENT
??_R4Scene@@6B@ DD 00H					; Scene::`RTTI Complete Object Locator'
	DD	00H
	DD	00H
	DD	FLAT:??_R0?AVScene@@@8
	DD	FLAT:??_R3Scene@@8
rdata$r	ENDS
;	COMDAT ??_R2Scene@@8
rdata$r	SEGMENT
??_R2Scene@@8 DD FLAT:??_R1A@?0A@EA@Scene@@8		; Scene::`RTTI Base Class Array'
rdata$r	ENDS
;	COMDAT ??_R4OBS@@6B@
rdata$r	SEGMENT
??_R4OBS@@6B@ DD 00H					; OBS::`RTTI Complete Object Locator'
	DD	00H
	DD	00H
	DD	FLAT:??_R0?AVOBS@@@8
	DD	FLAT:??_R3OBS@@8
rdata$r	ENDS
;	COMDAT ??_R0PAVSettingsPane@@@8
data$r	SEGMENT
??_R0PAVSettingsPane@@@8 DD FLAT:??_7type_info@@6B@	; SettingsPane * `RTTI Type Descriptor'
	DD	00H
	DB	'.PAVSettingsPane@@', 00H
data$r	ENDS
;	COMDAT ??_R0?AVOBS@@@8
data$r	SEGMENT
??_R0?AVOBS@@@8 DD FLAT:??_7type_info@@6B@		; OBS `RTTI Type Descriptor'
	DD	00H
	DB	'.?AVOBS@@', 00H
data$r	ENDS
;	COMDAT ??_R0?AUAudioDeviceInfo@@@8
data$r	SEGMENT
??_R0?AUAudioDeviceInfo@@@8 DD FLAT:??_7type_info@@6B@	; AudioDeviceInfo `RTTI Type Descriptor'
	DD	00H
	DB	'.?AUAudioDeviceInfo@@', 00H
data$r	ENDS
;	COMDAT ??_R1A@?0A@EA@OBS@@8
rdata$r	SEGMENT
??_R1A@?0A@EA@OBS@@8 DD FLAT:??_R0?AVOBS@@@8		; OBS::`RTTI Base Class Descriptor at (0,-1,0,64)'
	DD	00H
	DD	00H
	DD	0ffffffffH
	DD	00H
	DD	040H
	DD	FLAT:??_R3OBS@@8
rdata$r	ENDS
;	COMDAT ??_R0?AUIconInfo@@@8
data$r	SEGMENT
??_R0?AUIconInfo@@@8 DD FLAT:??_7type_info@@6B@		; IconInfo `RTTI Type Descriptor'
	DD	00H
	DB	'.?AUIconInfo@@', 00H
data$r	ENDS
;	COMDAT ??_R1A@?0A@EA@Scene@@8
rdata$r	SEGMENT
??_R1A@?0A@EA@Scene@@8 DD FLAT:??_R0?AVScene@@@8	; Scene::`RTTI Base Class Descriptor at (0,-1,0,64)'
	DD	00H
	DD	00H
	DD	0ffffffffH
	DD	00H
	DD	040H
	DD	FLAT:??_R3Scene@@8
rdata$r	ENDS
;	COMDAT ??_C@_1CC@HOAGLCLM@?$AAT?$AAe?$AAr?$AAm?$AAi?$AAn?$AAa?$AAt?$AAi?$AAn?$AAg?$AA?5?$AA0?$AAx?$AA?$CF?$AAx?$AA?$AA@
CONST	SEGMENT
??_C@_1CC@HOAGLCLM@?$AAT?$AAe?$AAr?$AAm?$AAi?$AAn?$AAa?$AAt?$AAi?$AAn?$AAg?$AA?5?$AA0?$AAx?$AA?$CF?$AAx?$AA?$AA@ DB 'T'
	DB	00H, 'e', 00H, 'r', 00H, 'm', 00H, 'i', 00H, 'n', 00H, 'a', 00H
	DB	't', 00H, 'i', 00H, 'n', 00H, 'g', 00H, ' ', 00H, '0', 00H, 'x'
	DB	00H, '%', 00H, 'x', 00H, 00H, 00H		; `string'
CONST	ENDS
;	COMDAT ??_C@_0BF@IABGBOLM@InitCommonControlsEx?$AA@
CONST	SEGMENT
??_C@_0BF@IABGBOLM@InitCommonControlsEx?$AA@ DB 'InitCommonControlsEx', 00H ; `string'
CONST	ENDS
;	COMDAT ??_C@_0N@LDJIAKLH@Comctl32?4dll?$AA@
CONST	SEGMENT
??_C@_0N@LDJIAKLH@Comctl32?4dll?$AA@ DB 'Comctl32.dll', 00H ; `string'
$SG4294800705 DB 'w', 00H, 'r', 00H, 'u', 00H, 's', 00H, 'r', 00H, '.', 00H
	DB	'd', 00H, 'l', 00H, 'l', 00H, 00H, 00H
	ORG $+2
$SG4294800704 DB 'D', 00H, 'i', 00H, 's', 00H, 'k', 00H, 'F', 00H, 'u', 00H
	DB	'l', 00H, 'l', 00H, 00H, 00H
	ORG $+2
$SG4294800707 DB 'M', 00H, 'S', 00H, 'I', 00H, 'M', 00H, 'G', 00H, '3', 00H
	DB	'2', 00H, 00H, 00H
$SG4294800706 DB 'AlphaBlend', 00H
	ORG $+2
$SG4294800701 DB 'p', 00H, 'l', 00H, 'u', 00H, 'g', 00H, 'i', 00H, 'n', 00H
	DB	's', 00H, '/', 00H, '*', 00H, '.', 00H, 'd', 00H, 'l', 00H, 'l'
	DB	00H, 00H, 00H
	ORG $+2
$SG4294800700 DB 'p', 00H, 'l', 00H, 'u', 00H, 'g', 00H, 'i', 00H, 'n', 00H
	DB	's', 00H, '/', 00H, 00H, 00H
$SG4294800702 DB 'B', 00H, 'a', 00H, 'd', 00H, 'A', 00H, 'p', 00H, 'p', 00H
	DB	'D', 00H, 'a', 00H, 't', 00H, 'a', 00H, 'P', 00H, 'e', 00H, 'r'
	DB	00H, 'm', 00H, 'i', 00H, 's', 00H, 's', 00H, 'i', 00H, 'o', 00H
	DB	'n', 00H, 's', 00H, 00H, 00H
$SG4294800698 DB 'LoadPlugin', 00H
$SG4294800703 DB '\', 00H, '.', 00H, 't', 00H, 'e', 00H, 's', 00H, 't', 00H
	DB	00H, 00H
	ORG $+2
$SG4294800697 DB 'OnStartStream', 00H
	ORG $+2
$SG4294800696 DB 'OnStopStream', 00H
	ORG $+3
$SG4294800699 DB 'LoadPluginEx', 00H
	ORG $+3
$SG4294800693 DB 'OnStartRecording', 00H
	ORG $+3
$SG4294800692 DB 'OnStopRecording', 00H
$SG4294800695 DB 'OnStartStreaming', 00H
	ORG $+3
$SG4294800694 DB 'OnStopStreaming', 00H
$SG4294800689 DB 'OnSceneSwitch', 00H
	ORG $+2
$SG4294800688 DB 'OnSceneCollectionSwitch', 00H
$SG4294800691 DB 'OnOBSStatus', 00H
$SG4294800690 DB 'OnStreamStatus', 00H
	ORG $+1
$SG4294800685 DB 'OnSourceOrderChanged', 00H
	ORG $+3
$SG4294800684 DB 'OnSourceChanged', 00H
$SG4294800687 DB 'OnScenesChanged', 00H
$SG4294800686 DB 'OnSceneCollectionsChanged', 00H
	ORG $+2
$SG4294800681 DB 'OnDesktopVolumeChanged', 00H
	ORG $+1
$SG4294800680 DB 'OnLogUpdate', 00H
$SG4294800683 DB 'OnSourcesAddedOrRemoved', 00H
$SG4294800682 DB 'OnMicVolumeChanged', 00H
	ORG $+1
$SG4294800677 DB 'OnReplayBufferSaved', 00H
$SG4294800676 DB 'F', 00H, 'a', 00H, 'i', 00H, 'l', 00H, 'e', 00H, 'd', 00H
	DB	' ', 00H, 't', 00H, 'o', 00H, ' ', 00H, 'i', 00H, 'n', 00H, 'i'
	DB	00H, 't', 00H, 'i', 00H, 'a', 00H, 'l', 00H, 'i', 00H, 'z', 00H
	DB	'e', 00H, ' ', 00H, 'p', 00H, 'l', 00H, 'u', 00H, 'g', 00H, 'i'
	DB	00H, 'n', 00H, ' ', 00H, '%', 00H, 's', 00H, 00H, 00H
	ORG $+2
$SG4294800679 DB 'OnStartRecordingReplayBuffer', 00H
	ORG $+3
$SG4294800678 DB 'OnStopRecordingReplayBuffer', 00H
$SG4294800675 DB 'F', 00H, 'a', 00H, 'i', 00H, 'l', 00H, 'e', 00H, 'd', 00H
	DB	' ', 00H, 't', 00H, 'o', 00H, ' ', 00H, 'l', 00H, 'o', 00H, 'a'
	DB	00H, 'd', 00H, ' ', 00H, 'p', 00H, 'l', 00H, 'u', 00H, 'g', 00H
	DB	'i', 00H, 'n', 00H, ' ', 00H, '%', 00H, 's', 00H, ',', 00H, ' '
	DB	00H, '%', 00H, 'd', 00H, 00H, 00H
	ORG $+2
$SG4294800673 DB 'C', 00H, 'o', 00H, 'u', 00H, 'l', 00H, 'd', 00H, ' ', 00H
	DB	'n', 00H, 'o', 00H, 't', 00H, ' ', 00H, 'i', 00H, 'n', 00H, 'i'
	DB	00H, 't', 00H, 'a', 00H, 'l', 00H, 'i', 00H, 'z', 00H, 'e', 00H
	DB	' ', 00H, 'c', 00H, 'o', 00H, 'm', 00H, 'm', 00H, 'o', 00H, 'n'
	DB	00H, ' ', 00H, 's', 00H, 'h', 00H, 'e', 00H, 'l', 00H, 'l', 00H
	DB	' ', 00H, 'c', 00H, 'o', 00H, 'n', 00H, 't', 00H, 'r', 00H, 'o'
	DB	00H, 'l', 00H, 's', 00H, 00H, 00H
$SG4294800672 DB 'e', 00H, 'n', 00H, 00H, 00H
	ORG $+2
$SG4294800674 DB 'P', 00H, 'l', 00H, 'u', 00H, 'g', 00H, 'i', 00H, 'n', 00H
	DB	's', 00H, '.', 00H, 'I', 00H, 'n', 00H, 'v', 00H, 'a', 00H, 'l'
	DB	00H, 'i', 00H, 'd', 00H, 'V', 00H, 'e', 00H, 'r', 00H, 's', 00H
	DB	'i', 00H, 'o', 00H, 'n', 00H, 00H, 00H
	ORG $+2
$SG4294800669 DB 'S', 00H, 'c', 00H, 'e', 00H, 'n', 00H, 'e', 00H, 00H, 00H
$SG4294800668 DB 'S', 00H, 'c', 00H, 'e', 00H, 'n', 00H, 'e', 00H, 00H, 00H
$SG4294800671 DB 'L', 00H, 'a', 00H, 'n', 00H, 'g', 00H, 'u', 00H, 'a', 00H
	DB	'g', 00H, 'e', 00H, 00H, 00H
	ORG $+2
$SG4294800670 DB 'G', 00H, 'e', 00H, 'n', 00H, 'e', 00H, 'r', 00H, 'a', 00H
	DB	'l', 00H, 00H, 00H
$SG4294800665 DB 'S', 00H, 'o', 00H, 'u', 00H, 'r', 00H, 'c', 00H, 'e', 00H
	DB	's', 00H, '.', 00H, 'S', 00H, 'o', 00H, 'f', 00H, 't', 00H, 'w'
	DB	00H, 'a', 00H, 'r', 00H, 'e', 00H, 'C', 00H, 'a', 00H, 'p', 00H
	DB	't', 00H, 'u', 00H, 'r', 00H, 'e', 00H, 'S', 00H, 'o', 00H, 'u'
	DB	00H, 'r', 00H, 'c', 00H, 'e', 00H, '.', 00H, 'W', 00H, 'i', 00H
	DB	'n', 00H, 'd', 00H, 'o', 00H, 'w', 00H, 'C', 00H, 'a', 00H, 'p'
	DB	00H, 't', 00H, 'u', 00H, 'r', 00H, 'e', 00H, 00H, 00H
$SG4294800664 DB 'W', 00H, 'i', 00H, 'n', 00H, 'd', 00H, 'o', 00H, 'w', 00H
	DB	'C', 00H, 'a', 00H, 'p', 00H, 't', 00H, 'u', 00H, 'r', 00H, 'e'
	DB	00H, 'S', 00H, 'o', 00H, 'u', 00H, 'r', 00H, 'c', 00H, 'e', 00H
	DB	00H, 00H
$SG4294800667 DB 'S', 00H, 'o', 00H, 'u', 00H, 'r', 00H, 'c', 00H, 'e', 00H
	DB	's', 00H, '.', 00H, 'S', 00H, 'o', 00H, 'f', 00H, 't', 00H, 'w'
	DB	00H, 'a', 00H, 'r', 00H, 'e', 00H, 'C', 00H, 'a', 00H, 'p', 00H
	DB	't', 00H, 'u', 00H, 'r', 00H, 'e', 00H, 'S', 00H, 'o', 00H, 'u'
	DB	00H, 'r', 00H, 'c', 00H, 'e', 00H, 00H, 00H
$SG4294800666 DB 'D', 00H, 'e', 00H, 's', 00H, 'k', 00H, 't', 00H, 'o', 00H
	DB	'p', 00H, 'I', 00H, 'm', 00H, 'a', 00H, 'g', 00H, 'e', 00H, 'S'
	DB	00H, 'o', 00H, 'u', 00H, 'r', 00H, 'c', 00H, 'e', 00H, 00H, 00H
	ORG $+2
$SG4294800661 DB 'S', 00H, 'o', 00H, 'u', 00H, 'r', 00H, 'c', 00H, 'e', 00H
	DB	's', 00H, '.', 00H, 'B', 00H, 'i', 00H, 't', 00H, 'm', 00H, 'a'
	DB	00H, 'p', 00H, 'S', 00H, 'o', 00H, 'u', 00H, 'r', 00H, 'c', 00H
	DB	'e', 00H, 00H, 00H
	ORG $+2
$SG4294800660 DB 'B', 00H, 'i', 00H, 't', 00H, 'm', 00H, 'a', 00H, 'p', 00H
	DB	'I', 00H, 'm', 00H, 'a', 00H, 'g', 00H, 'e', 00H, 'S', 00H, 'o'
	DB	00H, 'u', 00H, 'r', 00H, 'c', 00H, 'e', 00H, 00H, 00H
$SG4294800662 DB 'M', 00H, 'o', 00H, 'n', 00H, 'i', 00H, 't', 00H, 'o', 00H
	DB	'r', 00H, 'C', 00H, 'a', 00H, 'p', 00H, 't', 00H, 'u', 00H, 'r'
	DB	00H, 'e', 00H, 'S', 00H, 'o', 00H, 'u', 00H, 'r', 00H, 'c', 00H
	DB	'e', 00H, 00H, 00H
	ORG $+2
$SG4294800663 DB 'S', 00H, 'o', 00H, 'u', 00H, 'r', 00H, 'c', 00H, 'e', 00H
	DB	's', 00H, '.', 00H, 'S', 00H, 'o', 00H, 'f', 00H, 't', 00H, 'w'
	DB	00H, 'a', 00H, 'r', 00H, 'e', 00H, 'C', 00H, 'a', 00H, 'p', 00H
	DB	't', 00H, 'u', 00H, 'r', 00H, 'e', 00H, 'S', 00H, 'o', 00H, 'u'
	DB	00H, 'r', 00H, 'c', 00H, 'e', 00H, '.', 00H, 'M', 00H, 'o', 00H
	DB	'n', 00H, 'i', 00H, 't', 00H, 'o', 00H, 'r', 00H, 'C', 00H, 'a'
	DB	00H, 'p', 00H, 't', 00H, 'u', 00H, 'r', 00H, 'e', 00H, 00H, 00H
	ORG $+2
$SG4294800657 DB 'S', 00H, 'o', 00H, 'u', 00H, 'r', 00H, 'c', 00H, 'e', 00H
	DB	's', 00H, '.', 00H, 'G', 00H, 'l', 00H, 'o', 00H, 'b', 00H, 'a'
	DB	00H, 'l', 00H, 'S', 00H, 'o', 00H, 'u', 00H, 'r', 00H, 'c', 00H
	DB	'e', 00H, 00H, 00H
	ORG $+2
$SG4294800656 DB 'G', 00H, 'l', 00H, 'o', 00H, 'b', 00H, 'a', 00H, 'l', 00H
	DB	'S', 00H, 'o', 00H, 'u', 00H, 'r', 00H, 'c', 00H, 'e', 00H, 00H
	DB	00H
	ORG $+2
$SG4294800659 DB 'S', 00H, 'o', 00H, 'u', 00H, 'r', 00H, 'c', 00H, 'e', 00H
	DB	's', 00H, '.', 00H, 'T', 00H, 'r', 00H, 'a', 00H, 'n', 00H, 's'
	DB	00H, 'i', 00H, 't', 00H, 'i', 00H, 'o', 00H, 'n', 00H, 'S', 00H
	DB	'o', 00H, 'u', 00H, 'r', 00H, 'c', 00H, 'e', 00H, 00H, 00H
	ORG $+2
$SG4294800658 DB 'B', 00H, 'i', 00H, 't', 00H, 'm', 00H, 'a', 00H, 'p', 00H
	DB	'T', 00H, 'r', 00H, 'a', 00H, 'n', 00H, 's', 00H, 'i', 00H, 't'
	DB	00H, 'i', 00H, 'o', 00H, 'n', 00H, 'S', 00H, 'o', 00H, 'u', 00H
	DB	'r', 00H, 'c', 00H, 'e', 00H, 00H, 00H
	ORG $+2
$SG4294800653 DB 'O', 00H, 'B', 00H, 'S', 00H, 'R', 00H, 'e', 00H, 'n', 00H
	DB	'd', 00H, 'e', 00H, 'r', 00H, 'F', 00H, 'r', 00H, 'a', 00H, 'm'
	DB	00H, 'e', 00H, 00H, 00H
	ORG $+2
$SG4294800652 DB 'C', 00H, 'o', 00H, 'u', 00H, 'l', 00H, 'd', 00H, ' ', 00H
	DB	'n', 00H, 'o', 00H, 't', 00H, ' ', 00H, 'r', 00H, 'e', 00H, 'g'
	DB	00H, 'i', 00H, 's', 00H, 't', 00H, 'e', 00H, 'r', 00H, ' ', 00H
	DB	'r', 00H, 'e', 00H, 'n', 00H, 'd', 00H, 'e', 00H, 'r', 00H, ' '
	DB	00H, 'f', 00H, 'r', 00H, 'a', 00H, 'm', 00H, 'e', 00H, ' ', 00H
	DB	'c', 00H, 'l', 00H, 'a', 00H, 's', 00H, 's', 00H, 00H, 00H
$SG4294800655 DB 'S', 00H, 'o', 00H, 'u', 00H, 'r', 00H, 'c', 00H, 'e', 00H
	DB	's', 00H, '.', 00H, 'T', 00H, 'e', 00H, 'x', 00H, 't', 00H, 'S'
	DB	00H, 'o', 00H, 'u', 00H, 'r', 00H, 'c', 00H, 'e', 00H, 00H, 00H
	ORG $+2
$SG4294800654 DB 'T', 00H, 'e', 00H, 'x', 00H, 't', 00H, 'S', 00H, 'o', 00H
	DB	'u', 00H, 'r', 00H, 'c', 00H, 'e', 00H, 00H, 00H
	ORG $+2
$SG4294800649 DB 'O', 00H, 'B', 00H, 'S', 00H, 'L', 00H, 'o', 00H, 'g', 00H
	DB	'W', 00H, 'i', 00H, 'n', 00H, 'd', 00H, 'o', 00H, 'w', 00H, 'C'
	DB	00H, 'l', 00H, 'a', 00H, 's', 00H, 's', 00H, 00H, 00H
$SG4294800648 DB 'C', 00H, 'o', 00H, 'u', 00H, 'l', 00H, 'd', 00H, ' ', 00H
	DB	'n', 00H, 'o', 00H, 't', 00H, ' ', 00H, 'r', 00H, 'e', 00H, 'g'
	DB	00H, 'i', 00H, 's', 00H, 't', 00H, 'e', 00H, 'r', 00H, ' ', 00H
	DB	'm', 00H, 'a', 00H, 'i', 00H, 'n', 00H, ' ', 00H, 'w', 00H, 'i'
	DB	00H, 'n', 00H, 'd', 00H, 'o', 00H, 'w', 00H, ' ', 00H, 'c', 00H
	DB	'l', 00H, 'a', 00H, 's', 00H, 's', 00H, 00H, 00H
	ORG $+2
$SG4294800651 DB 'O', 00H, 'B', 00H, 'S', 00H, 'P', 00H, 'r', 00H, 'o', 00H
	DB	'j', 00H, 'e', 00H, 'c', 00H, 't', 00H, 'o', 00H, 'r', 00H, 'F'
	DB	00H, 'r', 00H, 'a', 00H, 'm', 00H, 'e', 00H, 00H, 00H
$SG4294800650 DB 'C', 00H, 'o', 00H, 'u', 00H, 'l', 00H, 'd', 00H, ' ', 00H
	DB	'n', 00H, 'o', 00H, 't', 00H, ' ', 00H, 'r', 00H, 'e', 00H, 'g'
	DB	00H, 'i', 00H, 's', 00H, 't', 00H, 'e', 00H, 'r', 00H, ' ', 00H
	DB	'p', 00H, 'r', 00H, 'o', 00H, 'j', 00H, 'e', 00H, 'c', 00H, 't'
	DB	00H, 'o', 00H, 'r', 00H, ' ', 00H, 'f', 00H, 'r', 00H, 'a', 00H
	DB	'm', 00H, 'e', 00H, ' ', 00H, 'c', 00H, 'l', 00H, 'a', 00H, 's'
	DB	00H, 's', 00H, 00H, 00H
	ORG $+2
$SG4294800645 DB 'W', 00H, 'i', 00H, 'd', 00H, 't', 00H, 'h', 00H, 00H, 00H
$SG4294800644 DB 'G', 00H, 'e', 00H, 'n', 00H, 'e', 00H, 'r', 00H, 'a', 00H
	DB	'l', 00H, 00H, 00H
$SG4294800647 DB 'O', 00H, 'B', 00H, 'S', 00H, 'W', 00H, 'i', 00H, 'n', 00H
	DB	'd', 00H, 'o', 00H, 'w', 00H, 'C', 00H, 'l', 00H, 'a', 00H, 's'
	DB	00H, 's', 00H, 00H, 00H
	ORG $+2
$SG4294800646 DB 'C', 00H, 'o', 00H, 'u', 00H, 'l', 00H, 'd', 00H, ' ', 00H
	DB	'n', 00H, 'o', 00H, 't', 00H, ' ', 00H, 'r', 00H, 'e', 00H, 'g'
	DB	00H, 'i', 00H, 's', 00H, 't', 00H, 'e', 00H, 'r', 00H, ' ', 00H
	DB	'm', 00H, 'a', 00H, 'i', 00H, 'n', 00H, ' ', 00H, 'w', 00H, 'i'
	DB	00H, 'n', 00H, 'd', 00H, 'o', 00H, 'w', 00H, ' ', 00H, 'c', 00H
	DB	'l', 00H, 'a', 00H, 's', 00H, 's', 00H, 00H, 00H
	ORG $+2
$SG4294800641 DB 'P', 00H, 'o', 00H, 's', 00H, 'X', 00H, 00H, 00H
	ORG $+2
$SG4294800640 DB 'G', 00H, 'e', 00H, 'n', 00H, 'e', 00H, 'r', 00H, 'a', 00H
	DB	'l', 00H, 00H, 00H
$SG4294800643 DB 'H', 00H, 'e', 00H, 'i', 00H, 'g', 00H, 'h', 00H, 't', 00H
	DB	00H, 00H
	ORG $+2
$SG4294800642 DB 'G', 00H, 'e', 00H, 'n', 00H, 'e', 00H, 'r', 00H, 'a', 00H
	DB	'l', 00H, 00H, 00H
$SG4294800637 DB 'P', 00H, 'a', 00H, 'n', 00H, 'e', 00H, 'l', 00H, 'V', 00H
	DB	'i', 00H, 's', 00H, 'i', 00H, 'b', 00H, 'l', 00H, 'e', 00H, 'W'
	DB	00H, 'i', 00H, 'n', 00H, 'd', 00H, 'o', 00H, 'w', 00H, 'e', 00H
	DB	'd', 00H, 00H, 00H
	ORG $+2
$SG4294800636 DB 'G', 00H, 'e', 00H, 'n', 00H, 'e', 00H, 'r', 00H, 'a', 00H
	DB	'l', 00H, 00H, 00H
$SG4294800639 DB 'P', 00H, 'o', 00H, 's', 00H, 'Y', 00H, 00H, 00H
	ORG $+2
$SG4294800638 DB 'G', 00H, 'e', 00H, 'n', 00H, 'e', 00H, 'r', 00H, 'a', 00H
	DB	'l', 00H, 00H, 00H
$SG4294800633 DB 'O', 00H, 'B', 00H, 'S', 00H, 'W', 00H, 'i', 00H, 'n', 00H
	DB	'd', 00H, 'o', 00H, 'w', 00H, 'C', 00H, 'l', 00H, 'a', 00H, 's'
	DB	00H, 's', 00H, 00H, 00H
	ORG $+2
$SG4294800632 DB 'C', 00H, 'o', 00H, 'u', 00H, 'l', 00H, 'd', 00H, ' ', 00H
	DB	'n', 00H, 'o', 00H, 't', 00H, ' ', 00H, 'c', 00H, 'r', 00H, 'e'
	DB	00H, 'a', 00H, 't', 00H, 'e', 00H, ' ', 00H, 'm', 00H, 'a', 00H
	DB	'i', 00H, 'n', 00H, ' ', 00H, 'w', 00H, 'i', 00H, 'n', 00H, 'd'
	DB	00H, 'o', 00H, 'w', 00H, 00H, 00H
	ORG $+2
$SG4294800635 DB 'P', 00H, 'a', 00H, 'n', 00H, 'e', 00H, 'l', 00H, 'V', 00H
	DB	'i', 00H, 's', 00H, 'i', 00H, 'b', 00H, 'l', 00H, 'e', 00H, 'F'
	DB	00H, 'u', 00H, 'l', 00H, 'l', 00H, 's', 00H, 'c', 00H, 'r', 00H
	DB	'e', 00H, 'e', 00H, 'n', 00H, 00H, 00H
	ORG $+2
$SG4294800634 DB 'G', 00H, 'e', 00H, 'n', 00H, 'e', 00H, 'r', 00H, 'a', 00H
	DB	'l', 00H, 00H, 00H
$SG4294800629 DB 'O', 00H, 'B', 00H, 'S', 00H, ' ', 00H, 'P', 00H, 'r', 00H
	DB	'o', 00H, 'j', 00H, 'e', 00H, 'c', 00H, 't', 00H, 'o', 00H, 'r'
	DB	00H, ' ', 00H, 'W', 00H, 'i', 00H, 'n', 00H, 'd', 00H, 'o', 00H
	DB	'w', 00H, 00H, 00H
	ORG $+2
$SG4294800628 DB 'O', 00H, 'B', 00H, 'S', 00H, 'P', 00H, 'r', 00H, 'o', 00H
	DB	'j', 00H, 'e', 00H, 'c', 00H, 't', 00H, 'o', 00H, 'r', 00H, 'F'
	DB	00H, 'r', 00H, 'a', 00H, 'm', 00H, 'e', 00H, 00H, 00H
$SG4294800631 DB 'O', 00H, 'B', 00H, 'S', 00H, 'R', 00H, 'e', 00H, 'n', 00H
	DB	'd', 00H, 'e', 00H, 'r', 00H, 'F', 00H, 'r', 00H, 'a', 00H, 'm'
	DB	00H, 'e', 00H, 00H, 00H
	ORG $+2
$SG4294800630 DB 'C', 00H, 'o', 00H, 'u', 00H, 'l', 00H, 'd', 00H, ' ', 00H
	DB	'n', 00H, 'o', 00H, 't', 00H, ' ', 00H, 'c', 00H, 'r', 00H, 'e'
	DB	00H, 'a', 00H, 't', 00H, 'e', 00H, ' ', 00H, 'r', 00H, 'e', 00H
	DB	'n', 00H, 'd', 00H, 'e', 00H, 'r', 00H, ' ', 00H, 'f', 00H, 'r'
	DB	00H, 'a', 00H, 'm', 00H, 'e', 00H, 00H, 00H
$SG4294800625 DB 'L', 00H, 'o', 00H, 'g', 00H, 'P', 00H, 'o', 00H, 's', 00H
	DB	'Y', 00H, 00H, 00H
$SG4294800624 DB 'G', 00H, 'e', 00H, 'n', 00H, 'e', 00H, 'r', 00H, 'a', 00H
	DB	'l', 00H, 00H, 00H
$SG4294800627 DB 'L', 00H, 'o', 00H, 'g', 00H, 'P', 00H, 'o', 00H, 's', 00H
	DB	'X', 00H, 00H, 00H
$SG4294800626 DB 'G', 00H, 'e', 00H, 'n', 00H, 'e', 00H, 'r', 00H, 'a', 00H
	DB	'l', 00H, 00H, 00H
$SG4294800621 DB 'L', 00H, 'o', 00H, 'g', 00H, 'S', 00H, 'i', 00H, 'z', 00H
	DB	'e', 00H, 'Y', 00H, 00H, 00H
	ORG $+2
$SG4294800620 DB 'G', 00H, 'e', 00H, 'n', 00H, 'e', 00H, 'r', 00H, 'a', 00H
	DB	'l', 00H, 00H, 00H
$SG4294800623 DB 'L', 00H, 'o', 00H, 'g', 00H, 'S', 00H, 'i', 00H, 'z', 00H
	DB	'e', 00H, 'X', 00H, 00H, 00H
	ORG $+2
$SG4294800622 DB 'G', 00H, 'e', 00H, 'n', 00H, 'e', 00H, 'r', 00H, 'a', 00H
	DB	'l', 00H, 00H, 00H
$SG4294800617 DB 00H, 00H
	ORG $+2
$SG4294800616 DB 'E', 00H, 'D', 00H, 'I', 00H, 'T', 00H, 00H, 00H
	ORG $+2
$SG4294800619 DB 'L', 00H, 'o', 00H, 'g', 00H, 'W', 00H, 'i', 00H, 'n', 00H
	DB	'd', 00H, 'o', 00H, 'w', 00H, 00H, 00H
$SG4294800618 DB 'O', 00H, 'B', 00H, 'S', 00H, 'L', 00H, 'o', 00H, 'g', 00H
	DB	'W', 00H, 'i', 00H, 'n', 00H, 'd', 00H, 'o', 00H, 'w', 00H, 'C'
	DB	00H, 'l', 00H, 'a', 00H, 's', 00H, 's', 00H, 00H, 00H
$SG4294800613 DB 00H, 00H
	ORG $+2
$SG4294800612 DB 'O', 00H, 'B', 00H, 'S', 00H, 'V', 00H, 'o', 00H, 'l', 00H
	DB	'u', 00H, 'm', 00H, 'e', 00H, 'C', 00H, 'o', 00H, 'n', 00H, 't'
	DB	00H, 'r', 00H, 'o', 00H, 'l', 00H, 00H, 00H
	ORG $+2
$SG4294800615 DB 'L', 00H, 'I', 00H, 'S', 00H, 'T', 00H, 'B', 00H, 'O', 00H
	DB	'X', 00H, 00H, 00H
$SG4294800614 DB 'S', 00H, 'y', 00H, 's', 00H, 'L', 00H, 'i', 00H, 's', 00H
	DB	't', 00H, 'V', 00H, 'i', 00H, 'e', 00H, 'w', 00H, '3', 00H, '2'
	DB	00H, 00H, 00H
$SG4294800609 DB 'O', 00H, 'B', 00H, 'S', 00H, 'V', 00H, 'o', 00H, 'l', 00H
	DB	'u', 00H, 'm', 00H, 'e', 00H, 'C', 00H, 'o', 00H, 'n', 00H, 't'
	DB	00H, 'r', 00H, 'o', 00H, 'l', 00H, 00H, 00H
	ORG $+2
$SG4294800608 DB 'M', 00H, 'a', 00H, 'i', 00H, 'n', 00H, 'W', 00H, 'i', 00H
	DB	'n', 00H, 'd', 00H, 'o', 00H, 'w', 00H, '.', 00H, 'D', 00H, 'a'
	DB	00H, 's', 00H, 'h', 00H, 'b', 00H, 'o', 00H, 'a', 00H, 'r', 00H
	DB	'd', 00H, 00H, 00H
	ORG $+2
$SG4294800611 DB 'O', 00H, 'B', 00H, 'S', 00H, 'V', 00H, 'o', 00H, 'l', 00H
	DB	'u', 00H, 'm', 00H, 'e', 00H, 'M', 00H, 'e', 00H, 't', 00H, 'e'
	DB	00H, 'r', 00H, 00H, 00H
	ORG $+2
$SG4294800610 DB 'O', 00H, 'B', 00H, 'S', 00H, 'V', 00H, 'o', 00H, 'l', 00H
	DB	'u', 00H, 'm', 00H, 'e', 00H, 'M', 00H, 'e', 00H, 't', 00H, 'e'
	DB	00H, 'r', 00H, 00H, 00H
	ORG $+2
$SG4294800605 DB 'S', 00H, 'T', 00H, 'A', 00H, 'T', 00H, 'I', 00H, 'C', 00H
	DB	00H, 00H
	ORG $+2
$SG4294800604 DB 'M', 00H, 'a', 00H, 'i', 00H, 'n', 00H, 'W', 00H, 'i', 00H
	DB	'n', 00H, 'd', 00H, 'o', 00H, 'w', 00H, '.', 00H, 'S', 00H, 'o'
	DB	00H, 'u', 00H, 'r', 00H, 'c', 00H, 'e', 00H, 's', 00H, 00H, 00H
	ORG $+2
$SG4294800607 DB 'B', 00H, 'U', 00H, 'T', 00H, 'T', 00H, 'O', 00H, 'N', 00H
	DB	00H, 00H
	ORG $+2
$SG4294800606 DB 'M', 00H, 'a', 00H, 'i', 00H, 'n', 00H, 'W', 00H, 'i', 00H
	DB	'n', 00H, 'd', 00H, 'o', 00H, 'w', 00H, '.', 00H, 'S', 00H, 'c'
	DB	00H, 'e', 00H, 'n', 00H, 'e', 00H, 's', 00H, 00H, 00H
$SG4294800601 DB 'S', 00H, 'h', 00H, 'o', 00H, 'w', 00H, 'N', 00H, 'o', 00H
	DB	't', 00H, 'i', 00H, 'f', 00H, 'i', 00H, 'c', 00H, 'a', 00H, 't'
	DB	00H, 'i', 00H, 'o', 00H, 'n', 00H, 'A', 00H, 'r', 00H, 'e', 00H
	DB	'a', 00H, 'I', 00H, 'c', 00H, 'o', 00H, 'n', 00H, 00H, 00H
	ORG $+2
$SG4294800600 DB 'G', 00H, 'e', 00H, 'n', 00H, 'e', 00H, 'r', 00H, 'a', 00H
	DB	'l', 00H, 00H, 00H
$SG4294800603 DB 'S', 00H, 'T', 00H, 'A', 00H, 'T', 00H, 'I', 00H, 'C', 00H
	DB	00H, 00H
	ORG $+2
$SG4294800602 DB 'T', 00H, 'a', 00H, 's', 00H, 'k', 00H, 'b', 00H, 'a', 00H
	DB	'r', 00H, 'C', 00H, 'r', 00H, 'e', 00H, 'a', 00H, 't', 00H, 'e'
	DB	00H, 'd', 00H, 00H, 00H
	ORG $+2
$SG4294800597 DB '\', 00H, 's', 00H, 'c', 00H, 'e', 00H, 'n', 00H, 'e', 00H
	DB	'C', 00H, 'o', 00H, 'l', 00H, 'l', 00H, 'e', 00H, 'c', 00H, 't'
	DB	00H, 'i', 00H, 'o', 00H, 'n', 00H, '\', 00H, '*', 00H, '.', 00H
	DB	'x', 00H, 'c', 00H, 'o', 00H, 'n', 00H, 'f', 00H, 'i', 00H, 'g'
	DB	00H, 00H, 00H
	ORG $+2
$SG4294800599 DB '\', 00H, 's', 00H, 'c', 00H, 'e', 00H, 'n', 00H, 'e', 00H
	DB	'C', 00H, 'o', 00H, 'l', 00H, 'l', 00H, 'e', 00H, 'c', 00H, 't'
	DB	00H, 'i', 00H, 'o', 00H, 'n', 00H, '\', 00H, 00H, 00H
$SG4294800596 DB '\', 00H, 's', 00H, 'c', 00H, 'e', 00H, 'n', 00H, 'e', 00H
	DB	'C', 00H, 'o', 00H, 'l', 00H, 'l', 00H, 'e', 00H, 'c', 00H, 't'
	DB	00H, 'i', 00H, 'o', 00H, 'n', 00H, '\', 00H, 's', 00H, 'c', 00H
	DB	'e', 00H, 'n', 00H, 'e', 00H, 's', 00H, '.', 00H, 'x', 00H, 'c'
	DB	00H, 'o', 00H, 'n', 00H, 'f', 00H, 'i', 00H, 'g', 00H, 00H, 00H
$SG4294800598 DB '.', 00H, 'x', 00H, 'c', 00H, 'o', 00H, 'n', 00H, 'f', 00H
	DB	'i', 00H, 'g', 00H, 00H, 00H
	ORG $+2
$SG4294800593 DB 'S', 00H, 'c', 00H, 'e', 00H, 'n', 00H, 'e', 00H, 'C', 00H
	DB	'o', 00H, 'l', 00H, 'l', 00H, 'e', 00H, 'c', 00H, 't', 00H, 'i'
	DB	00H, 'o', 00H, 'n', 00H, 00H, 00H
$SG4294800592 DB 'G', 00H, 'e', 00H, 'n', 00H, 'e', 00H, 'r', 00H, 'a', 00H
	DB	'l', 00H, 00H, 00H
$SG4294800595 DB '\', 00H, 's', 00H, 'c', 00H, 'e', 00H, 'n', 00H, 'e', 00H
	DB	's', 00H, '.', 00H, 'x', 00H, 'c', 00H, 'o', 00H, 'n', 00H, 'f'
	DB	00H, 'i', 00H, 'g', 00H, 00H, 00H
$SG4294800594 DB 's', 00H, 'c', 00H, 'e', 00H, 'n', 00H, 'e', 00H, 's', 00H
	DB	00H, 00H
	ORG $+2
$SG4294800589 DB 's', 00H, 'c', 00H, 'e', 00H, 'n', 00H, 'e', 00H, 's', 00H
	DB	00H, 00H
	ORG $+2
$SG4294800588 DB 's', 00H, 'c', 00H, 'e', 00H, 'n', 00H, 'e', 00H, 's', 00H
	DB	00H, 00H
	ORG $+2
$SG4294800591 DB '%', 00H, 's', 00H, '\', 00H, 's', 00H, 'c', 00H, 'e', 00H
	DB	'n', 00H, 'e', 00H, 'C', 00H, 'o', 00H, 'l', 00H, 'l', 00H, 'e'
	DB	00H, 'c', 00H, 't', 00H, 'i', 00H, 'o', 00H, 'n', 00H, '\', 00H
	DB	'%', 00H, 's', 00H, '.', 00H, 'x', 00H, 'c', 00H, 'o', 00H, 'n'
	DB	00H, 'f', 00H, 'i', 00H, 'g', 00H, 00H, 00H
$SG4294800590 DB 'C', 00H, 'o', 00H, 'u', 00H, 'l', 00H, 'd', 00H, ' ', 00H
	DB	'n', 00H, 'o', 00H, 't', 00H, ' ', 00H, 'o', 00H, 'p', 00H, 'e'
	DB	00H, 'n', 00H, ' ', 00H, '''', 00H, '%', 00H, 's', 00H, '''', 00H
	DB	00H, 00H
$SG4294800585 DB 'c', 00H, 'l', 00H, 'a', 00H, 's', 00H, 's', 00H, 00H, 00H
$SG4294800584 DB 'C', 00H, 'u', 00H, 'r', 00H, 'r', 00H, 'e', 00H, 'n', 00H
	DB	't', 00H, 'S', 00H, 'c', 00H, 'e', 00H, 'n', 00H, 'e', 00H, 00H
	DB	00H
	ORG $+2
$SG4294800587 DB 'S', 00H, 'c', 00H, 'e', 00H, 'n', 00H, 'e', 00H, 00H, 00H
$SG4294800586 DB 'S', 00H, 'c', 00H, 'e', 00H, 'n', 00H, 'e', 00H, 00H, 00H
$SG4294800581 DB 'A', 00H, 'u', 00H, 't', 00H, 'o', 00H, 'R', 00H, 'e', 00H
	DB	'c', 00H, 'o', 00H, 'n', 00H, 'n', 00H, 'e', 00H, 'c', 00H, 't'
	DB	00H, 00H, 00H
$SG4294800580 DB 'P', 00H, 'u', 00H, 'b', 00H, 'l', 00H, 'i', 00H, 's', 00H
	DB	'h', 00H, 00H, 00H
$SG4294800583 DB 'G', 00H, 'e', 00H, 'n', 00H, 'e', 00H, 'r', 00H, 'a', 00H
	DB	'l', 00H, 00H, 00H
$SG4294800582 DB 'h', 00H, 'o', 00H, 't', 00H, 'k', 00H, 'e', 00H, 'y', 00H
	DB	00H, 00H
	ORG $+2
$SG4294800577 DB 'L', 00H, 'a', 00H, 's', 00H, 't', 00H, 'U', 00H, 'p', 00H
	DB	'd', 00H, 'a', 00H, 't', 00H, 'e', 00H, 'C', 00H, 'h', 00H, 'e'
	DB	00H, 'c', 00H, 'k', 00H, 00H, 00H
$SG4294800576 DB 'G', 00H, 'e', 00H, 'n', 00H, 'e', 00H, 'r', 00H, 'a', 00H
	DB	'l', 00H, 00H, 00H
$SG4294800579 DB 'A', 00H, 'u', 00H, 't', 00H, 'o', 00H, 'R', 00H, 'e', 00H
	DB	'c', 00H, 'o', 00H, 'n', 00H, 'n', 00H, 'e', 00H, 'c', 00H, 't'
	DB	00H, 'T', 00H, 'i', 00H, 'm', 00H, 'e', 00H, 'o', 00H, 'u', 00H
	DB	't', 00H, 00H, 00H
	ORG $+2
$SG4294800578 DB 'P', 00H, 'u', 00H, 'b', 00H, 'l', 00H, 'i', 00H, 's', 00H
	DB	'h', 00H, 00H, 00H
$SG4294800573 DB 'P', 00H, 'r', 00H, 'e', 00H, 'v', 00H, 'i', 00H, 'e', 00H
	DB	'w', 00H, 'E', 00H, 'n', 00H, 'a', 00H, 'b', 00H, 'l', 00H, 'e'
	DB	00H, 'd', 00H, 00H, 00H
	ORG $+2
$SG4294800572 DB 'G', 00H, 'e', 00H, 'n', 00H, 'e', 00H, 'r', 00H, 'a', 00H
	DB	'l', 00H, 00H, 00H
$SG4294800575 DB 'L', 00H, 'a', 00H, 's', 00H, 't', 00H, 'U', 00H, 'p', 00H
	DB	'd', 00H, 'a', 00H, 't', 00H, 'e', 00H, 'C', 00H, 'h', 00H, 'e'
	DB	00H, 'c', 00H, 'k', 00H, 00H, 00H
$SG4294800574 DB 'G', 00H, 'e', 00H, 'n', 00H, 'e', 00H, 'r', 00H, 'a', 00H
	DB	'l', 00H, 00H, 00H
$SG4294800569 DB 'J', 00H, 'u', 00H, 's', 00H, 't', 00H, ' ', 00H, 'a', 00H
	DB	' ', 00H, 's', 00H, 'l', 00H, 'i', 00H, 'g', 00H, 'h', 00H, 't'
	DB	00H, ' ', 00H, 'i', 00H, 's', 00H, 's', 00H, 'u', 00H, 'e', 00H
	DB	' ', 00H, 'y', 00H, 'o', 00H, 'u', 00H, ' ', 00H, 'm', 00H, 'i'
	DB	00H, 'g', 00H, 'h', 00H, 't', 00H, ' ', 00H, 'w', 00H, 'a', 00H
	DB	'n', 00H, 't', 00H, ' ', 00H, 't', 00H, 'o', 00H, ' ', 00H, 'b'
	DB	00H, 'e', 00H, ' ', 00H, 'a', 00H, 'w', 00H, 'a', 00H, 'r', 00H
	DB	'e', 00H, ' ', 00H, 'o', 00H, 'f', 00H, 00H, 00H
$SG4294800560 DB 'S', 00H, 'h', 00H, 'o', 00H, 'w', 00H, 'N', 00H, 'o', 00H
	DB	't', 00H, 'i', 00H, 'f', 00H, 'i', 00H, 'c', 00H, 'a', 00H, 't'
	DB	00H, 'i', 00H, 'o', 00H, 'n', 00H, 'A', 00H, 'r', 00H, 'e', 00H
	DB	'a', 00H, 'I', 00H, 'c', 00H, 'o', 00H, 'n', 00H, 00H, 00H
	ORG $+2
$SG4294800568 DB 'W', 00H, 'e', 00H, 'b', 00H, 'r', 00H, 'o', 00H, 'o', 00H
	DB	't', 00H, ' ', 00H, 'S', 00H, 'e', 00H, 'c', 00H, 'u', 00H, 'r'
	DB	00H, 'e', 00H, 'a', 00H, 'n', 00H, 'y', 00H, 'w', 00H, 'h', 00H
	DB	'e', 00H, 'r', 00H, 'e', 00H, ' ', 00H, 'a', 00H, 'p', 00H, 'p'
	DB	00H, 'e', 00H, 'a', 00H, 'r', 00H, 's', 00H, ' ', 00H, 't', 00H
	DB	'o', 00H, ' ', 00H, 'b', 00H, 'e', 00H, ' ', 00H, 'a', 00H, 'c'
	DB	00H, 't', 00H, 'i', 00H, 'v', 00H, 'e', 00H, '.', 00H, ' ', 00H
	DB	' ', 00H, 'T', 00H, 'h', 00H, 'i', 00H, 's', 00H, ' ', 00H, 'p'
	DB	00H, 'r', 00H, 'o', 00H, 'd', 00H, 'u', 00H, 'c', 00H, 't', 00H
	DB	' ', 00H, 'w', 00H, 'i', 00H, 'l', 00H, 'l', 00H, ' ', 00H, 'c'
	DB	00H, 'a', 00H, 'u', 00H, 's', 00H, 'e', 00H, ' ', 00H, 'p', 00H
	DB	'r', 00H, 'o', 00H, 'b', 00H, 'l', 00H, 'e', 00H, 'm', 00H, 's'
	DB	00H, ' ', 00H, 'w', 00H, 'i', 00H, 't', 00H, 'h', 00H, ' ', 00H
	DB	'O', 00H, 'B', 00H, 'S', 00H, ' ', 00H, 'a', 00H, 's', 00H, ' '
	DB	00H, 't', 00H, 'h', 00H, 'e', 00H, ' ', 00H, 's', 00H, 'e', 00H
	DB	'c', 00H, 'u', 00H, 'r', 00H, 'i', 00H, 't', 00H, 'y', 00H, ' '
	DB	00H, 'f', 00H, 'e', 00H, 'a', 00H, 't', 00H, 'u', 00H, 'r', 00H
	DB	'e', 00H, 's', 00H, ' ', 00H, 'b', 00H, 'l', 00H, 'o', 00H, 'c'
	DB	00H, 'k', 00H, ' ', 00H, 'O', 00H, 'B', 00H, 'S', 00H, ' ', 00H
	DB	'f', 00H, 'r', 00H, 'o', 00H, 'm', 00H, ' ', 00H, 'a', 00H, 'c'
	DB	00H, 'c', 00H, 'e', 00H, 's', 00H, 's', 00H, 'i', 00H, 'n', 00H
	DB	'g', 00H, ' ', 00H, 'W', 00H, 'i', 00H, 'n', 00H, 'd', 00H, 'o'
	DB	00H, 'w', 00H, 's', 00H, ' ', 00H, 'G', 00H, 'D', 00H, 'I', 00H
	DB	' ', 00H, 'f', 00H, 'u', 00H, 'n', 00H, 'c', 00H, 't', 00H, 'i'
	DB	00H, 'o', 00H, 'n', 00H, 's', 00H, '.', 00H, ' ', 00H, ' ', 00H
	DB	'I', 00H, 't', 00H, ' ', 00H, 'i', 00H, 's', 00H, ' ', 00H, 'h'
	DB	00H, 'i', 00H, 'g', 00H, 'h', 00H, 'l', 00H, 'y', 00H, ' ', 00H
	DB	'r', 00H, 'e', 00H, 'c', 00H, 'o', 00H, 'm', 00H, 'm', 00H, 'e'
	DB	00H, 'n', 00H, 'd', 00H, 'e', 00H, 'd', 00H, ' ', 00H, 't', 00H
	DB	'h', 00H, 'a', 00H, 't', 00H, ' ', 00H, 'y', 00H, 'o', 00H, 'u'
	DB	00H, ' ', 00H, 'd', 00H, 'i', 00H, 's', 00H, 'a', 00H, 'b', 00H
	DB	'l', 00H, 'e', 00H, ' ', 00H, 'S', 00H, 'e', 00H, 'c', 00H, 'u'
	DB	00H, 'r', 00H, 'e', 00H, 'a', 00H, 'n', 00H, 'y', 00H, 'w', 00H
	DB	'h', 00H, 'e', 00H, 'r', 00H, 'e', 00H, ' ', 00H, 'a', 00H, 'n'
	DB	00H, 'd', 00H, ' ', 00H, 'r', 00H, 'e', 00H, 's', 00H, 't', 00H
	DB	'a', 00H, 'r', 00H, 't', 00H, ' ', 00H, 'O', 00H, 'B', 00H, 'S'
	DB	00H, '.', 00H, 0dH, 00H, 0aH, 00H, 0dH, 00H, 0aH, 00H, 'O', 00H
	DB	'f', 00H, ' ', 00H, 'c', 00H, 'o', 00H, 'u', 00H, 'r', 00H, 's'
	DB	00H, 'e', 00H, ' ', 00H, 'y', 00H, 'o', 00H, 'u', 00H, ' ', 00H
	DB	'c', 00H, 'a', 00H, 'n', 00H, ' ', 00H, 'a', 00H, 'l', 00H, 'w'
	DB	00H, 'a', 00H, 'y', 00H, 's', 00H, ' ', 00H, 'j', 00H, 'u', 00H
	DB	's', 00H, 't', 00H, ' ', 00H, 'i', 00H, 'g', 00H, 'n', 00H, 'o'
	DB	00H, 'r', 00H, 'e', 00H, ' ', 00H, 't', 00H, 'h', 00H, 'i', 00H
	DB	's', 00H, ' ', 00H, 'm', 00H, 'e', 00H, 's', 00H, 's', 00H, 'a'
	DB	00H, 'g', 00H, 'e', 00H, ' ', 00H, 'i', 00H, 'f', 00H, ' ', 00H
	DB	'y', 00H, 'o', 00H, 'u', 00H, ' ', 00H, 'w', 00H, 'a', 00H, 'n'
	DB	00H, 't', 00H, ',', 00H, ' ', 00H, 'b', 00H, 'u', 00H, 't', 00H
	DB	' ', 00H, 'i', 00H, 't', 00H, ' ', 00H, 'm', 00H, 'a', 00H, 'y'
	DB	00H, ' ', 00H, 'p', 00H, 'r', 00H, 'e', 00H, 'v', 00H, 'e', 00H
	DB	'n', 00H, 't', 00H, ' ', 00H, 'y', 00H, 'o', 00H, 'u', 00H, ' '
	DB	00H, 'f', 00H, 'r', 00H, 'o', 00H, 'm', 00H, ' ', 00H, 'b', 00H
	DB	'e', 00H, 'i', 00H, 'n', 00H, 'g', 00H, ' ', 00H, 'a', 00H, 'b'
	DB	00H, 'l', 00H, 'e', 00H, ' ', 00H, 't', 00H, 'o', 00H, ' ', 00H
	DB	's', 00H, 't', 00H, 'r', 00H, 'e', 00H, 'a', 00H, 'm', 00H, ' '
	DB	00H, 'c', 00H, 'e', 00H, 'r', 00H, 't', 00H, 'a', 00H, 'i', 00H
	DB	'n', 00H, ' ', 00H, 't', 00H, 'h', 00H, 'i', 00H, 'n', 00H, 'g'
	DB	00H, 's', 00H, '.', 00H, ' ', 00H, 'P', 00H, 'l', 00H, 'e', 00H
	DB	'a', 00H, 's', 00H, 'e', 00H, ' ', 00H, 'd', 00H, 'o', 00H, ' '
	DB	00H, 'n', 00H, 'o', 00H, 't', 00H, ' ', 00H, 'r', 00H, 'e', 00H
	DB	'p', 00H, 'o', 00H, 'r', 00H, 't', 00H, ' ', 00H, 'a', 00H, 'n'
	DB	00H, 'y', 00H, ' ', 00H, 'b', 00H, 'u', 00H, 'g', 00H, 's', 00H
	DB	' ', 00H, 'y', 00H, 'o', 00H, 'u', 00H, ' ', 00H, 'm', 00H, 'a'
	DB	00H, 'y', 00H, ' ', 00H, 'e', 00H, 'n', 00H, 'c', 00H, 'o', 00H
	DB	'u', 00H, 'n', 00H, 't', 00H, 'e', 00H, 'r', 00H, ' ', 00H, 'i'
	DB	00H, 'f', 00H, ' ', 00H, 'y', 00H, 'o', 00H, 'u', 00H, ' ', 00H
	DB	'l', 00H, 'e', 00H, 'a', 00H, 'v', 00H, 'e', 00H, ' ', 00H, 'S'
	DB	00H, 'e', 00H, 'c', 00H, 'u', 00H, 'r', 00H, 'e', 00H, 'a', 00H
	DB	'n', 00H, 'y', 00H, 'w', 00H, 'h', 00H, 'e', 00H, 'r', 00H, 'e'
	DB	00H, ' ', 00H, 'e', 00H, 'n', 00H, 'a', 00H, 'b', 00H, 'l', 00H
	DB	'e', 00H, 'd', 00H, '.', 00H, 00H, 00H
$SG4294800571 DB 'S', 00H, 'h', 00H, 'o', 00H, 'w', 00H, 'W', 00H, 'e', 00H
	DB	'b', 00H, 'r', 00H, 'o', 00H, 'o', 00H, 't', 00H, 'W', 00H, 'a'
	DB	00H, 'r', 00H, 'n', 00H, 'i', 00H, 'n', 00H, 'g', 00H, 00H, 00H
	ORG $+2
$SG4294800570 DB 'G', 00H, 'e', 00H, 'n', 00H, 'e', 00H, 'r', 00H, 'a', 00H
	DB	'l', 00H, 00H, 00H
$SG4294800565 DB 'A', 00H, 'l', 00H, 'w', 00H, 'a', 00H, 'y', 00H, 's', 00H
	DB	'O', 00H, 'n', 00H, 'T', 00H, 'o', 00H, 'p', 00H, 00H, 00H
$SG4294800564 DB 'G', 00H, 'e', 00H, 'n', 00H, 'e', 00H, 'r', 00H, 'a', 00H
	DB	'l', 00H, 00H, 00H
$SG4294800567 DB '1', 00H, 't', 00H, 'o', 00H, '1', 00H, 'P', 00H, 'r', 00H
	DB	'e', 00H, 'v', 00H, 'i', 00H, 'e', 00H, 'w', 00H, 00H, 00H
$SG4294800566 DB 'G', 00H, 'e', 00H, 'n', 00H, 'e', 00H, 'r', 00H, 'a', 00H
	DB	'l', 00H, 00H, 00H
$SG4294800561 DB 'UnloadPlugin', 00H
	ORG $+3
$SG4294800563 DB 'S', 00H, 'h', 00H, 'o', 00H, 'w', 00H, 'L', 00H, 'o', 00H
	DB	'g', 00H, 'W', 00H, 'i', 00H, 'n', 00H, 'd', 00H, 'o', 00H, 'w'
	DB	00H, 'O', 00H, 'n', 00H, 'L', 00H, 'a', 00H, 'u', 00H, 'n', 00H
	DB	'c', 00H, 'h', 00H, 00H, 00H
$SG4294800562 DB 'G', 00H, 'e', 00H, 'n', 00H, 'e', 00H, 'r', 00H, 'a', 00H
	DB	'l', 00H, 00H, 00H
$SG4294800557 DB 'G', 00H, 'e', 00H, 'n', 00H, 'e', 00H, 'r', 00H, 'a', 00H
	DB	'l', 00H, 00H, 00H
$SG4294800556 DB 'P', 00H, 'o', 00H, 's', 00H, 'Y', 00H, 00H, 00H
	ORG $+2
$SG4294800559 DB 'G', 00H, 'e', 00H, 'n', 00H, 'e', 00H, 'r', 00H, 'a', 00H
	DB	'l', 00H, 00H, 00H
$SG4294800558 DB 'P', 00H, 'o', 00H, 's', 00H, 'X', 00H, 00H, 00H
	ORG $+2
$SG4294800553 DB 'G', 00H, 'e', 00H, 'n', 00H, 'e', 00H, 'r', 00H, 'a', 00H
	DB	'l', 00H, 00H, 00H
$SG4294800552 DB 'H', 00H, 'e', 00H, 'i', 00H, 'g', 00H, 'h', 00H, 't', 00H
	DB	00H, 00H
	ORG $+2
$SG4294800555 DB 'G', 00H, 'e', 00H, 'n', 00H, 'e', 00H, 'r', 00H, 'a', 00H
	DB	'l', 00H, 00H, 00H
$SG4294800554 DB 'W', 00H, 'i', 00H, 'd', 00H, 't', 00H, 'h', 00H, 00H, 00H
$SG4294800549 DB 'G', 00H, 'e', 00H, 'n', 00H, 'e', 00H, 'r', 00H, 'a', 00H
	DB	'l', 00H, 00H, 00H
$SG4294800548 DB 'L', 00H, 'o', 00H, 'g', 00H, 'P', 00H, 'o', 00H, 's', 00H
	DB	'X', 00H, 00H, 00H
$SG4294800551 DB 'G', 00H, 'e', 00H, 'n', 00H, 'e', 00H, 'r', 00H, 'a', 00H
	DB	'l', 00H, 00H, 00H
$SG4294800550 DB 'M', 00H, 'a', 00H, 'x', 00H, 'i', 00H, 'm', 00H, 'i', 00H
	DB	'z', 00H, 'e', 00H, 'd', 00H, 00H, 00H
$SG4294800545 DB 'G', 00H, 'e', 00H, 'n', 00H, 'e', 00H, 'r', 00H, 'a', 00H
	DB	'l', 00H, 00H, 00H
$SG4294800544 DB 'L', 00H, 'o', 00H, 'g', 00H, 'S', 00H, 'i', 00H, 'z', 00H
	DB	'e', 00H, 'X', 00H, 00H, 00H
	ORG $+2
$SG4294800547 DB 'G', 00H, 'e', 00H, 'n', 00H, 'e', 00H, 'r', 00H, 'a', 00H
	DB	'l', 00H, 00H, 00H
$SG4294800546 DB 'L', 00H, 'o', 00H, 'g', 00H, 'P', 00H, 'o', 00H, 's', 00H
	DB	'Y', 00H, 00H, 00H
$SG4294800541 DB 'G', 00H, 'e', 00H, 'n', 00H, 'e', 00H, 'r', 00H, 'a', 00H
	DB	'l', 00H, 00H, 00H
$SG4294800540 DB '1', 00H, 't', 00H, 'o', 00H, '1', 00H, 'P', 00H, 'r', 00H
	DB	'e', 00H, 'v', 00H, 'i', 00H, 'e', 00H, 'w', 00H, 00H, 00H
$SG4294800543 DB 'G', 00H, 'e', 00H, 'n', 00H, 'e', 00H, 'r', 00H, 'a', 00H
	DB	'l', 00H, 00H, 00H
$SG4294800542 DB 'L', 00H, 'o', 00H, 'g', 00H, 'S', 00H, 'i', 00H, 'z', 00H
	DB	'e', 00H, 'Y', 00H, 00H, 00H
	ORG $+2
$SG4294800537 DB 'G', 00H, 'e', 00H, 'n', 00H, 'e', 00H, 'r', 00H, 'a', 00H
	DB	'l', 00H, 00H, 00H
$SG4294800536 DB 'P', 00H, 'a', 00H, 'n', 00H, 'e', 00H, 'l', 00H, 'V', 00H
	DB	'i', 00H, 's', 00H, 'i', 00H, 'b', 00H, 'l', 00H, 'e', 00H, 'W'
	DB	00H, 'i', 00H, 'n', 00H, 'd', 00H, 'o', 00H, 'w', 00H, 'e', 00H
	DB	'd', 00H, 00H, 00H
	ORG $+2
$SG4294800539 DB 'G', 00H, 'e', 00H, 'n', 00H, 'e', 00H, 'r', 00H, 'a', 00H
	DB	'l', 00H, 00H, 00H
$SG4294800538 DB 'A', 00H, 'l', 00H, 'w', 00H, 'a', 00H, 'y', 00H, 's', 00H
	DB	'O', 00H, 'n', 00H, 'T', 00H, 'o', 00H, 'p', 00H, 00H, 00H
$SG4294800533 DB 'G', 00H, 'e', 00H, 'n', 00H, 'e', 00H, 'r', 00H, 'a', 00H
	DB	'l', 00H, 00H, 00H
$SG4294800532 DB 'P', 00H, 'r', 00H, 'e', 00H, 'v', 00H, 'i', 00H, 'e', 00H
	DB	'w', 00H, 'E', 00H, 'n', 00H, 'a', 00H, 'b', 00H, 'l', 00H, 'e'
	DB	00H, 'd', 00H, 00H, 00H
	ORG $+2
$SG4294800535 DB 'G', 00H, 'e', 00H, 'n', 00H, 'e', 00H, 'r', 00H, 'a', 00H
	DB	'l', 00H, 00H, 00H
$SG4294800534 DB 'P', 00H, 'a', 00H, 'n', 00H, 'e', 00H, 'l', 00H, 'V', 00H
	DB	'i', 00H, 's', 00H, 'i', 00H, 'b', 00H, 'l', 00H, 'e', 00H, 'F'
	DB	00H, 'u', 00H, 'l', 00H, 'l', 00H, 's', 00H, 'c', 00H, 'r', 00H
	DB	'e', 00H, 'e', 00H, 'n', 00H, 00H, 00H
	ORG $+2
$SG4294800529 DB 'M', 00H, 'o', 00H, 'n', 00H, 'i', 00H, 't', 00H, 'o', 00H
	DB	'r', 00H, 00H, 00H
$SG4294800528 DB 'V', 00H, 'i', 00H, 'd', 00H, 'e', 00H, 'o', 00H, 00H, 00H
$SG4294800531 DB 'G', 00H, 'e', 00H, 'n', 00H, 'e', 00H, 'r', 00H, 'a', 00H
	DB	'l', 00H, 00H, 00H
$SG4294800530 DB '\scenes.xconfig', 00H
$SG4294800525 DB 'B', 00H, 'a', 00H, 's', 00H, 'e', 00H, 'W', 00H, 'i', 00H
	DB	'd', 00H, 't', 00H, 'h', 00H, 00H, 00H
$SG4294800524 DB 'V', 00H, 'i', 00H, 'd', 00H, 'e', 00H, 'o', 00H, 00H, 00H
$SG4294800527 DB 'D', 00H, 'o', 00H, 'w', 00H, 'n', 00H, 's', 00H, 'c', 00H
	DB	'a', 00H, 'l', 00H, 'e', 00H, 00H, 00H
$SG4294800526 DB 'V', 00H, 'i', 00H, 'd', 00H, 'e', 00H, 'o', 00H, 00H, 00H
$SG4294800521 DB 'M', 00H, 'o', 00H, 'n', 00H, 'i', 00H, 't', 00H, 'o', 00H
	DB	'r', 00H, 00H, 00H
$SG4294800520 DB 'V', 00H, 'i', 00H, 'd', 00H, 'e', 00H, 'o', 00H, 00H, 00H
$SG4294800523 DB 'B', 00H, 'a', 00H, 's', 00H, 'e', 00H, 'H', 00H, 'e', 00H
	DB	'i', 00H, 'g', 00H, 'h', 00H, 't', 00H, 00H, 00H
	ORG $+2
$SG4294800522 DB 'V', 00H, 'i', 00H, 'd', 00H, 'e', 00H, 'o', 00H, 00H, 00H
$SG4294800517 DB 'B', 00H, 'a', 00H, 's', 00H, 'e', 00H, 'H', 00H, 'e', 00H
	DB	'i', 00H, 'g', 00H, 'h', 00H, 't', 00H, 00H, 00H
	ORG $+2
$SG4294800516 DB 'V', 00H, 'i', 00H, 'd', 00H, 'e', 00H, 'o', 00H, 00H, 00H
$SG4294800519 DB 'B', 00H, 'a', 00H, 's', 00H, 'e', 00H, 'W', 00H, 'i', 00H
	DB	'd', 00H, 't', 00H, 'h', 00H, 00H, 00H
$SG4294800518 DB 'V', 00H, 'i', 00H, 'd', 00H, 'e', 00H, 'o', 00H, 00H, 00H
$SG4294800513 DB '%', 00H, 's', 00H, '%', 00H, 's', 00H, '.', 00H, 'i', 00H
	DB	'n', 00H, 'i', 00H, 00H, 00H
	ORG $+2
$SG4294800512 DB '%', 00H, 's', 00H, '/', 00H, 's', 00H, 'c', 00H, 'e', 00H
	DB	'n', 00H, 'e', 00H, 'C', 00H, 'o', 00H, 'l', 00H, 'l', 00H, 'e'
	DB	00H, 'c', 00H, 't', 00H, 'i', 00H, 'o', 00H, 'n', 00H, '/', 00H
	DB	00H, 00H
$SG4294800515 DB '%', 00H, 's', 00H, '/', 00H, 'p', 00H, 'r', 00H, 'o', 00H
	DB	'f', 00H, 'i', 00H, 'l', 00H, 'e', 00H, 's', 00H, '/', 00H, 00H
	DB	00H
	ORG $+2
$SG4294800514 DB '*.ini', 00H
	ORG $+2
$SG4294800509 DB 'M', 00H, 'o', 00H, 'd', 00H, 'e', 00H, 00H, 00H
	ORG $+2
$SG4294800508 DB 'P', 00H, 'u', 00H, 'b', 00H, 'l', 00H, 'i', 00H, 's', 00H
	DB	'h', 00H, 00H, 00H
$SG4294800511 DB '*.xconfig', 00H
	ORG $+2
$SG4294800510 DB '%', 00H, 's', 00H, '%', 00H, 's', 00H, '.', 00H, 'x', 00H
	DB	'c', 00H, 'o', 00H, 'n', 00H, 'f', 00H, 'i', 00H, 'g', 00H, 00H
	DB	00H
	ORG $+2
$SG4294800505 DB 'M', 00H, 'a', 00H, 'i', 00H, 'n', 00H, 'W', 00H, 'i', 00H
	DB	'n', 00H, 'd', 00H, 'o', 00H, 'w', 00H, '.', 00H, 'S', 00H, 't'
	DB	00H, 'o', 00H, 'p', 00H, 'R', 00H, 'e', 00H, 'c', 00H, 'o', 00H
	DB	'r', 00H, 'd', 00H, 'i', 00H, 'n', 00H, 'g', 00H, 00H, 00H
	ORG $+2
$SG4294800504 DB 'M', 00H, 'a', 00H, 'i', 00H, 'n', 00H, 'W', 00H, 'i', 00H
	DB	'n', 00H, 'd', 00H, 'o', 00H, 'w', 00H, '.', 00H, 'S', 00H, 't'
	DB	00H, 'a', 00H, 'r', 00H, 't', 00H, 'R', 00H, 'e', 00H, 'c', 00H
	DB	'o', 00H, 'r', 00H, 'd', 00H, 'i', 00H, 'n', 00H, 'g', 00H, 00H
	DB	00H
$SG4294800507 DB 'M', 00H, 'a', 00H, 'i', 00H, 'n', 00H, 'W', 00H, 'i', 00H
	DB	'n', 00H, 'd', 00H, 'o', 00H, 'w', 00H, '.', 00H, 'S', 00H, 't'
	DB	00H, 'o', 00H, 'p', 00H, 'S', 00H, 't', 00H, 'r', 00H, 'e', 00H
	DB	'a', 00H, 'm', 00H, 00H, 00H
$SG4294800506 DB 'M', 00H, 'a', 00H, 'i', 00H, 'n', 00H, 'W', 00H, 'i', 00H
	DB	'n', 00H, 'd', 00H, 'o', 00H, 'w', 00H, '.', 00H, 'S', 00H, 't'
	DB	00H, 'a', 00H, 'r', 00H, 't', 00H, 'S', 00H, 't', 00H, 'r', 00H
	DB	'e', 00H, 'a', 00H, 'm', 00H, 00H, 00H
	ORG $+2
$SG4294800501 DB '%', 00H, 's', 00H, '\', 00H, 's', 00H, 'c', 00H, 'e', 00H
	DB	'n', 00H, 'e', 00H, 'C', 00H, 'o', 00H, 'l', 00H, 'l', 00H, 'e'
	DB	00H, 'c', 00H, 't', 00H, 'i', 00H, 'o', 00H, 'n', 00H, '\', 00H
	DB	'%', 00H, 's', 00H, '.', 00H, 'x', 00H, 'c', 00H, 'o', 00H, 'n'
	DB	00H, 'f', 00H, 'i', 00H, 'g', 00H, 00H, 00H
$SG4294800500 DB 'C', 00H, 'o', 00H, 'u', 00H, 'l', 00H, 'd', 00H, ' ', 00H
	DB	'n', 00H, 'o', 00H, 't', 00H, ' ', 00H, 'o', 00H, 'p', 00H, 'e'
	DB	00H, 'n', 00H, ' ', 00H, '''', 00H, '%', 00H, 's', 00H, '''', 00H
	DB	00H, 00H
$SG4294800503 DB 'M', 00H, 'a', 00H, 'i', 00H, 'n', 00H, 'W', 00H, 'i', 00H
	DB	'n', 00H, 'd', 00H, 'o', 00H, 'w', 00H, '.', 00H, 'S', 00H, 't'
	DB	00H, 'o', 00H, 'p', 00H, 'T', 00H, 'e', 00H, 's', 00H, 't', 00H
	DB	00H, 00H
$SG4294800502 DB 'M', 00H, 'a', 00H, 'i', 00H, 'n', 00H, 'W', 00H, 'i', 00H
	DB	'n', 00H, 'd', 00H, 'o', 00H, 'w', 00H, '.', 00H, 'T', 00H, 'e'
	DB	00H, 's', 00H, 't', 00H, 'S', 00H, 't', 00H, 'r', 00H, 'e', 00H
	DB	'a', 00H, 'm', 00H, 00H, 00H
$SG4294800497 DB 'S', 00H, 'c', 00H, 'e', 00H, 'n', 00H, 'e', 00H, 00H, 00H
$SG4294800496 DB 'S', 00H, 'c', 00H, 'e', 00H, 'n', 00H, 'e', 00H, 00H, 00H
$SG4294800499 DB 's', 00H, 'c', 00H, 'e', 00H, 'n', 00H, 'e', 00H, 's', 00H
	DB	00H, 00H
	ORG $+2
$SG4294800498 DB 's', 00H, 'c', 00H, 'e', 00H, 'n', 00H, 'e', 00H, 's', 00H
	DB	00H, 00H
	ORG $+2
$SG4294800493 DB 'G', 00H, 'e', 00H, 'n', 00H, 'e', 00H, 'r', 00H, 'a', 00H
	DB	'l', 00H, 00H, 00H
$SG4294800492 DB 'h', 00H, 'o', 00H, 't', 00H, 'k', 00H, 'e', 00H, 'y', 00H
	DB	00H, 00H
	ORG $+2
$SG4294800495 DB 'c', 00H, 'l', 00H, 'a', 00H, 's', 00H, 's', 00H, 00H, 00H
$SG4294800494 DB 'C', 00H, 'u', 00H, 'r', 00H, 'r', 00H, 'e', 00H, 'n', 00H
	DB	't', 00H, 'S', 00H, 'c', 00H, 'e', 00H, 'n', 00H, 'e', 00H, 00H
	DB	00H
	ORG $+2
$SG4294800489 DB 'M', 00H, 'i', 00H, 'c', 00H, 'V', 00H, 'o', 00H, 'l', 00H
	DB	'u', 00H, 'm', 00H, 'e', 00H, 00H, 00H
$SG4294800488 DB 'A', 00H, 'u', 00H, 'd', 00H, 'i', 00H, 'o', 00H, 00H, 00H
$SG4294800491 DB 'M', 00H, 'i', 00H, 'c', 00H, 'V', 00H, 'o', 00H, 'l', 00H
	DB	'u', 00H, 'm', 00H, 'e', 00H, 00H, 00H
$SG4294800490 DB 'A', 00H, 'u', 00H, 'd', 00H, 'i', 00H, 'o', 00H, 00H, 00H
$SG4294800485 DB 'M', 00H, 'i', 00H, 'c', 00H, 'M', 00H, 'u', 00H, 't', 00H
	DB	'e', 00H, 'd', 00H, 'V', 00H, 'o', 00H, 'l', 00H, 'u', 00H, 'm'
	DB	00H, 'e', 00H, 00H, 00H
	ORG $+2
$SG4294800484 DB 'A', 00H, 'u', 00H, 'd', 00H, 'i', 00H, 'o', 00H, 00H, 00H
$SG4294800487 DB 'M', 00H, 'i', 00H, 'c', 00H, 'V', 00H, 'o', 00H, 'l', 00H
	DB	'u', 00H, 'm', 00H, 'e', 00H, 00H, 00H
$SG4294800486 DB 'A', 00H, 'u', 00H, 'd', 00H, 'i', 00H, 'o', 00H, 00H, 00H
$SG4294800481 DB 'D', 00H, 'i', 00H, 's', 00H, 'a', 00H, 'b', 00H, 'l', 00H
	DB	'e', 00H, 00H, 00H
$SG4294800480 DB 'D', 00H, 'e', 00H, 'v', 00H, 'i', 00H, 'c', 00H, 'e', 00H
	DB	00H, 00H
	ORG $+2
$SG4294800483 DB 'D', 00H, 'e', 00H, 'v', 00H, 'i', 00H, 'c', 00H, 'e', 00H
	DB	00H, 00H
	ORG $+2
$SG4294800482 DB 'A', 00H, 'u', 00H, 'd', 00H, 'i', 00H, 'o', 00H, 00H, 00H
$SG4294800477 DB 'D', 00H, 'i', 00H, 's', 00H, 'a', 00H, 'b', 00H, 'l', 00H
	DB	'e', 00H, 00H, 00H
$SG4294800476 DB 'D', 00H, 'e', 00H, 's', 00H, 'k', 00H, 't', 00H, 'o', 00H
	DB	'p', 00H, 'V', 00H, 'o', 00H, 'l', 00H, 'u', 00H, 'm', 00H, 'e'
	DB	00H, 00H, 00H
$SG4294800479 DB 'A', 00H, 'u', 00H, 'd', 00H, 'i', 00H, 'o', 00H, 00H, 00H
$SG4294800478 DB 'D', 00H, 'i', 00H, 's', 00H, 'a', 00H, 'b', 00H, 'l', 00H
	DB	'e', 00H, 00H, 00H
$SG4294800473 DB 'A', 00H, 'u', 00H, 'd', 00H, 'i', 00H, 'o', 00H, 00H, 00H
$SG4294800472 DB 'D', 00H, 'e', 00H, 's', 00H, 'k', 00H, 't', 00H, 'o', 00H
	DB	'p', 00H, 'V', 00H, 'o', 00H, 'l', 00H, 'u', 00H, 'm', 00H, 'e'
	DB	00H, 00H, 00H
$SG4294800475 DB 'A', 00H, 'u', 00H, 'd', 00H, 'i', 00H, 'o', 00H, 00H, 00H
$SG4294800474 DB 'D', 00H, 'e', 00H, 's', 00H, 'k', 00H, 't', 00H, 'o', 00H
	DB	'p', 00H, 'V', 00H, 'o', 00H, 'l', 00H, 'u', 00H, 'm', 00H, 'e'
	DB	00H, 00H, 00H
$SG4294800469 DB 'A', 00H, 'u', 00H, 'd', 00H, 'i', 00H, 'o', 00H, 00H, 00H
$SG4294800468 DB 'D', 00H, 'e', 00H, 's', 00H, 'k', 00H, 't', 00H, 'o', 00H
	DB	'p', 00H, 'B', 00H, 'o', 00H, 'o', 00H, 's', 00H, 't', 00H, 'M'
	DB	00H, 'u', 00H, 'l', 00H, 't', 00H, 'i', 00H, 'p', 00H, 'l', 00H
	DB	'e', 00H, 00H, 00H
	ORG $+2
$SG4294800471 DB 'A', 00H, 'u', 00H, 'd', 00H, 'i', 00H, 'o', 00H, 00H, 00H
$SG4294800470 DB 'D', 00H, 'e', 00H, 's', 00H, 'k', 00H, 't', 00H, 'o', 00H
	DB	'p', 00H, 'M', 00H, 'u', 00H, 't', 00H, 'e', 00H, 'd', 00H, 'V'
	DB	00H, 'o', 00H, 'l', 00H, 'u', 00H, 'm', 00H, 'e', 00H, 00H, 00H
	ORG $+2
$SG4294800465 DB 'A', 00H, 'u', 00H, 'd', 00H, 'i', 00H, 'o', 00H, 00H, 00H
$SG4294800464 DB 'U', 00H, 's', 00H, 'e', 00H, 'P', 00H, 'u', 00H, 's', 00H
	DB	'h', 00H, 'T', 00H, 'o', 00H, 'T', 00H, 'a', 00H, 'l', 00H, 'k'
	DB	00H, 00H, 00H
$SG4294800467 DB 'A', 00H, 'u', 00H, 'd', 00H, 'i', 00H, 'o', 00H, 00H, 00H
$SG4294800466 DB 'M', 00H, 'i', 00H, 'c', 00H, 'B', 00H, 'o', 00H, 'o', 00H
	DB	's', 00H, 't', 00H, 'M', 00H, 'u', 00H, 'l', 00H, 't', 00H, 'i'
	DB	00H, 'p', 00H, 'l', 00H, 'e', 00H, 00H, 00H
	ORG $+2
$SG4294800461 DB 'A', 00H, 'u', 00H, 'd', 00H, 'i', 00H, 'o', 00H, 00H, 00H
$SG4294800460 DB 'P', 00H, 'u', 00H, 's', 00H, 'h', 00H, 'T', 00H, 'o', 00H
	DB	'T', 00H, 'a', 00H, 'l', 00H, 'k', 00H, 'H', 00H, 'o', 00H, 't'
	DB	00H, 'k', 00H, 'e', 00H, 'y', 00H, '2', 00H, 00H, 00H
$SG4294800463 DB 'A', 00H, 'u', 00H, 'd', 00H, 'i', 00H, 'o', 00H, 00H, 00H
$SG4294800462 DB 'P', 00H, 'u', 00H, 's', 00H, 'h', 00H, 'T', 00H, 'o', 00H
	DB	'T', 00H, 'a', 00H, 'l', 00H, 'k', 00H, 'H', 00H, 'o', 00H, 't'
	DB	00H, 'k', 00H, 'e', 00H, 'y', 00H, 00H, 00H
	ORG $+2
$SG4294800457 DB 'A', 00H, 'u', 00H, 'd', 00H, 'i', 00H, 'o', 00H, 00H, 00H
$SG4294800456 DB 'M', 00H, 'u', 00H, 't', 00H, 'e', 00H, 'M', 00H, 'i', 00H
	DB	'c', 00H, 'H', 00H, 'o', 00H, 't', 00H, 'k', 00H, 'e', 00H, 'y'
	DB	00H, 00H, 00H
$SG4294800459 DB 'A', 00H, 'u', 00H, 'd', 00H, 'i', 00H, 'o', 00H, 00H, 00H
$SG4294800458 DB 'P', 00H, 'u', 00H, 's', 00H, 'h', 00H, 'T', 00H, 'o', 00H
	DB	'T', 00H, 'a', 00H, 'l', 00H, 'k', 00H, 'D', 00H, 'e', 00H, 'l'
	DB	00H, 'a', 00H, 'y', 00H, 00H, 00H
$SG4294800453 DB 'A', 00H, 'u', 00H, 'd', 00H, 'i', 00H, 'o', 00H, 00H, 00H
$SG4294800452 DB 'S', 00H, 't', 00H, 'o', 00H, 'p', 00H, 'S', 00H, 't', 00H
	DB	'r', 00H, 'e', 00H, 'a', 00H, 'm', 00H, 'H', 00H, 'o', 00H, 't'
	DB	00H, 'k', 00H, 'e', 00H, 'y', 00H, 00H, 00H
	ORG $+2
$SG4294800455 DB 'A', 00H, 'u', 00H, 'd', 00H, 'i', 00H, 'o', 00H, 00H, 00H
$SG4294800454 DB 'M', 00H, 'u', 00H, 't', 00H, 'e', 00H, 'D', 00H, 'e', 00H
	DB	's', 00H, 'k', 00H, 't', 00H, 'o', 00H, 'p', 00H, 'H', 00H, 'o'
	DB	00H, 't', 00H, 'k', 00H, 'e', 00H, 'y', 00H, 00H, 00H
$SG4294800449 DB 'P', 00H, 'u', 00H, 'b', 00H, 'l', 00H, 'i', 00H, 's', 00H
	DB	'h', 00H, 00H, 00H
$SG4294800448 DB 'S', 00H, 't', 00H, 'o', 00H, 'p', 00H, 'R', 00H, 'e', 00H
	DB	'c', 00H, 'o', 00H, 'r', 00H, 'd', 00H, 'i', 00H, 'n', 00H, 'g'
	DB	00H, 'H', 00H, 'o', 00H, 't', 00H, 'k', 00H, 'e', 00H, 'y', 00H
	DB	00H, 00H
$SG4294800451 DB 'P', 00H, 'u', 00H, 'b', 00H, 'l', 00H, 'i', 00H, 's', 00H
	DB	'h', 00H, 00H, 00H
$SG4294800450 DB 'S', 00H, 't', 00H, 'a', 00H, 'r', 00H, 't', 00H, 'S', 00H
	DB	't', 00H, 'r', 00H, 'e', 00H, 'a', 00H, 'm', 00H, 'H', 00H, 'o'
	DB	00H, 't', 00H, 'k', 00H, 'e', 00H, 'y', 00H, 00H, 00H
$SG4294800445 DB 'P', 00H, 'u', 00H, 'b', 00H, 'l', 00H, 'i', 00H, 's', 00H
	DB	'h', 00H, 00H, 00H
$SG4294800444 DB 'S', 00H, 't', 00H, 'o', 00H, 'p', 00H, 'R', 00H, 'e', 00H
	DB	'p', 00H, 'l', 00H, 'a', 00H, 'y', 00H, 'B', 00H, 'u', 00H, 'f'
	DB	00H, 'f', 00H, 'e', 00H, 'r', 00H, 'H', 00H, 'o', 00H, 't', 00H
	DB	'k', 00H, 'e', 00H, 'y', 00H, 00H, 00H
	ORG $+2
$SG4294800447 DB 'P', 00H, 'u', 00H, 'b', 00H, 'l', 00H, 'i', 00H, 's', 00H
	DB	'h', 00H, 00H, 00H
$SG4294800446 DB 'S', 00H, 't', 00H, 'a', 00H, 'r', 00H, 't', 00H, 'R', 00H
	DB	'e', 00H, 'c', 00H, 'o', 00H, 'r', 00H, 'd', 00H, 'i', 00H, 'n'
	DB	00H, 'g', 00H, 'H', 00H, 'o', 00H, 't', 00H, 'k', 00H, 'e', 00H
	DB	'y', 00H, 00H, 00H
	ORG $+2
$SG4294800441 DB 'P', 00H, 'u', 00H, 'b', 00H, 'l', 00H, 'i', 00H, 's', 00H
	DB	'h', 00H, 00H, 00H
$SG4294800440 DB 'S', 00H, 'a', 00H, 'v', 00H, 'e', 00H, 'R', 00H, 'e', 00H
	DB	'p', 00H, 'l', 00H, 'a', 00H, 'y', 00H, 'B', 00H, 'u', 00H, 'f'
	DB	00H, 'f', 00H, 'e', 00H, 'r', 00H, 'H', 00H, 'o', 00H, 't', 00H
	DB	'k', 00H, 'e', 00H, 'y', 00H, 00H, 00H
	ORG $+2
$SG4294800443 DB 'P', 00H, 'u', 00H, 'b', 00H, 'l', 00H, 'i', 00H, 's', 00H
	DB	'h', 00H, 00H, 00H
$SG4294800442 DB 'S', 00H, 't', 00H, 'a', 00H, 'r', 00H, 't', 00H, 'R', 00H
	DB	'e', 00H, 'p', 00H, 'l', 00H, 'a', 00H, 'y', 00H, 'B', 00H, 'u'
	DB	00H, 'f', 00H, 'f', 00H, 'e', 00H, 'r', 00H, 'H', 00H, 'o', 00H
	DB	't', 00H, 'k', 00H, 'e', 00H, 'y', 00H, 00H, 00H
$SG4294800437 DB 'P', 00H, 'u', 00H, 'b', 00H, 'l', 00H, 'i', 00H, 's', 00H
	DB	'h', 00H, 00H, 00H
$SG4294800436 DB 'S', 00H, 'h', 00H, 'o', 00H, 'w', 00H, 'N', 00H, 'o', 00H
	DB	't', 00H, 'i', 00H, 'f', 00H, 'i', 00H, 'c', 00H, 'a', 00H, 't'
	DB	00H, 'i', 00H, 'o', 00H, 'n', 00H, 'A', 00H, 'r', 00H, 'e', 00H
	DB	'a', 00H, 'I', 00H, 'c', 00H, 'o', 00H, 'n', 00H, 00H, 00H
	ORG $+2
$SG4294800439 DB 'P', 00H, 'u', 00H, 'b', 00H, 'l', 00H, 'i', 00H, 's', 00H
	DB	'h', 00H, 00H, 00H
$SG4294800438 DB 'R', 00H, 'e', 00H, 'c', 00H, 'o', 00H, 'r', 00H, 'd', 00H
	DB	'F', 00H, 'r', 00H, 'o', 00H, 'm', 00H, 'R', 00H, 'e', 00H, 'p'
	DB	00H, 'l', 00H, 'a', 00H, 'y', 00H, 'B', 00H, 'u', 00H, 'f', 00H
	DB	'f', 00H, 'e', 00H, 'r', 00H, 'H', 00H, 'o', 00H, 't', 00H, 'k'
	DB	00H, 'e', 00H, 'y', 00H, 00H, 00H
	ORG $+2
$SG4294800433 DB 'G', 00H, 'e', 00H, 'n', 00H, 'e', 00H, 'r', 00H, 'a', 00H
	DB	'l', 00H, 00H, 00H
$SG4294800432 DB 'K', 00H, 'e', 00H, 'e', 00H, 'p', 00H, 'R', 00H, 'e', 00H
	DB	'c', 00H, 'o', 00H, 'r', 00H, 'd', 00H, 'i', 00H, 'n', 00H, 'g'
	DB	00H, 00H, 00H
$SG4294800435 DB 'G', 00H, 'e', 00H, 'n', 00H, 'e', 00H, 'r', 00H, 'a', 00H
	DB	'l', 00H, 00H, 00H
$SG4294800434 DB 'M', 00H, 'i', 00H, 'n', 00H, 'i', 00H, 'm', 00H, 'i', 00H
	DB	'z', 00H, 'e', 00H, 'T', 00H, 'o', 00H, 'N', 00H, 'o', 00H, 't'
	DB	00H, 'i', 00H, 'f', 00H, 'i', 00H, 'c', 00H, 'a', 00H, 't', 00H
	DB	'i', 00H, 'o', 00H, 'n', 00H, 'A', 00H, 'r', 00H, 'e', 00H, 'a'
	DB	00H, 00H, 00H
	ORG $+2
$SG4294800429 DB 'V', 00H, 'i', 00H, 'd', 00H, 'e', 00H, 'o', 00H, ' ', 00H
	DB	'E', 00H, 'n', 00H, 'c', 00H, 'o', 00H, 'd', 00H, 'i', 00H, 'n'
	DB	00H, 'g', 00H, 00H, 00H
	ORG $+2
$SG4294800428 DB 'U', 00H, 's', 00H, 'e', 00H, 'N', 00H, 'V', 00H, 'E', 00H
	DB	'N', 00H, 'C', 00H, 00H, 00H
	ORG $+2
$SG4294800431 DB 'P', 00H, 'u', 00H, 'b', 00H, 'l', 00H, 'i', 00H, 's', 00H
	DB	'h', 00H, 00H, 00H
$SG4294800430 DB 'U', 00H, 's', 00H, 'e', 00H, 'Q', 00H, 'S', 00H, 'V', 00H
	DB	00H, 00H
	ORG $+2
$SG4294800425 DB 'N', 00H, 'V', 00H, 'E', 00H, 'N', 00H, 'C', 00H, 00H, 00H
$SG4294800424 DB 'x', 00H, '2', 00H, '6', 00H, '4', 00H, 00H, 00H
	ORG $+2
$SG4294800427 DB 'V', 00H, 'i', 00H, 'd', 00H, 'e', 00H, 'o', 00H, ' ', 00H
	DB	'E', 00H, 'n', 00H, 'c', 00H, 'o', 00H, 'd', 00H, 'i', 00H, 'n'
	DB	00H, 'g', 00H, 00H, 00H
	ORG $+2
$SG4294800426 DB 'Q', 00H, 'S', 00H, 'V', 00H, 00H, 00H
$SG4294800421 DB 'U', 00H, 's', 00H, 'e', 00H, 'Q', 00H, 'S', 00H, 'V', 00H
	DB	00H, 00H
	ORG $+2
$SG4294800420 DB 'V', 00H, 'i', 00H, 'd', 00H, 'e', 00H, 'o', 00H, ' ', 00H
	DB	'E', 00H, 'n', 00H, 'c', 00H, 'o', 00H, 'd', 00H, 'i', 00H, 'n'
	DB	00H, 'g', 00H, 00H, 00H
	ORG $+2
$SG4294800423 DB 'E', 00H, 'n', 00H, 'c', 00H, 'o', 00H, 'd', 00H, 'e', 00H
	DB	'r', 00H, 00H, 00H
$SG4294800422 DB 'V', 00H, 'i', 00H, 'd', 00H, 'e', 00H, 'o', 00H, ' ', 00H
	DB	'E', 00H, 'n', 00H, 'c', 00H, 'o', 00H, 'd', 00H, 'i', 00H, 'n'
	DB	00H, 'g', 00H, 00H, 00H
	ORG $+2
$SG4294800417 DB 'U', 00H, 's', 00H, 'e', 00H, 'C', 00H, 'u', 00H, 's', 00H
	DB	't', 00H, 'o', 00H, 'm', 00H, 'S', 00H, 'e', 00H, 't', 00H, 't'
	DB	00H, 'i', 00H, 'n', 00H, 'g', 00H, 's', 00H, 00H, 00H
$SG4294800416 DB 'V', 00H, 'i', 00H, 'd', 00H, 'e', 00H, 'o', 00H, ' ', 00H
	DB	'E', 00H, 'n', 00H, 'c', 00H, 'o', 00H, 'd', 00H, 'i', 00H, 'n'
	DB	00H, 'g', 00H, 00H, 00H
	ORG $+2
$SG4294800419 DB 'U', 00H, 's', 00H, 'e', 00H, 'N', 00H, 'V', 00H, 'E', 00H
	DB	'N', 00H, 'C', 00H, 00H, 00H
	ORG $+2
$SG4294800418 DB 'V', 00H, 'i', 00H, 'd', 00H, 'e', 00H, 'o', 00H, ' ', 00H
	DB	'E', 00H, 'n', 00H, 'c', 00H, 'o', 00H, 'd', 00H, 'i', 00H, 'n'
	DB	00H, 'g', 00H, 00H, 00H
	ORG $+2
$SG4294800413 DB 'C', 00H, 'u', 00H, 's', 00H, 't', 00H, 'o', 00H, 'm', 00H
	DB	'S', 00H, 'e', 00H, 't', 00H, 't', 00H, 'i', 00H, 'n', 00H, 'g'
	DB	00H, 's', 00H, 00H, 00H
	ORG $+2
$SG4294800412 DB 'V', 00H, 'i', 00H, 'd', 00H, 'e', 00H, 'o', 00H, ' ', 00H
	DB	'E', 00H, 'n', 00H, 'c', 00H, 'o', 00H, 'd', 00H, 'i', 00H, 'n'
	DB	00H, 'g', 00H, 00H, 00H
	ORG $+2
$SG4294800415 DB 'Q', 00H, 'S', 00H, 'V', 00H, 'U', 00H, 's', 00H, 'e', 00H
	DB	'V', 00H, 'i', 00H, 'd', 00H, 'e', 00H, 'o', 00H, 'E', 00H, 'n'
	DB	00H, 'c', 00H, 'o', 00H, 'd', 00H, 'e', 00H, 'r', 00H, 'S', 00H
	DB	'e', 00H, 't', 00H, 't', 00H, 'i', 00H, 'n', 00H, 'g', 00H, 's'
	DB	00H, 00H, 00H
	ORG $+2
$SG4294800414 DB 'V', 00H, 'i', 00H, 'd', 00H, 'e', 00H, 'o', 00H, ' ', 00H
	DB	'E', 00H, 'n', 00H, 'c', 00H, 'o', 00H, 'd', 00H, 'i', 00H, 'n'
	DB	00H, 'g', 00H, 00H, 00H
	ORG $+2
$SG4294800409 DB 'k', 00H, 'b', 00H, '/', 00H, 's', 00H, 00H, 00H
	ORG $+2
$SG4294800408 DB 'M', 00H, 'o', 00H, 'd', 00H, 'e', 00H, 00H, 00H
	ORG $+2
$SG4294800411 DB 'C', 00H, 'u', 00H, 's', 00H, 't', 00H, 'o', 00H, 'm', 00H
	DB	'Q', 00H, 'S', 00H, 'V', 00H, 'S', 00H, 'e', 00H, 't', 00H, 't'
	DB	00H, 'i', 00H, 'n', 00H, 'g', 00H, 's', 00H, 00H, 00H
$SG4294800410 DB 'V', 00H, 'i', 00H, 'd', 00H, 'e', 00H, 'o', 00H, ' ', 00H
	DB	'E', 00H, 'n', 00H, 'c', 00H, 'o', 00H, 'd', 00H, 'i', 00H, 'n'
	DB	00H, 'g', 00H, 00H, 00H
	ORG $+2
$SG4294800405 DB 'L', 00H, 'I', 00H, 'V', 00H, 'E', 00H, 00H, 00H
	ORG $+2
$SG4294800404 DB 'R', 00H, 'E', 00H, 'C', 00H, 00H, 00H
$SG4294800407 DB 'P', 00H, 'u', 00H, 'b', 00H, 'l', 00H, 'i', 00H, 's', 00H
	DB	'h', 00H, 00H, 00H
$SG4294800406 DB '%', 00H, 'u', 00H, ':', 00H, '%', 00H, '0', 00H, '2', 00H
	DB	'u', 00H, ':', 00H, '%', 00H, '0', 00H, '2', 00H, 'u', 00H, 00H
	DB	00H
	ORG $+2
$SG4294800401 DB ' ', 00H, '+', 00H, ' ', 00H, 00H, 00H
$SG4294800400 DB ' ', 00H, '(', 00H, '%', 00H, 's', 00H, ')', 00H, 00H, 00H
$SG4294800403 DB 'B', 00H, 'U', 00H, 'F', 00H, 00H, 00H
$SG4294800402 DB 'P', 00H, 'r', 00H, 'e', 00H, 'v', 00H, 'i', 00H, 'e', 00H
	DB	'w', 00H, 00H, 00H
$SG4294800397 DB 'F', 00H, 'P', 00H, 'S', 00H, ':', 00H, ' ', 00H, 00H, 00H
$SG4294800396 DB 's', 00H, 'o', 00H, 'u', 00H, 'r', 00H, 'c', 00H, 'e', 00H
	DB	's', 00H, 00H, 00H
$SG4294800399 DB 'M', 00H, 'a', 00H, 'i', 00H, 'n', 00H, 'W', 00H, 'i', 00H
	DB	'n', 00H, 'd', 00H, 'o', 00H, 'w', 00H, '.', 00H, 'D', 00H, 'r'
	DB	00H, 'o', 00H, 'p', 00H, 'p', 00H, 'e', 00H, 'd', 00H, 'F', 00H
	DB	'r', 00H, 'a', 00H, 'm', 00H, 'e', 00H, 's', 00H, 00H, 00H
	ORG $+2
$SG4294800398 DB ' ', 00H, '%', 00H, 'u', 00H, ' ', 00H, '(', 00H, '%', 00H
	DB	'0', 00H, '.', 00H, '2', 00H, 'f', 00H, '%', 00H, '%', 00H, ')'
	DB	00H, 00H, 00H
$SG4294800393 DB 's', 00H, 'o', 00H, 'u', 00H, 'r', 00H, 'c', 00H, 'e', 00H
	DB	's', 00H, 00H, 00H
$SG4294800392 DB 'r', 00H, 'e', 00H, 'n', 00H, 'd', 00H, 'e', 00H, 'r', 00H
	DB	00H, 00H
	ORG $+2
$SG4294800395 DB 'r', 00H, 'e', 00H, 'n', 00H, 'd', 00H, 'e', 00H, 'r', 00H
	DB	00H, 00H
	ORG $+2
$SG4294800394 DB 'r', 00H, 'e', 00H, 'n', 00H, 'd', 00H, 'e', 00H, 'r', 00H
	DB	00H, 00H
	ORG $+2
$SG4294800391 DB 00H, 00H
	ORG $+2
$SG4294800389 DB 'U', 00H, 'n', 00H, 'a', 00H, 'b', 00H, 'l', 00H, 'e', 00H
	DB	' ', 00H, 't', 00H, 'o', 00H, ' ', 00H, 'g', 00H, 'e', 00H, 't'
	DB	00H, ' ', 00H, 'p', 00H, 'r', 00H, 'o', 00H, 'j', 00H, 'e', 00H
	DB	'c', 00H, 't', 00H, 'o', 00H, 'r', 00H, ' ', 00H, 'b', 00H, 'a'
	DB	00H, 'c', 00H, 'k', 00H, ' ', 00H, 'b', 00H, 'u', 00H, 'f', 00H
	DB	'f', 00H, 'e', 00H, 'r', 00H, 00H, 00H
$SG4294800388 DB 'U', 00H, 'n', 00H, 'a', 00H, 'b', 00H, 'l', 00H, 'e', 00H
	DB	' ', 00H, 't', 00H, 'o', 00H, ' ', 00H, 'g', 00H, 'e', 00H, 't'
	DB	00H, ' ', 00H, 'r', 00H, 'e', 00H, 'n', 00H, 'd', 00H, 'e', 00H
	DB	'r', 00H, ' ', 00H, 'v', 00H, 'i', 00H, 'e', 00H, 'w', 00H, ' '
	DB	00H, 'f', 00H, 'r', 00H, 'o', 00H, 'm', 00H, ' ', 00H, 'p', 00H
	DB	'r', 00H, 'o', 00H, 'j', 00H, 'e', 00H, 'c', 00H, 't', 00H, 'o'
	DB	00H, 'r', 00H, ' ', 00H, 'b', 00H, 'a', 00H, 'c', 00H, 'k', 00H
	DB	' ', 00H, 'b', 00H, 'u', 00H, 'f', 00H, 'f', 00H, 'e', 00H, 'r'
	DB	00H, 00H, 00H
	ORG $+2
$SG4294800385 DB '//skin//btn_login_close.png', 00H
$SG4294800390 DB 'C', 00H, 'o', 00H, 'u', 00H, 'l', 00H, 'd', 00H, ' ', 00H
	DB	'n', 00H, 'o', 00H, 't', 00H, ' ', 00H, 'c', 00H, 'r', 00H, 'e'
	DB	00H, 'a', 00H, 't', 00H, 'e', 00H, ' ', 00H, 'p', 00H, 'r', 00H
	DB	'o', 00H, 'j', 00H, 'e', 00H, 'c', 00H, 't', 00H, 'o', 00H, 'r'
	DB	00H, ' ', 00H, 's', 00H, 'w', 00H, 'a', 00H, 'p', 00H, ' ', 00H
	DB	'c', 00H, 'h', 00H, 'a', 00H, 'i', 00H, 'n', 00H, 00H, 00H
$SG4294800384 DB 00H, 00H
	ORG $+2
$SG4294800387 DB '//skin//staticbk.png', 00H
	ORG $+3
$SG4294800386 DB 08H, 'gIQ', 0f3H, 'wQ', 07fH, 0dcH, '~', 0d1H, 'y', 080H
	DB	'b', 09H, 'gP', 096H, 'lQ', 0f8H, 'S', 00H, 00H
$SG4294800381 DB '//skin//btn_main_plugin.png', 00H
$SG4294800380 DB 00H, 00H
	ORG $+2
$SG4294800383 DB '//skin//btn_login_min.png', 00H
	ORG $+2
$SG4294800382 DB 00H, 00H
	ORG $+2
$SG4294800377 DB '//skin//btn_main_sysSet.png', 00H
$SG4294800376 DB 0beH, 08bH, 'n', 07fH, 00H, 00H
	ORG $+2
$SG4294800379 DB '//skin//btn_main_video.png', 00H
	ORG $+1
$SG4294800378 DB 00H, 00H
	ORG $+2
$SG4294800373 DB '//skin//btn_bk.png', 00H
	ORG $+1
$SG4294800372 DB 'M', 00H, 'a', 00H, 'i', 00H, 'n', 00H, 'W', 00H, 'i', 00H
	DB	'n', 00H, 'd', 00H, 'o', 00H, 'w', 00H, '.', 00H, 'S', 00H, 't'
	DB	00H, 'a', 00H, 'r', 00H, 't', 00H, 'R', 00H, 'e', 00H, 'c', 00H
	DB	'o', 00H, 'r', 00H, 'd', 00H, 'i', 00H, 'n', 00H, 'g', 00H, 00H
	DB	00H
$SG4294800375 DB '//skin//btn_main_openLive.png', 00H
	ORG $+2
$SG4294800374 DB 'M', 00H, 'a', 00H, 'i', 00H, 'n', 00H, 'W', 00H, 'i', 00H
	DB	'n', 00H, 'd', 00H, 'o', 00H, 'w', 00H, '.', 00H, 'S', 00H, 't'
	DB	00H, 'a', 00H, 'r', 00H, 't', 00H, 'S', 00H, 't', 00H, 'r', 00H
	DB	'e', 00H, 'a', 00H, 'm', 00H, 00H, 00H
	ORG $+2
$SG4294800369 DB 'DeviceCapture', 00H
	ORG $+2
$SG4294800368 DB 's', 00H, 'o', 00H, 'u', 00H, 'r', 00H, 'c', 00H, 'e', 00H
	DB	's', 00H, 00H, 00H
$SG4294800371 DB '//skin//btn_bk.png', 00H
	ORG $+1
$SG4294800370 DB 'M', 00H, 'a', 00H, 'i', 00H, 'n', 00H, 'W', 00H, 'i', 00H
	DB	'n', 00H, 'd', 00H, 'o', 00H, 'w', 00H, '.', 00H, 'T', 00H, 'e'
	DB	00H, 's', 00H, 't', 00H, 'S', 00H, 't', 00H, 'r', 00H, 'e', 00H
	DB	'a', 00H, 'm', 00H, 00H, 00H
$SG4294800365 DB 'D', 00H, 'e', 00H, 'v', 00H, 'i', 00H, 'c', 00H, 'e', 00H
	DB	'C', 00H, 'a', 00H, 'p', 00H, 't', 00H, 'u', 00H, 'r', 00H, 'e'
	DB	00H, 00H, 00H
$SG4294800364 DB 'c', 00H, 'l', 00H, 'a', 00H, 's', 00H, 's', 00H, 00H, 00H
$SG4294800367 DB 's', 00H, 'o', 00H, 'u', 00H, 'r', 00H, 'c', 00H, 'e', 00H
	DB	's', 00H, 00H, 00H
$SG4294800366 DB 'r', 00H, 'e', 00H, 'n', 00H, 'd', 00H, 'e', 00H, 'r', 00H
	DB	00H, 00H
PUBLIC	?get_deleter@?$_Unique_ptr_base@XU?$ThreadTerminator@$0A@@@$00@std@@QAEAAU?$ThreadTerminator@$0A@@@XZ ; std::_Unique_ptr_base<void,ThreadTerminator<0>,1>::get_deleter
PUBLIC	??R?$ThreadTerminator@$0A@@@QBEXPAX@Z		; ThreadTerminator<0>::operator()
PUBLIC	??1?$unique_ptr@XU?$ThreadTerminator@$0A@@@@std@@QAE@XZ ; std::unique_ptr<void,ThreadTerminator<0> >::~unique_ptr<void,ThreadTerminator<0> >
PUBLIC	??1?$pair@$$CBV?$basic_string@_WU?$char_traits@_W@std@@V?$allocator@_W@2@@std@@_N@std@@QAE@XZ ; std::pair<std::basic_string<wchar_t,std::char_traits<wchar_t>,std::allocator<wchar_t> > const ,bool>::~pair<std::basic_string<wchar_t,std::char_traits<wchar_t>,std::allocator<wchar_t> > const ,bool>
PUBLIC	??_G?$unique_ptr@XU?$ThreadTerminator@$0A@@@@std@@QAEPAXI@Z ; std::unique_ptr<void,ThreadTerminator<0> >::`scalar deleting destructor'
PUBLIC	??_G?$pair@$$CBV?$basic_string@_WU?$char_traits@_W@std@@V?$allocator@_W@2@@std@@_N@std@@QAEPAXI@Z ; std::pair<std::basic_string<wchar_t,std::char_traits<wchar_t>,std::allocator<wchar_t> > const ,bool>::`scalar deleting destructor'
PUBLIC	??$construct@PAU?$_Tree_node@U?$pair@$$CBV?$basic_string@_WU?$char_traits@_W@std@@V?$allocator@_W@2@@std@@_N@std@@PAX@std@@AAPAU12@@?$allocator@U?$_Tree_node@U?$pair@$$CBV?$basic_string@_WU?$char_traits@_W@std@@V?$allocator@_W@2@@std@@_N@std@@PAX@std@@@std@@QAEXPAPAU?$_Tree_node@U?$pair@$$CBV?$basic_string@_WU?$char_traits@_W@std@@V?$allocator@_W@2@@std@@_N@std@@PAX@1@AAPAU21@@Z ; std::allocator<std::_Tree_node<std::pair<std::basic_string<wchar_t,std::char_traits<wchar_t>,std::allocator<wchar_t> > const ,bool>,void *> >::construct<std::_Tree_node<std::pair<std::basic_string<wchar_t,std::char_traits<wchar_t>,std::allocator<wchar_t> > const ,bool>,void *> *,std::_Tree_node<std::pair<std::basic_string<wchar_t,std::char_traits<wchar_t>,std::allocator<wchar_t> > const ,bool>,void *> * &>
PUBLIC	??$construct@PAU?$_List_node@V?$unique_ptr@XU?$ThreadTerminator@$0A@@@@std@@PAX@std@@AAPAU12@@?$allocator@U?$_List_node@V?$unique_ptr@XU?$ThreadTerminator@$0A@@@@std@@PAX@std@@@std@@QAEXPAPAU?$_List_node@V?$unique_ptr@XU?$ThreadTerminator@$0A@@@@std@@PAX@1@AAPAU21@@Z ; std::allocator<std::_List_node<std::unique_ptr<void,ThreadTerminator<0> >,void *> >::construct<std::_List_node<std::unique_ptr<void,ThreadTerminator<0> >,void *> *,std::_List_node<std::unique_ptr<void,ThreadTerminator<0> >,void *> * &>
PUBLIC	??$destroy@V?$unique_ptr@XU?$ThreadTerminator@$0A@@@@std@@@?$allocator@U?$_List_node@V?$unique_ptr@XU?$ThreadTerminator@$0A@@@@std@@PAX@std@@@std@@QAEXPAV?$unique_ptr@XU?$ThreadTerminator@$0A@@@@1@@Z ; std::allocator<std::_List_node<std::unique_ptr<void,ThreadTerminator<0> >,void *> >::destroy<std::unique_ptr<void,ThreadTerminator<0> > >
PUBLIC	??$destroy@U?$pair@$$CBV?$basic_string@_WU?$char_traits@_W@std@@V?$allocator@_W@2@@std@@_N@std@@@?$allocator@U?$_Tree_node@U?$pair@$$CBV?$basic_string@_WU?$char_traits@_W@std@@V?$allocator@_W@2@@std@@_N@std@@PAX@std@@@std@@QAEXPAU?$pair@$$CBV?$basic_string@_WU?$char_traits@_W@std@@V?$allocator@_W@2@@std@@_N@1@@Z ; std::allocator<std::_Tree_node<std::pair<std::basic_string<wchar_t,std::char_traits<wchar_t>,std::allocator<wchar_t> > const ,bool>,void *> >::destroy<std::pair<std::basic_string<wchar_t,std::char_traits<wchar_t>,std::allocator<wchar_t> > const ,bool> >
PUBLIC	??$destroy@PAU?$_List_node@V?$unique_ptr@XU?$ThreadTerminator@$0A@@@@std@@PAX@std@@@?$allocator@U?$_List_node@V?$unique_ptr@XU?$ThreadTerminator@$0A@@@@std@@PAX@std@@@std@@QAEXPAPAU?$_List_node@V?$unique_ptr@XU?$ThreadTerminator@$0A@@@@std@@PAX@1@@Z ; std::allocator<std::_List_node<std::unique_ptr<void,ThreadTerminator<0> >,void *> >::destroy<std::_List_node<std::unique_ptr<void,ThreadTerminator<0> >,void *> *>
PUBLIC	??$destroy@PAU?$_Tree_node@U?$pair@$$CBV?$basic_string@_WU?$char_traits@_W@std@@V?$allocator@_W@2@@std@@_N@std@@PAX@std@@@?$allocator@U?$_Tree_node@U?$pair@$$CBV?$basic_string@_WU?$char_traits@_W@std@@V?$allocator@_W@2@@std@@_N@std@@PAX@std@@@std@@QAEXPAPAU?$_Tree_node@U?$pair@$$CBV?$basic_string@_WU?$char_traits@_W@std@@V?$allocator@_W@2@@std@@_N@std@@PAX@1@@Z ; std::allocator<std::_Tree_node<std::pair<std::basic_string<wchar_t,std::char_traits<wchar_t>,std::allocator<wchar_t> > const ,bool>,void *> >::destroy<std::_Tree_node<std::pair<std::basic_string<wchar_t,std::char_traits<wchar_t>,std::allocator<wchar_t> > const ,bool>,void *> *>
PUBLIC	??$construct@PAU?$_Tree_node@U?$pair@$$CBV?$basic_string@_WU?$char_traits@_W@std@@V?$allocator@_W@2@@std@@_N@std@@PAX@std@@AAPAU12@@?$allocator_traits@V?$allocator@U?$_Tree_node@U?$pair@$$CBV?$basic_string@_WU?$char_traits@_W@std@@V?$allocator@_W@2@@std@@_N@std@@PAX@std@@@std@@@std@@SAXAAV?$allocator@U?$_Tree_node@U?$pair@$$CBV?$basic_string@_WU?$char_traits@_W@std@@V?$allocator@_W@2@@std@@_N@std@@PAX@std@@@1@PAPAU?$_Tree_node@U?$pair@$$CBV?$basic_string@_WU?$char_traits@_W@std@@V?$allocator@_W@2@@std@@_N@std@@PAX@1@AAPAU31@@Z ; std::allocator_traits<std::allocator<std::_Tree_node<std::pair<std::basic_string<wchar_t,std::char_traits<wchar_t>,std::allocator<wchar_t> > const ,bool>,void *> > >::construct<std::_Tree_node<std::pair<std::basic_string<wchar_t,std::char_traits<wchar_t>,std::allocator<wchar_t> > const ,bool>,void *> *,std::_Tree_node<std::pair<std::basic_string<wchar_t,std::char_traits<wchar_t>,std::allocator<wchar_t> > const ,bool>,void *> * &>
PUBLIC	??$forward@AAPAU?$_Tree_node@U?$pair@$$CBV?$basic_string@_WU?$char_traits@_W@std@@V?$allocator@_W@2@@std@@_N@std@@PAX@std@@@std@@YAAAPAU?$_Tree_node@U?$pair@$$CBV?$basic_string@_WU?$char_traits@_W@std@@V?$allocator@_W@2@@std@@_N@std@@PAX@0@AAPAU10@@Z ; std::forward<std::_Tree_node<std::pair<std::basic_string<wchar_t,std::char_traits<wchar_t>,std::allocator<wchar_t> > const ,bool>,void *> * &>
PUBLIC	??$construct@PAU?$_List_node@V?$unique_ptr@XU?$ThreadTerminator@$0A@@@@std@@PAX@std@@AAPAU12@@?$allocator_traits@V?$allocator@U?$_List_node@V?$unique_ptr@XU?$ThreadTerminator@$0A@@@@std@@PAX@std@@@std@@@std@@SAXAAV?$allocator@U?$_List_node@V?$unique_ptr@XU?$ThreadTerminator@$0A@@@@std@@PAX@std@@@1@PAPAU?$_List_node@V?$unique_ptr@XU?$ThreadTerminator@$0A@@@@std@@PAX@1@AAPAU31@@Z ; std::allocator_traits<std::allocator<std::_List_node<std::unique_ptr<void,ThreadTerminator<0> >,void *> > >::construct<std::_List_node<std::unique_ptr<void,ThreadTerminator<0> >,void *> *,std::_List_node<std::unique_ptr<void,ThreadTerminator<0> >,void *> * &>
PUBLIC	??$forward@AAPAU?$_List_node@V?$unique_ptr@XU?$ThreadTerminator@$0A@@@@std@@PAX@std@@@std@@YAAAPAU?$_List_node@V?$unique_ptr@XU?$ThreadTerminator@$0A@@@@std@@PAX@0@AAPAU10@@Z ; std::forward<std::_List_node<std::unique_ptr<void,ThreadTerminator<0> >,void *> * &>
PUBLIC	??$destroy@V?$unique_ptr@XU?$ThreadTerminator@$0A@@@@std@@@?$allocator_traits@V?$allocator@U?$_List_node@V?$unique_ptr@XU?$ThreadTerminator@$0A@@@@std@@PAX@std@@@std@@@std@@SAXAAV?$allocator@U?$_List_node@V?$unique_ptr@XU?$ThreadTerminator@$0A@@@@std@@PAX@std@@@1@PAV?$unique_ptr@XU?$ThreadTerminator@$0A@@@@1@@Z ; std::allocator_traits<std::allocator<std::_List_node<std::unique_ptr<void,ThreadTerminator<0> >,void *> > >::destroy<std::unique_ptr<void,ThreadTerminator<0> > >
PUBLIC	??$destroy@U?$pair@$$CBV?$basic_string@_WU?$char_traits@_W@std@@V?$allocator@_W@2@@std@@_N@std@@@?$allocator_traits@V?$allocator@U?$_Tree_node@U?$pair@$$CBV?$basic_string@_WU?$char_traits@_W@std@@V?$allocator@_W@2@@std@@_N@std@@PAX@std@@@std@@@std@@SAXAAV?$allocator@U?$_Tree_node@U?$pair@$$CBV?$basic_string@_WU?$char_traits@_W@std@@V?$allocator@_W@2@@std@@_N@std@@PAX@std@@@1@PAU?$pair@$$CBV?$basic_string@_WU?$char_traits@_W@std@@V?$allocator@_W@2@@std@@_N@1@@Z ; std::allocator_traits<std::allocator<std::_Tree_node<std::pair<std::basic_string<wchar_t,std::char_traits<wchar_t>,std::allocator<wchar_t> > const ,bool>,void *> > >::destroy<std::pair<std::basic_string<wchar_t,std::char_traits<wchar_t>,std::allocator<wchar_t> > const ,bool> >
PUBLIC	??$_Move@AAD@std@@YA$$QADAAD@Z			; std::_Move<char &>
PUBLIC	??$destroy@PAU?$_List_node@V?$unique_ptr@XU?$ThreadTerminator@$0A@@@@std@@PAX@std@@@?$allocator_traits@V?$allocator@U?$_List_node@V?$unique_ptr@XU?$ThreadTerminator@$0A@@@@std@@PAX@std@@@std@@@std@@SAXAAV?$allocator@U?$_List_node@V?$unique_ptr@XU?$ThreadTerminator@$0A@@@@std@@PAX@std@@@1@PAPAU?$_List_node@V?$unique_ptr@XU?$ThreadTerminator@$0A@@@@std@@PAX@1@@Z ; std::allocator_traits<std::allocator<std::_List_node<std::unique_ptr<void,ThreadTerminator<0> >,void *> > >::destroy<std::_List_node<std::unique_ptr<void,ThreadTerminator<0> >,void *> *>
PUBLIC	??$destroy@PAU?$_Tree_node@U?$pair@$$CBV?$basic_string@_WU?$char_traits@_W@std@@V?$allocator@_W@2@@std@@_N@std@@PAX@std@@@?$allocator_traits@V?$allocator@U?$_Tree_node@U?$pair@$$CBV?$basic_string@_WU?$char_traits@_W@std@@V?$allocator@_W@2@@std@@_N@std@@PAX@std@@@std@@@std@@SAXAAV?$allocator@U?$_Tree_node@U?$pair@$$CBV?$basic_string@_WU?$char_traits@_W@std@@V?$allocator@_W@2@@std@@_N@std@@PAX@std@@@1@PAPAU?$_Tree_node@U?$pair@$$CBV?$basic_string@_WU?$char_traits@_W@std@@V?$allocator@_W@2@@std@@_N@std@@PAX@1@@Z ; std::allocator_traits<std::allocator<std::_Tree_node<std::pair<std::basic_string<wchar_t,std::char_traits<wchar_t>,std::allocator<wchar_t> > const ,bool>,void *> > >::destroy<std::_Tree_node<std::pair<std::basic_string<wchar_t,std::char_traits<wchar_t>,std::allocator<wchar_t> > const ,bool>,void *> *>
PUBLIC	??$_Allocate@U?$_Tree_node@U?$pair@$$CBV?$basic_string@_WU?$char_traits@_W@std@@V?$allocator@_W@2@@std@@_N@std@@PAX@std@@@std@@YAPAU?$_Tree_node@U?$pair@$$CBV?$basic_string@_WU?$char_traits@_W@std@@V?$allocator@_W@2@@std@@_N@std@@PAX@0@IPAU10@@Z ; std::_Allocate<std::_Tree_node<std::pair<std::basic_string<wchar_t,std::char_traits<wchar_t>,std::allocator<wchar_t> > const ,bool>,void *> >
PUBLIC	??$_Allocate@U?$_List_node@V?$unique_ptr@XU?$ThreadTerminator@$0A@@@@std@@PAX@std@@@std@@YAPAU?$_List_node@V?$unique_ptr@XU?$ThreadTerminator@$0A@@@@std@@PAX@0@IPAU10@@Z ; std::_Allocate<std::_List_node<std::unique_ptr<void,ThreadTerminator<0> >,void *> >
PUBLIC	??$construct@PAU?$_Tree_node@U?$pair@$$CBV?$basic_string@_WU?$char_traits@_W@std@@V?$allocator@_W@2@@std@@_N@std@@PAX@std@@AAPAU12@@?$_Wrap_alloc@V?$allocator@U?$_Tree_node@U?$pair@$$CBV?$basic_string@_WU?$char_traits@_W@std@@V?$allocator@_W@2@@std@@_N@std@@PAX@std@@@std@@@std@@QAEXPAPAU?$_Tree_node@U?$pair@$$CBV?$basic_string@_WU?$char_traits@_W@std@@V?$allocator@_W@2@@std@@_N@std@@PAX@1@AAPAU21@@Z ; std::_Wrap_alloc<std::allocator<std::_Tree_node<std::pair<std::basic_string<wchar_t,std::char_traits<wchar_t>,std::allocator<wchar_t> > const ,bool>,void *> > >::construct<std::_Tree_node<std::pair<std::basic_string<wchar_t,std::char_traits<wchar_t>,std::allocator<wchar_t> > const ,bool>,void *> *,std::_Tree_node<std::pair<std::basic_string<wchar_t,std::char_traits<wchar_t>,std::allocator<wchar_t> > const ,bool>,void *> * &>
PUBLIC	??$construct@PAU?$_List_node@V?$unique_ptr@XU?$ThreadTerminator@$0A@@@@std@@PAX@std@@AAPAU12@@?$_Wrap_alloc@V?$allocator@U?$_List_node@V?$unique_ptr@XU?$ThreadTerminator@$0A@@@@std@@PAX@std@@@std@@@std@@QAEXPAPAU?$_List_node@V?$unique_ptr@XU?$ThreadTerminator@$0A@@@@std@@PAX@1@AAPAU21@@Z ; std::_Wrap_alloc<std::allocator<std::_List_node<std::unique_ptr<void,ThreadTerminator<0> >,void *> > >::construct<std::_List_node<std::unique_ptr<void,ThreadTerminator<0> >,void *> *,std::_List_node<std::unique_ptr<void,ThreadTerminator<0> >,void *> * &>
PUBLIC	??$destroy@V?$unique_ptr@XU?$ThreadTerminator@$0A@@@@std@@@?$_Wrap_alloc@V?$allocator@U?$_List_node@V?$unique_ptr@XU?$ThreadTerminator@$0A@@@@std@@PAX@std@@@std@@@std@@QAEXPAV?$unique_ptr@XU?$ThreadTerminator@$0A@@@@1@@Z ; std::_Wrap_alloc<std::allocator<std::_List_node<std::unique_ptr<void,ThreadTerminator<0> >,void *> > >::destroy<std::unique_ptr<void,ThreadTerminator<0> > >
PUBLIC	??$addressof@V?$unique_ptr@XU?$ThreadTerminator@$0A@@@@std@@@std@@YAPAV?$unique_ptr@XU?$ThreadTerminator@$0A@@@@0@AAV10@@Z ; std::addressof<std::unique_ptr<void,ThreadTerminator<0> > >
PUBLIC	??$destroy@U?$pair@$$CBV?$basic_string@_WU?$char_traits@_W@std@@V?$allocator@_W@2@@std@@_N@std@@@?$_Wrap_alloc@V?$allocator@U?$_Tree_node@U?$pair@$$CBV?$basic_string@_WU?$char_traits@_W@std@@V?$allocator@_W@2@@std@@_N@std@@PAX@std@@@std@@@std@@QAEXPAU?$pair@$$CBV?$basic_string@_WU?$char_traits@_W@std@@V?$allocator@_W@2@@std@@_N@1@@Z ; std::_Wrap_alloc<std::allocator<std::_Tree_node<std::pair<std::basic_string<wchar_t,std::char_traits<wchar_t>,std::allocator<wchar_t> > const ,bool>,void *> > >::destroy<std::pair<std::basic_string<wchar_t,std::char_traits<wchar_t>,std::allocator<wchar_t> > const ,bool> >
PUBLIC	??$addressof@U?$pair@$$CBV?$basic_string@_WU?$char_traits@_W@std@@V?$allocator@_W@2@@std@@_N@std@@@std@@YAPAU?$pair@$$CBV?$basic_string@_WU?$char_traits@_W@std@@V?$allocator@_W@2@@std@@_N@0@AAU10@@Z ; std::addressof<std::pair<std::basic_string<wchar_t,std::char_traits<wchar_t>,std::allocator<wchar_t> > const ,bool> >
PUBLIC	??$swap@D@std@@YAXAAD0@Z			; std::swap<char>
PUBLIC	??$destroy@PAU?$_List_node@V?$unique_ptr@XU?$ThreadTerminator@$0A@@@@std@@PAX@std@@@?$_Wrap_alloc@V?$allocator@U?$_List_node@V?$unique_ptr@XU?$ThreadTerminator@$0A@@@@std@@PAX@std@@@std@@@std@@QAEXPAPAU?$_List_node@V?$unique_ptr@XU?$ThreadTerminator@$0A@@@@std@@PAX@1@@Z ; std::_Wrap_alloc<std::allocator<std::_List_node<std::unique_ptr<void,ThreadTerminator<0> >,void *> > >::destroy<std::_List_node<std::unique_ptr<void,ThreadTerminator<0> >,void *> *>
PUBLIC	??$addressof@PAU?$_List_node@V?$unique_ptr@XU?$ThreadTerminator@$0A@@@@std@@PAX@std@@@std@@YAPAPAU?$_List_node@V?$unique_ptr@XU?$ThreadTerminator@$0A@@@@std@@PAX@0@AAPAU10@@Z ; std::addressof<std::_List_node<std::unique_ptr<void,ThreadTerminator<0> >,void *> *>
PUBLIC	??$destroy@PAU?$_Tree_node@U?$pair@$$CBV?$basic_string@_WU?$char_traits@_W@std@@V?$allocator@_W@2@@std@@_N@std@@PAX@std@@@?$_Wrap_alloc@V?$allocator@U?$_Tree_node@U?$pair@$$CBV?$basic_string@_WU?$char_traits@_W@std@@V?$allocator@_W@2@@std@@_N@std@@PAX@std@@@std@@@std@@QAEXPAPAU?$_Tree_node@U?$pair@$$CBV?$basic_string@_WU?$char_traits@_W@std@@V?$allocator@_W@2@@std@@_N@std@@PAX@1@@Z ; std::_Wrap_alloc<std::allocator<std::_Tree_node<std::pair<std::basic_string<wchar_t,std::char_traits<wchar_t>,std::allocator<wchar_t> > const ,bool>,void *> > >::destroy<std::_Tree_node<std::pair<std::basic_string<wchar_t,std::char_traits<wchar_t>,std::allocator<wchar_t> > const ,bool>,void *> *>
PUBLIC	??$addressof@PAU?$_Tree_node@U?$pair@$$CBV?$basic_string@_WU?$char_traits@_W@std@@V?$allocator@_W@2@@std@@_N@std@@PAX@std@@@std@@YAPAPAU?$_Tree_node@U?$pair@$$CBV?$basic_string@_WU?$char_traits@_W@std@@V?$allocator@_W@2@@std@@_N@std@@PAX@0@AAPAU10@@Z ; std::addressof<std::_Tree_node<std::pair<std::basic_string<wchar_t,std::char_traits<wchar_t>,std::allocator<wchar_t> > const ,bool>,void *> *>
PUBLIC	?allocate@?$allocator@U?$_Tree_node@U?$pair@$$CBV?$basic_string@_WU?$char_traits@_W@std@@V?$allocator@_W@2@@std@@_N@std@@PAX@std@@@std@@QAEPAU?$_Tree_node@U?$pair@$$CBV?$basic_string@_WU?$char_traits@_W@std@@V?$allocator@_W@2@@std@@_N@std@@PAX@2@I@Z ; std::allocator<std::_Tree_node<std::pair<std::basic_string<wchar_t,std::char_traits<wchar_t>,std::allocator<wchar_t> > const ,bool>,void *> >::allocate
PUBLIC	?allocate@?$allocator@U?$_List_node@V?$unique_ptr@XU?$ThreadTerminator@$0A@@@@std@@PAX@std@@@std@@QAEPAU?$_List_node@V?$unique_ptr@XU?$ThreadTerminator@$0A@@@@std@@PAX@2@I@Z ; std::allocator<std::_List_node<std::unique_ptr<void,ThreadTerminator<0> >,void *> >::allocate
PUBLIC	?allocate@?$_Wrap_alloc@V?$allocator@U?$_Tree_node@U?$pair@$$CBV?$basic_string@_WU?$char_traits@_W@std@@V?$allocator@_W@2@@std@@_N@std@@PAX@std@@@std@@@std@@QAEPAU?$_Tree_node@U?$pair@$$CBV?$basic_string@_WU?$char_traits@_W@std@@V?$allocator@_W@2@@std@@_N@std@@PAX@2@I@Z ; std::_Wrap_alloc<std::allocator<std::_Tree_node<std::pair<std::basic_string<wchar_t,std::char_traits<wchar_t>,std::allocator<wchar_t> > const ,bool>,void *> > >::allocate
PUBLIC	??E?$_Tree_unchecked_const_iterator@V?$_Tree_val@U?$_Tree_simple_types@U?$pair@$$CBV?$basic_string@_WU?$char_traits@_W@std@@V?$allocator@_W@2@@std@@_N@std@@@std@@@std@@U_Iterator_base0@2@@std@@QAEAAV01@XZ ; std::_Tree_unchecked_const_iterator<std::_Tree_val<std::_Tree_simple_types<std::pair<std::basic_string<wchar_t,std::char_traits<wchar_t>,std::allocator<wchar_t> > const ,bool> > >,std::_Iterator_base0>::operator++
PUBLIC	??0?$_Tree_unchecked_const_iterator@V?$_Tree_val@U?$_Tree_simple_types@U?$pair@$$CBV?$basic_string@_WU?$char_traits@_W@std@@V?$allocator@_W@2@@std@@_N@std@@@std@@@std@@U_Iterator_base0@2@@std@@QAE@PAU?$_Tree_node@U?$pair@$$CBV?$basic_string@_WU?$char_traits@_W@std@@V?$allocator@_W@2@@std@@_N@std@@PAX@1@PBV?$_Tree_val@U?$_Tree_simple_types@U?$pair@$$CBV?$basic_string@_WU?$char_traits@_W@std@@V?$allocator@_W@2@@std@@_N@std@@@std@@@1@@Z ; std::_Tree_unchecked_const_iterator<std::_Tree_val<std::_Tree_simple_types<std::pair<std::basic_string<wchar_t,std::char_traits<wchar_t>,std::allocator<wchar_t> > const ,bool> > >,std::_Iterator_base0>::_Tree_unchecked_const_iterator<std::_Tree_val<std::_Tree_simple_types<std::pair<std::basic_string<wchar_t,std::char_traits<wchar_t>,std::allocator<wchar_t> > const ,bool> > >,std::_Iterator_base0>
PUBLIC	??0?$allocator@U?$_List_node@V?$unique_ptr@XU?$ThreadTerminator@$0A@@@@std@@PAX@std@@@std@@QAE@XZ ; std::allocator<std::_List_node<std::unique_ptr<void,ThreadTerminator<0> >,void *> >::allocator<std::_List_node<std::unique_ptr<void,ThreadTerminator<0> >,void *> >
PUBLIC	?allocate@?$_Wrap_alloc@V?$allocator@U?$_List_node@V?$unique_ptr@XU?$ThreadTerminator@$0A@@@@std@@PAX@std@@@std@@@std@@QAEPAU?$_List_node@V?$unique_ptr@XU?$ThreadTerminator@$0A@@@@std@@PAX@2@I@Z ; std::_Wrap_alloc<std::allocator<std::_List_node<std::unique_ptr<void,ThreadTerminator<0> >,void *> > >::allocate
PUBLIC	??0?$_Tree_val@U?$_Tree_simple_types@U?$pair@$$CBV?$basic_string@_WU?$char_traits@_W@std@@V?$allocator@_W@2@@std@@_N@std@@@std@@@std@@QAE@XZ ; std::_Tree_val<std::_Tree_simple_types<std::pair<std::basic_string<wchar_t,std::char_traits<wchar_t>,std::allocator<wchar_t> > const ,bool> > >::_Tree_val<std::_Tree_simple_types<std::pair<std::basic_string<wchar_t,std::char_traits<wchar_t>,std::allocator<wchar_t> > const ,bool> > >
PUBLIC	??0?$allocator@U?$_Tree_node@U?$pair@$$CBV?$basic_string@_WU?$char_traits@_W@std@@V?$allocator@_W@2@@std@@_N@std@@PAX@std@@@std@@QAE@XZ ; std::allocator<std::_Tree_node<std::pair<std::basic_string<wchar_t,std::char_traits<wchar_t>,std::allocator<wchar_t> > const ,bool>,void *> >::allocator<std::_Tree_node<std::pair<std::basic_string<wchar_t,std::char_traits<wchar_t>,std::allocator<wchar_t> > const ,bool>,void *> >
PUBLIC	?_Buyheadnode@?$_Tree_alloc@$0A@U?$_Tree_base_types@U?$pair@$$CBV?$basic_string@_WU?$char_traits@_W@std@@V?$allocator@_W@2@@std@@_N@std@@V?$allocator@U?$pair@$$CBV?$basic_string@_WU?$char_traits@_W@std@@V?$allocator@_W@2@@std@@_N@std@@@2@@std@@@std@@QAEPAU?$_Tree_node@U?$pair@$$CBV?$basic_string@_WU?$char_traits@_W@std@@V?$allocator@_W@2@@std@@_N@std@@PAX@2@XZ ; std::_Tree_alloc<0,std::_Tree_base_types<std::pair<std::basic_string<wchar_t,std::char_traits<wchar_t>,std::allocator<wchar_t> > const ,bool>,std::allocator<std::pair<std::basic_string<wchar_t,std::char_traits<wchar_t>,std::allocator<wchar_t> > const ,bool> > > >::_Buyheadnode
PUBLIC	?_Mynode@?$_Tree_unchecked_const_iterator@V?$_Tree_val@U?$_Tree_simple_types@U?$pair@$$CBV?$basic_string@_WU?$char_traits@_W@std@@V?$allocator@_W@2@@std@@_N@std@@@std@@@std@@U_Iterator_base0@2@@std@@QBEPAU?$_Tree_node@U?$pair@$$CBV?$basic_string@_WU?$char_traits@_W@std@@V?$allocator@_W@2@@std@@_N@std@@PAX@2@XZ ; std::_Tree_unchecked_const_iterator<std::_Tree_val<std::_Tree_simple_types<std::pair<std::basic_string<wchar_t,std::char_traits<wchar_t>,std::allocator<wchar_t> > const ,bool> > >,std::_Iterator_base0>::_Mynode
PUBLIC	??E?$_Tree_const_iterator@V?$_Tree_val@U?$_Tree_simple_types@U?$pair@$$CBV?$basic_string@_WU?$char_traits@_W@std@@V?$allocator@_W@2@@std@@_N@std@@@std@@@std@@@std@@QAEAAV01@XZ ; std::_Tree_const_iterator<std::_Tree_val<std::_Tree_simple_types<std::pair<std::basic_string<wchar_t,std::char_traits<wchar_t>,std::allocator<wchar_t> > const ,bool> > > >::operator++
PUBLIC	??0?$_Tree_const_iterator@V?$_Tree_val@U?$_Tree_simple_types@U?$pair@$$CBV?$basic_string@_WU?$char_traits@_W@std@@V?$allocator@_W@2@@std@@_N@std@@@std@@@std@@@std@@QAE@PAU?$_Tree_node@U?$pair@$$CBV?$basic_string@_WU?$char_traits@_W@std@@V?$allocator@_W@2@@std@@_N@std@@PAX@1@PBV?$_Tree_val@U?$_Tree_simple_types@U?$pair@$$CBV?$basic_string@_WU?$char_traits@_W@std@@V?$allocator@_W@2@@std@@_N@std@@@std@@@1@@Z ; std::_Tree_const_iterator<std::_Tree_val<std::_Tree_simple_types<std::pair<std::basic_string<wchar_t,std::char_traits<wchar_t>,std::allocator<wchar_t> > const ,bool> > > >::_Tree_const_iterator<std::_Tree_val<std::_Tree_simple_types<std::pair<std::basic_string<wchar_t,std::char_traits<wchar_t>,std::allocator<wchar_t> > const ,bool> > > >
PUBLIC	?_Myval@?$_List_val@U?$_List_simple_types@V?$unique_ptr@XU?$ThreadTerminator@$0A@@@@std@@@std@@@std@@SAAAV?$unique_ptr@XU?$ThreadTerminator@$0A@@@@2@PAU?$_List_node@V?$unique_ptr@XU?$ThreadTerminator@$0A@@@@std@@PAX@2@@Z ; std::_List_val<std::_List_simple_types<std::unique_ptr<void,ThreadTerminator<0> > > >::_Myval
PUBLIC	?deallocate@?$allocator@U?$_List_node@V?$unique_ptr@XU?$ThreadTerminator@$0A@@@@std@@PAX@std@@@std@@QAEXPAU?$_List_node@V?$unique_ptr@XU?$ThreadTerminator@$0A@@@@std@@PAX@2@I@Z ; std::allocator<std::_List_node<std::unique_ptr<void,ThreadTerminator<0> >,void *> >::deallocate
PUBLIC	??0?$_Wrap_alloc@V?$allocator@U?$_List_node@V?$unique_ptr@XU?$ThreadTerminator@$0A@@@@std@@PAX@std@@@std@@@std@@QAE@XZ ; std::_Wrap_alloc<std::allocator<std::_List_node<std::unique_ptr<void,ThreadTerminator<0> >,void *> > >::_Wrap_alloc<std::allocator<std::_List_node<std::unique_ptr<void,ThreadTerminator<0> >,void *> > >
PUBLIC	?_Buynode0@?$_List_alloc@$0A@U?$_List_base_types@V?$unique_ptr@XU?$ThreadTerminator@$0A@@@@std@@V?$allocator@V?$unique_ptr@XU?$ThreadTerminator@$0A@@@@std@@@2@@std@@@std@@QAEPAU?$_List_node@V?$unique_ptr@XU?$ThreadTerminator@$0A@@@@std@@PAX@2@PAU32@0@Z ; std::_List_alloc<0,std::_List_base_types<std::unique_ptr<void,ThreadTerminator<0> >,std::allocator<std::unique_ptr<void,ThreadTerminator<0> > > > >::_Buynode0
PUBLIC	?_Min@?$_Tree_val@U?$_Tree_simple_types@U?$pair@$$CBV?$basic_string@_WU?$char_traits@_W@std@@V?$allocator@_W@2@@std@@_N@std@@@std@@@std@@SAPAU?$_Tree_node@U?$pair@$$CBV?$basic_string@_WU?$char_traits@_W@std@@V?$allocator@_W@2@@std@@_N@std@@PAX@2@PAU32@@Z ; std::_Tree_val<std::_Tree_simple_types<std::pair<std::basic_string<wchar_t,std::char_traits<wchar_t>,std::allocator<wchar_t> > const ,bool> > >::_Min
PUBLIC	?_Max@?$_Tree_val@U?$_Tree_simple_types@U?$pair@$$CBV?$basic_string@_WU?$char_traits@_W@std@@V?$allocator@_W@2@@std@@_N@std@@@std@@@std@@SAPAU?$_Tree_node@U?$pair@$$CBV?$basic_string@_WU?$char_traits@_W@std@@V?$allocator@_W@2@@std@@_N@std@@PAX@2@PAU32@@Z ; std::_Tree_val<std::_Tree_simple_types<std::pair<std::basic_string<wchar_t,std::char_traits<wchar_t>,std::allocator<wchar_t> > const ,bool> > >::_Max
PUBLIC	?_Myval@?$_Tree_val@U?$_Tree_simple_types@U?$pair@$$CBV?$basic_string@_WU?$char_traits@_W@std@@V?$allocator@_W@2@@std@@_N@std@@@std@@@std@@SAAAU?$pair@$$CBV?$basic_string@_WU?$char_traits@_W@std@@V?$allocator@_W@2@@std@@_N@2@PAU?$_Tree_node@U?$pair@$$CBV?$basic_string@_WU?$char_traits@_W@std@@V?$allocator@_W@2@@std@@_N@std@@PAX@2@@Z ; std::_Tree_val<std::_Tree_simple_types<std::pair<std::basic_string<wchar_t,std::char_traits<wchar_t>,std::allocator<wchar_t> > const ,bool> > >::_Myval
PUBLIC	?_Isnil@?$_Tree_val@U?$_Tree_simple_types@U?$pair@$$CBV?$basic_string@_WU?$char_traits@_W@std@@V?$allocator@_W@2@@std@@_N@std@@@std@@@std@@SAAADPAU?$_Tree_node@U?$pair@$$CBV?$basic_string@_WU?$char_traits@_W@std@@V?$allocator@_W@2@@std@@_N@std@@PAX@2@@Z ; std::_Tree_val<std::_Tree_simple_types<std::pair<std::basic_string<wchar_t,std::char_traits<wchar_t>,std::allocator<wchar_t> > const ,bool> > >::_Isnil
PUBLIC	?_Color@?$_Tree_val@U?$_Tree_simple_types@U?$pair@$$CBV?$basic_string@_WU?$char_traits@_W@std@@V?$allocator@_W@2@@std@@_N@std@@@std@@@std@@SAAADPAU?$_Tree_node@U?$pair@$$CBV?$basic_string@_WU?$char_traits@_W@std@@V?$allocator@_W@2@@std@@_N@std@@PAX@2@@Z ; std::_Tree_val<std::_Tree_simple_types<std::pair<std::basic_string<wchar_t,std::char_traits<wchar_t>,std::allocator<wchar_t> > const ,bool> > >::_Color
PUBLIC	?deallocate@?$allocator@U?$_Tree_node@U?$pair@$$CBV?$basic_string@_WU?$char_traits@_W@std@@V?$allocator@_W@2@@std@@_N@std@@PAX@std@@@std@@QAEXPAU?$_Tree_node@U?$pair@$$CBV?$basic_string@_WU?$char_traits@_W@std@@V?$allocator@_W@2@@std@@_N@std@@PAX@2@I@Z ; std::allocator<std::_Tree_node<std::pair<std::basic_string<wchar_t,std::char_traits<wchar_t>,std::allocator<wchar_t> > const ,bool>,void *> >::deallocate
PUBLIC	??0?$_Wrap_alloc@V?$allocator@U?$_Tree_node@U?$pair@$$CBV?$basic_string@_WU?$char_traits@_W@std@@V?$allocator@_W@2@@std@@_N@std@@PAX@std@@@std@@@std@@QAE@XZ ; std::_Wrap_alloc<std::allocator<std::_Tree_node<std::pair<std::basic_string<wchar_t,std::char_traits<wchar_t>,std::allocator<wchar_t> > const ,bool>,void *> > >::_Wrap_alloc<std::allocator<std::_Tree_node<std::pair<std::basic_string<wchar_t,std::char_traits<wchar_t>,std::allocator<wchar_t> > const ,bool>,void *> > >
PUBLIC	??0?$_Tree_alloc@$0A@U?$_Tree_base_types@U?$pair@$$CBV?$basic_string@_WU?$char_traits@_W@std@@V?$allocator@_W@2@@std@@_N@std@@V?$allocator@U?$pair@$$CBV?$basic_string@_WU?$char_traits@_W@std@@V?$allocator@_W@2@@std@@_N@std@@@2@@std@@@std@@QAE@ABV?$allocator@U?$pair@$$CBV?$basic_string@_WU?$char_traits@_W@std@@V?$allocator@_W@2@@std@@_N@std@@@1@@Z ; std::_Tree_alloc<0,std::_Tree_base_types<std::pair<std::basic_string<wchar_t,std::char_traits<wchar_t>,std::allocator<wchar_t> > const ,bool>,std::allocator<std::pair<std::basic_string<wchar_t,std::char_traits<wchar_t>,std::allocator<wchar_t> > const ,bool> > > >::_Tree_alloc<0,std::_Tree_base_types<std::pair<std::basic_string<wchar_t,std::char_traits<wchar_t>,std::allocator<wchar_t> > const ,bool>,std::allocator<std::pair<std::basic_string<wchar_t,std::char_traits<wchar_t>,std::allocator<wchar_t> > const ,bool> > > >
PUBLIC	?_Rrotate@?$_Tree@V?$_Tmap_traits@V?$basic_string@_WU?$char_traits@_W@std@@V?$allocator@_W@2@@std@@_NU?$less@V?$basic_string@_WU?$char_traits@_W@std@@V?$allocator@_W@2@@std@@@2@V?$allocator@U?$pair@$$CBV?$basic_string@_WU?$char_traits@_W@std@@V?$allocator@_W@2@@std@@_N@std@@@2@$0A@@std@@@std@@IAEXPAU?$_Tree_node@U?$pair@$$CBV?$basic_string@_WU?$char_traits@_W@std@@V?$allocator@_W@2@@std@@_N@std@@PAX@2@@Z ; std::_Tree<std::_Tmap_traits<std::basic_string<wchar_t,std::char_traits<wchar_t>,std::allocator<wchar_t> >,bool,std::less<std::basic_string<wchar_t,std::char_traits<wchar_t>,std::allocator<wchar_t> > >,std::allocator<std::pair<std::basic_string<wchar_t,std::char_traits<wchar_t>,std::allocator<wchar_t> > const ,bool> >,0> >::_Rrotate
PUBLIC	?_Root@?$_Tree@V?$_Tmap_traits@V?$basic_string@_WU?$char_traits@_W@std@@V?$allocator@_W@2@@std@@_NU?$less@V?$basic_string@_WU?$char_traits@_W@std@@V?$allocator@_W@2@@std@@@2@V?$allocator@U?$pair@$$CBV?$basic_string@_WU?$char_traits@_W@std@@V?$allocator@_W@2@@std@@_N@std@@@2@$0A@@std@@@std@@IBEAAPAU?$_Tree_node@U?$pair@$$CBV?$basic_string@_WU?$char_traits@_W@std@@V?$allocator@_W@2@@std@@_N@std@@PAX@2@XZ ; std::_Tree<std::_Tmap_traits<std::basic_string<wchar_t,std::char_traits<wchar_t>,std::allocator<wchar_t> >,bool,std::less<std::basic_string<wchar_t,std::char_traits<wchar_t>,std::allocator<wchar_t> > >,std::allocator<std::pair<std::basic_string<wchar_t,std::char_traits<wchar_t>,std::allocator<wchar_t> > const ,bool> >,0> >::_Root
PUBLIC	?_Rmost@?$_Tree@V?$_Tmap_traits@V?$basic_string@_WU?$char_traits@_W@std@@V?$allocator@_W@2@@std@@_NU?$less@V?$basic_string@_WU?$char_traits@_W@std@@V?$allocator@_W@2@@std@@@2@V?$allocator@U?$pair@$$CBV?$basic_string@_WU?$char_traits@_W@std@@V?$allocator@_W@2@@std@@_N@std@@@2@$0A@@std@@@std@@IBEAAPAU?$_Tree_node@U?$pair@$$CBV?$basic_string@_WU?$char_traits@_W@std@@V?$allocator@_W@2@@std@@_N@std@@PAX@2@XZ ; std::_Tree<std::_Tmap_traits<std::basic_string<wchar_t,std::char_traits<wchar_t>,std::allocator<wchar_t> >,bool,std::less<std::basic_string<wchar_t,std::char_traits<wchar_t>,std::allocator<wchar_t> > >,std::allocator<std::pair<std::basic_string<wchar_t,std::char_traits<wchar_t>,std::allocator<wchar_t> > const ,bool> >,0> >::_Rmost
PUBLIC	?_Lrotate@?$_Tree@V?$_Tmap_traits@V?$basic_string@_WU?$char_traits@_W@std@@V?$allocator@_W@2@@std@@_NU?$less@V?$basic_string@_WU?$char_traits@_W@std@@V?$allocator@_W@2@@std@@@2@V?$allocator@U?$pair@$$CBV?$basic_string@_WU?$char_traits@_W@std@@V?$allocator@_W@2@@std@@_N@std@@@2@$0A@@std@@@std@@IAEXPAU?$_Tree_node@U?$pair@$$CBV?$basic_string@_WU?$char_traits@_W@std@@V?$allocator@_W@2@@std@@_N@std@@PAX@2@@Z ; std::_Tree<std::_Tmap_traits<std::basic_string<wchar_t,std::char_traits<wchar_t>,std::allocator<wchar_t> >,bool,std::less<std::basic_string<wchar_t,std::char_traits<wchar_t>,std::allocator<wchar_t> > >,std::allocator<std::pair<std::basic_string<wchar_t,std::char_traits<wchar_t>,std::allocator<wchar_t> > const ,bool> >,0> >::_Lrotate
PUBLIC	?_Erase@?$_Tree@V?$_Tmap_traits@V?$basic_string@_WU?$char_traits@_W@std@@V?$allocator@_W@2@@std@@_NU?$less@V?$basic_string@_WU?$char_traits@_W@std@@V?$allocator@_W@2@@std@@@2@V?$allocator@U?$pair@$$CBV?$basic_string@_WU?$char_traits@_W@std@@V?$allocator@_W@2@@std@@_N@std@@@2@$0A@@std@@@std@@IAEXPAU?$_Tree_node@U?$pair@$$CBV?$basic_string@_WU?$char_traits@_W@std@@V?$allocator@_W@2@@std@@_N@std@@PAX@2@@Z ; std::_Tree<std::_Tmap_traits<std::basic_string<wchar_t,std::char_traits<wchar_t>,std::allocator<wchar_t> >,bool,std::less<std::basic_string<wchar_t,std::char_traits<wchar_t>,std::allocator<wchar_t> > >,std::allocator<std::pair<std::basic_string<wchar_t,std::char_traits<wchar_t>,std::allocator<wchar_t> > const ,bool> >,0> >::_Erase
PUBLIC	??9?$_Tree_const_iterator@V?$_Tree_val@U?$_Tree_simple_types@U?$pair@$$CBV?$basic_string@_WU?$char_traits@_W@std@@V?$allocator@_W@2@@std@@_N@std@@@std@@@std@@@std@@QBE_NABV01@@Z ; std::_Tree_const_iterator<std::_Tree_val<std::_Tree_simple_types<std::pair<std::basic_string<wchar_t,std::char_traits<wchar_t>,std::allocator<wchar_t> > const ,bool> > > >::operator!=
PUBLIC	??8?$_Tree_const_iterator@V?$_Tree_val@U?$_Tree_simple_types@U?$pair@$$CBV?$basic_string@_WU?$char_traits@_W@std@@V?$allocator@_W@2@@std@@_N@std@@@std@@@std@@@std@@QBE_NABV01@@Z ; std::_Tree_const_iterator<std::_Tree_val<std::_Tree_simple_types<std::pair<std::basic_string<wchar_t,std::char_traits<wchar_t>,std::allocator<wchar_t> > const ,bool> > > >::operator==
PUBLIC	??E?$_Tree_const_iterator@V?$_Tree_val@U?$_Tree_simple_types@U?$pair@$$CBV?$basic_string@_WU?$char_traits@_W@std@@V?$allocator@_W@2@@std@@_N@std@@@std@@@std@@@std@@QAE?AV01@H@Z ; std::_Tree_const_iterator<std::_Tree_val<std::_Tree_simple_types<std::pair<std::basic_string<wchar_t,std::char_traits<wchar_t>,std::allocator<wchar_t> > const ,bool> > > >::operator++
PUBLIC	??0?$_Tree_iterator@V?$_Tree_val@U?$_Tree_simple_types@U?$pair@$$CBV?$basic_string@_WU?$char_traits@_W@std@@V?$allocator@_W@2@@std@@_N@std@@@std@@@std@@@std@@QAE@PAU?$_Tree_node@U?$pair@$$CBV?$basic_string@_WU?$char_traits@_W@std@@V?$allocator@_W@2@@std@@_N@std@@PAX@1@PBV?$_Tree_val@U?$_Tree_simple_types@U?$pair@$$CBV?$basic_string@_WU?$char_traits@_W@std@@V?$allocator@_W@2@@std@@_N@std@@@std@@@1@@Z ; std::_Tree_iterator<std::_Tree_val<std::_Tree_simple_types<std::pair<std::basic_string<wchar_t,std::char_traits<wchar_t>,std::allocator<wchar_t> > const ,bool> > > >::_Tree_iterator<std::_Tree_val<std::_Tree_simple_types<std::pair<std::basic_string<wchar_t,std::char_traits<wchar_t>,std::allocator<wchar_t> > const ,bool> > > >
PUBLIC	?_Prevnode@?$_List_val@U?$_List_simple_types@V?$unique_ptr@XU?$ThreadTerminator@$0A@@@@std@@@std@@@std@@SAAAPAU?$_List_node@V?$unique_ptr@XU?$ThreadTerminator@$0A@@@@std@@PAX@2@PAU32@@Z ; std::_List_val<std::_List_simple_types<std::unique_ptr<void,ThreadTerminator<0> > > >::_Prevnode
PUBLIC	?_Nextnode@?$_List_val@U?$_List_simple_types@V?$unique_ptr@XU?$ThreadTerminator@$0A@@@@std@@@std@@@std@@SAAAPAU?$_List_node@V?$unique_ptr@XU?$ThreadTerminator@$0A@@@@std@@PAX@2@PAU32@@Z ; std::_List_val<std::_List_simple_types<std::unique_ptr<void,ThreadTerminator<0> > > >::_Nextnode
PUBLIC	??0?$_List_val@U?$_List_simple_types@V?$unique_ptr@XU?$ThreadTerminator@$0A@@@@std@@@std@@@std@@QAE@XZ ; std::_List_val<std::_List_simple_types<std::unique_ptr<void,ThreadTerminator<0> > > >::_List_val<std::_List_simple_types<std::unique_ptr<void,ThreadTerminator<0> > > >
PUBLIC	?deallocate@?$_Wrap_alloc@V?$allocator@U?$_List_node@V?$unique_ptr@XU?$ThreadTerminator@$0A@@@@std@@PAX@std@@@std@@@std@@QAEXPAU?$_List_node@V?$unique_ptr@XU?$ThreadTerminator@$0A@@@@std@@PAX@2@I@Z ; std::_Wrap_alloc<std::allocator<std::_List_node<std::unique_ptr<void,ThreadTerminator<0> >,void *> > >::deallocate
PUBLIC	?_Getal@?$_List_alloc@$0A@U?$_List_base_types@V?$unique_ptr@XU?$ThreadTerminator@$0A@@@@std@@V?$allocator@V?$unique_ptr@XU?$ThreadTerminator@$0A@@@@std@@@2@@std@@@std@@QBE?AU?$_Wrap_alloc@V?$allocator@U?$_List_node@V?$unique_ptr@XU?$ThreadTerminator@$0A@@@@std@@PAX@std@@@std@@@2@XZ ; std::_List_alloc<0,std::_List_base_types<std::unique_ptr<void,ThreadTerminator<0> >,std::allocator<std::unique_ptr<void,ThreadTerminator<0> > > > >::_Getal
PUBLIC	?_Buyheadnode@?$_List_alloc@$0A@U?$_List_base_types@V?$unique_ptr@XU?$ThreadTerminator@$0A@@@@std@@V?$allocator@V?$unique_ptr@XU?$ThreadTerminator@$0A@@@@std@@@2@@std@@@std@@QAEPAU?$_List_node@V?$unique_ptr@XU?$ThreadTerminator@$0A@@@@std@@PAX@2@XZ ; std::_List_alloc<0,std::_List_base_types<std::unique_ptr<void,ThreadTerminator<0> >,std::allocator<std::unique_ptr<void,ThreadTerminator<0> > > > >::_Buyheadnode
PUBLIC	?_Freenode@?$_List_buy@V?$unique_ptr@XU?$ThreadTerminator@$0A@@@@std@@V?$allocator@V?$unique_ptr@XU?$ThreadTerminator@$0A@@@@std@@@2@@std@@QAEXPAU?$_List_node@V?$unique_ptr@XU?$ThreadTerminator@$0A@@@@std@@PAX@2@@Z ; std::_List_buy<std::unique_ptr<void,ThreadTerminator<0> >,std::allocator<std::unique_ptr<void,ThreadTerminator<0> > > >::_Freenode
PUBLIC	?_Right@?$_Tree_val@U?$_Tree_simple_types@U?$pair@$$CBV?$basic_string@_WU?$char_traits@_W@std@@V?$allocator@_W@2@@std@@_N@std@@@std@@@std@@SAAAPAU?$_Tree_node@U?$pair@$$CBV?$basic_string@_WU?$char_traits@_W@std@@V?$allocator@_W@2@@std@@_N@std@@PAX@2@PAU32@@Z ; std::_Tree_val<std::_Tree_simple_types<std::pair<std::basic_string<wchar_t,std::char_traits<wchar_t>,std::allocator<wchar_t> > const ,bool> > >::_Right
PUBLIC	?_Parent@?$_Tree_val@U?$_Tree_simple_types@U?$pair@$$CBV?$basic_string@_WU?$char_traits@_W@std@@V?$allocator@_W@2@@std@@_N@std@@@std@@@std@@SAAAPAU?$_Tree_node@U?$pair@$$CBV?$basic_string@_WU?$char_traits@_W@std@@V?$allocator@_W@2@@std@@_N@std@@PAX@2@PAU32@@Z ; std::_Tree_val<std::_Tree_simple_types<std::pair<std::basic_string<wchar_t,std::char_traits<wchar_t>,std::allocator<wchar_t> > const ,bool> > >::_Parent
PUBLIC	?_Left@?$_Tree_val@U?$_Tree_simple_types@U?$pair@$$CBV?$basic_string@_WU?$char_traits@_W@std@@V?$allocator@_W@2@@std@@_N@std@@@std@@@std@@SAAAPAU?$_Tree_node@U?$pair@$$CBV?$basic_string@_WU?$char_traits@_W@std@@V?$allocator@_W@2@@std@@_N@std@@PAX@2@PAU32@@Z ; std::_Tree_val<std::_Tree_simple_types<std::pair<std::basic_string<wchar_t,std::char_traits<wchar_t>,std::allocator<wchar_t> > const ,bool> > >::_Left
PUBLIC	?deallocate@?$_Wrap_alloc@V?$allocator@U?$_Tree_node@U?$pair@$$CBV?$basic_string@_WU?$char_traits@_W@std@@V?$allocator@_W@2@@std@@_N@std@@PAX@std@@@std@@@std@@QAEXPAU?$_Tree_node@U?$pair@$$CBV?$basic_string@_WU?$char_traits@_W@std@@V?$allocator@_W@2@@std@@_N@std@@PAX@2@I@Z ; std::_Wrap_alloc<std::allocator<std::_Tree_node<std::pair<std::basic_string<wchar_t,std::char_traits<wchar_t>,std::allocator<wchar_t> > const ,bool>,void *> > >::deallocate
PUBLIC	?_Getal@?$_Tree_alloc@$0A@U?$_Tree_base_types@U?$pair@$$CBV?$basic_string@_WU?$char_traits@_W@std@@V?$allocator@_W@2@@std@@_N@std@@V?$allocator@U?$pair@$$CBV?$basic_string@_WU?$char_traits@_W@std@@V?$allocator@_W@2@@std@@_N@std@@@2@@std@@@std@@QBE?AU?$_Wrap_alloc@V?$allocator@U?$_Tree_node@U?$pair@$$CBV?$basic_string@_WU?$char_traits@_W@std@@V?$allocator@_W@2@@std@@_N@std@@PAX@std@@@std@@@2@XZ ; std::_Tree_alloc<0,std::_Tree_base_types<std::pair<std::basic_string<wchar_t,std::char_traits<wchar_t>,std::allocator<wchar_t> > const ,bool>,std::allocator<std::pair<std::basic_string<wchar_t,std::char_traits<wchar_t>,std::allocator<wchar_t> > const ,bool> > > >::_Getal
PUBLIC	??0?$_Tree_buy@U?$pair@$$CBV?$basic_string@_WU?$char_traits@_W@std@@V?$allocator@_W@2@@std@@_N@std@@V?$allocator@U?$pair@$$CBV?$basic_string@_WU?$char_traits@_W@std@@V?$allocator@_W@2@@std@@_N@std@@@2@@std@@QAE@ABV?$allocator@U?$pair@$$CBV?$basic_string@_WU?$char_traits@_W@std@@V?$allocator@_W@2@@std@@_N@std@@@1@@Z ; std::_Tree_buy<std::pair<std::basic_string<wchar_t,std::char_traits<wchar_t>,std::allocator<wchar_t> > const ,bool>,std::allocator<std::pair<std::basic_string<wchar_t,std::char_traits<wchar_t>,std::allocator<wchar_t> > const ,bool> > >::_Tree_buy<std::pair<std::basic_string<wchar_t,std::char_traits<wchar_t>,std::allocator<wchar_t> > const ,bool>,std::allocator<std::pair<std::basic_string<wchar_t,std::char_traits<wchar_t>,std::allocator<wchar_t> > const ,bool> > >
PUBLIC	?_Lmost@?$_Tree@V?$_Tmap_traits@V?$basic_string@_WU?$char_traits@_W@std@@V?$allocator@_W@2@@std@@_NU?$less@V?$basic_string@_WU?$char_traits@_W@std@@V?$allocator@_W@2@@std@@@2@V?$allocator@U?$pair@$$CBV?$basic_string@_WU?$char_traits@_W@std@@V?$allocator@_W@2@@std@@_N@std@@@2@$0A@@std@@@std@@IBEAAPAU?$_Tree_node@U?$pair@$$CBV?$basic_string@_WU?$char_traits@_W@std@@V?$allocator@_W@2@@std@@_N@std@@PAX@2@XZ ; std::_Tree<std::_Tmap_traits<std::basic_string<wchar_t,std::char_traits<wchar_t>,std::allocator<wchar_t> >,bool,std::less<std::basic_string<wchar_t,std::char_traits<wchar_t>,std::allocator<wchar_t> > >,std::allocator<std::pair<std::basic_string<wchar_t,std::char_traits<wchar_t>,std::allocator<wchar_t> > const ,bool> >,0> >::_Lmost
PUBLIC	?clear@?$_Tree@V?$_Tmap_traits@V?$basic_string@_WU?$char_traits@_W@std@@V?$allocator@_W@2@@std@@_NU?$less@V?$basic_string@_WU?$char_traits@_W@std@@V?$allocator@_W@2@@std@@@2@V?$allocator@U?$pair@$$CBV?$basic_string@_WU?$char_traits@_W@std@@V?$allocator@_W@2@@std@@_N@std@@@2@$0A@@std@@@std@@QAEXXZ ; std::_Tree<std::_Tmap_traits<std::basic_string<wchar_t,std::char_traits<wchar_t>,std::allocator<wchar_t> >,bool,std::less<std::basic_string<wchar_t,std::char_traits<wchar_t>,std::allocator<wchar_t> > >,std::allocator<std::pair<std::basic_string<wchar_t,std::char_traits<wchar_t>,std::allocator<wchar_t> > const ,bool> >,0> >::clear
PUBLIC	?erase@?$_Tree@V?$_Tmap_traits@V?$basic_string@_WU?$char_traits@_W@std@@V?$allocator@_W@2@@std@@_NU?$less@V?$basic_string@_WU?$char_traits@_W@std@@V?$allocator@_W@2@@std@@@2@V?$allocator@U?$pair@$$CBV?$basic_string@_WU?$char_traits@_W@std@@V?$allocator@_W@2@@std@@_N@std@@@2@$0A@@std@@@std@@QAE?AV?$_Tree_iterator@V?$_Tree_val@U?$_Tree_simple_types@U?$pair@$$CBV?$basic_string@_WU?$char_traits@_W@std@@V?$allocator@_W@2@@std@@_N@std@@@std@@@std@@@2@V?$_Tree_const_iterator@V?$_Tree_val@U?$_Tree_simple_types@U?$pair@$$CBV?$basic_string@_WU?$char_traits@_W@std@@V?$allocator@_W@2@@std@@_N@std@@@std@@@std@@@2@@Z ; std::_Tree<std::_Tmap_traits<std::basic_string<wchar_t,std::char_traits<wchar_t>,std::allocator<wchar_t> >,bool,std::less<std::basic_string<wchar_t,std::char_traits<wchar_t>,std::allocator<wchar_t> > >,std::allocator<std::pair<std::basic_string<wchar_t,std::char_traits<wchar_t>,std::allocator<wchar_t> > const ,bool> >,0> >::erase
PUBLIC	?_Freeheadnode@?$_List_alloc@$0A@U?$_List_base_types@V?$unique_ptr@XU?$ThreadTerminator@$0A@@@@std@@V?$allocator@V?$unique_ptr@XU?$ThreadTerminator@$0A@@@@std@@@2@@std@@@std@@QAEXPAU?$_List_node@V?$unique_ptr@XU?$ThreadTerminator@$0A@@@@std@@PAX@2@@Z ; std::_List_alloc<0,std::_List_base_types<std::unique_ptr<void,ThreadTerminator<0> >,std::allocator<std::unique_ptr<void,ThreadTerminator<0> > > > >::_Freeheadnode
PUBLIC	??0?$_List_alloc@$0A@U?$_List_base_types@V?$unique_ptr@XU?$ThreadTerminator@$0A@@@@std@@V?$allocator@V?$unique_ptr@XU?$ThreadTerminator@$0A@@@@std@@@2@@std@@@std@@QAE@ABV?$allocator@V?$unique_ptr@XU?$ThreadTerminator@$0A@@@@std@@@1@@Z ; std::_List_alloc<0,std::_List_base_types<std::unique_ptr<void,ThreadTerminator<0> >,std::allocator<std::unique_ptr<void,ThreadTerminator<0> > > > >::_List_alloc<0,std::_List_base_types<std::unique_ptr<void,ThreadTerminator<0> >,std::allocator<std::unique_ptr<void,ThreadTerminator<0> > > > >
PUBLIC	?clear@?$list@V?$unique_ptr@XU?$ThreadTerminator@$0A@@@@std@@V?$allocator@V?$unique_ptr@XU?$ThreadTerminator@$0A@@@@std@@@2@@std@@QAEXXZ ; std::list<std::unique_ptr<void,ThreadTerminator<0> >,std::allocator<std::unique_ptr<void,ThreadTerminator<0> > > >::clear
PUBLIC	?_Freeheadnode@?$_Tree_alloc@$0A@U?$_Tree_base_types@U?$pair@$$CBV?$basic_string@_WU?$char_traits@_W@std@@V?$allocator@_W@2@@std@@_N@std@@V?$allocator@U?$pair@$$CBV?$basic_string@_WU?$char_traits@_W@std@@V?$allocator@_W@2@@std@@_N@std@@@2@@std@@@std@@QAEXPAU?$_Tree_node@U?$pair@$$CBV?$basic_string@_WU?$char_traits@_W@std@@V?$allocator@_W@2@@std@@_N@std@@PAX@2@@Z ; std::_Tree_alloc<0,std::_Tree_base_types<std::pair<std::basic_string<wchar_t,std::char_traits<wchar_t>,std::allocator<wchar_t> > const ,bool>,std::allocator<std::pair<std::basic_string<wchar_t,std::char_traits<wchar_t>,std::allocator<wchar_t> > const ,bool> > > >::_Freeheadnode
PUBLIC	??0?$_Tree_comp@$0A@V?$_Tmap_traits@V?$basic_string@_WU?$char_traits@_W@std@@V?$allocator@_W@2@@std@@_NU?$less@V?$basic_string@_WU?$char_traits@_W@std@@V?$allocator@_W@2@@std@@@2@V?$allocator@U?$pair@$$CBV?$basic_string@_WU?$char_traits@_W@std@@V?$allocator@_W@2@@std@@_N@std@@@2@$0A@@std@@@std@@QAE@ABU?$less@V?$basic_string@_WU?$char_traits@_W@std@@V?$allocator@_W@2@@std@@@1@ABV?$allocator@U?$pair@$$CBV?$basic_string@_WU?$char_traits@_W@std@@V?$allocator@_W@2@@std@@_N@std@@@1@@Z ; std::_Tree_comp<0,std::_Tmap_traits<std::basic_string<wchar_t,std::char_traits<wchar_t>,std::allocator<wchar_t> >,bool,std::less<std::basic_string<wchar_t,std::char_traits<wchar_t>,std::allocator<wchar_t> > >,std::allocator<std::pair<std::basic_string<wchar_t,std::char_traits<wchar_t>,std::allocator<wchar_t> > const ,bool> >,0> >::_Tree_comp<0,std::_Tmap_traits<std::basic_string<wchar_t,std::char_traits<wchar_t>,std::allocator<wchar_t> >,bool,std::less<std::basic_string<wchar_t,std::char_traits<wchar_t>,std::allocator<wchar_t> > >,std::allocator<std::pair<std::basic_string<wchar_t,std::char_traits<wchar_t>,std::allocator<wchar_t> > const ,bool> >,0> >
PUBLIC	?erase@?$_Tree@V?$_Tmap_traits@V?$basic_string@_WU?$char_traits@_W@std@@V?$allocator@_W@2@@std@@_NU?$less@V?$basic_string@_WU?$char_traits@_W@std@@V?$allocator@_W@2@@std@@@2@V?$allocator@U?$pair@$$CBV?$basic_string@_WU?$char_traits@_W@std@@V?$allocator@_W@2@@std@@_N@std@@@2@$0A@@std@@@std@@QAE?AV?$_Tree_iterator@V?$_Tree_val@U?$_Tree_simple_types@U?$pair@$$CBV?$basic_string@_WU?$char_traits@_W@std@@V?$allocator@_W@2@@std@@_N@std@@@std@@@std@@@2@V?$_Tree_const_iterator@V?$_Tree_val@U?$_Tree_simple_types@U?$pair@$$CBV?$basic_string@_WU?$char_traits@_W@std@@V?$allocator@_W@2@@std@@_N@std@@@std@@@std@@@2@0@Z ; std::_Tree<std::_Tmap_traits<std::basic_string<wchar_t,std::char_traits<wchar_t>,std::allocator<wchar_t> >,bool,std::less<std::basic_string<wchar_t,std::char_traits<wchar_t>,std::allocator<wchar_t> > >,std::allocator<std::pair<std::basic_string<wchar_t,std::char_traits<wchar_t>,std::allocator<wchar_t> > const ,bool> >,0> >::erase
PUBLIC	?end@?$_Tree@V?$_Tmap_traits@V?$basic_string@_WU?$char_traits@_W@std@@V?$allocator@_W@2@@std@@_NU?$less@V?$basic_string@_WU?$char_traits@_W@std@@V?$allocator@_W@2@@std@@@2@V?$allocator@U?$pair@$$CBV?$basic_string@_WU?$char_traits@_W@std@@V?$allocator@_W@2@@std@@_N@std@@@2@$0A@@std@@@std@@QAE?AV?$_Tree_iterator@V?$_Tree_val@U?$_Tree_simple_types@U?$pair@$$CBV?$basic_string@_WU?$char_traits@_W@std@@V?$allocator@_W@2@@std@@_N@std@@@std@@@std@@@2@XZ ; std::_Tree<std::_Tmap_traits<std::basic_string<wchar_t,std::char_traits<wchar_t>,std::allocator<wchar_t> >,bool,std::less<std::basic_string<wchar_t,std::char_traits<wchar_t>,std::allocator<wchar_t> > >,std::allocator<std::pair<std::basic_string<wchar_t,std::char_traits<wchar_t>,std::allocator<wchar_t> > const ,bool> >,0> >::end
PUBLIC	?begin@?$_Tree@V?$_Tmap_traits@V?$basic_string@_WU?$char_traits@_W@std@@V?$allocator@_W@2@@std@@_NU?$less@V?$basic_string@_WU?$char_traits@_W@std@@V?$allocator@_W@2@@std@@@2@V?$allocator@U?$pair@$$CBV?$basic_string@_WU?$char_traits@_W@std@@V?$allocator@_W@2@@std@@_N@std@@@2@$0A@@std@@@std@@QAE?AV?$_Tree_iterator@V?$_Tree_val@U?$_Tree_simple_types@U?$pair@$$CBV?$basic_string@_WU?$char_traits@_W@std@@V?$allocator@_W@2@@std@@_N@std@@@std@@@std@@@2@XZ ; std::_Tree<std::_Tmap_traits<std::basic_string<wchar_t,std::char_traits<wchar_t>,std::allocator<wchar_t> >,bool,std::less<std::basic_string<wchar_t,std::char_traits<wchar_t>,std::allocator<wchar_t> > >,std::allocator<std::pair<std::basic_string<wchar_t,std::char_traits<wchar_t>,std::allocator<wchar_t> > const ,bool> >,0> >::begin
PUBLIC	??0?$default_delete@VNetworkStream@@@std@@QAE@XZ ; std::default_delete<NetworkStream>::default_delete<NetworkStream>
PUBLIC	?_Local@?$_Func_class@X$$$V@std@@ABE_NXZ	; std::_Func_class<void>::_Local
PUBLIC	?_Set@?$_Func_class@X$$$V@std@@AAEXPAV?$_Func_base@X$$$V@2@@Z ; std::_Func_class<void>::_Set
PUBLIC	??1?$_List_alloc@$0A@U?$_List_base_types@V?$unique_ptr@XU?$ThreadTerminator@$0A@@@@std@@V?$allocator@V?$unique_ptr@XU?$ThreadTerminator@$0A@@@@std@@@2@@std@@@std@@QAE@XZ ; std::_List_alloc<0,std::_List_base_types<std::unique_ptr<void,ThreadTerminator<0> >,std::allocator<std::unique_ptr<void,ThreadTerminator<0> > > > >::~_List_alloc<0,std::_List_base_types<std::unique_ptr<void,ThreadTerminator<0> >,std::allocator<std::unique_ptr<void,ThreadTerminator<0> > > > >
PUBLIC	??0?$allocator@V?$unique_ptr@XU?$ThreadTerminator@$0A@@@@std@@@std@@QAE@XZ ; std::allocator<std::unique_ptr<void,ThreadTerminator<0> > >::allocator<std::unique_ptr<void,ThreadTerminator<0> > >
PUBLIC	??0?$_List_buy@V?$unique_ptr@XU?$ThreadTerminator@$0A@@@@std@@V?$allocator@V?$unique_ptr@XU?$ThreadTerminator@$0A@@@@std@@@2@@std@@QAE@ABV?$allocator@V?$unique_ptr@XU?$ThreadTerminator@$0A@@@@std@@@1@@Z ; std::_List_buy<std::unique_ptr<void,ThreadTerminator<0> >,std::allocator<std::unique_ptr<void,ThreadTerminator<0> > > >::_List_buy<std::unique_ptr<void,ThreadTerminator<0> >,std::allocator<std::unique_ptr<void,ThreadTerminator<0> > > >
PUBLIC	?_Tidy@?$list@V?$unique_ptr@XU?$ThreadTerminator@$0A@@@@std@@V?$allocator@V?$unique_ptr@XU?$ThreadTerminator@$0A@@@@std@@@2@@std@@QAEXXZ ; std::list<std::unique_ptr<void,ThreadTerminator<0> >,std::allocator<std::unique_ptr<void,ThreadTerminator<0> > > >::_Tidy
PUBLIC	?Clear@?$List@UPluginInfo@@@@QAEXXZ		; List<PluginInfo>::Clear
PUBLIC	?SetSize@?$List@UPluginInfo@@@@QAEHI@Z		; List<PluginInfo>::SetSize
PUBLIC	?SetSize@?$List@UFontInfo@@@@QAEHI@Z		; List<FontInfo>::SetSize
PUBLIC	?Add@?$List@UIconInfo@@@@QAEIABUIconInfo@@@Z	; List<IconInfo>::Add
PUBLIC	?Clear@?$List@UFrameAudio@@@@QAEXXZ		; List<FrameAudio>::Clear
PUBLIC	?Clear@?$List@UVideoSegment@@@@QAEXXZ		; List<VideoSegment>::Clear
PUBLIC	??1?$_Tree_alloc@$0A@U?$_Tree_base_types@U?$pair@$$CBV?$basic_string@_WU?$char_traits@_W@std@@V?$allocator@_W@2@@std@@_N@std@@V?$allocator@U?$pair@$$CBV?$basic_string@_WU?$char_traits@_W@std@@V?$allocator@_W@2@@std@@_N@std@@@2@@std@@@std@@QAE@XZ ; std::_Tree_alloc<0,std::_Tree_base_types<std::pair<std::basic_string<wchar_t,std::char_traits<wchar_t>,std::allocator<wchar_t> > const ,bool>,std::allocator<std::pair<std::basic_string<wchar_t,std::char_traits<wchar_t>,std::allocator<wchar_t> > const ,bool> > > >::~_Tree_alloc<0,std::_Tree_base_types<std::pair<std::basic_string<wchar_t,std::char_traits<wchar_t>,std::allocator<wchar_t> > const ,bool>,std::allocator<std::pair<std::basic_string<wchar_t,std::char_traits<wchar_t>,std::allocator<wchar_t> > const ,bool> > > >
PUBLIC	??0?$allocator@U?$pair@$$CBV?$basic_string@_WU?$char_traits@_W@std@@V?$allocator@_W@2@@std@@_N@std@@@std@@QAE@XZ ; std::allocator<std::pair<std::basic_string<wchar_t,std::char_traits<wchar_t>,std::allocator<wchar_t> > const ,bool> >::allocator<std::pair<std::basic_string<wchar_t,std::char_traits<wchar_t>,std::allocator<wchar_t> > const ,bool> >
PUBLIC	?_Tidy@?$_Tree@V?$_Tmap_traits@V?$basic_string@_WU?$char_traits@_W@std@@V?$allocator@_W@2@@std@@_NU?$less@V?$basic_string@_WU?$char_traits@_W@std@@V?$allocator@_W@2@@std@@@2@V?$allocator@U?$pair@$$CBV?$basic_string@_WU?$char_traits@_W@std@@V?$allocator@_W@2@@std@@_N@std@@@2@$0A@@std@@@std@@IAEXXZ ; std::_Tree<std::_Tmap_traits<std::basic_string<wchar_t,std::char_traits<wchar_t>,std::allocator<wchar_t> >,bool,std::less<std::basic_string<wchar_t,std::char_traits<wchar_t>,std::allocator<wchar_t> > >,std::allocator<std::pair<std::basic_string<wchar_t,std::char_traits<wchar_t>,std::allocator<wchar_t> > const ,bool> >,0> >::_Tidy
PUBLIC	??0?$_Tree@V?$_Tmap_traits@V?$basic_string@_WU?$char_traits@_W@std@@V?$allocator@_W@2@@std@@_NU?$less@V?$basic_string@_WU?$char_traits@_W@std@@V?$allocator@_W@2@@std@@@2@V?$allocator@U?$pair@$$CBV?$basic_string@_WU?$char_traits@_W@std@@V?$allocator@_W@2@@std@@_N@std@@@2@$0A@@std@@@std@@QAE@ABU?$less@V?$basic_string@_WU?$char_traits@_W@std@@V?$allocator@_W@2@@std@@@1@ABV?$allocator@U?$pair@$$CBV?$basic_string@_WU?$char_traits@_W@std@@V?$allocator@_W@2@@std@@_N@std@@@1@@Z ; std::_Tree<std::_Tmap_traits<std::basic_string<wchar_t,std::char_traits<wchar_t>,std::allocator<wchar_t> >,bool,std::less<std::basic_string<wchar_t,std::char_traits<wchar_t>,std::allocator<wchar_t> > >,std::allocator<std::pair<std::basic_string<wchar_t,std::char_traits<wchar_t>,std::allocator<wchar_t> > const ,bool> >,0> >::_Tree<std::_Tmap_traits<std::basic_string<wchar_t,std::char_traits<wchar_t>,std::allocator<wchar_t> >,bool,std::less<std::basic_string<wchar_t,std::char_traits<wchar_t>,std::allocator<wchar_t> > >,std::allocator<std::pair<std::basic_string<wchar_t,std::char_traits<wchar_t>,std::allocator<wchar_t> > const ,bool> >,0> >
PUBLIC	?Clear@?$List@PAVSettingsPane@@@@QAEXXZ		; List<SettingsPane *>::Clear
PUBLIC	?Clear@?$List@USceneHotkeyInfo@@@@QAEXXZ	; List<SceneHotkeyInfo>::Clear
PUBLIC	?Add@?$List@USceneHotkeyInfo@@@@QAEIABUSceneHotkeyInfo@@@Z ; List<SceneHotkeyInfo>::Add
PUBLIC	?Clear@?$List@PAVAudioSource@@@@QAEXXZ		; List<AudioSource *>::Clear
PUBLIC	?get_deleter@?$_Unique_ptr_base@VNetworkStream@@U?$default_delete@VNetworkStream@@@std@@$00@std@@QAEAAU?$default_delete@VNetworkStream@@@2@XZ ; std::_Unique_ptr_base<NetworkStream,std::default_delete<NetworkStream>,1>::get_deleter
PUBLIC	??0?$_Unique_ptr_base@VNetworkStream@@U?$default_delete@VNetworkStream@@@std@@$00@std@@QAE@PAVNetworkStream@@@Z ; std::_Unique_ptr_base<NetworkStream,std::default_delete<NetworkStream>,1>::_Unique_ptr_base<NetworkStream,std::default_delete<NetworkStream>,1>
PUBLIC	??R?$default_delete@VNetworkStream@@@std@@QBEXPAVNetworkStream@@@Z ; std::default_delete<NetworkStream>::operator()
PUBLIC	?_Tidy@?$_Func_class@X$$$V@std@@IAEXXZ		; std::_Func_class<void>::_Tidy
PUBLIC	?_Reset@?$_Func_class@X$$$V@std@@IAEXXZ		; std::_Func_class<void>::_Reset
PUBLIC	??1?$_Func_class@X$$$V@std@@QAE@XZ		; std::_Func_class<void>::~_Func_class<void>
PUBLIC	??0?$_Func_class@X$$$V@std@@QAE@XZ		; std::_Func_class<void>::_Func_class<void>
PUBLIC	?Add@?$List@UMonitorInfo@@@@QAEIABUMonitorInfo@@@Z ; List<MonitorInfo>::Add
PUBLIC	??1?$_Tree_buy@U?$pair@$$CBV?$basic_string@_WU?$char_traits@_W@std@@V?$allocator@_W@2@@std@@_N@std@@V?$allocator@U?$pair@$$CBV?$basic_string@_WU?$char_traits@_W@std@@V?$allocator@_W@2@@std@@_N@std@@@2@@std@@QAE@XZ ; std::_Tree_buy<std::pair<std::basic_string<wchar_t,std::char_traits<wchar_t>,std::allocator<wchar_t> > const ,bool>,std::allocator<std::pair<std::basic_string<wchar_t,std::char_traits<wchar_t>,std::allocator<wchar_t> > const ,bool> > >::~_Tree_buy<std::pair<std::basic_string<wchar_t,std::char_traits<wchar_t>,std::allocator<wchar_t> > const ,bool>,std::allocator<std::pair<std::basic_string<wchar_t,std::char_traits<wchar_t>,std::allocator<wchar_t> > const ,bool> > >
PUBLIC	??1?$_List_buy@V?$unique_ptr@XU?$ThreadTerminator@$0A@@@@std@@V?$allocator@V?$unique_ptr@XU?$ThreadTerminator@$0A@@@@std@@@2@@std@@QAE@XZ ; std::_List_buy<std::unique_ptr<void,ThreadTerminator<0> >,std::allocator<std::unique_ptr<void,ThreadTerminator<0> > > >::~_List_buy<std::unique_ptr<void,ThreadTerminator<0> >,std::allocator<std::unique_ptr<void,ThreadTerminator<0> > > >
PUBLIC	??1?$_Tree_comp@$0A@V?$_Tmap_traits@V?$basic_string@_WU?$char_traits@_W@std@@V?$allocator@_W@2@@std@@_NU?$less@V?$basic_string@_WU?$char_traits@_W@std@@V?$allocator@_W@2@@std@@@2@V?$allocator@U?$pair@$$CBV?$basic_string@_WU?$char_traits@_W@std@@V?$allocator@_W@2@@std@@_N@std@@@2@$0A@@std@@@std@@QAE@XZ ; std::_Tree_comp<0,std::_Tmap_traits<std::basic_string<wchar_t,std::char_traits<wchar_t>,std::allocator<wchar_t> >,bool,std::less<std::basic_string<wchar_t,std::char_traits<wchar_t>,std::allocator<wchar_t> > >,std::allocator<std::pair<std::basic_string<wchar_t,std::char_traits<wchar_t>,std::allocator<wchar_t> > const ,bool> >,0> >::~_Tree_comp<0,std::_Tmap_traits<std::basic_string<wchar_t,std::char_traits<wchar_t>,std::allocator<wchar_t> >,bool,std::less<std::basic_string<wchar_t,std::char_traits<wchar_t>,std::allocator<wchar_t> > >,std::allocator<std::pair<std::basic_string<wchar_t,std::char_traits<wchar_t>,std::allocator<wchar_t> > const ,bool> >,0> >
PUBLIC	??1?$list@V?$unique_ptr@XU?$ThreadTerminator@$0A@@@@std@@V?$allocator@V?$unique_ptr@XU?$ThreadTerminator@$0A@@@@std@@@2@@std@@QAE@XZ ; std::list<std::unique_ptr<void,ThreadTerminator<0> >,std::allocator<std::unique_ptr<void,ThreadTerminator<0> > > >::~list<std::unique_ptr<void,ThreadTerminator<0> >,std::allocator<std::unique_ptr<void,ThreadTerminator<0> > > >
PUBLIC	??0?$list@V?$unique_ptr@XU?$ThreadTerminator@$0A@@@@std@@V?$allocator@V?$unique_ptr@XU?$ThreadTerminator@$0A@@@@std@@@2@@std@@QAE@XZ ; std::list<std::unique_ptr<void,ThreadTerminator<0> >,std::allocator<std::unique_ptr<void,ThreadTerminator<0> > > >::list<std::unique_ptr<void,ThreadTerminator<0> >,std::allocator<std::unique_ptr<void,ThreadTerminator<0> > > >
PUBLIC	??A?$List@UPluginInfo@@@@QAEAAUPluginInfo@@I@Z	; List<PluginInfo>::operator[]
PUBLIC	?CreateNew@?$List@UPluginInfo@@@@QAEPAUPluginInfo@@XZ ; List<PluginInfo>::CreateNew
PUBLIC	??1?$List@UPluginInfo@@@@QAE@XZ			; List<PluginInfo>::~List<PluginInfo>
PUBLIC	??0?$List@UPluginInfo@@@@QAE@XZ			; List<PluginInfo>::List<PluginInfo>
PUBLIC	??1?$List@UStreamInfo@@@@QAE@XZ			; List<StreamInfo>::~List<StreamInfo>
PUBLIC	??0?$List@UStreamInfo@@@@QAE@XZ			; List<StreamInfo>::List<StreamInfo>
PUBLIC	??1?$List@UGlobalSourceInfo@@@@QAE@XZ		; List<GlobalSourceInfo>::~List<GlobalSourceInfo>
PUBLIC	??0?$List@UGlobalSourceInfo@@@@QAE@XZ		; List<GlobalSourceInfo>::List<GlobalSourceInfo>
PUBLIC	??1?$List@UClassInfo@@@@QAE@XZ			; List<ClassInfo>::~List<ClassInfo>
PUBLIC	??0?$List@UClassInfo@@@@QAE@XZ			; List<ClassInfo>::List<ClassInfo>
PUBLIC	??A?$List@UFontInfo@@@@QAEAAUFontInfo@@I@Z	; List<FontInfo>::operator[]
PUBLIC	?CreateNew@?$List@UFontInfo@@@@QAEPAUFontInfo@@XZ ; List<FontInfo>::CreateNew
PUBLIC	?Clear@?$List@UFontInfo@@@@QAEXXZ		; List<FontInfo>::Clear
PUBLIC	?Num@?$List@UFontInfo@@@@QBEIXZ			; List<FontInfo>::Num
PUBLIC	??1?$List@UFontInfo@@@@QAE@XZ			; List<FontInfo>::~List<FontInfo>
PUBLIC	??0?$List@UFontInfo@@@@QAE@XZ			; List<FontInfo>::List<FontInfo>
PUBLIC	??A?$List@UIconInfo@@@@QAEAAUIconInfo@@I@Z	; List<IconInfo>::operator[]
PUBLIC	??6?$List@UIconInfo@@@@QAEAAV0@ABUIconInfo@@@Z	; List<IconInfo>::operator<<
PUBLIC	?Clear@?$List@UIconInfo@@@@QAEXXZ		; List<IconInfo>::Clear
PUBLIC	?Num@?$List@UIconInfo@@@@QBEIXZ			; List<IconInfo>::Num
PUBLIC	??1?$List@UIconInfo@@@@QAE@XZ			; List<IconInfo>::~List<IconInfo>
PUBLIC	??0?$List@UIconInfo@@@@QAE@XZ			; List<IconInfo>::List<IconInfo>
PUBLIC	??1?$List@UFrameAudio@@@@QAE@XZ			; List<FrameAudio>::~List<FrameAudio>
PUBLIC	??0?$List@UFrameAudio@@@@QAE@XZ			; List<FrameAudio>::List<FrameAudio>
PUBLIC	??0?$CircularList@_K@@QAE@XZ			; CircularList<unsigned __int64>::CircularList<unsigned __int64>
PUBLIC	??1?$List@UVideoSegment@@@@QAE@XZ		; List<VideoSegment>::~List<VideoSegment>
PUBLIC	??0?$List@UVideoSegment@@@@QAE@XZ		; List<VideoSegment>::List<VideoSegment>
PUBLIC	??1?$_Tree@V?$_Tmap_traits@V?$basic_string@_WU?$char_traits@_W@std@@V?$allocator@_W@2@@std@@_NU?$less@V?$basic_string@_WU?$char_traits@_W@std@@V?$allocator@_W@2@@std@@@2@V?$allocator@U?$pair@$$CBV?$basic_string@_WU?$char_traits@_W@std@@V?$allocator@_W@2@@std@@_N@std@@@2@$0A@@std@@@std@@QAE@XZ ; std::_Tree<std::_Tmap_traits<std::basic_string<wchar_t,std::char_traits<wchar_t>,std::allocator<wchar_t> >,bool,std::less<std::basic_string<wchar_t,std::char_traits<wchar_t>,std::allocator<wchar_t> > >,std::allocator<std::pair<std::basic_string<wchar_t,std::char_traits<wchar_t>,std::allocator<wchar_t> > const ,bool> >,0> >::~_Tree<std::_Tmap_traits<std::basic_string<wchar_t,std::char_traits<wchar_t>,std::allocator<wchar_t> >,bool,std::less<std::basic_string<wchar_t,std::char_traits<wchar_t>,std::allocator<wchar_t> > >,std::allocator<std::pair<std::basic_string<wchar_t,std::char_traits<wchar_t>,std::allocator<wchar_t> > const ,bool> >,0> >
PUBLIC	??0?$map@V?$basic_string@_WU?$char_traits@_W@std@@V?$allocator@_W@2@@std@@_NU?$less@V?$basic_string@_WU?$char_traits@_W@std@@V?$allocator@_W@2@@std@@@2@V?$allocator@U?$pair@$$CBV?$basic_string@_WU?$char_traits@_W@std@@V?$allocator@_W@2@@std@@_N@std@@@2@@std@@QAE@XZ ; std::map<std::basic_string<wchar_t,std::char_traits<wchar_t>,std::allocator<wchar_t> >,bool,std::less<std::basic_string<wchar_t,std::char_traits<wchar_t>,std::allocator<wchar_t> > >,std::allocator<std::pair<std::basic_string<wchar_t,std::char_traits<wchar_t>,std::allocator<wchar_t> > const ,bool> > >::map<std::basic_string<wchar_t,std::char_traits<wchar_t>,std::allocator<wchar_t> >,bool,std::less<std::basic_string<wchar_t,std::char_traits<wchar_t>,std::allocator<wchar_t> > >,std::allocator<std::pair<std::basic_string<wchar_t,std::char_traits<wchar_t>,std::allocator<wchar_t> > const ,bool> > >
PUBLIC	??A?$List@PAVSettingsPane@@@@QAEAAPAVSettingsPane@@I@Z ; List<SettingsPane *>::operator[]
PUBLIC	?Num@?$List@PAVSettingsPane@@@@QBEIXZ		; List<SettingsPane *>::Num
PUBLIC	??1?$List@PAVSettingsPane@@@@QAE@XZ		; List<SettingsPane *>::~List<SettingsPane *>
PUBLIC	??0?$List@PAVSettingsPane@@@@QAE@XZ		; List<SettingsPane *>::List<SettingsPane *>
PUBLIC	??6?$List@USceneHotkeyInfo@@@@QAEAAV0@ABUSceneHotkeyInfo@@@Z ; List<SceneHotkeyInfo>::operator<<
PUBLIC	??1?$List@USceneHotkeyInfo@@@@QAE@XZ		; List<SceneHotkeyInfo>::~List<SceneHotkeyInfo>
PUBLIC	??0?$List@USceneHotkeyInfo@@@@QAE@XZ		; List<SceneHotkeyInfo>::List<SceneHotkeyInfo>
PUBLIC	??1?$List@PAVAudioSource@@@@QAE@XZ		; List<AudioSource *>::~List<AudioSource *>
PUBLIC	??0?$List@PAVAudioSource@@@@QAE@XZ		; List<AudioSource *>::List<AudioSource *>
PUBLIC	?reset@?$unique_ptr@VNetworkStream@@U?$default_delete@VNetworkStream@@@std@@@std@@QAEXPAVNetworkStream@@@Z ; std::unique_ptr<NetworkStream,std::default_delete<NetworkStream> >::reset
PUBLIC	??1?$unique_ptr@VNetworkStream@@U?$default_delete@VNetworkStream@@@std@@@std@@QAE@XZ ; std::unique_ptr<NetworkStream,std::default_delete<NetworkStream> >::~unique_ptr<NetworkStream,std::default_delete<NetworkStream> >
PUBLIC	??0?$unique_ptr@VNetworkStream@@U?$default_delete@VNetworkStream@@@std@@@std@@QAE@XZ ; std::unique_ptr<NetworkStream,std::default_delete<NetworkStream> >::unique_ptr<NetworkStream,std::default_delete<NetworkStream> >
PUBLIC	??1?$function@$$A6AXXZ@std@@QAE@XZ		; std::function<void __cdecl(void)>::~function<void __cdecl(void)>
PUBLIC	??0?$function@$$A6AXXZ@std@@QAE@XZ		; std::function<void __cdecl(void)>::function<void __cdecl(void)>
PUBLIC	??6?$List@UMonitorInfo@@@@QAEAAV0@ABUMonitorInfo@@@Z ; List<MonitorInfo>::operator<<
PUBLIC	??1?$List@UMonitorInfo@@@@QAE@XZ		; List<MonitorInfo>::~List<MonitorInfo>
PUBLIC	??0?$List@UMonitorInfo@@@@QAE@XZ		; List<MonitorInfo>::List<MonitorInfo>
PUBLIC	??A?$List@UAudioDeviceInfo@@@@QBEAAUAudioDeviceInfo@@I@Z ; List<AudioDeviceInfo>::operator[]
PUBLIC	??A?$List@UAudioDeviceInfo@@@@QAEAAUAudioDeviceInfo@@I@Z ; List<AudioDeviceInfo>::operator[]
PUBLIC	?Num@?$List@UAudioDeviceInfo@@@@QBEIXZ		; List<AudioDeviceInfo>::Num
PUBLIC	??1?$List@UAudioDeviceInfo@@@@QAE@XZ		; List<AudioDeviceInfo>::~List<AudioDeviceInfo>
PUBLIC	??0?$List@UAudioDeviceInfo@@@@QAE@XZ		; List<AudioDeviceInfo>::List<AudioDeviceInfo>
PUBLIC	?AddVideoCaptureDevice@OBS@@QAEXXZ		; OBS::AddVideoCaptureDevice
PUBLIC	?InitLayOut@OBS@@AAEXXZ				; OBS::InitLayOut
PUBLIC	?RestartNetwork@OBS@@AAEXXZ			; OBS::RestartNetwork
PUBLIC	?DisableProjector@OBS@@AAEXXZ			; OBS::DisableProjector
PUBLIC	?EnableProjector@OBS@@AAEXI@Z			; OBS::EnableProjector
PUBLIC	?ActuallyEnableProjector@OBS@@AAEXXZ		; OBS::ActuallyEnableProjector
PUBLIC	?HideNotificationAreaIcon@OBS@@QAEHXZ		; OBS::HideNotificationAreaIcon
PUBLIC	?ShowNotificationAreaIcon@OBS@@QAEHXZ		; OBS::ShowNotificationAreaIcon
PUBLIC	?SetNotificationAreaIcon@OBS@@AAEHKHABVString@@@Z ; OBS::SetNotificationAreaIcon
PUBLIC	?SetSourceRender@OBS@@AAEXPB_W_N@Z		; OBS::SetSourceRender
PUBLIC	?CheckSources@OBS@@AAEXXZ			; OBS::CheckSources
PUBLIC	?SelectSources@OBS@@AAEXXZ			; OBS::SelectSources
PUBLIC	?DrawStatusBar@OBS@@CAXAAUtagDRAWITEMSTRUCT@@@Z	; OBS::DrawStatusBar
PUBLIC	?SetStatusBarData@OBS@@AAEXXZ			; OBS::SetStatusBarData
PUBLIC	?GetFont@OBS@@UAEPAUHFONT__@@PB_WHH@Z		; OBS::GetFont
PUBLIC	?GetIcon@OBS@@UAEPAUHICON__@@PAUHINSTANCE__@@H@Z ; OBS::GetIcon
PUBLIC	?UpdateAudioMeters@OBS@@AAEXXZ			; OBS::UpdateAudioMeters
PUBLIC	??0AudioDeviceList@@QAE@XZ			; AudioDeviceList::AudioDeviceList
PUBLIC	?ReloadIniSettings@OBS@@AAEXXZ			; OBS::ReloadIniSettings
PUBLIC	?PostConfigureStreamButtons@OBS@@AAEXXZ		; OBS::PostConfigureStreamButtons
PUBLIC	?RefreshStreamButtons@OBS@@AAEX_N@Z		; OBS::RefreshStreamButtons
PUBLIC	?GetProfiles@OBS@@SAXAAVStringList@@@Z		; OBS::GetProfiles
PUBLIC	?ProcessPanelVisible@OBS@@AAEX_N@Z		; OBS::ProcessPanelVisible
PUBLIC	?SetFullscreenMode@OBS@@QAEX_N@Z		; OBS::SetFullscreenMode
PUBLIC	?ResizeRenderFrame@OBS@@AAEX_N@Z		; OBS::ResizeRenderFrame
PUBLIC	?UpdateRenderViewMessage@OBS@@AAEXXZ		; OBS::UpdateRenderViewMessage
PUBLIC	??1OBS@@UAE@XZ					; OBS::~OBS
PUBLIC	??1PendingStreams@OBS@@QAE@XZ			; OBS::PendingStreams::~PendingStreams
PUBLIC	??1?$CircularList@_K@@QAE@XZ			; CircularList<unsigned __int64>::~CircularList<unsigned __int64>
PUBLIC	??1?$map@V?$basic_string@_WU?$char_traits@_W@std@@V?$allocator@_W@2@@std@@_NU?$less@V?$basic_string@_WU?$char_traits@_W@std@@V?$allocator@_W@2@@std@@@2@V?$allocator@U?$pair@$$CBV?$basic_string@_WU?$char_traits@_W@std@@V?$allocator@_W@2@@std@@_N@std@@@2@@std@@QAE@XZ ; std::map<std::basic_string<wchar_t,std::char_traits<wchar_t>,std::allocator<wchar_t> >,bool,std::less<std::basic_string<wchar_t,std::char_traits<wchar_t>,std::allocator<wchar_t> > >,std::allocator<std::pair<std::basic_string<wchar_t,std::char_traits<wchar_t>,std::allocator<wchar_t> > const ,bool> > >::~map<std::basic_string<wchar_t,std::char_traits<wchar_t>,std::allocator<wchar_t> >,bool,std::less<std::basic_string<wchar_t,std::char_traits<wchar_t>,std::allocator<wchar_t> > >,std::allocator<std::pair<std::basic_string<wchar_t,std::char_traits<wchar_t>,std::allocator<wchar_t> > const ,bool> > >
PUBLIC	??1StopInfo@OBS@@QAE@XZ				; OBS::StopInfo::~StopInfo
PUBLIC	??0StopInfo@OBS@@QAE@XZ				; OBS::StopInfo::StopInfo
PUBLIC	??_GOBS@@UAEPAXI@Z				; OBS::`scalar deleting destructor'
PUBLIC	?CheckPermissionsAndDiskSpace@@YAXXZ		; CheckPermissionsAndDiskSpace
PUBLIC	?IsWebrootLoaded@@YAHXZ				; IsWebrootLoaded
PUBLIC	??_GScene@@UAEPAXI@Z				; Scene::`scalar deleting destructor'
PUBLIC	?CreateNormalScene@@YGPAVScene@@PAVXElement@@@Z	; CreateNormalScene
PUBLIC	?MonitorInfoEnumProc@@YGHPAUHMONITOR__@@PAUHDC__@@PAUtagRECT@@AAV?$List@UMonitorInfo@@@@@Z ; MonitorInfoEnumProc
PUBLIC	??0PendingStreams@OBS@@QAE@XZ			; OBS::PendingStreams::PendingStreams
PUBLIC	?FreeData@ClassInfo@@QAEXXZ			; ClassInfo::FreeData
PUBLIC	??0MonitorInfo@@QAE@PAUHMONITOR__@@PAUtagRECT@@@Z ; MonitorInfo::MonitorInfo
PUBLIC	?HasID@AudioDeviceList@@QBE_NPB_W@Z		; AudioDeviceList::HasID
PUBLIC	?FreeData@AudioDeviceList@@QAEXXZ		; AudioDeviceList::FreeData
PUBLIC	??1AudioDeviceList@@QAE@XZ			; AudioDeviceList::~AudioDeviceList
PUBLIC	?FreeData@AudioDeviceInfo@@QAEXXZ		; AudioDeviceInfo::FreeData
PUBLIC	_CommctrlIsolationAwarePrivatetRgCebPnQQeRff_pbZPgYQP_QYY@4
PUBLIC	_IsolationAwareInitCommonControlsEx@4
PUBLIC	?LoadAllPlugins@OBS@@QAEXXZ			; OBS::LoadAllPlugins
PUBLIC	??0OBS@@QAE@XZ					; OBS::OBS
PUBLIC	?ConfigureStreamButtons@OBS@@AAEXXZ		; OBS::ConfigureStreamButtons
PUBLIC	?ResizeWindow@OBS@@QAEX_N@Z			; OBS::ResizeWindow
PUBLIC	?GetThreadHandles@OBS@@QAEXPAPAX0@Z		; OBS::GetThreadHandles
PUBLIC	?UpdateNotificationAreaIcon@OBS@@QAEHXZ		; OBS::UpdateNotificationAreaIcon
PUBLIC	?GetSceneCollection@OBS@@SAXAAVStringList@@@Z	; OBS::GetSceneCollection
PUBLIC	?GetBaseSize@OBS@@QBEXAAI0@Z			; OBS::GetBaseSize
PUBLIC	?ReloadSceneCollection@OBS@@AAEXXZ		; OBS::ReloadSceneCollection
EXTRN	??_EScene@@UAEPAXI@Z:PROC			; Scene::`vector deleting destructor'
EXTRN	??_EOBS@@UAEPAXI@Z:PROC				; OBS::`vector deleting destructor'
	ALIGN	4

__Tuple_alloc DB 01H DUP (?)
	ALIGN	4

_ignore	DB	01H DUP (?)
	ALIGN	4

_allocator_arg DB 01H DUP (?)
	ALIGN	4

_piecewise_construct DB 01H DUP (?)
_BSS	ENDS
;	COMDAT xdata$x
xdata$x	SEGMENT
__sehtable$_IsolationAwareInitCommonControlsEx@4 DD 0fffffffeH
	DD	00H
	DD	0ffffffb4H
	DD	00H
	DD	0fffffffeH
	DD	00H
	DD	FLAT:$LN21@IsolationA
xdata$x	ENDS
;	COMDAT xdata$x
xdata$x	SEGMENT
__sehtable$_CommctrlIsolationAwarePrivatetRgCebPnQQeRff_pbZPgYQP_QYY@4 DD 0fffffffeH
	DD	00H
	DD	0ffffffc4H
	DD	00H
	DD	0fffffffeH
	DD	00H
	DD	FLAT:$LN16@CommctrlIs
xdata$x	ENDS
;	COMDAT xdata$x
xdata$x	SEGMENT
__ehfuncinfo$?_Buynode0@?$_List_alloc@$0A@U?$_List_base_types@V?$unique_ptr@XU?$ThreadTerminator@$0A@@@@std@@V?$allocator@V?$unique_ptr@XU?$ThreadTerminator@$0A@@@@std@@@2@@std@@@std@@QAEPAU?$_List_node@V?$unique_ptr@XU?$ThreadTerminator@$0A@@@@std@@PAX@2@PAU32@0@Z DD 019930522H
	DD	02H
	DD	FLAT:__unwindtable$?_Buynode0@?$_List_alloc@$0A@U?$_List_base_types@V?$unique_ptr@XU?$ThreadTerminator@$0A@@@@std@@V?$allocator@V?$unique_ptr@XU?$ThreadTerminator@$0A@@@@std@@@2@@std@@@std@@QAEPAU?$_List_node@V?$unique_ptr@XU?$ThreadTerminator@$0A@@@@std@@PAX@2@PAU32@0@Z
	DD	01H
	DD	FLAT:__tryblocktable$?_Buynode0@?$_List_alloc@$0A@U?$_List_base_types@V?$unique_ptr@XU?$ThreadTerminator@$0A@@@@std@@V?$allocator@V?$unique_ptr@XU?$ThreadTerminator@$0A@@@@std@@@2@@std@@@std@@QAEPAU?$_List_node@V?$unique_ptr@XU?$ThreadTerminator@$0A@@@@std@@PAX@2@PAU32@0@Z
	DD	2 DUP(00H)
	DD	00H
	DD	00H
__unwindtable$?_Buynode0@?$_List_alloc@$0A@U?$_List_base_types@V?$unique_ptr@XU?$ThreadTerminator@$0A@@@@std@@V?$allocator@V?$unique_ptr@XU?$ThreadTerminator@$0A@@@@std@@@2@@std@@@std@@QAEPAU?$_List_node@V?$unique_ptr@XU?$ThreadTerminator@$0A@@@@std@@PAX@2@PAU32@0@Z DD 0ffffffffH
	DD	00H
	DD	0ffffffffH
	DD	00H
__tryblocktable$?_Buynode0@?$_List_alloc@$0A@U?$_List_base_types@V?$unique_ptr@XU?$ThreadTerminator@$0A@@@@std@@V?$allocator@V?$unique_ptr@XU?$ThreadTerminator@$0A@@@@std@@@2@@std@@@std@@QAEPAU?$_List_node@V?$unique_ptr@XU?$ThreadTerminator@$0A@@@@std@@PAX@2@PAU32@0@Z DD 00H
	DD	00H
	DD	01H
	DD	01H
	DD	FLAT:__catchsym$?_Buynode0@?$_List_alloc@$0A@U?$_List_base_types@V?$unique_ptr@XU?$ThreadTerminator@$0A@@@@std@@V?$allocator@V?$unique_ptr@XU?$ThreadTerminator@$0A@@@@std@@@2@@std@@@std@@QAEPAU?$_List_node@V?$unique_ptr@XU?$ThreadTerminator@$0A@@@@std@@PAX@2@PAU32@0@Z$2
__catchsym$?_Buynode0@?$_List_alloc@$0A@U?$_List_base_types@V?$unique_ptr@XU?$ThreadTerminator@$0A@@@@std@@V?$allocator@V?$unique_ptr@XU?$ThreadTerminator@$0A@@@@std@@@2@@std@@@std@@QAEPAU?$_List_node@V?$unique_ptr@XU?$ThreadTerminator@$0A@@@@std@@PAX@2@PAU32@0@Z$2 DD 00H
	DD	00H
	DD	00H
	DD	FLAT:__catch$?_Buynode0@?$_List_alloc@$0A@U?$_List_base_types@V?$unique_ptr@XU?$ThreadTerminator@$0A@@@@std@@V?$allocator@V?$unique_ptr@XU?$ThreadTerminator@$0A@@@@std@@@2@@std@@@std@@QAEPAU?$_List_node@V?$unique_ptr@XU?$ThreadTerminator@$0A@@@@std@@PAX@2@PAU32@0@Z$0
xdata$x	ENDS
;	COMDAT xdata$x
xdata$x	SEGMENT
__ehfuncinfo$?_Buyheadnode@?$_Tree_alloc@$0A@U?$_Tree_base_types@U?$pair@$$CBV?$basic_string@_WU?$char_traits@_W@std@@V?$allocator@_W@2@@std@@_N@std@@V?$allocator@U?$pair@$$CBV?$basic_string@_WU?$char_traits@_W@std@@V?$allocator@_W@2@@std@@_N@std@@@2@@std@@@std@@QAEPAU?$_Tree_node@U?$pair@$$CBV?$basic_string@_WU?$char_traits@_W@std@@V?$allocator@_W@2@@std@@_N@std@@PAX@2@XZ DD 019930522H
	DD	02H
	DD	FLAT:__unwindtable$?_Buyheadnode@?$_Tree_alloc@$0A@U?$_Tree_base_types@U?$pair@$$CBV?$basic_string@_WU?$char_traits@_W@std@@V?$allocator@_W@2@@std@@_N@std@@V?$allocator@U?$pair@$$CBV?$basic_string@_WU?$char_traits@_W@std@@V?$allocator@_W@2@@std@@_N@std@@@2@@std@@@std@@QAEPAU?$_Tree_node@U?$pair@$$CBV?$basic_string@_WU?$char_traits@_W@std@@V?$allocator@_W@2@@std@@_N@std@@PAX@2@XZ
	DD	01H
	DD	FLAT:__tryblocktable$?_Buyheadnode@?$_Tree_alloc@$0A@U?$_Tree_base_types@U?$pair@$$CBV?$basic_string@_WU?$char_traits@_W@std@@V?$allocator@_W@2@@std@@_N@std@@V?$allocator@U?$pair@$$CBV?$basic_string@_WU?$char_traits@_W@std@@V?$allocator@_W@2@@std@@_N@std@@@2@@std@@@std@@QAEPAU?$_Tree_node@U?$pair@$$CBV?$basic_string@_WU?$char_traits@_W@std@@V?$allocator@_W@2@@std@@_N@std@@PAX@2@XZ
	DD	2 DUP(00H)
	DD	00H
	DD	00H
__unwindtable$?_Buyheadnode@?$_Tree_alloc@$0A@U?$_Tree_base_types@U?$pair@$$CBV?$basic_string@_WU?$char_traits@_W@std@@V?$allocator@_W@2@@std@@_N@std@@V?$allocator@U?$pair@$$CBV?$basic_string@_WU?$char_traits@_W@std@@V?$allocator@_W@2@@std@@_N@std@@@2@@std@@@std@@QAEPAU?$_Tree_node@U?$pair@$$CBV?$basic_string@_WU?$char_traits@_W@std@@V?$allocator@_W@2@@std@@_N@std@@PAX@2@XZ DD 0ffffffffH
	DD	00H
	DD	0ffffffffH
	DD	00H
__tryblocktable$?_Buyheadnode@?$_Tree_alloc@$0A@U?$_Tree_base_types@U?$pair@$$CBV?$basic_string@_WU?$char_traits@_W@std@@V?$allocator@_W@2@@std@@_N@std@@V?$allocator@U?$pair@$$CBV?$basic_string@_WU?$char_traits@_W@std@@V?$allocator@_W@2@@std@@_N@std@@@2@@std@@@std@@QAEPAU?$_Tree_node@U?$pair@$$CBV?$basic_string@_WU?$char_traits@_W@std@@V?$allocator@_W@2@@std@@_N@std@@PAX@2@XZ DD 00H
	DD	00H
	DD	01H
	DD	01H
	DD	FLAT:__catchsym$?_Buyheadnode@?$_Tree_alloc@$0A@U?$_Tree_base_types@U?$pair@$$CBV?$basic_string@_WU?$char_traits@_W@std@@V?$allocator@_W@2@@std@@_N@std@@V?$allocator@U?$pair@$$CBV?$basic_string@_WU?$char_traits@_W@std@@V?$allocator@_W@2@@std@@_N@std@@@2@@std@@@std@@QAEPAU?$_Tree_node@U?$pair@$$CBV?$basic_string@_WU?$char_traits@_W@std@@V?$allocator@_W@2@@std@@_N@std@@PAX@2@XZ$2
__catchsym$?_Buyheadnode@?$_Tree_alloc@$0A@U?$_Tree_base_types@U?$pair@$$CBV?$basic_string@_WU?$char_traits@_W@std@@V?$allocator@_W@2@@std@@_N@std@@V?$allocator@U?$pair@$$CBV?$basic_string@_WU?$char_traits@_W@std@@V?$allocator@_W@2@@std@@_N@std@@@2@@std@@@std@@QAEPAU?$_Tree_node@U?$pair@$$CBV?$basic_string@_WU?$char_traits@_W@std@@V?$allocator@_W@2@@std@@_N@std@@PAX@2@XZ$2 DD 00H
	DD	00H
	DD	00H
	DD	FLAT:__catch$?_Buyheadnode@?$_Tree_alloc@$0A@U?$_Tree_base_types@U?$pair@$$CBV?$basic_string@_WU?$char_traits@_W@std@@V?$allocator@_W@2@@std@@_N@std@@V?$allocator@U?$pair@$$CBV?$basic_string@_WU?$char_traits@_W@std@@V?$allocator@_W@2@@std@@_N@std@@@2@@std@@@std@@QAEPAU?$_Tree_node@U?$pair@$$CBV?$basic_string@_WU?$char_traits@_W@std@@V?$allocator@_W@2@@std@@_N@std@@PAX@2@XZ$0
_piecewise_construct$initializer$ DD FLAT:??__Epiecewise_construct@std@@YAXXZ
_allocator_arg$initializer$ DD FLAT:??__Eallocator_arg@std@@YAXXZ
_ignore$initializer$ DD FLAT:??__Eignore@std@@YAXXZ
__Tuple_alloc$initializer$ DD FLAT:??__E_Tuple_alloc@std@@YAXXZ
; Function compile flags: /Odtp
; File f:\songmm_moon_stone_obs\obs\source\obs.cpp
;	COMDAT ?ReloadSceneCollection@OBS@@AAEXXZ
_TEXT	SEGMENT
_hotkeyInfo$1 = -76					; size = 12
_strScene$2 = -64					; size = 8
_strScenesConfig$ = -56					; size = 8
_scene$3 = -48						; size = 4
_scene$4 = -44						; size = 4
_collection$ = -40					; size = 4
_scene$5 = -36						; size = 4
_hotkey$6 = -32						; size = 4
_id$7 = -28						; size = 4
_this$ = -24						; size = 4
_i$8 = -20						; size = 4
_hwndTemp$ = -16					; size = 4
_i$9 = -12						; size = 4
_scenes$ = -8						; size = 4
_numScenes$ = -4					; size = 4
?ReloadSceneCollection@OBS@@AAEXXZ PROC			; OBS::ReloadSceneCollection, COMDAT
; _this$ = ecx

; 1457 : {

	push	ebp
	mov	ebp, esp
	sub	esp, 76					; 0000004cH
	mov	DWORD PTR _this$[ebp], ecx

; 1458 :     HWND hwndTemp;
; 1459 :     hwndTemp = GetDlgItem(hwndMain, ID_SCENES);

	push	5011					; 00001393H
	mov	eax, DWORD PTR ?hwndMain@@3PAUHWND__@@A	; hwndMain
	push	eax
	call	DWORD PTR __imp__GetDlgItem@8
	mov	DWORD PTR _hwndTemp$[ebp], eax

; 1460 : 
; 1461 :     CTSTR collection = GetCurrentSceneCollection();

	call	?GetCurrentSceneCollection@OBS@@SAPB_WXZ ; OBS::GetCurrentSceneCollection
	mov	DWORD PTR _collection$[ebp], eax

; 1462 :     String strScenesConfig = FormattedString(L"%s\\sceneCollection\\%s.xconfig", lpAppDataPath, collection);

	mov	ecx, DWORD PTR _collection$[ebp]
	push	ecx
	push	OFFSET ?lpAppDataPath@@3PA_WA		; lpAppDataPath
	push	OFFSET $SG4294800501
	lea	edx, DWORD PTR _strScenesConfig$[ebp]
	push	edx
	call	DWORD PTR __imp_?FormattedString@@YA?AVString@@PB_WZZ
	add	esp, 16					; 00000010H

; 1463 : 
; 1464 :     if (!scenesConfig.Open(strScenesConfig))

	lea	ecx, DWORD PTR _strScenesConfig$[ebp]
	call	DWORD PTR __imp_??BString@@QBEPA_WXZ
	push	eax
	mov	ecx, DWORD PTR _this$[ebp]
	add	ecx, 168				; 000000a8H
	call	DWORD PTR __imp_?Open@XConfig@@QAE_NPB_W@Z
	movzx	eax, al
	test	eax, eax
	jne	SHORT $LN13@ReloadScen

; 1465 :         CrashError(TEXT("Could not open '%s'"), strScenesConfig.Array());

	lea	ecx, DWORD PTR _strScenesConfig$[ebp]
	call	DWORD PTR __imp_?Array@String@@QBEPA_WXZ
	push	eax
	push	OFFSET $SG4294800500
	call	DWORD PTR __imp_?CrashError@@YAXPB_WZZ
$LN13@ReloadScen:

; 1466 : 
; 1467 :     XElement *scenes = scenesConfig.GetElement(TEXT("scenes"));

	push	OFFSET $SG4294800499
	mov	ecx, DWORD PTR _this$[ebp]
	add	ecx, 168				; 000000a8H
	call	DWORD PTR __imp_?GetElement@XConfig@@QAEPAVXElement@@PB_W@Z
	mov	DWORD PTR _scenes$[ebp], eax

; 1468 : 
; 1469 :     if (!scenes)

	cmp	DWORD PTR _scenes$[ebp], 0
	jne	SHORT $LN12@ReloadScen

; 1470 :         scenes = scenesConfig.CreateElement(TEXT("scenes"));

	push	OFFSET $SG4294800498
	mov	ecx, DWORD PTR _this$[ebp]
	add	ecx, 168				; 000000a8H
	call	DWORD PTR __imp_?CreateElement@XConfig@@QAEPAVXElement@@PB_W@Z
	mov	DWORD PTR _scenes$[ebp], eax
$LN12@ReloadScen:

; 1471 : 
; 1472 :     SendMessage(hwndTemp, LB_RESETCONTENT, 0, 0);

	push	0
	push	0
	push	388					; 00000184H
	mov	ecx, DWORD PTR _hwndTemp$[ebp]
	push	ecx
	call	DWORD PTR __imp__SendMessageW@16

; 1473 : 
; 1474 :     App->sceneElement = NULL;

	mov	edx, DWORD PTR ?App@@3PAVOBS@@A		; App
	mov	DWORD PTR [edx+212], 0

; 1475 :     
; 1476 :     UINT numScenes = scenes->NumElements();

	push	0
	mov	ecx, DWORD PTR _scenes$[ebp]
	call	DWORD PTR __imp_?NumElements@XElement@@QAEKPB_W@Z
	mov	DWORD PTR _numScenes$[ebp], eax

; 1477 :     if (!numScenes)

	cmp	DWORD PTR _numScenes$[ebp], 0
	jne	SHORT $LN11@ReloadScen

; 1478 :     {
; 1479 :         XElement *scene = scenes->CreateElement(Str("Scene"));

	push	OFFSET $SG4294800497
	mov	eax, DWORD PTR __imp_?locale@@3PAVLocaleStringLookup@@A
	mov	ecx, DWORD PTR [eax]
	call	DWORD PTR __imp_?LookupString@LocaleStringLookup@@QAEPB_WPB_W@Z
	push	eax
	mov	ecx, DWORD PTR _scenes$[ebp]
	call	DWORD PTR __imp_?CreateElement@XElement@@QAEPAV1@PB_W@Z
	mov	DWORD PTR _scene$4[ebp], eax

; 1480 :         scene->SetString(TEXT("class"), TEXT("Scene"));

	push	OFFSET $SG4294800496
	push	OFFSET $SG4294800495
	mov	ecx, DWORD PTR _scene$4[ebp]
	call	DWORD PTR __imp_?SetString@XElement@@QAEXPB_W0@Z

; 1481 :         numScenes++;

	mov	ecx, DWORD PTR _numScenes$[ebp]
	add	ecx, 1
	mov	DWORD PTR _numScenes$[ebp], ecx
$LN11@ReloadScen:

; 1482 :     }
; 1483 : 
; 1484 :     for (UINT i = 0; i<numScenes; i++)

	mov	DWORD PTR _i$9[ebp], 0
	jmp	SHORT $LN10@ReloadScen
$LN9@ReloadScen:
	mov	edx, DWORD PTR _i$9[ebp]
	add	edx, 1
	mov	DWORD PTR _i$9[ebp], edx
$LN10@ReloadScen:
	mov	eax, DWORD PTR _i$9[ebp]
	cmp	eax, DWORD PTR _numScenes$[ebp]
	jae	SHORT $LN8@ReloadScen

; 1485 :     {
; 1486 :         XElement *scene = scenes->GetElementByID(i);

	mov	ecx, DWORD PTR _i$9[ebp]
	push	ecx
	mov	ecx, DWORD PTR _scenes$[ebp]
	call	DWORD PTR __imp_?GetElementByID@XElement@@QBEPAV1@K@Z
	mov	DWORD PTR _scene$3[ebp], eax

; 1487 :         SendMessage(hwndTemp, LB_ADDSTRING, 0, (LPARAM)scene->GetName());

	mov	ecx, DWORD PTR _scene$3[ebp]
	call	DWORD PTR __imp_?GetName@XBaseItem@@QBEPB_WXZ
	push	eax
	push	0
	push	384					; 00000180H
	mov	edx, DWORD PTR _hwndTemp$[ebp]
	push	edx
	call	DWORD PTR __imp__SendMessageW@16

; 1488 :     }

	jmp	SHORT $LN9@ReloadScen
$LN8@ReloadScen:

; 1489 :     //-----------------------------------------------------
; 1490 :     // populate sources
; 1491 : 
; 1492 :     if (numScenes)

	cmp	DWORD PTR _numScenes$[ebp], 0
	je	$LN7@ReloadScen

; 1493 :     {
; 1494 :         String strScene = AppConfig->GetString(TEXT("General"), TEXT("CurrentScene"));

	push	0
	push	OFFSET $SG4294800494
	push	OFFSET $SG4294800493
	lea	eax, DWORD PTR _strScene$2[ebp]
	push	eax
	mov	ecx, DWORD PTR ?AppConfig@@3PAVConfigFile@@A ; AppConfig
	call	DWORD PTR __imp_?GetString@ConfigFile@@QAE?AVString@@PB_W00@Z

; 1495 :         int id = (int)SendMessage(hwndTemp, LB_FINDSTRINGEXACT, -1, (LPARAM)strScene.Array());

	lea	ecx, DWORD PTR _strScene$2[ebp]
	call	DWORD PTR __imp_?Array@String@@QBEPA_WXZ
	push	eax
	push	-1
	push	418					; 000001a2H
	mov	ecx, DWORD PTR _hwndTemp$[ebp]
	push	ecx
	call	DWORD PTR __imp__SendMessageW@16
	mov	DWORD PTR _id$7[ebp], eax

; 1496 :         if (id == LB_ERR)

	cmp	DWORD PTR _id$7[ebp], -1
	jne	SHORT $LN6@ReloadScen

; 1497 :             id = 0;

	mov	DWORD PTR _id$7[ebp], 0
$LN6@ReloadScen:

; 1498 : 
; 1499 :         SendMessage(hwndTemp, LB_SETCURSEL, (WPARAM)id, 0);

	push	0
	mov	edx, DWORD PTR _id$7[ebp]
	push	edx
	push	390					; 00000186H
	mov	eax, DWORD PTR _hwndTemp$[ebp]
	push	eax
	call	DWORD PTR __imp__SendMessageW@16

; 1500 :         SendMessage(hwndMain, WM_COMMAND, MAKEWPARAM(ID_SCENES, LBN_SELCHANGE), (LPARAM)GetDlgItem(hwndMain, ID_SCENES));

	push	5011					; 00001393H
	mov	ecx, DWORD PTR ?hwndMain@@3PAUHWND__@@A	; hwndMain
	push	ecx
	call	DWORD PTR __imp__GetDlgItem@8
	push	eax
	push	70547					; 00011393H
	push	273					; 00000111H
	mov	edx, DWORD PTR ?hwndMain@@3PAUHWND__@@A	; hwndMain
	push	edx
	call	DWORD PTR __imp__SendMessageW@16

; 1501 :     }

	lea	ecx, DWORD PTR _strScene$2[ebp]
	call	DWORD PTR __imp_??1String@@QAE@XZ
$LN7@ReloadScen:

; 1502 : 
; 1503 :     //-----------------------------------------------------
; 1504 : 
; 1505 :     for (UINT i = 0; i<numScenes; i++)

	mov	DWORD PTR _i$8[ebp], 0
	jmp	SHORT $LN5@ReloadScen
$LN4@ReloadScen:
	mov	eax, DWORD PTR _i$8[ebp]
	add	eax, 1
	mov	DWORD PTR _i$8[ebp], eax
$LN5@ReloadScen:
	mov	ecx, DWORD PTR _i$8[ebp]
	cmp	ecx, DWORD PTR _numScenes$[ebp]
	jae	SHORT $LN3@ReloadScen

; 1506 :     {
; 1507 :         XElement *scene = scenes->GetElementByID(i);

	mov	edx, DWORD PTR _i$8[ebp]
	push	edx
	mov	ecx, DWORD PTR _scenes$[ebp]
	call	DWORD PTR __imp_?GetElementByID@XElement@@QBEPAV1@K@Z
	mov	DWORD PTR _scene$5[ebp], eax

; 1508 :         DWORD hotkey = scene->GetInt(TEXT("hotkey"));

	push	0
	push	OFFSET $SG4294800492
	mov	ecx, DWORD PTR _scene$5[ebp]
	call	DWORD PTR __imp_?GetInt@XElement@@QBEHPB_WH@Z
	mov	DWORD PTR _hotkey$6[ebp], eax

; 1509 :         if (hotkey)

	cmp	DWORD PTR _hotkey$6[ebp], 0
	je	SHORT $LN2@ReloadScen

; 1510 :         {
; 1511 :             SceneHotkeyInfo hotkeyInfo;
; 1512 :             hotkeyInfo.hotkey = hotkey;

	mov	eax, DWORD PTR _hotkey$6[ebp]
	mov	DWORD PTR _hotkeyInfo$1[ebp+4], eax

; 1513 :             hotkeyInfo.scene = scene;

	mov	ecx, DWORD PTR _scene$5[ebp]
	mov	DWORD PTR _hotkeyInfo$1[ebp+8], ecx

; 1514 :             hotkeyInfo.hotkeyID = API->CreateHotkey(hotkey, SceneHotkey, 0);

	push	0
	push	OFFSET ?SceneHotkey@@YGXKK_N@Z		; SceneHotkey
	mov	edx, DWORD PTR _hotkey$6[ebp]
	push	edx
	mov	eax, DWORD PTR __imp_?API@@3PAVAPIInterface@@A
	mov	ecx, DWORD PTR [eax]
	mov	edx, DWORD PTR __imp_?API@@3PAVAPIInterface@@A
	mov	eax, DWORD PTR [ecx]
	mov	ecx, DWORD PTR [edx]
	mov	edx, DWORD PTR [eax+52]
	call	edx
	mov	DWORD PTR _hotkeyInfo$1[ebp], eax

; 1515 : 
; 1516 :             if (hotkeyInfo.hotkeyID)

	cmp	DWORD PTR _hotkeyInfo$1[ebp], 0
	je	SHORT $LN2@ReloadScen

; 1517 :                 sceneHotkeys << hotkeyInfo;

	lea	eax, DWORD PTR _hotkeyInfo$1[ebp]
	push	eax
	mov	ecx, DWORD PTR _this$[ebp]
	add	ecx, 204				; 000000ccH
	call	??6?$List@USceneHotkeyInfo@@@@QAEAAV0@ABUSceneHotkeyInfo@@@Z ; List<SceneHotkeyInfo>::operator<<
$LN2@ReloadScen:

; 1518 :         }
; 1519 :     }

	jmp	$LN4@ReloadScen
$LN3@ReloadScen:

; 1520 : }

	lea	ecx, DWORD PTR _strScenesConfig$[ebp]
	call	DWORD PTR __imp_??1String@@QAE@XZ
$LN15@ReloadScen:
	mov	esp, ebp
	pop	ebp
	ret	0
?ReloadSceneCollection@OBS@@AAEXXZ ENDP			; OBS::ReloadSceneCollection
_TEXT	ENDS
; Function compile flags: /Odtp
; File f:\songmm_moon_stone_obs\obs\source\obs.cpp
;	COMDAT ?GetBaseSize@OBS@@QBEXAAI0@Z
_TEXT	SEGMENT
_defCY$1 = -20						; size = 4
_defCX$2 = -16						; size = 4
_monitorID$3 = -12					; size = 4
_screenRect$4 = -8					; size = 4
_this$ = -4						; size = 4
_width$ = 8						; size = 4
_height$ = 12						; size = 4
?GetBaseSize@OBS@@QBEXAAI0@Z PROC			; OBS::GetBaseSize, COMDAT
; _this$ = ecx

; 1200 : {

	push	ebp
	mov	ebp, esp
	sub	esp, 20					; 00000014H
	mov	DWORD PTR _this$[ebp], ecx

; 1201 :     if(bRunning)

	mov	eax, DWORD PTR _this$[ebp]
	movzx	ecx, BYTE PTR [eax+622]
	test	ecx, ecx
	je	SHORT $LN3@GetBaseSiz

; 1202 :     {
; 1203 :         width = baseCX;

	mov	edx, DWORD PTR _width$[ebp]
	mov	eax, DWORD PTR _this$[ebp]
	mov	ecx, DWORD PTR [eax+856]
	mov	DWORD PTR [edx], ecx

; 1204 :         height = baseCY;

	mov	edx, DWORD PTR _height$[ebp]
	mov	eax, DWORD PTR _this$[ebp]
	mov	ecx, DWORD PTR [eax+860]
	mov	DWORD PTR [edx], ecx

; 1205 :     }
; 1206 :     else

	jmp	$LN4@GetBaseSiz
$LN3@GetBaseSiz:

; 1207 :     {
; 1208 :         int monitorID = AppConfig->GetInt(TEXT("Video"), TEXT("Monitor"));

	push	0
	push	OFFSET $SG4294800521
	push	OFFSET $SG4294800520
	mov	ecx, DWORD PTR ?AppConfig@@3PAVConfigFile@@A ; AppConfig
	call	DWORD PTR __imp_?GetInt@ConfigFile@@QAEHPB_W0H@Z
	mov	DWORD PTR _monitorID$3[ebp], eax

; 1209 :         if(monitorID >= (int)monitors.Num())

	mov	ecx, DWORD PTR _this$[ebp]
	add	ecx, 156				; 0000009cH
	call	?Num@?$List@UMonitorInfo@@@@QBEIXZ	; List<MonitorInfo>::Num
	cmp	DWORD PTR _monitorID$3[ebp], eax
	jl	SHORT $LN1@GetBaseSiz

; 1210 :             monitorID = 0;

	mov	DWORD PTR _monitorID$3[ebp], 0
$LN1@GetBaseSiz:

; 1211 : 
; 1212 :         RECT &screenRect = monitors[monitorID].rect;

	mov	edx, DWORD PTR _monitorID$3[ebp]
	push	edx
	mov	ecx, DWORD PTR _this$[ebp]
	add	ecx, 156				; 0000009cH
	call	??A?$List@UMonitorInfo@@@@QBEAAUMonitorInfo@@I@Z ; List<MonitorInfo>::operator[]
	add	eax, 4
	mov	DWORD PTR _screenRect$4[ebp], eax

; 1213 :         int defCX = screenRect.right  - screenRect.left;

	mov	eax, DWORD PTR _screenRect$4[ebp]
	mov	ecx, DWORD PTR _screenRect$4[ebp]
	mov	edx, DWORD PTR [eax+8]
	sub	edx, DWORD PTR [ecx]
	mov	DWORD PTR _defCX$2[ebp], edx

; 1214 :         int defCY = screenRect.bottom - screenRect.top;

	mov	eax, DWORD PTR _screenRect$4[ebp]
	mov	ecx, DWORD PTR _screenRect$4[ebp]
	mov	edx, DWORD PTR [eax+12]
	sub	edx, DWORD PTR [ecx+4]
	mov	DWORD PTR _defCY$1[ebp], edx

; 1215 : 
; 1216 :         width = AppConfig->GetInt(TEXT("Video"), TEXT("BaseWidth"),  defCX);

	mov	eax, DWORD PTR _defCX$2[ebp]
	push	eax
	push	OFFSET $SG4294800519
	push	OFFSET $SG4294800518
	mov	ecx, DWORD PTR ?AppConfig@@3PAVConfigFile@@A ; AppConfig
	call	DWORD PTR __imp_?GetInt@ConfigFile@@QAEHPB_W0H@Z
	mov	ecx, DWORD PTR _width$[ebp]
	mov	DWORD PTR [ecx], eax

; 1217 :         height = AppConfig->GetInt(TEXT("Video"), TEXT("BaseHeight"), defCY);

	mov	edx, DWORD PTR _defCY$1[ebp]
	push	edx
	push	OFFSET $SG4294800517
	push	OFFSET $SG4294800516
	mov	ecx, DWORD PTR ?AppConfig@@3PAVConfigFile@@A ; AppConfig
	call	DWORD PTR __imp_?GetInt@ConfigFile@@QAEHPB_W0H@Z
	mov	ecx, DWORD PTR _height$[ebp]
	mov	DWORD PTR [ecx], eax
$LN4@GetBaseSiz:

; 1218 :     }
; 1219 : }

	mov	esp, ebp
	pop	ebp
	ret	8
?GetBaseSize@OBS@@QBEXAAI0@Z ENDP			; OBS::GetBaseSize
_TEXT	ENDS
; Function compile flags: /Odtp
; File f:\songmm_moon_stone_obs\obs\source\obs.cpp
;	COMDAT ?GetSceneCollection@OBS@@SAXAAVStringList@@@Z
_TEXT	SEGMENT
$T1 = -576						; size = 8
_strSceneCollectionWildcard$ = -568			; size = 8
_sceneCollectionPath$2 = -560				; size = 8
_sceneCollectionDir$ = -552				; size = 8
_sceneCollection$3 = -544				; size = 8
_hFind$ = -536						; size = 4
_ofd$ = -532						; size = 528
__$ArrayPad$ = -4					; size = 4
_sceneCollectionList$ = 8				; size = 4
?GetSceneCollection@OBS@@SAXAAVStringList@@@Z PROC	; OBS::GetSceneCollection, COMDAT

; 1396 : {

	push	ebp
	mov	ebp, esp
	sub	esp, 576				; 00000240H
	mov	eax, DWORD PTR ___security_cookie
	xor	eax, ebp
	mov	DWORD PTR __$ArrayPad$[ebp], eax

; 1397 :     String strSceneCollectionWildcard;

	lea	ecx, DWORD PTR _strSceneCollectionWildcard$[ebp]
	call	DWORD PTR __imp_??0String@@QAE@XZ

; 1398 :     OSFindData ofd;
; 1399 :     HANDLE hFind;
; 1400 : 
; 1401 :     sceneCollectionList.Clear();

	mov	ecx, DWORD PTR _sceneCollectionList$[ebp]
	call	DWORD PTR __imp_?Clear@StringList@@QAEXXZ

; 1402 : 
; 1403 :     String sceneCollectionDir(FormattedString(L"%s/sceneCollection/", OBSGetAppDataPath()));

	call	DWORD PTR __imp_?OBSGetAppDataPath@@YAPB_WXZ
	push	eax
	push	OFFSET $SG4294800512
	lea	eax, DWORD PTR _sceneCollectionDir$[ebp]
	push	eax
	call	DWORD PTR __imp_?FormattedString@@YA?AVString@@PB_WZZ
	add	esp, 12					; 0000000cH

; 1404 :     strSceneCollectionWildcard << sceneCollectionDir << "*.xconfig";

	push	OFFSET $SG4294800511
	lea	ecx, DWORD PTR $T1[ebp]
	call	DWORD PTR __imp_??0String@@QAE@PBD@Z
	lea	ecx, DWORD PTR $T1[ebp]
	push	ecx
	lea	edx, DWORD PTR _sceneCollectionDir$[ebp]
	push	edx
	lea	ecx, DWORD PTR _strSceneCollectionWildcard$[ebp]
	call	DWORD PTR __imp_??6String@@QAEAAV0@ABV0@@Z
	mov	ecx, eax
	call	DWORD PTR __imp_??6String@@QAEAAV0@ABV0@@Z
	lea	ecx, DWORD PTR $T1[ebp]
	call	DWORD PTR __imp_??1String@@QAE@XZ

; 1405 :     if (hFind = OSFindFirstFile(strSceneCollectionWildcard, ofd))

	lea	eax, DWORD PTR _ofd$[ebp]
	push	eax
	lea	ecx, DWORD PTR _strSceneCollectionWildcard$[ebp]
	call	DWORD PTR __imp_??BString@@QBEPA_WXZ
	push	eax
	call	DWORD PTR __imp_?OSFindFirstFile@@YGPAXPB_WAAUOSFindData@@@Z
	mov	DWORD PTR _hFind$[ebp], eax
	cmp	DWORD PTR _hFind$[ebp], 0
	je	$LN6@GetSceneCo
$LN5@GetSceneCo:

; 1406 :     {
; 1407 :         do
; 1408 :         {
; 1409 :             String sceneCollection(GetPathWithoutExtension(ofd.fileName));

	lea	ecx, DWORD PTR _ofd$[ebp]
	push	ecx
	lea	edx, DWORD PTR _sceneCollection$3[ebp]
	push	edx
	call	DWORD PTR __imp_?GetPathWithoutExtension@@YA?AVString@@PB_W@Z
	add	esp, 8

; 1410 :             String sceneCollectionPath(FormattedString(L"%s%s.xconfig", sceneCollectionDir.Array(), sceneCollection.Array()));

	lea	ecx, DWORD PTR _sceneCollection$3[ebp]
	call	DWORD PTR __imp_?Array@String@@QBEPA_WXZ
	push	eax
	lea	ecx, DWORD PTR _sceneCollectionDir$[ebp]
	call	DWORD PTR __imp_?Array@String@@QBEPA_WXZ
	push	eax
	push	OFFSET $SG4294800510
	lea	eax, DWORD PTR _sceneCollectionPath$2[ebp]
	push	eax
	call	DWORD PTR __imp_?FormattedString@@YA?AVString@@PB_WZZ
	add	esp, 16					; 00000010H

; 1411 :             if (ofd.bDirectory || !OSFileExists(sceneCollectionPath) || sceneCollectionList.HasValue(sceneCollection)) continue;

	cmp	DWORD PTR _ofd$[ebp+520], 0
	jne	SHORT $LN1@GetSceneCo
	lea	ecx, DWORD PTR _sceneCollectionPath$2[ebp]
	call	DWORD PTR __imp_??BString@@QBEPA_WXZ
	push	eax
	call	DWORD PTR __imp_?OSFileExists@@YGHPB_W@Z
	test	eax, eax
	je	SHORT $LN1@GetSceneCo
	lea	ecx, DWORD PTR _sceneCollection$3[ebp]
	push	ecx
	mov	ecx, DWORD PTR _sceneCollectionList$[ebp]
	call	DWORD PTR __imp_?HasValue@?$List@VString@@@@QBEHABVString@@@Z
	test	eax, eax
	je	SHORT $LN2@GetSceneCo
$LN1@GetSceneCo:
	lea	ecx, DWORD PTR _sceneCollectionPath$2[ebp]
	call	DWORD PTR __imp_??1String@@QAE@XZ
	lea	ecx, DWORD PTR _sceneCollection$3[ebp]
	call	DWORD PTR __imp_??1String@@QAE@XZ
	jmp	SHORT $LN4@GetSceneCo
$LN2@GetSceneCo:

; 1412 :             sceneCollectionList << sceneCollection;

	lea	edx, DWORD PTR _sceneCollection$3[ebp]
	push	edx
	mov	ecx, DWORD PTR _sceneCollectionList$[ebp]
	call	DWORD PTR __imp_??6StringList@@QAEAAV0@ABVString@@@Z

; 1413 :         } while (OSFindNextFile(hFind, ofd));

	lea	ecx, DWORD PTR _sceneCollectionPath$2[ebp]
	call	DWORD PTR __imp_??1String@@QAE@XZ
	lea	ecx, DWORD PTR _sceneCollection$3[ebp]
	call	DWORD PTR __imp_??1String@@QAE@XZ
$LN4@GetSceneCo:
	lea	eax, DWORD PTR _ofd$[ebp]
	push	eax
	mov	ecx, DWORD PTR _hFind$[ebp]
	push	ecx
	call	DWORD PTR __imp_?OSFindNextFile@@YGHPAXAAUOSFindData@@@Z
	test	eax, eax
	jne	$LN5@GetSceneCo

; 1414 :         OSFindClose(hFind);

	mov	edx, DWORD PTR _hFind$[ebp]
	push	edx
	call	DWORD PTR __imp_?OSFindClose@@YGXPAX@Z
$LN6@GetSceneCo:

; 1415 :     }
; 1416 : }

	lea	ecx, DWORD PTR _sceneCollectionDir$[ebp]
	call	DWORD PTR __imp_??1String@@QAE@XZ
	lea	ecx, DWORD PTR _strSceneCollectionWildcard$[ebp]
	call	DWORD PTR __imp_??1String@@QAE@XZ
	mov	ecx, DWORD PTR __$ArrayPad$[ebp]
	xor	ecx, ebp
	call	@__security_check_cookie@4
	mov	esp, ebp
	pop	ebp
	ret	0
?GetSceneCollection@OBS@@SAXAAVStringList@@@Z ENDP	; OBS::GetSceneCollection
_TEXT	ENDS
; Function compile flags: /Odtp
; File f:\songmm_moon_stone_obs\obs\source\obs.cpp
;	COMDAT ?UpdateNotificationAreaIcon@OBS@@QAEHXZ
_TEXT	SEGMENT
_this$ = -4						; size = 4
?UpdateNotificationAreaIcon@OBS@@QAEHXZ PROC		; OBS::UpdateNotificationAreaIcon, COMDAT
; _this$ = ecx

; 2081 : {

	push	ebp
	mov	ebp, esp
	push	ecx
	mov	DWORD PTR _this$[ebp], ecx

; 2082 :     if (bNotificationAreaIcon)

	mov	eax, DWORD PTR _this$[ebp]
	movzx	ecx, BYTE PTR [eax+1324]
	test	ecx, ecx
	je	SHORT $LN1@UpdateNoti

; 2083 :         return ShowNotificationAreaIcon();

	mov	ecx, DWORD PTR _this$[ebp]
	call	?ShowNotificationAreaIcon@OBS@@QAEHXZ	; OBS::ShowNotificationAreaIcon
	jmp	SHORT $LN2@UpdateNoti
$LN1@UpdateNoti:

; 2084 :     return TRUE;

	mov	eax, 1
$LN2@UpdateNoti:

; 2085 : }

	mov	esp, ebp
	pop	ebp
	ret	0
?UpdateNotificationAreaIcon@OBS@@QAEHXZ ENDP		; OBS::UpdateNotificationAreaIcon
_TEXT	ENDS
; Function compile flags: /Odtp
; File f:\songmm_moon_stone_obs\obs\source\obs.cpp
;	COMDAT ?GetThreadHandles@OBS@@QAEXPAPAX0@Z
_TEXT	SEGMENT
_this$ = -4						; size = 4
_videoThread$ = 8					; size = 4
_encodeThread$ = 12					; size = 4
?GetThreadHandles@OBS@@QAEXPAPAX0@Z PROC		; OBS::GetThreadHandles, COMDAT
; _this$ = ecx

; 2192 : {

	push	ebp
	mov	ebp, esp
	push	ecx
	mov	DWORD PTR _this$[ebp], ecx

; 2193 :     if (hVideoThread)

	mov	eax, DWORD PTR _this$[ebp]
	cmp	DWORD PTR [eax+952], 0
	je	SHORT $LN2@GetThreadH

; 2194 :         *videoThread = hVideoThread;

	mov	ecx, DWORD PTR _videoThread$[ebp]
	mov	edx, DWORD PTR _this$[ebp]
	mov	eax, DWORD PTR [edx+952]
	mov	DWORD PTR [ecx], eax
$LN2@GetThreadH:

; 2195 : 
; 2196 :     if (hEncodeThread)

	mov	ecx, DWORD PTR _this$[ebp]
	cmp	DWORD PTR [ecx+948], 0
	je	SHORT $LN3@GetThreadH

; 2197 :         *encodeThread = hEncodeThread;

	mov	edx, DWORD PTR _encodeThread$[ebp]
	mov	eax, DWORD PTR _this$[ebp]
	mov	ecx, DWORD PTR [eax+948]
	mov	DWORD PTR [edx], ecx
$LN3@GetThreadH:

; 2198 : }

	mov	esp, ebp
	pop	ebp
	ret	8
?GetThreadHandles@OBS@@QAEXPAPAX0@Z ENDP		; OBS::GetThreadHandles
_TEXT	ENDS
; Function compile flags: /Odtp
; File f:\songmm_moon_stone_obs\obs\source\obs.cpp
;	COMDAT ?ResizeWindow@OBS@@QAEX_N@Z
_TEXT	SEGMENT
_listControlHeight$ = -28				; size = 4
_xStart$ = -24						; size = 4
_yStart$ = -20						; size = 4
_flags$ = -16						; size = 4
_this$ = -12						; size = 4
_yPos$ = -8						; size = 4
_xPos$ = -4						; size = 4
_bRedrawRenderFrame$ = 8				; size = 1
?ResizeWindow@OBS@@QAEX_N@Z PROC			; OBS::ResizeWindow, COMDAT
; _this$ = ecx

; 1222 : {

	push	ebp
	mov	ebp, esp
	sub	esp, 28					; 0000001cH
	mov	DWORD PTR _this$[ebp], ecx

; 1223 :     //const int listControlHeight = totalControlAreaHeight - textControlHeight - controlHeight - controlPadding;
; 1224 : 
; 1225 :     ResizeRenderFrame(bRedrawRenderFrame);

	movzx	eax, BYTE PTR _bRedrawRenderFrame$[ebp]
	push	eax
	mov	ecx, DWORD PTR _this$[ebp]
	call	?ResizeRenderFrame@OBS@@AAEX_N@Z	; OBS::ResizeRenderFrame

; 1226 : 
; 1227 :     //-----------------------------------------------------
; 1228 : 
; 1229 :     DWORD flags = SWP_NOOWNERZORDER|SWP_SHOWWINDOW;

	mov	DWORD PTR _flags$[ebp], 576		; 00000240H

; 1230 : 
; 1231 :     int xStart = clientWidth/2 - totalControlAreaWidth/2 + (controlPadding/2 + 1);

	mov	ecx, DWORD PTR _this$[ebp]
	mov	eax, DWORD PTR [ecx+680]
	cdq
	sub	eax, edx
	sar	eax, 1
	sub	eax, 313				; 00000139H
	mov	DWORD PTR _xStart$[ebp], eax

; 1232 :     int yStart = clientHeight - totalBottomAreaHeight;

	mov	edx, DWORD PTR _this$[ebp]
	mov	eax, DWORD PTR [edx+684]
	sub	eax, 100				; 00000064H
	mov	DWORD PTR _yStart$[ebp], eax

; 1233 : 
; 1234 :     int xPos = xStart;

	mov	ecx, DWORD PTR _xStart$[ebp]
	mov	DWORD PTR _xPos$[ebp], ecx

; 1235 :     int yPos = yStart;

	mov	edx, DWORD PTR _yStart$[ebp]
	mov	DWORD PTR _yPos$[ebp], edx

; 1236 : 
; 1237 :     //-----------------------------------------------------
; 1238 : 
; 1239 : 	/*  HWND hwndTemp = GetDlgItem(hwndMain, ID_STATUS);
; 1240 : 
; 1241 : 
; 1242 : 	  SendMessage(hwndTemp, WM_SIZE, SIZE_RESTORED, 0);
; 1243 : 
; 1244 : 	  int parts[5];
; 1245 : 	  parts[4] = -1;
; 1246 : 	  parts[3] = clientWidth - 100;
; 1247 : 	  parts[2] = parts[3] - 60;
; 1248 : 	  parts[1] = parts[2] - 170;
; 1249 : 	  parts[0] = parts[1] - 170;
; 1250 : 	  SendMessage(hwndTemp, SB_SETPARTS, 5, (LPARAM)parts);
; 1251 : 
; 1252 : 	  int resetXPos = xStart + listControlWidth * 2;
; 1253 : 	  */
; 1254 : 	//---------------------------------------------------- -
; 1255 : 
; 1256 : 	//	UpdateRenderViewMessage();
; 1257 : 	//SetWindowPos(hwndRenderMessage, NULL, 0, renderFrameCtrlHeight / 2 - 10, renderFrameCtrlWidth, 50, flags & ~SWP_SHOWWINDOW);
; 1258 : 
; 1259 : 	//---------------------------------------------------- -
; 1260 : 
; 1261 : 	//	Don't waste time resizing invisible controls
; 1262 : 	if(!bPanelVisibleProcessed)

	mov	eax, DWORD PTR _this$[ebp]
	movzx	ecx, BYTE PTR [eax+691]
	test	ecx, ecx
	jne	SHORT $LN2@ResizeWind

; 1263 : 		ProcessPanelVisible(true);

	push	1
	mov	ecx, DWORD PTR _this$[ebp]
	call	?ProcessPanelVisible@OBS@@AAEX_N@Z	; OBS::ProcessPanelVisible
$LN2@ResizeWind:

; 1264 : 	if (!bPanelVisible)

	mov	edx, DWORD PTR _this$[ebp]
	movzx	eax, BYTE PTR [edx+690]
	test	eax, eax
	jne	SHORT $LN1@ResizeWind

; 1265 : 		return;

	jmp	$LN3@ResizeWind
$LN1@ResizeWind:

; 1266 : 
; 1267 : 	//xPos = resetXPos;
; 1268 : 	yPos = yStart;

	mov	ecx, DWORD PTR _yStart$[ebp]
	mov	DWORD PTR _yPos$[ebp], ecx

; 1269 : 	
; 1270 :     SetWindowPos(GetDlgItem(hwndMain, ID_MICVOLUME), NULL, 700,501,100,32, flags);

	mov	edx, DWORD PTR _flags$[ebp]
	push	edx
	push	32					; 00000020H
	push	100					; 00000064H
	push	501					; 000001f5H
	push	700					; 000002bcH
	push	0
	push	5007					; 0000138fH
	mov	eax, DWORD PTR ?hwndMain@@3PAUHWND__@@A	; hwndMain
	push	eax
	call	DWORD PTR __imp__GetDlgItem@8
	push	eax
	call	DWORD PTR __imp__SetWindowPos@28

; 1271 :     xPos += controlWidth;

	mov	ecx, DWORD PTR _xPos$[ebp]
	add	ecx, 145				; 00000091H
	mov	DWORD PTR _xPos$[ebp], ecx

; 1272 : 
; 1273 :     SetWindowPos(GetDlgItem(hwndMain, ID_DESKTOPVOLUME), NULL, 700, 535, 100, 32, flags);

	mov	edx, DWORD PTR _flags$[ebp]
	push	edx
	push	32					; 00000020H
	push	100					; 00000064H
	push	535					; 00000217H
	push	700					; 000002bcH
	push	0
	push	5006					; 0000138eH
	mov	eax, DWORD PTR ?hwndMain@@3PAUHWND__@@A	; hwndMain
	push	eax
	call	DWORD PTR __imp__GetDlgItem@8
	push	eax
	call	DWORD PTR __imp__SetWindowPos@28

; 1274 :     xPos += controlWidth;

	mov	ecx, DWORD PTR _xPos$[ebp]
	add	ecx, 145				; 00000091H
	mov	DWORD PTR _xPos$[ebp], ecx

; 1275 : 
; 1276 :     yPos += volControlHeight+controlPadding;

	mov	edx, DWORD PTR _yPos$[ebp]
	add	edx, 35					; 00000023H
	mov	DWORD PTR _yPos$[ebp], edx

; 1277 : 
; 1278 :     ////-----------------------------------------------------
; 1279 : 
; 1280 :     //xPos = resetXPos;
; 1281 : 
; 1282 :     ////SetWindowPos(GetDlgItem(hwndMain, ID_MICVOLUMEMETER), NULL, 200,53,100,10, flags);
; 1283 :     ////xPos += controlWidth;
; 1284 : 
; 1285 :     ////SetWindowPos(GetDlgItem(hwndMain, ID_DESKTOPVOLUMEMETER), NULL, 400,53,100,10,flags);
; 1286 :     //xPos += controlWidth;
; 1287 : 
; 1288 :     //yPos += volMeterHeight+controlPadding;
; 1289 : 
; 1290 :     ////-----------------------------------------------------
; 1291 : 
; 1292 :     //xPos = resetXPos;
; 1293 : 
; 1294 :     //SetWindowPos(GetDlgItem(hwndMain, ID_SETTINGS), NULL, xPos, yPos, controlWidth-controlPadding, controlHeight, flags);
; 1295 :     //xPos += controlWidth;
; 1296 : 
; 1297 :     //SetWindowPos(GetDlgItem(hwndMain, ID_STARTSTOP), NULL, xPos, yPos, controlWidth-controlPadding, controlHeight, flags);
; 1298 :     //xPos += controlWidth;
; 1299 : 
; 1300 :     //yPos += controlHeight+controlPadding;
; 1301 : 
; 1302 :     ////-----------------------------------------------------
; 1303 : 
; 1304 :     //xPos = resetXPos;
; 1305 : 
; 1306 :     //SetWindowPos(GetDlgItem(hwndMain, ID_SCENEEDITOR), NULL, xPos, yPos, controlWidth-controlPadding, controlHeight, flags);
; 1307 :     //xPos += controlWidth;
; 1308 : 
; 1309 :     //SetWindowPos(GetDlgItem(hwndMain, ID_TOGGLERECORDING), NULL, xPos, yPos, controlWidth-controlPadding, controlHeight, flags);
; 1310 :     //xPos += controlWidth;
; 1311 : 
; 1312 :     //yPos += controlHeight+controlPadding;
; 1313 : 
; 1314 :     ////-----------------------------------------------------
; 1315 : 
; 1316 :     //xPos = resetXPos;
; 1317 : 
; 1318 :     //SetWindowPos(GetDlgItem(hwndMain, ID_GLOBALSOURCES), NULL, xPos, yPos, controlWidth-controlPadding, controlHeight, flags);
; 1319 :     //xPos += controlWidth;
; 1320 : 
; 1321 :     //SetWindowPos(GetDlgItem(hwndMain, ID_TESTSTREAM), NULL, xPos, yPos, controlWidth-controlPadding, controlHeight, flags);
; 1322 :     //xPos += controlWidth;
; 1323 : 
; 1324 :     //yPos += controlHeight+controlPadding;
; 1325 : 
; 1326 :     ////-----------------------------------------------------
; 1327 : 
; 1328 :     //xPos = resetXPos;
; 1329 : 
; 1330 :     //SetWindowPos(GetDlgItem(hwndMain, ID_PLUGINS), NULL, xPos, yPos, controlWidth-controlPadding, controlHeight, flags);
; 1331 :     //xPos += controlWidth;
; 1332 : 
; 1333 :     //UpdateDashboardButton();
; 1334 :     //xPos += controlWidth;
; 1335 : 
; 1336 :     //yPos += controlHeight;
; 1337 : 
; 1338 :     //-----------------------------------------------------
; 1339 : 
; 1340 :     int listControlHeight = yPos-yStart-textControlHeight;

	mov	eax, DWORD PTR _yPos$[ebp]
	sub	eax, DWORD PTR _yStart$[ebp]
	sub	eax, 16					; 00000010H
	mov	DWORD PTR _listControlHeight$[ebp], eax

; 1341 : 
; 1342 :     xPos  = xStart;

	mov	ecx, DWORD PTR _xStart$[ebp]
	mov	DWORD PTR _xPos$[ebp], ecx

; 1343 :     yPos  = yStart;

	mov	edx, DWORD PTR _yStart$[ebp]
	mov	DWORD PTR _yPos$[ebp], edx

; 1344 : 
; 1345 : 
; 1346 : 
; 1347 : 
; 1348 : 	
; 1349 : 	SetWindowPos(GetDlgItem(hwndMain, ID_SCENES_TEXT), NULL, 800+7,3,191,25, flags);

	mov	eax, DWORD PTR _flags$[ebp]
	push	eax
	push	25					; 00000019H
	push	191					; 000000bfH
	push	3
	push	807					; 00000327H
	push	0
	push	5012					; 00001394H
	mov	ecx, DWORD PTR ?hwndMain@@3PAUHWND__@@A	; hwndMain
	push	ecx
	call	DWORD PTR __imp__GetDlgItem@8
	push	eax
	call	DWORD PTR __imp__SetWindowPos@28

; 1350 :     xPos += listControlWidth;

	mov	edx, DWORD PTR _xPos$[ebp]
	add	edx, 170				; 000000aaH
	mov	DWORD PTR _xPos$[ebp], edx

; 1351 : 
; 1352 : 	SetWindowPos(GetDlgItem(hwndMain, ID_SOURCES_TEXT), NULL, 800+7,280,191,25, flags);

	mov	eax, DWORD PTR _flags$[ebp]
	push	eax
	push	25					; 00000019H
	push	191					; 000000bfH
	push	280					; 00000118H
	push	807					; 00000327H
	push	0
	push	5014					; 00001396H
	mov	ecx, DWORD PTR ?hwndMain@@3PAUHWND__@@A	; hwndMain
	push	ecx
	call	DWORD PTR __imp__GetDlgItem@8
	push	eax
	call	DWORD PTR __imp__SetWindowPos@28

; 1353 :     xPos += listControlWidth;

	mov	edx, DWORD PTR _xPos$[ebp]
	add	edx, 170				; 000000aaH
	mov	DWORD PTR _xPos$[ebp], edx

; 1354 : 
; 1355 :     yPos += textControlHeight;

	mov	eax, DWORD PTR _yPos$[ebp]
	add	eax, 16					; 00000010H
	mov	DWORD PTR _yPos$[ebp], eax

; 1356 :     xPos  = xStart;

	mov	ecx, DWORD PTR _xStart$[ebp]
	mov	DWORD PTR _xPos$[ebp], ecx

; 1357 : 
; 1358 :     //-----------------------------------------------------
; 1359 : 
; 1360 : 
; 1361 : 
; 1362 : 	SetWindowPos(GetDlgItem(hwndMain, ID_SCENES), NULL, 800 + 6/*xPos*/, 29/*yPos*/, 191, 250, flags);

	mov	edx, DWORD PTR _flags$[ebp]
	push	edx
	push	250					; 000000faH
	push	191					; 000000bfH
	push	29					; 0000001dH
	push	806					; 00000326H
	push	0
	push	5011					; 00001393H
	mov	eax, DWORD PTR ?hwndMain@@3PAUHWND__@@A	; hwndMain
	push	eax
	call	DWORD PTR __imp__GetDlgItem@8
	push	eax
	call	DWORD PTR __imp__SetWindowPos@28

; 1363 :     xPos += listControlWidth;

	mov	ecx, DWORD PTR _xPos$[ebp]
	add	ecx, 170				; 000000aaH
	mov	DWORD PTR _xPos$[ebp], ecx

; 1364 : 
; 1365 : 	SetWindowPos(GetDlgItem(hwndMain, ID_SOURCES), NULL, 800 + 6, 306, 191, 270, flags);

	mov	edx, DWORD PTR _flags$[ebp]
	push	edx
	push	270					; 0000010eH
	push	191					; 000000bfH
	push	306					; 00000132H
	push	806					; 00000326H
	push	0
	push	5013					; 00001395H
	mov	eax, DWORD PTR ?hwndMain@@3PAUHWND__@@A	; hwndMain
	push	eax
	call	DWORD PTR __imp__GetDlgItem@8
	push	eax
	call	DWORD PTR __imp__SetWindowPos@28

; 1366 :     xPos += listControlWidth;

	mov	ecx, DWORD PTR _xPos$[ebp]
	add	ecx, 170				; 000000aaH
	mov	DWORD PTR _xPos$[ebp], ecx
$LN3@ResizeWind:

; 1367 : }

	mov	esp, ebp
	pop	ebp
	ret	4
?ResizeWindow@OBS@@QAEX_N@Z ENDP			; OBS::ResizeWindow
_TEXT	ENDS
; Function compile flags: /Odtp
; File f:\songmm_moon_stone_obs\obs\source\obs.cpp
;	COMDAT ?ConfigureStreamButtons@OBS@@AAEXXZ
_TEXT	SEGMENT
tv150 = -16						; size = 4
tv135 = -12						; size = 4
tv88 = -8						; size = 4
_this$ = -4						; size = 4
?ConfigureStreamButtons@OBS@@AAEXXZ PROC		; OBS::ConfigureStreamButtons, COMDAT
; _this$ = ecx

; 1439 : {

	push	ebp
	mov	ebp, esp
	sub	esp, 16					; 00000010H
	push	esi
	mov	DWORD PTR _this$[ebp], ecx

; 1440 :     if (bShuttingDown) return;

	mov	eax, DWORD PTR _this$[ebp]
	movzx	ecx, BYTE PTR [eax+1412]
	test	ecx, ecx
	je	SHORT $LN2@ConfigureS
	jmp	$LN3@ConfigureS
$LN2@ConfigureS:

; 1441 : 
; 1442 :     if (GetWindowThreadProcessId(hwndMain, nullptr) != GetCurrentThreadId())

	push	0
	mov	edx, DWORD PTR ?hwndMain@@3PAUHWND__@@A	; hwndMain
	push	edx
	call	DWORD PTR __imp__GetWindowThreadProcessId@8
	mov	esi, eax
	call	DWORD PTR __imp__GetCurrentThreadId@0
	cmp	esi, eax
	je	SHORT $LN1@ConfigureS

; 1443 :         return PostConfigureStreamButtons();

	mov	ecx, DWORD PTR _this$[ebp]
	call	?PostConfigureStreamButtons@OBS@@AAEXXZ	; OBS::PostConfigureStreamButtons
	jmp	$LN3@ConfigureS
$LN1@ConfigureS:

; 1444 : 
; 1445 :     RefreshStreamButtons();

	push	0
	mov	ecx, DWORD PTR _this$[ebp]
	call	?RefreshStreamButtons@OBS@@AAEX_N@Z	; OBS::RefreshStreamButtons

; 1446 :     SetWindowText(GetDlgItem(hwndMain, ID_STARTSTOP), (bStreaming && !bTestStream) ? Str("MainWindow.StopStream") : Str("MainWindow.StartStream"));

	mov	eax, DWORD PTR _this$[ebp]
	movzx	ecx, BYTE PTR [eax+627]
	test	ecx, ecx
	je	SHORT $LN5@ConfigureS
	mov	edx, DWORD PTR _this$[ebp]
	movzx	eax, BYTE PTR [edx+620]
	test	eax, eax
	jne	SHORT $LN5@ConfigureS
	push	OFFSET $SG4294800507
	mov	ecx, DWORD PTR __imp_?locale@@3PAVLocaleStringLookup@@A
	mov	ecx, DWORD PTR [ecx]
	call	DWORD PTR __imp_?LookupString@LocaleStringLookup@@QAEPB_WPB_W@Z
	mov	DWORD PTR tv88[ebp], eax
	jmp	SHORT $LN6@ConfigureS
$LN5@ConfigureS:
	push	OFFSET $SG4294800506
	mov	edx, DWORD PTR __imp_?locale@@3PAVLocaleStringLookup@@A
	mov	ecx, DWORD PTR [edx]
	call	DWORD PTR __imp_?LookupString@LocaleStringLookup@@QAEPB_WPB_W@Z
	mov	DWORD PTR tv88[ebp], eax
$LN6@ConfigureS:
	mov	eax, DWORD PTR tv88[ebp]
	push	eax
	push	5003					; 0000138bH
	mov	ecx, DWORD PTR ?hwndMain@@3PAUHWND__@@A	; hwndMain
	push	ecx
	call	DWORD PTR __imp__GetDlgItem@8
	push	eax
	call	DWORD PTR __imp__SetWindowTextW@8

; 1447 :     SetWindowText(GetDlgItem(hwndMain, ID_TOGGLERECORDING), bRecording ? Str("MainWindow.StopRecording") : Str("MainWindow.StartRecording"));

	mov	edx, DWORD PTR _this$[ebp]
	movzx	eax, BYTE PTR [edx+623]
	test	eax, eax
	je	SHORT $LN7@ConfigureS
	push	OFFSET $SG4294800505
	mov	ecx, DWORD PTR __imp_?locale@@3PAVLocaleStringLookup@@A
	mov	ecx, DWORD PTR [ecx]
	call	DWORD PTR __imp_?LookupString@LocaleStringLookup@@QAEPB_WPB_W@Z
	mov	DWORD PTR tv135[ebp], eax
	jmp	SHORT $LN8@ConfigureS
$LN7@ConfigureS:
	push	OFFSET $SG4294800504
	mov	edx, DWORD PTR __imp_?locale@@3PAVLocaleStringLookup@@A
	mov	ecx, DWORD PTR [edx]
	call	DWORD PTR __imp_?LookupString@LocaleStringLookup@@QAEPB_WPB_W@Z
	mov	DWORD PTR tv135[ebp], eax
$LN8@ConfigureS:
	mov	eax, DWORD PTR tv135[ebp]
	push	eax
	push	5002					; 0000138aH
	mov	ecx, DWORD PTR ?hwndMain@@3PAUHWND__@@A	; hwndMain
	push	ecx
	call	DWORD PTR __imp__GetDlgItem@8
	push	eax
	call	DWORD PTR __imp__SetWindowTextW@8

; 1448 :     SetWindowText(GetDlgItem(hwndMain, ID_TESTSTREAM), bTestStream ? Str("MainWindow.StopTest") : Str("MainWindow.TestStream"));

	mov	edx, DWORD PTR _this$[ebp]
	movzx	eax, BYTE PTR [edx+620]
	test	eax, eax
	je	SHORT $LN9@ConfigureS
	push	OFFSET $SG4294800503
	mov	ecx, DWORD PTR __imp_?locale@@3PAVLocaleStringLookup@@A
	mov	ecx, DWORD PTR [ecx]
	call	DWORD PTR __imp_?LookupString@LocaleStringLookup@@QAEPB_WPB_W@Z
	mov	DWORD PTR tv150[ebp], eax
	jmp	SHORT $LN10@ConfigureS
$LN9@ConfigureS:
	push	OFFSET $SG4294800502
	mov	edx, DWORD PTR __imp_?locale@@3PAVLocaleStringLookup@@A
	mov	ecx, DWORD PTR [edx]
	call	DWORD PTR __imp_?LookupString@LocaleStringLookup@@QAEPB_WPB_W@Z
	mov	DWORD PTR tv150[ebp], eax
$LN10@ConfigureS:
	mov	eax, DWORD PTR tv150[ebp]
	push	eax
	push	5015					; 00001397H
	mov	ecx, DWORD PTR ?hwndMain@@3PAUHWND__@@A	; hwndMain
	push	ecx
	call	DWORD PTR __imp__GetDlgItem@8
	push	eax
	call	DWORD PTR __imp__SetWindowTextW@8
$LN3@ConfigureS:

; 1449 : }

	pop	esi
	mov	esp, ebp
	pop	ebp
	ret	0
?ConfigureStreamButtons@OBS@@AAEXXZ ENDP		; OBS::ConfigureStreamButtons
_TEXT	ENDS
; Function compile flags: /Odtp
; File f:\songmm_moon_stone_obs\obs\source\obs.cpp
;	COMDAT ??0OBS@@QAE@XZ
_TEXT	SEGMENT
_column$ = -936						; size = 44
$T1 = -892						; size = 8
$T2 = -884						; size = 8
$T3 = -876						; size = 8
$T4 = -868						; size = 8
$T5 = -860						; size = 8
$T6 = -852						; size = 8
$T7 = -844						; size = 8
$T8 = -836						; size = 8
_ecce$ = -828						; size = 8
_strScene$9 = -820					; size = 8
_systemTime$ = -812					; size = 8
_hotkeyInfo$10 = -804					; size = 12
_cy$ = -792						; size = 4
_cx$ = -788						; size = 4
tv1976 = -784						; size = 8
_scene$11 = -776					; size = 4
_scene$12 = -772					; size = 4
_lastUpdateTime$ = -768					; size = 8
_wc$ = -760						; size = 40
_strScenesConfig$ = -720				; size = 8
_logSizeX$ = -712					; size = 4
tv1507 = -708						; size = 4
tv1416 = -704						; size = 4
tv628 = -700						; size = 4
tv1112 = -696						; size = 4
_logSizeY$ = -692					; size = 4
tv619 = -688						; size = 4
tv1483 = -684						; size = 4
_maxCY$ = -680						; size = 4
_maxCX$ = -676						; size = 4
_hwndSources$ = -672					; size = 4
tv759 = -668						; size = 4
tv1527 = -664						; size = 4
tv1516 = -660						; size = 4
_scene$13 = -656					; size = 4
_posX$ = -652						; size = 4
_id$14 = -648						; size = 4
_fullscreenY$ = -644					; size = 4
_logPosY$ = -640					; size = 4
$T15 = -633						; size = 1
_posY$ = -632						; size = 4
_fullscreenX$ = -628					; size = 4
_logPosX$ = -624					; size = 4
_hotkey$16 = -620					; size = 4
_hFind$17 = -616					; size = 4
_i$18 = -612						; size = 4
_collection$ = -608					; size = 8
_i$19 = -600						; size = 4
_x$ = -596						; size = 4
_y$ = -592						; size = 4
_currentTime$ = -588					; size = 8
_scenes$ = -580						; size = 4
_numScenes$ = -576					; size = 4
_i$20 = -572						; size = 4
$T21 = -565						; size = 1
_i$22 = -564						; size = 4
_bInsideMonitors$ = -557				; size = 1
_hwndTemp$ = -556					; size = 4
_this$ = -552						; size = 4
_client$ = -548						; size = 16
_ofd$23 = -532						; size = 528
__$ArrayPad$ = -4					; size = 4
??0OBS@@QAE@XZ PROC					; OBS::OBS, COMDAT
; _this$ = ecx

; 261  : {

	push	ebp
	mov	ebp, esp
	sub	esp, 936				; 000003a8H
	mov	eax, DWORD PTR ___security_cookie
	xor	eax, ebp
	mov	DWORD PTR __$ArrayPad$[ebp], eax
	mov	DWORD PTR _this$[ebp], ecx
	mov	eax, DWORD PTR _this$[ebp]
	mov	DWORD PTR [eax], OFFSET ??_7OBS@@6B@
	mov	ecx, DWORD PTR _this$[ebp]
	add	ecx, 76					; 0000004cH
	call	??0?$unique_ptr@VNetworkStream@@U?$default_delete@VNetworkStream@@@std@@@std@@QAE@XZ ; std::unique_ptr<NetworkStream,std::default_delete<NetworkStream> >::unique_ptr<NetworkStream,std::default_delete<NetworkStream> >
	mov	ecx, DWORD PTR _this$[ebp]
	add	ecx, 80					; 00000050H
	call	??0StopInfo@OBS@@QAE@XZ
	mov	ecx, DWORD PTR _this$[ebp]
	add	ecx, 120				; 00000078H
	call	??0?$List@PAVAudioSource@@@@QAE@XZ	; List<AudioSource *>::List<AudioSource *>
	mov	ecx, DWORD PTR _this$[ebp]
	add	ecx, 156				; 0000009cH
	call	??0?$List@UMonitorInfo@@@@QAE@XZ	; List<MonitorInfo>::List<MonitorInfo>
	mov	ecx, DWORD PTR _this$[ebp]
	add	ecx, 168				; 000000a8H
	call	DWORD PTR __imp_??0XConfig@@QAE@XZ
	mov	ecx, DWORD PTR _this$[ebp]
	add	ecx, 180				; 000000b4H
	call	DWORD PTR __imp_??0XConfig@@QAE@XZ
	mov	ecx, DWORD PTR _this$[ebp]
	add	ecx, 192				; 000000c0H
	call	DWORD PTR __imp_??0XConfig@@QAE@XZ
	mov	ecx, DWORD PTR _this$[ebp]
	add	ecx, 204				; 000000ccH
	call	??0?$List@USceneHotkeyInfo@@@@QAE@XZ	; List<SceneHotkeyInfo>::List<SceneHotkeyInfo>
	mov	ecx, DWORD PTR _this$[ebp]
	add	ecx, 232				; 000000e8H
	call	??0?$List@PAVSettingsPane@@@@QAE@XZ	; List<SettingsPane *>::List<SettingsPane *>
	mov	ecx, DWORD PTR _this$[ebp]
	add	ecx, 252				; 000000fcH
	call	??0COBSButton@@QAE@XZ			; COBSButton::COBSButton
	mov	ecx, DWORD PTR _this$[ebp]
	add	ecx, 292				; 00000124H
	call	??0COBSButton@@QAE@XZ			; COBSButton::COBSButton
	mov	ecx, DWORD PTR _this$[ebp]
	add	ecx, 332				; 0000014cH
	call	??0COBSButton@@QAE@XZ			; COBSButton::COBSButton
	mov	ecx, DWORD PTR _this$[ebp]
	add	ecx, 372				; 00000174H
	call	??0COBSButton@@QAE@XZ			; COBSButton::COBSButton
	mov	ecx, DWORD PTR _this$[ebp]
	add	ecx, 412				; 0000019cH
	call	??0COBSButton@@QAE@XZ			; COBSButton::COBSButton
	mov	ecx, DWORD PTR _this$[ebp]
	add	ecx, 452				; 000001c4H
	call	??0COBSButton@@QAE@XZ			; COBSButton::COBSButton
	mov	ecx, DWORD PTR _this$[ebp]
	add	ecx, 492				; 000001ecH
	call	??0COBSButton@@QAE@XZ			; COBSButton::COBSButton
	mov	ecx, DWORD PTR _this$[ebp]
	add	ecx, 532				; 00000214H
	call	??0COBSButton@@QAE@XZ			; COBSButton::COBSButton
	mov	ecx, DWORD PTR _this$[ebp]
	add	ecx, 572				; 0000023cH
	call	??0COBSButton@@QAE@XZ			; COBSButton::COBSButton
	mov	ecx, DWORD PTR _this$[ebp]
	add	ecx, 612				; 00000264H
	call	DWORD PTR __imp_??0String@@QAE@XZ

; 779  :     
; 780  :     //-----------------------------------------------------
; 781  :     // Add built-in settings panes   
; 782  : 

	mov	ecx, DWORD PTR _this$[ebp]
	mov	BYTE PTR [ecx+628], 1

; 261  : {

	mov	ecx, DWORD PTR _this$[ebp]
	add	ecx, 752				; 000002f0H
	call	DWORD PTR __imp_??0Vect2@@QAE@XZ
	mov	ecx, DWORD PTR _this$[ebp]
	add	ecx, 760				; 000002f8H
	call	DWORD PTR __imp_??0Vect2@@QAE@XZ
	mov	ecx, DWORD PTR _this$[ebp]
	add	ecx, 844				; 0000034cH
	call	??0?$map@V?$basic_string@_WU?$char_traits@_W@std@@V?$allocator@_W@2@@std@@_NU?$less@V?$basic_string@_WU?$char_traits@_W@std@@V?$allocator@_W@2@@std@@@2@V?$allocator@U?$pair@$$CBV?$basic_string@_WU?$char_traits@_W@std@@V?$allocator@_W@2@@std@@_N@std@@@2@@std@@QAE@XZ ; std::map<std::basic_string<wchar_t,std::char_traits<wchar_t>,std::allocator<wchar_t> >,bool,std::less<std::basic_string<wchar_t,std::char_traits<wchar_t>,std::allocator<wchar_t> > >,std::allocator<std::pair<std::basic_string<wchar_t,std::char_traits<wchar_t>,std::allocator<wchar_t> > const ,bool> > >::map<std::basic_string<wchar_t,std::char_traits<wchar_t>,std::allocator<wchar_t> >,bool,std::less<std::basic_string<wchar_t,std::char_traits<wchar_t>,std::allocator<wchar_t> > >,std::allocator<std::pair<std::basic_string<wchar_t,std::char_traits<wchar_t>,std::allocator<wchar_t> > const ,bool> > >
	mov	ecx, DWORD PTR _this$[ebp]
	add	ecx, 960				; 000003c0H
	call	??0?$List@UVideoSegment@@@@QAE@XZ	; List<VideoSegment>::List<VideoSegment>
	mov	ecx, DWORD PTR _this$[ebp]
	add	ecx, 968				; 000003c8H
	call	??0?$CircularList@I@@QAE@XZ		; CircularList<unsigned int>::CircularList<unsigned int>
	mov	ecx, DWORD PTR _this$[ebp]
	add	ecx, 1028				; 00000404H
	call	??0?$unique_ptr@VVideoFileStream@@U?$default_delete@VVideoFileStream@@@std@@@std@@QAE@XZ ; std::unique_ptr<VideoFileStream,std::default_delete<VideoFileStream> >::unique_ptr<VideoFileStream,std::default_delete<VideoFileStream> >
	mov	ecx, DWORD PTR _this$[ebp]
	add	ecx, 1032				; 00000408H
	call	??0StopInfo@OBS@@QAE@XZ
	mov	ecx, DWORD PTR _this$[ebp]
	add	ecx, 1064				; 00000428H
	call	??0?$unique_ptr@VVideoFileStream@@U?$default_delete@VVideoFileStream@@@std@@@std@@QAE@XZ ; std::unique_ptr<VideoFileStream,std::default_delete<VideoFileStream> >::unique_ptr<VideoFileStream,std::default_delete<VideoFileStream> >
	mov	ecx, DWORD PTR _this$[ebp]
	add	ecx, 1072				; 00000430H
	call	??0StopInfo@OBS@@QAE@XZ
	mov	ecx, DWORD PTR _this$[ebp]
	add	ecx, 1128				; 00000468H
	call	??0?$CircularList@_K@@QAE@XZ		; CircularList<unsigned __int64>::CircularList<unsigned __int64>
	mov	ecx, DWORD PTR _this$[ebp]
	add	ecx, 1208				; 000004b8H
	call	??0?$List@UFrameAudio@@@@QAE@XZ		; List<FrameAudio>::List<FrameAudio>
	mov	ecx, DWORD PTR _this$[ebp]
	add	ecx, 1328				; 00000530H
	call	DWORD PTR __imp_??0String@@QAE@XZ
	mov	ecx, DWORD PTR _this$[ebp]
	add	ecx, 1336				; 00000538H
	call	DWORD PTR __imp_??0String@@QAE@XZ
	mov	ecx, DWORD PTR _this$[ebp]
	add	ecx, 1344				; 00000540H
	call	??0?$List@UIconInfo@@@@QAE@XZ		; List<IconInfo>::List<IconInfo>
	mov	ecx, DWORD PTR _this$[ebp]
	add	ecx, 1352				; 00000548H
	call	??0?$List@UFontInfo@@@@QAE@XZ		; List<FontInfo>::List<FontInfo>
	mov	ecx, DWORD PTR _this$[ebp]
	add	ecx, 1360				; 00000550H
	call	??0?$List@UClassInfo@@@@QAE@XZ		; List<ClassInfo>::List<ClassInfo>
	mov	ecx, DWORD PTR _this$[ebp]
	add	ecx, 1368				; 00000558H
	call	??0?$List@UClassInfo@@@@QAE@XZ		; List<ClassInfo>::List<ClassInfo>
	mov	ecx, DWORD PTR _this$[ebp]
	add	ecx, 1376				; 00000560H
	call	??0?$List@UGlobalSourceInfo@@@@QAE@XZ	; List<GlobalSourceInfo>::List<GlobalSourceInfo>
	mov	ecx, DWORD PTR _this$[ebp]
	add	ecx, 1388				; 0000056cH
	call	??0?$List@UStreamInfo@@@@QAE@XZ		; List<StreamInfo>::List<StreamInfo>
	mov	ecx, DWORD PTR _this$[ebp]
	add	ecx, 1404				; 0000057cH
	call	??0?$List@UPluginInfo@@@@QAE@XZ		; List<PluginInfo>::List<PluginInfo>
	mov	ecx, DWORD PTR _this$[ebp]
	add	ecx, 1416				; 00000588H
	call	??0PendingStreams@OBS@@QAE@XZ		; OBS::PendingStreams::PendingStreams

; 262  :     App = this;

	mov	edx, DWORD PTR _this$[ebp]
	mov	DWORD PTR ?App@@3PAVOBS@@A, edx		; App

; 263  : 
; 264  :     performTransition = true;        //Default to true and don't set the conf. 

	mov	eax, DWORD PTR _this$[ebp]
	mov	BYTE PTR [eax+44], 1

; 265  :                                      //We don't want to let plugins disable standard behavior permanently.
; 266  :     hSceneMutex = OSCreateMutex();

	call	DWORD PTR __imp_?OSCreateMutex@@YGPAXXZ
	mov	ecx, DWORD PTR _this$[ebp]
	mov	DWORD PTR [ecx+956], eax

; 267  :     hAuxAudioMutex = OSCreateMutex();

	call	DWORD PTR __imp_?OSCreateMutex@@YGPAXXZ
	mov	edx, DWORD PTR _this$[ebp]
	mov	DWORD PTR [edx+1228], eax

; 268  :     hVideoEvent = CreateEvent(NULL, FALSE, FALSE, NULL);

	push	0
	push	0
	push	0
	push	0
	call	DWORD PTR __imp__CreateEventW@16
	mov	ecx, DWORD PTR _this$[ebp]
	mov	DWORD PTR [ecx+1124], eax

; 269  : 	//
; 270  :     monitors.Clear();

	mov	ecx, DWORD PTR _this$[ebp]
	add	ecx, 156				; 0000009cH
	call	?Clear@?$List@UMonitorInfo@@@@QAEXXZ	; List<MonitorInfo>::Clear

; 271  :     EnumDisplayMonitors(NULL, NULL, (MONITORENUMPROC)MonitorInfoEnumProc, (LPARAM)&monitors);

	mov	edx, DWORD PTR _this$[ebp]
	add	edx, 156				; 0000009cH
	push	edx
	push	OFFSET ?MonitorInfoEnumProc@@YGHPAUHMONITOR__@@PAUHDC__@@PAUtagRECT@@AAV?$List@UMonitorInfo@@@@@Z ; MonitorInfoEnumProc
	push	0
	push	0
	call	DWORD PTR __imp__EnumDisplayMonitors@16

; 272  : 
; 273  :     INITCOMMONCONTROLSEX ecce;
; 274  :     ecce.dwSize = sizeof(ecce);

	mov	DWORD PTR _ecce$[ebp], 8

; 275  :     ecce.dwICC = ICC_STANDARD_CLASSES;

	mov	DWORD PTR _ecce$[ebp+4], 16384		; 00004000H

; 276  :     if(!InitCommonControlsEx(&ecce))

	lea	eax, DWORD PTR _ecce$[ebp]
	push	eax
	call	_IsolationAwareInitCommonControlsEx@4
	test	eax, eax
	jne	SHORT $LN48@OBS

; 277  :         CrashError(TEXT("Could not initalize common shell controls"));

	push	OFFSET $SG4294800673
	call	DWORD PTR __imp_?CrashError@@YAXPB_WZZ
$LN48@OBS:

; 278  : 
; 279  :     InitHotkeyExControl(hinstMain);

	mov	ecx, DWORD PTR ?hinstMain@@3PAUHINSTANCE__@@A ; hinstMain
	push	ecx
	call	DWORD PTR __imp_?InitHotkeyExControl@@YAXPAUHINSTANCE__@@@Z
	add	esp, 4

; 280  :     InitColorControl(hinstMain);

	mov	edx, DWORD PTR ?hinstMain@@3PAUHINSTANCE__@@A ; hinstMain
	push	edx
	call	DWORD PTR __imp_?InitColorControl@@YAXPAUHINSTANCE__@@@Z
	add	esp, 4

; 281  :     InitVolumeControl(hinstMain);

	mov	eax, DWORD PTR ?hinstMain@@3PAUHINSTANCE__@@A ; hinstMain
	push	eax
	call	DWORD PTR __imp_?InitVolumeControl@@YAXPAUHINSTANCE__@@@Z
	add	esp, 4

; 282  :     InitVolumeMeter(hinstMain);

	mov	ecx, DWORD PTR ?hinstMain@@3PAUHINSTANCE__@@A ; hinstMain
	push	ecx
	call	DWORD PTR __imp_?InitVolumeMeter@@YAXPAUHINSTANCE__@@@Z
	add	esp, 4

; 283  : 
; 284  :     // still need this here for API
; 285  :     strLanguage = GlobalConfig->GetString(TEXT("General"), TEXT("Language"), TEXT("en"));

	push	OFFSET $SG4294800672
	push	OFFSET $SG4294800671
	push	OFFSET $SG4294800670
	lea	edx, DWORD PTR $T4[ebp]
	push	edx
	mov	ecx, DWORD PTR ?GlobalConfig@@3PAVConfigFile@@A ; GlobalConfig
	call	DWORD PTR __imp_?GetString@ConfigFile@@QAE?AVString@@PB_W00@Z
	push	eax
	mov	ecx, DWORD PTR _this$[ebp]
	add	ecx, 612				; 00000264H
	call	DWORD PTR __imp_??4String@@QAEAAV0@ABV0@@Z
	lea	ecx, DWORD PTR $T4[ebp]
	call	DWORD PTR __imp_??1String@@QAE@XZ

; 286  : 
; 287  :     //-----------------------------------------------------
; 288  :     // load classes
; 289  : 
; 290  :     RegisterSceneClass(TEXT("Scene"), Str("Scene"), (OBSCREATEPROC)CreateNormalScene, NULL, false);

	push	0
	push	0
	push	OFFSET ?CreateNormalScene@@YGPAVScene@@PAVXElement@@@Z ; CreateNormalScene
	push	OFFSET $SG4294800669
	mov	eax, DWORD PTR __imp_?locale@@3PAVLocaleStringLookup@@A
	mov	ecx, DWORD PTR [eax]
	call	DWORD PTR __imp_?LookupString@LocaleStringLookup@@QAEPB_WPB_W@Z
	push	eax
	push	OFFSET $SG4294800668
	mov	ecx, DWORD PTR _this$[ebp]
	call	?RegisterSceneClass@OBS@@UAEXPB_W0P6GPAXPAVXElement@@@ZP6G_N1_N@Z3@Z ; OBS::RegisterSceneClass

; 291  :     RegisterImageSourceClass(TEXT("DesktopImageSource"), Str("Sources.SoftwareCaptureSource"), (OBSCREATEPROC)CreateDesktopSource, (OBSCONFIGPROC)ConfigureDesktopSource, true);

	push	1
	push	OFFSET ?ConfigureDesktopSource@@YG_NPAVXElement@@_N@Z ; ConfigureDesktopSource
	push	OFFSET ?CreateDesktopSource@@YGPAVImageSource@@PAVXElement@@@Z ; CreateDesktopSource
	push	OFFSET $SG4294800667
	mov	ecx, DWORD PTR __imp_?locale@@3PAVLocaleStringLookup@@A
	mov	ecx, DWORD PTR [ecx]
	call	DWORD PTR __imp_?LookupString@LocaleStringLookup@@QAEPB_WPB_W@Z
	push	eax
	push	OFFSET $SG4294800666
	mov	ecx, DWORD PTR _this$[ebp]
	call	?RegisterImageSourceClass@OBS@@UAEXPB_W0P6GPAXPAVXElement@@@ZP6G_N1_N@Z3@Z ; OBS::RegisterImageSourceClass

; 292  :     RegisterImageSourceClass(TEXT("WindowCaptureSource"), Str("Sources.SoftwareCaptureSource.WindowCapture"), (OBSCREATEPROC)CreateDesktopSource, (OBSCONFIGPROC)ConfigureWindowCaptureSource, false);

	push	0
	push	OFFSET ?ConfigureWindowCaptureSource@@YG_NPAVXElement@@_N@Z ; ConfigureWindowCaptureSource
	push	OFFSET ?CreateDesktopSource@@YGPAVImageSource@@PAVXElement@@@Z ; CreateDesktopSource
	push	OFFSET $SG4294800665
	mov	edx, DWORD PTR __imp_?locale@@3PAVLocaleStringLookup@@A
	mov	ecx, DWORD PTR [edx]
	call	DWORD PTR __imp_?LookupString@LocaleStringLookup@@QAEPB_WPB_W@Z
	push	eax
	push	OFFSET $SG4294800664
	mov	ecx, DWORD PTR _this$[ebp]
	call	?RegisterImageSourceClass@OBS@@UAEXPB_W0P6GPAXPAVXElement@@@ZP6G_N1_N@Z3@Z ; OBS::RegisterImageSourceClass

; 293  :     RegisterImageSourceClass(TEXT("MonitorCaptureSource"), Str("Sources.SoftwareCaptureSource.MonitorCapture"), (OBSCREATEPROC)CreateDesktopSource, (OBSCONFIGPROC)ConfigureMonitorCaptureSource, false);

	push	0
	push	OFFSET ?ConfigureMonitorCaptureSource@@YG_NPAVXElement@@_N@Z ; ConfigureMonitorCaptureSource
	push	OFFSET ?CreateDesktopSource@@YGPAVImageSource@@PAVXElement@@@Z ; CreateDesktopSource
	push	OFFSET $SG4294800663
	mov	eax, DWORD PTR __imp_?locale@@3PAVLocaleStringLookup@@A
	mov	ecx, DWORD PTR [eax]
	call	DWORD PTR __imp_?LookupString@LocaleStringLookup@@QAEPB_WPB_W@Z
	push	eax
	push	OFFSET $SG4294800662
	mov	ecx, DWORD PTR _this$[ebp]
	call	?RegisterImageSourceClass@OBS@@UAEXPB_W0P6GPAXPAVXElement@@@ZP6G_N1_N@Z3@Z ; OBS::RegisterImageSourceClass

; 294  :     RegisterImageSourceClass(TEXT("BitmapImageSource"), Str("Sources.BitmapSource"), (OBSCREATEPROC)CreateBitmapSource, (OBSCONFIGPROC)ConfigureBitmapSource, false);

	push	0
	push	OFFSET ?ConfigureBitmapSource@@YG_NPAVXElement@@_N@Z ; ConfigureBitmapSource
	push	OFFSET ?CreateBitmapSource@@YGPAVImageSource@@PAVXElement@@@Z ; CreateBitmapSource
	push	OFFSET $SG4294800661
	mov	ecx, DWORD PTR __imp_?locale@@3PAVLocaleStringLookup@@A
	mov	ecx, DWORD PTR [ecx]
	call	DWORD PTR __imp_?LookupString@LocaleStringLookup@@QAEPB_WPB_W@Z
	push	eax
	push	OFFSET $SG4294800660
	mov	ecx, DWORD PTR _this$[ebp]
	call	?RegisterImageSourceClass@OBS@@UAEXPB_W0P6GPAXPAVXElement@@@ZP6G_N1_N@Z3@Z ; OBS::RegisterImageSourceClass

; 295  :     RegisterImageSourceClass(TEXT("BitmapTransitionSource"), Str("Sources.TransitionSource"), (OBSCREATEPROC)CreateBitmapTransitionSource, (OBSCONFIGPROC)ConfigureBitmapTransitionSource, false);

	push	0
	push	OFFSET ?ConfigureBitmapTransitionSource@@YG_NPAVXElement@@_N@Z ; ConfigureBitmapTransitionSource
	push	OFFSET ?CreateBitmapTransitionSource@@YGPAVImageSource@@PAVXElement@@@Z ; CreateBitmapTransitionSource
	push	OFFSET $SG4294800659
	mov	edx, DWORD PTR __imp_?locale@@3PAVLocaleStringLookup@@A
	mov	ecx, DWORD PTR [edx]
	call	DWORD PTR __imp_?LookupString@LocaleStringLookup@@QAEPB_WPB_W@Z
	push	eax
	push	OFFSET $SG4294800658
	mov	ecx, DWORD PTR _this$[ebp]
	call	?RegisterImageSourceClass@OBS@@UAEXPB_W0P6GPAXPAVXElement@@@ZP6G_N1_N@Z3@Z ; OBS::RegisterImageSourceClass

; 296  :     RegisterImageSourceClass(TEXT("GlobalSource"), Str("Sources.GlobalSource"), (OBSCREATEPROC)CreateGlobalSource, (OBSCONFIGPROC)OBS::ConfigGlobalSource, false);

	push	0
	push	OFFSET ?ConfigGlobalSource@OBS@@CG_NPAVXElement@@_N@Z ; OBS::ConfigGlobalSource
	push	OFFSET ?CreateGlobalSource@@YGPAVImageSource@@PAVXElement@@@Z ; CreateGlobalSource
	push	OFFSET $SG4294800657
	mov	eax, DWORD PTR __imp_?locale@@3PAVLocaleStringLookup@@A
	mov	ecx, DWORD PTR [eax]
	call	DWORD PTR __imp_?LookupString@LocaleStringLookup@@QAEPB_WPB_W@Z
	push	eax
	push	OFFSET $SG4294800656
	mov	ecx, DWORD PTR _this$[ebp]
	call	?RegisterImageSourceClass@OBS@@UAEXPB_W0P6GPAXPAVXElement@@@ZP6G_N1_N@Z3@Z ; OBS::RegisterImageSourceClass

; 297  :     RegisterImageSourceClass(TEXT("TextSource"), Str("Sources.TextSource"), (OBSCREATEPROC)CreateTextSource, (OBSCONFIGPROC)ConfigureTextSource, false);

	push	0
	push	OFFSET ?ConfigureTextSource@@YG_NPAVXElement@@_N@Z ; ConfigureTextSource
	push	OFFSET ?CreateTextSource@@YGPAVImageSource@@PAVXElement@@@Z ; CreateTextSource
	push	OFFSET $SG4294800655
	mov	ecx, DWORD PTR __imp_?locale@@3PAVLocaleStringLookup@@A
	mov	ecx, DWORD PTR [ecx]
	call	DWORD PTR __imp_?LookupString@LocaleStringLookup@@QAEPB_WPB_W@Z
	push	eax
	push	OFFSET $SG4294800654
	mov	ecx, DWORD PTR _this$[ebp]
	call	?RegisterImageSourceClass@OBS@@UAEXPB_W0P6GPAXPAVXElement@@@ZP6G_N1_N@Z3@Z ; OBS::RegisterImageSourceClass

; 298  : 
; 299  :     //-----------------------------------------------------
; 300  :     // render frame class
; 301  :     WNDCLASS wc;
; 302  :     zero(&wc, sizeof(wc));

	push	40					; 00000028H
	lea	edx, DWORD PTR _wc$[ebp]
	push	edx
	call	?zero@@YGXPAXI@Z			; zero

; 303  :     wc.hInstance = hinstMain;

	mov	eax, DWORD PTR ?hinstMain@@3PAUHINSTANCE__@@A ; hinstMain
	mov	DWORD PTR _wc$[ebp+16], eax

; 304  :     wc.hCursor = LoadCursor(NULL, IDC_ARROW);

	push	32512					; 00007f00H
	push	0
	call	DWORD PTR __imp__LoadCursorW@8
	mov	DWORD PTR _wc$[ebp+24], eax

; 305  : 
; 306  :     wc.lpszClassName = OBS_RENDERFRAME_CLASS;

	mov	DWORD PTR _wc$[ebp+36], OFFSET $SG4294800653

; 307  :     wc.lpfnWndProc = (WNDPROC)OBS::RenderFrameProc;

	mov	DWORD PTR _wc$[ebp+4], OFFSET ?RenderFrameProc@OBS@@CGJPAUHWND__@@IIJ@Z ; OBS::RenderFrameProc

; 308  :    // wc.hbrBackground = GetSysColorBrush(COLOR_BTNFACE);
; 309  : 	// modify by songmm
; 310  : 	wc.hbrBackground = (HBRUSH)(GetStockObject(GRAY_BRUSH));

	push	2
	call	DWORD PTR __imp__GetStockObject@4
	mov	DWORD PTR _wc$[ebp+28], eax

; 311  : 	
; 312  :     if(!RegisterClass(&wc))

	lea	ecx, DWORD PTR _wc$[ebp]
	push	ecx
	call	_IsolationAwareRegisterClassW@4
	movzx	edx, ax
	test	edx, edx
	jne	SHORT $LN47@OBS

; 313  :         CrashError(TEXT("Could not register render frame class"));

	push	OFFSET $SG4294800652
	call	DWORD PTR __imp_?CrashError@@YAXPB_WZZ
$LN47@OBS:

; 314  : 
; 315  :     //-----------------------------------------------------
; 316  :     // projector frame class
; 317  :     wc.lpszClassName = OBS_PROJECTORFRAME_CLASS;

	mov	DWORD PTR _wc$[ebp+36], OFFSET $SG4294800651

; 318  :     wc.lpfnWndProc = (WNDPROC)OBS::ProjectorFrameProc;

	mov	DWORD PTR _wc$[ebp+4], OFFSET ?ProjectorFrameProc@OBS@@CGJPAUHWND__@@IIJ@Z ; OBS::ProjectorFrameProc

; 319  :     wc.hbrBackground = GetSysColorBrush(COLOR_BTNFACE);

	push	15					; 0000000fH
	call	DWORD PTR __imp__GetSysColorBrush@4
	mov	DWORD PTR _wc$[ebp+28], eax

; 320  : 
; 321  :     if(!RegisterClass(&wc))

	lea	eax, DWORD PTR _wc$[ebp]
	push	eax
	call	_IsolationAwareRegisterClassW@4
	movzx	ecx, ax
	test	ecx, ecx
	jne	SHORT $LN46@OBS

; 322  :         CrashError(TEXT("Could not register projector frame class"));

	push	OFFSET $SG4294800650
	call	DWORD PTR __imp_?CrashError@@YAXPB_WZZ
$LN46@OBS:

; 323  :     
; 324  :     //-----------------------------------------------------
; 325  :     // log window class
; 326  :     wc.lpszClassName = OBS_LOGWINDOW_CLASS;

	mov	DWORD PTR _wc$[ebp+36], OFFSET $SG4294800649

; 327  :     wc.lpfnWndProc = (WNDPROC)OBS::LogWindowProc;

	mov	DWORD PTR _wc$[ebp+4], OFFSET ?LogWindowProc@OBS@@CGJPAUHWND__@@IIJ@Z ; OBS::LogWindowProc

; 328  :     wc.hIcon = LoadIcon(hinstMain, MAKEINTRESOURCE(IDI_ICON1));

	push	109					; 0000006dH
	mov	edx, DWORD PTR ?hinstMain@@3PAUHINSTANCE__@@A ; hinstMain
	push	edx
	call	DWORD PTR __imp__LoadIconW@8
	mov	DWORD PTR _wc$[ebp+20], eax

; 329  :     wc.hbrBackground = (HBRUSH)COLOR_WINDOW;

	mov	DWORD PTR _wc$[ebp+28], 5

; 330  : 	
; 331  : 	
; 332  :     if(!RegisterClass(&wc))

	lea	eax, DWORD PTR _wc$[ebp]
	push	eax
	call	_IsolationAwareRegisterClassW@4
	movzx	ecx, ax
	test	ecx, ecx
	jne	SHORT $LN45@OBS

; 333  :         CrashError(TEXT("Could not register main window class"));

	push	OFFSET $SG4294800648
	call	DWORD PTR __imp_?CrashError@@YAXPB_WZZ
$LN45@OBS:

; 334  : 
; 335  : 	//-----------------------------------------------------
; 336  : 	////statu bar class
; 337  : 	//wc.lpszClassName = OBS_STATUS_CLASS;
; 338  : 	//wc.lpfnWndProc = (WNDPROC)OBS::OBSStatuBarProc;
; 339  : 	//wc.hIcon = LoadIcon(hinstMain, MAKEINTRESOURCE(IDI_ICON1));
; 340  : 	//wc.hbrBackground = (HBRUSH)(GetStockObject(GRAY_BRUSH));
; 341  : 
; 342  : 	//if (!RegisterClass(&wc))
; 343  : 	//	CrashError(TEXT("Could not register status bar class"));
; 344  : 	//-----------------------------------------------------
; 345  : 
; 346  :     // main window class
; 347  :     wc.lpszClassName = OBS_WINDOW_CLASS;

	mov	DWORD PTR _wc$[ebp+36], OFFSET $SG4294800647

; 348  :     wc.lpfnWndProc = (WNDPROC)OBSProc;

	mov	DWORD PTR _wc$[ebp+4], OFFSET ?OBSProc@OBS@@CGJPAUHWND__@@IIJ@Z ; OBS::OBSProc

; 349  : 	//note:
; 350  : 	wc.hbrBackground = (HBRUSH)(GetStockObject(BLACK_BRUSH));

	push	4
	call	DWORD PTR __imp__GetStockObject@4
	mov	DWORD PTR _wc$[ebp+28], eax

; 351  : 	wc.style = CS_VREDRAW | CS_HREDRAW | CS_OWNDC;

	mov	DWORD PTR _wc$[ebp], 35			; 00000023H

; 352  : 
; 353  : 	
; 354  :     if(!RegisterClass(&wc))

	lea	edx, DWORD PTR _wc$[ebp]
	push	edx
	call	_IsolationAwareRegisterClassW@4
	movzx	eax, ax
	test	eax, eax
	jne	SHORT $LN44@OBS

; 355  :         CrashError(TEXT("Could not register main window class"));

	push	OFFSET $SG4294800646
	call	DWORD PTR __imp_?CrashError@@YAXPB_WZZ
$LN44@OBS:

; 356  : 
; 357  :     //-----------------------------------------------------
; 358  :     // create main window
; 359  : 
; 360  :     int fullscreenX = GetSystemMetrics(SM_CXFULLSCREEN);

	push	16					; 00000010H
	call	DWORD PTR __imp__GetSystemMetrics@4
	mov	DWORD PTR _fullscreenX$[ebp], eax

; 361  :     int fullscreenY = GetSystemMetrics(SM_CYFULLSCREEN);

	push	17					; 00000011H
	call	DWORD PTR __imp__GetSystemMetrics@4
	mov	DWORD PTR _fullscreenY$[ebp], eax

; 362  : 
; 363  :     borderXSize = borderYSize = 0;

	mov	ecx, DWORD PTR _this$[ebp]
	mov	DWORD PTR [ecx+676], 0
	mov	edx, DWORD PTR _this$[ebp]
	mov	DWORD PTR [edx+672], 0

; 364  : 
; 365  :     borderXSize += GetSystemMetrics(SM_CXSIZEFRAME)*2;

	push	32					; 00000020H
	call	DWORD PTR __imp__GetSystemMetrics@4
	mov	ecx, DWORD PTR _this$[ebp]
	mov	edx, DWORD PTR [ecx+672]
	lea	eax, DWORD PTR [edx+eax*2]
	mov	ecx, DWORD PTR _this$[ebp]
	mov	DWORD PTR [ecx+672], eax

; 366  :     borderYSize += GetSystemMetrics(SM_CYSIZEFRAME)*2;

	push	33					; 00000021H
	call	DWORD PTR __imp__GetSystemMetrics@4
	mov	edx, DWORD PTR _this$[ebp]
	mov	ecx, DWORD PTR [edx+676]
	lea	edx, DWORD PTR [ecx+eax*2]
	mov	eax, DWORD PTR _this$[ebp]
	mov	DWORD PTR [eax+676], edx

; 367  :     borderYSize += GetSystemMetrics(SM_CYMENU);

	push	15					; 0000000fH
	call	DWORD PTR __imp__GetSystemMetrics@4
	mov	ecx, DWORD PTR _this$[ebp]
	add	eax, DWORD PTR [ecx+676]
	mov	edx, DWORD PTR _this$[ebp]
	mov	DWORD PTR [edx+676], eax

; 368  :     borderYSize += GetSystemMetrics(SM_CYCAPTION);

	push	4
	call	DWORD PTR __imp__GetSystemMetrics@4
	mov	ecx, DWORD PTR _this$[ebp]
	add	eax, DWORD PTR [ecx+676]
	mov	edx, DWORD PTR _this$[ebp]
	mov	DWORD PTR [edx+676], eax

; 369  : 
; 370  :     clientWidth  = GlobalConfig->GetInt(TEXT("General"), TEXT("Width"),  defaultClientWidth);

	push	1000					; 000003e8H
	push	OFFSET $SG4294800645
	push	OFFSET $SG4294800644
	mov	ecx, DWORD PTR ?GlobalConfig@@3PAVConfigFile@@A ; GlobalConfig
	call	DWORD PTR __imp_?GetInt@ConfigFile@@QAEHPB_W0H@Z
	mov	ecx, DWORD PTR _this$[ebp]
	mov	DWORD PTR [ecx+680], eax

; 371  :     clientHeight = GlobalConfig->GetInt(TEXT("General"), TEXT("Height"), defaultClientHeight);

	push	600					; 00000258H
	push	OFFSET $SG4294800643
	push	OFFSET $SG4294800642
	mov	ecx, DWORD PTR ?GlobalConfig@@3PAVConfigFile@@A ; GlobalConfig
	call	DWORD PTR __imp_?GetInt@ConfigFile@@QAEHPB_W0H@Z
	mov	edx, DWORD PTR _this$[ebp]
	mov	DWORD PTR [edx+684], eax

; 372  : 
; 373  :     if(clientWidth < minClientWidth)

	mov	eax, DWORD PTR _this$[ebp]
	cmp	DWORD PTR [eax+680], 640		; 00000280H
	jge	SHORT $LN43@OBS

; 374  :         clientWidth = minClientWidth;

	mov	ecx, DWORD PTR _this$[ebp]
	mov	DWORD PTR [ecx+680], 640		; 00000280H
$LN43@OBS:

; 375  :     if(clientHeight < minClientHeight)

	mov	edx, DWORD PTR _this$[ebp]
	cmp	DWORD PTR [edx+684], 275		; 00000113H
	jge	SHORT $LN42@OBS

; 376  :         clientHeight = minClientHeight;

	mov	eax, DWORD PTR _this$[ebp]
	mov	DWORD PTR [eax+684], 275		; 00000113H
$LN42@OBS:

; 377  : 
; 378  :     int maxCX = fullscreenX-borderXSize;

	mov	ecx, DWORD PTR _this$[ebp]
	mov	edx, DWORD PTR _fullscreenX$[ebp]
	sub	edx, DWORD PTR [ecx+672]
	mov	DWORD PTR _maxCX$[ebp], edx

; 379  :     int maxCY = fullscreenY-borderYSize;

	mov	eax, DWORD PTR _this$[ebp]
	mov	ecx, DWORD PTR _fullscreenY$[ebp]
	sub	ecx, DWORD PTR [eax+676]
	mov	DWORD PTR _maxCY$[ebp], ecx

; 380  : 	//
; 381  :     if(clientWidth > maxCX)

	mov	edx, DWORD PTR _this$[ebp]
	mov	eax, DWORD PTR [edx+680]
	cmp	eax, DWORD PTR _maxCX$[ebp]
	jle	SHORT $LN41@OBS

; 382  :         clientWidth = maxCX;

	mov	ecx, DWORD PTR _this$[ebp]
	mov	edx, DWORD PTR _maxCX$[ebp]
	mov	DWORD PTR [ecx+680], edx
$LN41@OBS:

; 383  :     if(clientHeight > maxCY)

	mov	eax, DWORD PTR _this$[ebp]
	mov	ecx, DWORD PTR [eax+684]
	cmp	ecx, DWORD PTR _maxCY$[ebp]
	jle	SHORT $LN40@OBS

; 384  :         clientHeight = maxCY;

	mov	edx, DWORD PTR _this$[ebp]
	mov	eax, DWORD PTR _maxCY$[ebp]
	mov	DWORD PTR [edx+684], eax
$LN40@OBS:

; 385  : 
; 386  :     int cx = clientWidth  + borderXSize;

	mov	ecx, DWORD PTR _this$[ebp]
	mov	edx, DWORD PTR [ecx+680]
	mov	eax, DWORD PTR _this$[ebp]
	add	edx, DWORD PTR [eax+672]
	mov	DWORD PTR _cx$[ebp], edx

; 387  :     int cy = clientHeight + borderYSize;

	mov	ecx, DWORD PTR _this$[ebp]
	mov	edx, DWORD PTR [ecx+684]
	mov	eax, DWORD PTR _this$[ebp]
	add	edx, DWORD PTR [eax+676]
	mov	DWORD PTR _cy$[ebp], edx

; 388  : 
; 389  :     int x = (fullscreenX/2)-(cx/2);

	mov	eax, DWORD PTR _fullscreenX$[ebp]
	cdq
	sub	eax, edx
	mov	ecx, eax
	sar	ecx, 1
	mov	eax, DWORD PTR _cx$[ebp]
	cdq
	sub	eax, edx
	sar	eax, 1
	sub	ecx, eax
	mov	DWORD PTR _x$[ebp], ecx

; 390  :     int y = (fullscreenY/2)-(cy/2);

	mov	eax, DWORD PTR _fullscreenY$[ebp]
	cdq
	sub	eax, edx
	mov	ecx, eax
	sar	ecx, 1
	mov	eax, DWORD PTR _cy$[ebp]
	cdq
	sub	eax, edx
	sar	eax, 1
	sub	ecx, eax
	mov	DWORD PTR _y$[ebp], ecx

; 391  : 
; 392  :     int posX = GlobalConfig->GetInt(TEXT("General"), TEXT("PosX"), -9999);

	push	-9999					; ffffd8f1H
	push	OFFSET $SG4294800641
	push	OFFSET $SG4294800640
	mov	ecx, DWORD PTR ?GlobalConfig@@3PAVConfigFile@@A ; GlobalConfig
	call	DWORD PTR __imp_?GetInt@ConfigFile@@QAEHPB_W0H@Z
	mov	DWORD PTR _posX$[ebp], eax

; 393  :     int posY = GlobalConfig->GetInt(TEXT("General"), TEXT("PosY"), -9999);

	push	-9999					; ffffd8f1H
	push	OFFSET $SG4294800639
	push	OFFSET $SG4294800638
	mov	ecx, DWORD PTR ?GlobalConfig@@3PAVConfigFile@@A ; GlobalConfig
	call	DWORD PTR __imp_?GetInt@ConfigFile@@QAEHPB_W0H@Z
	mov	DWORD PTR _posY$[ebp], eax

; 394  : 
; 395  :     bool bInsideMonitors = false;

	mov	BYTE PTR _bInsideMonitors$[ebp], 0

; 396  :     for(UINT i=0; i<monitors.Num(); i++)

	mov	DWORD PTR _i$20[ebp], 0
	jmp	SHORT $LN39@OBS
$LN38@OBS:
	mov	edx, DWORD PTR _i$20[ebp]
	add	edx, 1
	mov	DWORD PTR _i$20[ebp], edx
$LN39@OBS:
	mov	ecx, DWORD PTR _this$[ebp]
	add	ecx, 156				; 0000009cH
	call	?Num@?$List@UMonitorInfo@@@@QBEIXZ	; List<MonitorInfo>::Num
	cmp	DWORD PTR _i$20[ebp], eax
	jae	$LN37@OBS

; 397  :     {
; 398  :         if( posX >= monitors[i].rect.left && posX < monitors[i].rect.right  &&
; 399  :             posY >= monitors[i].rect.top  && posY < monitors[i].rect.bottom )

	mov	eax, DWORD PTR _i$20[ebp]
	push	eax
	mov	ecx, DWORD PTR _this$[ebp]
	add	ecx, 156				; 0000009cH
	call	??A?$List@UMonitorInfo@@@@QAEAAUMonitorInfo@@I@Z ; List<MonitorInfo>::operator[]
	mov	ecx, DWORD PTR _posX$[ebp]
	cmp	ecx, DWORD PTR [eax+4]
	jl	SHORT $LN36@OBS
	mov	edx, DWORD PTR _i$20[ebp]
	push	edx
	mov	ecx, DWORD PTR _this$[ebp]
	add	ecx, 156				; 0000009cH
	call	??A?$List@UMonitorInfo@@@@QAEAAUMonitorInfo@@I@Z ; List<MonitorInfo>::operator[]
	mov	ecx, DWORD PTR _posX$[ebp]
	cmp	ecx, DWORD PTR [eax+12]
	jge	SHORT $LN36@OBS
	mov	edx, DWORD PTR _i$20[ebp]
	push	edx
	mov	ecx, DWORD PTR _this$[ebp]
	add	ecx, 156				; 0000009cH
	call	??A?$List@UMonitorInfo@@@@QAEAAUMonitorInfo@@I@Z ; List<MonitorInfo>::operator[]
	mov	ecx, DWORD PTR _posY$[ebp]
	cmp	ecx, DWORD PTR [eax+8]
	jl	SHORT $LN36@OBS
	mov	edx, DWORD PTR _i$20[ebp]
	push	edx
	mov	ecx, DWORD PTR _this$[ebp]
	add	ecx, 156				; 0000009cH
	call	??A?$List@UMonitorInfo@@@@QAEAAUMonitorInfo@@I@Z ; List<MonitorInfo>::operator[]
	mov	ecx, DWORD PTR _posY$[ebp]
	cmp	ecx, DWORD PTR [eax+16]
	jge	SHORT $LN36@OBS

; 400  :         {
; 401  :             bInsideMonitors = true;

	mov	BYTE PTR _bInsideMonitors$[ebp], 1

; 402  :             break;

	jmp	SHORT $LN37@OBS
$LN36@OBS:

; 403  :         }
; 404  :     }

	jmp	$LN38@OBS
$LN37@OBS:

; 405  : 
; 406  :     if(bInsideMonitors)

	movzx	edx, BYTE PTR _bInsideMonitors$[ebp]
	test	edx, edx
	je	SHORT $LN35@OBS

; 407  :     {
; 408  :         x = posX;

	mov	eax, DWORD PTR _posX$[ebp]
	mov	DWORD PTR _x$[ebp], eax

; 409  :         y = posY;

	mov	ecx, DWORD PTR _posY$[ebp]
	mov	DWORD PTR _y$[ebp], ecx
$LN35@OBS:

; 410  :     }
; 411  : 
; 412  :     bPanelVisibleWindowed = GlobalConfig->GetInt(TEXT("General"), TEXT("PanelVisibleWindowed"), 1) != 0;

	push	1
	push	OFFSET $SG4294800637
	push	OFFSET $SG4294800636
	mov	ecx, DWORD PTR ?GlobalConfig@@3PAVConfigFile@@A ; GlobalConfig
	call	DWORD PTR __imp_?GetInt@ConfigFile@@QAEHPB_W0H@Z
	test	eax, eax
	je	SHORT $LN51@OBS
	mov	DWORD PTR tv619[ebp], 1
	jmp	SHORT $LN52@OBS
$LN51@OBS:
	mov	DWORD PTR tv619[ebp], 0
$LN52@OBS:
	mov	edx, DWORD PTR _this$[ebp]
	mov	al, BYTE PTR tv619[ebp]
	mov	BYTE PTR [edx+688], al

; 413  :     bPanelVisibleFullscreen = GlobalConfig->GetInt(TEXT("General"), TEXT("PanelVisibleFullscreen"), 0) != 0;

	push	0
	push	OFFSET $SG4294800635
	push	OFFSET $SG4294800634
	mov	ecx, DWORD PTR ?GlobalConfig@@3PAVConfigFile@@A ; GlobalConfig
	call	DWORD PTR __imp_?GetInt@ConfigFile@@QAEHPB_W0H@Z
	test	eax, eax
	je	SHORT $LN53@OBS
	mov	DWORD PTR tv628[ebp], 1
	jmp	SHORT $LN54@OBS
$LN53@OBS:
	mov	DWORD PTR tv628[ebp], 0
$LN54@OBS:
	mov	ecx, DWORD PTR _this$[ebp]
	mov	dl, BYTE PTR tv628[ebp]
	mov	BYTE PTR [ecx+689], dl

; 414  :     bPanelVisible = bPanelVisibleWindowed; // Assuming OBS always starts windowed

	mov	eax, DWORD PTR _this$[ebp]
	mov	ecx, DWORD PTR _this$[ebp]
	mov	dl, BYTE PTR [ecx+688]
	mov	BYTE PTR [eax+690], dl

; 415  :     bPanelVisibleProcessed = false; // Force immediate process

	mov	eax, DWORD PTR _this$[ebp]
	mov	BYTE PTR [eax+691], 0

; 416  : 
; 417  :     bFullscreenMode = false;

	mov	ecx, DWORD PTR _this$[ebp]
	mov	BYTE PTR [ecx+740], 0

; 418  : 	//WS_EX_TOOLWINDOW
; 419  : 	hwndMain = CreateWindowEx(0, OBS_WINDOW_CLASS, GetApplicationName(),
; 420  : 		WS_OVERLAPPED | WS_POPUP |WS_CLIPCHILDREN,
; 421  : 		x, y, defaultClientWidth, defaultClientHeight, NULL, NULL, hinstMain, NULL);

	push	0
	mov	edx, DWORD PTR ?hinstMain@@3PAUHINSTANCE__@@A ; hinstMain
	push	edx
	push	0
	push	0
	push	600					; 00000258H
	push	1000					; 000003e8H
	mov	eax, DWORD PTR _y$[ebp]
	push	eax
	mov	ecx, DWORD PTR _x$[ebp]
	push	ecx
	push	-2113929216				; 82000000H
	lea	edx, DWORD PTR $T7[ebp]
	push	edx
	call	?GetApplicationName@OBS@@CA?AVString@@XZ ; OBS::GetApplicationName
	add	esp, 4
	mov	ecx, eax
	call	DWORD PTR __imp_??BString@@QBEPA_WXZ
	push	eax
	push	OFFSET $SG4294800633
	push	0
	call	_IsolationAwareCreateWindowExW@48
	mov	DWORD PTR ?hwndMain@@3PAUHWND__@@A, eax	; hwndMain
	lea	ecx, DWORD PTR $T7[ebp]
	call	DWORD PTR __imp_??1String@@QAE@XZ

; 422  : 
; 423  :     if(!hwndMain)

	cmp	DWORD PTR ?hwndMain@@3PAUHWND__@@A, 0	; hwndMain
	jne	SHORT $LN34@OBS

; 424  :         CrashError(TEXT("Could not create main window"));

	push	OFFSET $SG4294800632
	call	DWORD PTR __imp_?CrashError@@YAXPB_WZZ
$LN34@OBS:

; 425  : 
; 426  :     //-----------------------------------------------------
; 427  :     // render frame
; 428  : 
; 429  :     hwndRenderFrame = CreateWindow(OBS_RENDERFRAME_CLASS, NULL,
; 430  :         WS_CHILDWINDOW | WS_VISIBLE | WS_CLIPCHILDREN,
; 431  :         0, 0, 0, 0,
; 432  :         hwndMain, NULL, hinstMain, NULL);

	push	0
	mov	eax, DWORD PTR ?hinstMain@@3PAUHINSTANCE__@@A ; hinstMain
	push	eax
	push	0
	mov	ecx, DWORD PTR ?hwndMain@@3PAUHWND__@@A	; hwndMain
	push	ecx
	push	0
	push	0
	push	0
	push	0
	push	1375731712				; 52000000H
	push	0
	push	OFFSET $SG4294800631
	push	0
	call	_IsolationAwareCreateWindowExW@48
	mov	DWORD PTR ?hwndRenderFrame@@3PAUHWND__@@A, eax ; hwndRenderFrame

; 433  :     if(!hwndRenderFrame)

	cmp	DWORD PTR ?hwndRenderFrame@@3PAUHWND__@@A, 0 ; hwndRenderFrame
	jne	SHORT $LN33@OBS

; 434  :         CrashError(TEXT("Could not create render frame"));

	push	OFFSET $SG4294800630
	call	DWORD PTR __imp_?CrashError@@YAXPB_WZZ
$LN33@OBS:

; 435  : 
; 436  :     //-----------------------------------------------------
; 437  :     // projector window
; 438  : 
; 439  :     hwndProjector = CreateWindow(OBS_PROJECTORFRAME_CLASS,
; 440  :         L"OBS Projector Window",
; 441  :         WS_POPUP, 0, 0, 0, 0,
; 442  :         NULL, NULL, hinstMain, NULL);

	push	0
	mov	edx, DWORD PTR ?hinstMain@@3PAUHINSTANCE__@@A ; hinstMain
	push	edx
	push	0
	push	0
	push	0
	push	0
	push	0
	push	0
	push	-2147483648				; 80000000H
	push	OFFSET $SG4294800629
	push	OFFSET $SG4294800628
	push	0
	call	_IsolationAwareCreateWindowExW@48
	mov	ecx, DWORD PTR _this$[ebp]
	mov	DWORD PTR [ecx+732], eax

; 443  : 
; 444  :     //-----------------------------------------------------
; 445  :     // log window
; 446  : 
; 447  :     x = (fullscreenX/2)-(600/2);

	mov	eax, DWORD PTR _fullscreenX$[ebp]
	cdq
	sub	eax, edx
	sar	eax, 1
	sub	eax, 300				; 0000012cH
	mov	DWORD PTR _x$[ebp], eax

; 448  :     y = (fullscreenY/2)-(500/2);

	mov	eax, DWORD PTR _fullscreenY$[ebp]
	cdq
	sub	eax, edx
	sar	eax, 1
	sub	eax, 250				; 000000faH
	mov	DWORD PTR _y$[ebp], eax

; 449  : 
; 450  :     int logPosX  = GlobalConfig->GetInt(TEXT("General"), TEXT("LogPosX"), -9999);

	push	-9999					; ffffd8f1H
	push	OFFSET $SG4294800627
	push	OFFSET $SG4294800626
	mov	ecx, DWORD PTR ?GlobalConfig@@3PAVConfigFile@@A ; GlobalConfig
	call	DWORD PTR __imp_?GetInt@ConfigFile@@QAEHPB_W0H@Z
	mov	DWORD PTR _logPosX$[ebp], eax

; 451  :     int logPosY  = GlobalConfig->GetInt(TEXT("General"), TEXT("LogPosY"), -9999);

	push	-9999					; ffffd8f1H
	push	OFFSET $SG4294800625
	push	OFFSET $SG4294800624
	mov	ecx, DWORD PTR ?GlobalConfig@@3PAVConfigFile@@A ; GlobalConfig
	call	DWORD PTR __imp_?GetInt@ConfigFile@@QAEHPB_W0H@Z
	mov	DWORD PTR _logPosY$[ebp], eax

; 452  :     int logSizeX = GlobalConfig->GetInt(TEXT("General"), TEXT("LogSizeX"), 600);

	push	600					; 00000258H
	push	OFFSET $SG4294800623
	push	OFFSET $SG4294800622
	mov	ecx, DWORD PTR ?GlobalConfig@@3PAVConfigFile@@A ; GlobalConfig
	call	DWORD PTR __imp_?GetInt@ConfigFile@@QAEHPB_W0H@Z
	mov	DWORD PTR _logSizeX$[ebp], eax

; 453  :     int logSizeY = GlobalConfig->GetInt(TEXT("General"), TEXT("LogSizeY"), 500);

	push	500					; 000001f4H
	push	OFFSET $SG4294800621
	push	OFFSET $SG4294800620
	mov	ecx, DWORD PTR ?GlobalConfig@@3PAVConfigFile@@A ; GlobalConfig
	call	DWORD PTR __imp_?GetInt@ConfigFile@@QAEHPB_W0H@Z
	mov	DWORD PTR _logSizeY$[ebp], eax

; 454  : 
; 455  :     bInsideMonitors = false;

	mov	BYTE PTR _bInsideMonitors$[ebp], 0

; 456  :     for(UINT i=0; i<monitors.Num(); i++)

	mov	DWORD PTR _i$22[ebp], 0
	jmp	SHORT $LN32@OBS
$LN31@OBS:
	mov	edx, DWORD PTR _i$22[ebp]
	add	edx, 1
	mov	DWORD PTR _i$22[ebp], edx
$LN32@OBS:
	mov	ecx, DWORD PTR _this$[ebp]
	add	ecx, 156				; 0000009cH
	call	?Num@?$List@UMonitorInfo@@@@QBEIXZ	; List<MonitorInfo>::Num
	cmp	DWORD PTR _i$22[ebp], eax
	jae	$LN30@OBS

; 457  :     {
; 458  :         if( logPosX >= monitors[i].rect.left && logPosX < monitors[i].rect.right  &&
; 459  :             logPosY >= monitors[i].rect.top  && logPosY < monitors[i].rect.bottom )

	mov	eax, DWORD PTR _i$22[ebp]
	push	eax
	mov	ecx, DWORD PTR _this$[ebp]
	add	ecx, 156				; 0000009cH
	call	??A?$List@UMonitorInfo@@@@QAEAAUMonitorInfo@@I@Z ; List<MonitorInfo>::operator[]
	mov	ecx, DWORD PTR _logPosX$[ebp]
	cmp	ecx, DWORD PTR [eax+4]
	jl	SHORT $LN29@OBS
	mov	edx, DWORD PTR _i$22[ebp]
	push	edx
	mov	ecx, DWORD PTR _this$[ebp]
	add	ecx, 156				; 0000009cH
	call	??A?$List@UMonitorInfo@@@@QAEAAUMonitorInfo@@I@Z ; List<MonitorInfo>::operator[]
	mov	ecx, DWORD PTR _logPosX$[ebp]
	cmp	ecx, DWORD PTR [eax+12]
	jge	SHORT $LN29@OBS
	mov	edx, DWORD PTR _i$22[ebp]
	push	edx
	mov	ecx, DWORD PTR _this$[ebp]
	add	ecx, 156				; 0000009cH
	call	??A?$List@UMonitorInfo@@@@QAEAAUMonitorInfo@@I@Z ; List<MonitorInfo>::operator[]
	mov	ecx, DWORD PTR _logPosY$[ebp]
	cmp	ecx, DWORD PTR [eax+8]
	jl	SHORT $LN29@OBS
	mov	edx, DWORD PTR _i$22[ebp]
	push	edx
	mov	ecx, DWORD PTR _this$[ebp]
	add	ecx, 156				; 0000009cH
	call	??A?$List@UMonitorInfo@@@@QAEAAUMonitorInfo@@I@Z ; List<MonitorInfo>::operator[]
	mov	ecx, DWORD PTR _logPosY$[ebp]
	cmp	ecx, DWORD PTR [eax+16]
	jge	SHORT $LN29@OBS

; 460  :         {
; 461  :             bInsideMonitors = true;

	mov	BYTE PTR _bInsideMonitors$[ebp], 1

; 462  :             break;

	jmp	SHORT $LN30@OBS
$LN29@OBS:

; 463  :         }
; 464  :     }

	jmp	$LN31@OBS
$LN30@OBS:

; 465  : 
; 466  :     if(bInsideMonitors)

	movzx	edx, BYTE PTR _bInsideMonitors$[ebp]
	test	edx, edx
	je	SHORT $LN28@OBS

; 467  :     {
; 468  :         x = logPosX;

	mov	eax, DWORD PTR _logPosX$[ebp]
	mov	DWORD PTR _x$[ebp], eax

; 469  :         y = logPosY;

	mov	ecx, DWORD PTR _logPosY$[ebp]
	mov	DWORD PTR _y$[ebp], ecx

; 470  :     }
; 471  :     else

	jmp	SHORT $LN27@OBS
$LN28@OBS:

; 472  :     {
; 473  :         logSizeX = 600;

	mov	DWORD PTR _logSizeX$[ebp], 600		; 00000258H

; 474  :         logSizeY = 500;

	mov	DWORD PTR _logSizeY$[ebp], 500		; 000001f4H
$LN27@OBS:

; 475  :     }
; 476  : 
; 477  :     hwndLogWindow = CreateWindowEx(LocaleIsRTL() ? WS_EX_LAYOUTRTL | WS_EX_NOINHERITLAYOUT : 0, OBS_LOGWINDOW_CLASS, L"LogWindow", WS_OVERLAPPEDWINDOW, x, y, logSizeX, logSizeY, NULL, NULL, hinstMain, NULL);

	mov	edx, DWORD PTR __imp_?locale@@3PAVLocaleStringLookup@@A
	mov	eax, DWORD PTR [edx]
	push	eax
	call	DWORD PTR __imp_?LocaleIsRTL@@YA_NPAVLocaleStringLookup@@@Z
	add	esp, 4
	movzx	ecx, al
	test	ecx, ecx
	je	SHORT $LN55@OBS
	mov	DWORD PTR tv759[ebp], 5242880		; 00500000H
	jmp	SHORT $LN56@OBS
$LN55@OBS:
	mov	DWORD PTR tv759[ebp], 0
$LN56@OBS:
	push	0
	mov	edx, DWORD PTR ?hinstMain@@3PAUHINSTANCE__@@A ; hinstMain
	push	edx
	push	0
	push	0
	mov	eax, DWORD PTR _logSizeY$[ebp]
	push	eax
	mov	ecx, DWORD PTR _logSizeX$[ebp]
	push	ecx
	mov	edx, DWORD PTR _y$[ebp]
	push	edx
	mov	eax, DWORD PTR _x$[ebp]
	push	eax
	push	13565952				; 00cf0000H
	push	OFFSET $SG4294800619
	push	OFFSET $SG4294800618
	mov	ecx, DWORD PTR tv759[ebp]
	push	ecx
	call	_IsolationAwareCreateWindowExW@48
	mov	DWORD PTR ?hwndLogWindow@@3PAUHWND__@@A, eax ; hwndLogWindow

; 478  :     LocalizeWindow(hwndLogWindow);

	push	0
	mov	edx, DWORD PTR ?hwndLogWindow@@3PAUHWND__@@A ; hwndLogWindow
	push	edx
	call	DWORD PTR __imp_?LocalizeWindow@@YAXPAUHWND__@@PAVLocaleStringLookup@@@Z
	add	esp, 8

; 479  : 
; 480  :     RECT client;
; 481  :     GetClientRect(hwndLogWindow, &client);

	lea	eax, DWORD PTR _client$[ebp]
	push	eax
	mov	ecx, DWORD PTR ?hwndLogWindow@@3PAUHWND__@@A ; hwndLogWindow
	push	ecx
	call	DWORD PTR __imp__GetClientRect@8

; 482  : 
; 483  :     hwndLog = CreateWindowEx(WS_EX_CLIENTEDGE, L"EDIT", L"",
; 484  :         ES_MULTILINE | WS_VISIBLE | WS_CHILD | WS_TABSTOP | WS_VSCROLL | WS_HSCROLL | ES_READONLY | ES_NOHIDESEL,
; 485  :         client.left, client.top, client.right, client.bottom, hwndLogWindow, (HMENU)ID_LOG_WINDOW, 0, 0);

	push	0
	push	0
	push	9025					; 00002341H
	mov	edx, DWORD PTR ?hwndLogWindow@@3PAUHWND__@@A ; hwndLogWindow
	push	edx
	mov	eax, DWORD PTR _client$[ebp+12]
	push	eax
	mov	ecx, DWORD PTR _client$[ebp+8]
	push	ecx
	mov	edx, DWORD PTR _client$[ebp+4]
	push	edx
	mov	eax, DWORD PTR _client$[ebp]
	push	eax
	push	1345390852				; 50310904H
	push	OFFSET $SG4294800617
	push	OFFSET $SG4294800616
	push	512					; 00000200H
	call	_IsolationAwareCreateWindowExW@48
	mov	DWORD PTR ?hwndLog@@3PAUHWND__@@A, eax	; hwndLog

; 486  :     SendMessage(hwndLog, WM_SETFONT, (WPARAM)GetStockObject(DEFAULT_GUI_FONT), TRUE);

	push	1
	push	17					; 00000011H
	call	DWORD PTR __imp__GetStockObject@4
	push	eax
	push	48					; 00000030H
	mov	ecx, DWORD PTR ?hwndLog@@3PAUHWND__@@A	; hwndLog
	push	ecx
	call	DWORD PTR __imp__SendMessageW@16

; 487  :     SendMessage(hwndLog, EM_SETLIMITTEXT, 0, 0);

	push	0
	push	0
	push	197					; 000000c5H
	mov	edx, DWORD PTR ?hwndLog@@3PAUHWND__@@A	; hwndLog
	push	edx
	call	DWORD PTR __imp__SendMessageW@16

; 488  :     ShowWindow(hwndLog, SW_SHOW);

	push	5
	mov	eax, DWORD PTR ?hwndLog@@3PAUHWND__@@A	; hwndLog
	push	eax
	call	DWORD PTR __imp__ShowWindow@8

; 489  : 
; 490  :     ResetLogUpdateCallback([] { PostMessage(hwndLogWindow, WM_COMMAND, MAKEWPARAM(ID_LOG_WINDOW, 0), 0); });

	lea	ecx, DWORD PTR $T15[ebp]
	call	??B<lambda_67fe46cc64f8d1dcff1cc8a09bdee50b>@@QBEP6AXXZXZ ; <lambda_67fe46cc64f8d1dcff1cc8a09bdee50b>::operator void (__cdecl*)(void)
	push	eax
	call	DWORD PTR __imp_?ResetLogUpdateCallback@@YAXP6AXXZ@Z
	add	esp, 4

; 491  : 
; 492  :     //-----------------------------------------------------
; 493  :     // render frame text
; 494  : 
; 495  :     //hwndRenderMessage = CreateWindow(TEXT("STATIC"), Str("MainWindow.BeginMessage"),
; 496  :     //    WS_CHILDWINDOW|WS_VISIBLE|WS_CLIPSIBLINGS|SS_CENTER,
; 497  :     //    0, 0, 0, 0, hwndRenderFrame, NULL, hinstMain, NULL);
; 498  :     //SendMessage(hwndRenderMessage, WM_SETFONT, (WPARAM)GetStockObject(DEFAULT_GUI_FONT), TRUE);
; 499  : 
; 500  :     //-----------------------------------------------------
; 501  :     // scenes listbox
; 502  : 
; 503  :     HWND hwndTemp;
; 504  :     hwndTemp = CreateWindowEx(0/*WS_EX_CLIENTEDGE,*/, TEXT("LISTBOX"), NULL,
; 505  : 		WS_CHILDWINDOW | WS_VISIBLE | WS_TABSTOP | LBS_HASSTRINGS | /*WS_VSCROLL |*/ LBS_NOTIFY | LBS_NOINTEGRALHEIGHT | WS_CLIPSIBLINGS | LBS_OWNERDRAWFIXED,
; 506  :         0, 0, 0, 0, hwndMain, (HMENU)ID_SCENES, 0, 0);

	push	0
	push	0
	push	5011					; 00001393H
	mov	ecx, DWORD PTR ?hwndMain@@3PAUHWND__@@A	; hwndMain
	push	ecx
	push	0
	push	0
	push	0
	push	0
	push	1409352017				; 54010151H
	push	0
	push	OFFSET $SG4294800615
	push	0
	call	_IsolationAwareCreateWindowExW@48
	mov	DWORD PTR _hwndTemp$[ebp], eax

; 507  :     SendMessage(hwndTemp, WM_SETFONT, (WPARAM)GetStockObject(DEFAULT_GUI_FONT), TRUE);

	push	1
	push	17					; 00000011H
	call	DWORD PTR __imp__GetStockObject@4
	push	eax
	push	48					; 00000030H
	mov	edx, DWORD PTR _hwndTemp$[ebp]
	push	edx
	call	DWORD PTR __imp__SendMessageW@16

; 508  : 
; 509  :     listboxProc = (WNDPROC)GetWindowLongPtr(hwndTemp, GWLP_WNDPROC);

	push	-4					; fffffffcH
	mov	eax, DWORD PTR _hwndTemp$[ebp]
	push	eax
	call	DWORD PTR __imp__GetWindowLongW@8
	mov	DWORD PTR ?listboxProc@@3P6GJPAUHWND__@@IIJ@ZA, eax ; listboxProc

; 510  :     SetWindowLongPtr(hwndTemp, GWLP_WNDPROC, (LONG_PTR)OBS::ListboxHook);

	push	OFFSET ?ListboxHook@OBS@@CGJPAUHWND__@@IIJ@Z ; OBS::ListboxHook
	push	-4					; fffffffcH
	mov	ecx, DWORD PTR _hwndTemp$[ebp]
	push	ecx
	call	DWORD PTR __imp__SetWindowLongW@12

; 511  :     //-----------------------------------------------------
; 512  :     // elements listview
; 513  : 
; 514  :     hwndTemp = CreateWindowEx(0/*WS_EX_CLIENTEDGE*/, WC_LISTVIEW, NULL,
; 515  :         WS_CHILDWINDOW|WS_VISIBLE|WS_TABSTOP|WS_VSCROLL|WS_CLIPSIBLINGS|LVS_REPORT|LVS_NOCOLUMNHEADER|
; 516  : 		LVS_SHOWSELALWAYS | LVS_ALIGNLEFT | LVS_NOLABELWRAP /*|LVS_OWNERDRAWFIXED*/,
; 517  :         0, 0, 0, 0, hwndMain, (HMENU)ID_SOURCES, 0, 0);

	push	0
	push	0
	push	5013					; 00001395H
	mov	edx, DWORD PTR ?hwndMain@@3PAUHWND__@@A	; hwndMain
	push	edx
	push	0
	push	0
	push	0
	push	0
	push	1411467401				; 54214889H
	push	0
	push	OFFSET $SG4294800614
	push	0
	call	_IsolationAwareCreateWindowExW@48
	mov	DWORD PTR _hwndTemp$[ebp], eax

; 518  :     SendMessage(hwndTemp, WM_SETFONT, (WPARAM)GetStockObject(DEFAULT_GUI_FONT), TRUE);

	push	1
	push	17					; 00000011H
	call	DWORD PTR __imp__GetStockObject@4
	push	eax
	push	48					; 00000030H
	mov	eax, DWORD PTR _hwndTemp$[ebp]
	push	eax
	call	DWORD PTR __imp__SendMessageW@16

; 519  : 
; 520  :     ListView_SetExtendedListViewStyle(hwndTemp, LVS_EX_CHECKBOXES | LVS_EX_FULLROWSELECT | LVS_EX_DOUBLEBUFFER);

	push	65572					; 00010024H
	push	0
	push	4150					; 00001036H
	mov	ecx, DWORD PTR _hwndTemp$[ebp]
	push	ecx
	call	DWORD PTR __imp__SendMessageW@16

; 521  :     
; 522  :     //add single column needed for report style
; 523  :     LVCOLUMN column;    
; 524  :     column.mask = LVCF_TEXT;

	mov	DWORD PTR _column$[ebp], 4

; 525  :     column.fmt = LVCFMT_FIXED_WIDTH;

	mov	DWORD PTR _column$[ebp+4], 256		; 00000100H

; 526  :     column.cx = 0;

	mov	DWORD PTR _column$[ebp+8], 0

; 527  :     column.pszText = TEXT("");

	mov	DWORD PTR _column$[ebp+12], OFFSET $SG4294800613

; 528  : 
; 529  :     ListView_InsertColumn(hwndTemp, 0, &column);

	lea	edx, DWORD PTR _column$[ebp]
	push	edx
	push	0
	push	4193					; 00001061H
	mov	eax, DWORD PTR _hwndTemp$[ebp]
	push	eax
	call	DWORD PTR __imp__SendMessageW@16

; 530  :     ListView_InsertColumn(hwndTemp, 1, &column);

	lea	ecx, DWORD PTR _column$[ebp]
	push	ecx
	push	1
	push	4193					; 00001061H
	mov	edx, DWORD PTR _hwndTemp$[ebp]
	push	edx
	call	DWORD PTR __imp__SendMessageW@16

; 531  : 
; 532  :     listviewProc = (WNDPROC)GetWindowLongPtr(hwndTemp, GWLP_WNDPROC);

	push	-4					; fffffffcH
	mov	eax, DWORD PTR _hwndTemp$[ebp]
	push	eax
	call	DWORD PTR __imp__GetWindowLongW@8
	mov	DWORD PTR ?listviewProc@@3P6GJPAUHWND__@@IIJ@ZA, eax ; listviewProc

; 533  :     SetWindowLongPtr(hwndTemp, GWLP_WNDPROC, (LONG_PTR)OBS::ListboxHook);

	push	OFFSET ?ListboxHook@OBS@@CGJPAUHWND__@@IIJ@Z ; OBS::ListboxHook
	push	-4					; fffffffcH
	mov	ecx, DWORD PTR _hwndTemp$[ebp]
	push	ecx
	call	DWORD PTR __imp__SetWindowLongW@12

; 534  : 	SendMessage(hwndTemp, LVM_SETBKCOLOR, 0, RGB(34,36,40));

	push	2630690					; 00282422H
	push	0
	push	4097					; 00001001H
	mov	edx, DWORD PTR _hwndTemp$[ebp]
	push	edx
	call	DWORD PTR __imp__SendMessageW@16

; 535  :     HWND hwndSources = hwndTemp;

	mov	eax, DWORD PTR _hwndTemp$[ebp]
	mov	DWORD PTR _hwndSources$[ebp], eax

; 536  : 
; 537  :     //-----------------------------------------------------
; 538  :     // status control
; 539  : 
; 540  : 	//hwndTemp = CreateWindowEx(0, STATUSCLASSNAME, NULL,
; 541  : 	//	WS_CHILD | WS_VISIBLE | SBARS_SIZEGRIP | WS_CLIPSIBLINGS,
; 542  : 	//	0, 0, 0, 0, hwndMain, (HMENU)ID_STATUS, 0, 0);
; 543  : 	//SendMessage(hwndTemp, WM_SETFONT, (WPARAM)GetStockObject(DEFAULT_GUI_FONT), TRUE);
; 544  : 	
; 545  : 
; 546  :     //-----------------------------------------------------
; 547  :     // mic volume control
; 548  : 
; 549  :     hwndTemp = CreateWindow(VOLUME_CONTROL_CLASS, NULL,
; 550  :         WS_CHILDWINDOW|WS_VISIBLE|WS_CLIPSIBLINGS,
; 551  :         0, 0, 0, 0, hwndMain, (HMENU)ID_MICVOLUME, 0, 0);

	push	0
	push	0
	push	5007					; 0000138fH
	mov	ecx, DWORD PTR ?hwndMain@@3PAUHWND__@@A	; hwndMain
	push	ecx
	push	0
	push	0
	push	0
	push	0
	push	1409286144				; 54000000H
	push	0
	push	OFFSET $SG4294800612
	push	0
	call	_IsolationAwareCreateWindowExW@48
	mov	DWORD PTR _hwndTemp$[ebp], eax

; 552  :    
; 553  : 	SetVolumeControlIcons(hwndTemp, GetIcon(hinstMain, IDI_SOUND_DESKTOP), GetIcon(hinstMain, IDI_SOUND_DESKTOP_MUTED));

	push	113					; 00000071H
	mov	edx, DWORD PTR ?hinstMain@@3PAUHINSTANCE__@@A ; hinstMain
	push	edx
	mov	ecx, DWORD PTR _this$[ebp]
	call	?GetIcon@OBS@@UAEPAUHICON__@@PAUHINSTANCE__@@H@Z ; OBS::GetIcon
	push	eax
	push	112					; 00000070H
	mov	eax, DWORD PTR ?hinstMain@@3PAUHINSTANCE__@@A ; hinstMain
	push	eax
	mov	ecx, DWORD PTR _this$[ebp]
	call	?GetIcon@OBS@@UAEPAUHICON__@@PAUHINSTANCE__@@H@Z ; OBS::GetIcon
	push	eax
	mov	ecx, DWORD PTR _hwndTemp$[ebp]
	push	ecx
	call	DWORD PTR __imp_?SetVolumeControlIcons@@YAXPAUHWND__@@PAUHICON__@@1@Z
	add	esp, 12					; 0000000cH

; 554  : 
; 555  :     //-----------------------------------------------------
; 556  :     // mic volume meter
; 557  : 
; 558  :     hwndTemp = CreateWindow(VOLUME_METER_CLASS, NULL,
; 559  :                             WS_CHILDWINDOW|WS_VISIBLE|WS_CLIPSIBLINGS,
; 560  :                             0, 0, 0, 0, hwndMain, (HMENU)ID_MICVOLUMEMETER, 0, 0);

	push	0
	push	0
	push	5009					; 00001391H
	mov	edx, DWORD PTR ?hwndMain@@3PAUHWND__@@A	; hwndMain
	push	edx
	push	0
	push	0
	push	0
	push	0
	push	1409286144				; 54000000H
	push	0
	push	OFFSET $SG4294800611
	push	0
	call	_IsolationAwareCreateWindowExW@48
	mov	DWORD PTR _hwndTemp$[ebp], eax

; 561  : 
; 562  :     //-----------------------------------------------------
; 563  :     // desktop volume meter
; 564  : 
; 565  :     hwndTemp = CreateWindow(VOLUME_METER_CLASS, NULL,
; 566  :                             WS_CHILDWINDOW|WS_VISIBLE|WS_CLIPSIBLINGS,
; 567  :                             0, 0, 0, 0, hwndMain, (HMENU)ID_DESKTOPVOLUMEMETER, 0, 0);

	push	0
	push	0
	push	5008					; 00001390H
	mov	eax, DWORD PTR ?hwndMain@@3PAUHWND__@@A	; hwndMain
	push	eax
	push	0
	push	0
	push	0
	push	0
	push	1409286144				; 54000000H
	push	0
	push	OFFSET $SG4294800610
	push	0
	call	_IsolationAwareCreateWindowExW@48
	mov	DWORD PTR _hwndTemp$[ebp], eax

; 568  : 
; 569  :     //-----------------------------------------------------
; 570  :     // desktop volume control
; 571  : 
; 572  :     hwndTemp = CreateWindow(VOLUME_CONTROL_CLASS, NULL,
; 573  :         WS_CHILDWINDOW|WS_VISIBLE|WS_CLIPSIBLINGS,
; 574  :         0, 0, 0, 0, hwndMain, (HMENU)ID_DESKTOPVOLUME, 0, 0);

	push	0
	push	0
	push	5006					; 0000138eH
	mov	ecx, DWORD PTR ?hwndMain@@3PAUHWND__@@A	; hwndMain
	push	ecx
	push	0
	push	0
	push	0
	push	0
	push	1409286144				; 54000000H
	push	0
	push	OFFSET $SG4294800609
	push	0
	call	_IsolationAwareCreateWindowExW@48
	mov	DWORD PTR _hwndTemp$[ebp], eax

; 575  :    
; 576  : 	SetVolumeControlIcons(hwndTemp, GetIcon(hinstMain, IDI_SOUND_MIC), GetIcon(hinstMain, IDI_SOUND_MIC_MUTED));

	push	111					; 0000006fH
	mov	edx, DWORD PTR ?hinstMain@@3PAUHINSTANCE__@@A ; hinstMain
	push	edx
	mov	ecx, DWORD PTR _this$[ebp]
	call	?GetIcon@OBS@@UAEPAUHICON__@@PAUHINSTANCE__@@H@Z ; OBS::GetIcon
	push	eax
	push	110					; 0000006eH
	mov	eax, DWORD PTR ?hinstMain@@3PAUHINSTANCE__@@A ; hinstMain
	push	eax
	mov	ecx, DWORD PTR _this$[ebp]
	call	?GetIcon@OBS@@UAEPAUHICON__@@PAUHINSTANCE__@@H@Z ; OBS::GetIcon
	push	eax
	mov	ecx, DWORD PTR _hwndTemp$[ebp]
	push	ecx
	call	DWORD PTR __imp_?SetVolumeControlIcons@@YAXPAUHWND__@@PAUHICON__@@1@Z
	add	esp, 12					; 0000000cH

; 577  :     //-----------------------------------------------------
; 578  :     // start/stop recording button
; 579  : 
; 580  :   /*  hwndTemp = CreateWindow(TEXT("BUTTON"), Str("MainWindow.StartRecording"),
; 581  :         WS_CHILDWINDOW|WS_VISIBLE|WS_TABSTOP|BS_TEXT|BS_SPLITBUTTON|WS_CLIPSIBLINGS,
; 582  :         0, 0, 0, 0, hwndMain, (HMENU)ID_TOGGLERECORDING, 0, 0);
; 583  :     SendMessage(hwndTemp, WM_SETFONT, (WPARAM)GetStockObject(DEFAULT_GUI_FONT), TRUE);*/
; 584  : 
; 585  :     //-----------------------------------------------------
; 586  :     // start/stop stream button
; 587  : 
; 588  :     //hwndTemp = CreateWindow(TEXT("BUTTON"), Str("MainWindow.StartStream"),
; 589  :     //    WS_CHILDWINDOW|WS_VISIBLE|WS_TABSTOP|BS_TEXT|BS_PUSHBUTTON|WS_CLIPSIBLINGS,
; 590  :     //    0, 0, 0, 0, hwndMain, (HMENU)ID_STARTSTOP, 0, 0);
; 591  :     //SendMessage(hwndTemp, WM_SETFONT, (WPARAM)GetStockObject(DEFAULT_GUI_FONT), TRUE);
; 592  : 
; 593  :     //-----------------------------------------------------
; 594  :     // edit scene button
; 595  : 
; 596  :     //hwndTemp = CreateWindow(TEXT("BUTTON"), Str("MainWindow.SceneEditor"),
; 597  :     //    WS_CHILDWINDOW|WS_VISIBLE|WS_TABSTOP|BS_TEXT|BS_AUTOCHECKBOX|BS_PUSHLIKE|WS_DISABLED|WS_CLIPSIBLINGS,
; 598  :     //    0, 0, 0, 0, hwndMain, (HMENU)ID_SCENEEDITOR, 0, 0);
; 599  :     //SendMessage(hwndTemp, WM_SETFONT, (WPARAM)GetStockObject(DEFAULT_GUI_FONT), TRUE);
; 600  : 
; 601  :     //-----------------------------------------------------
; 602  :     // global sources button
; 603  : 
; 604  :  /*   hwndTemp = CreateWindow(TEXT("BUTTON"), Str("GlobalSources"),
; 605  :         WS_CHILDWINDOW|WS_VISIBLE|WS_TABSTOP|BS_TEXT|BS_PUSHBUTTON|WS_CLIPSIBLINGS,
; 606  :         0, 0, 0, 0, hwndMain, (HMENU)ID_GLOBALSOURCES, 0, 0);
; 607  :     SendMessage(hwndTemp, WM_SETFONT, (WPARAM)GetStockObject(DEFAULT_GUI_FONT), TRUE);*/
; 608  : 
; 609  :     //-----------------------------------------------------
; 610  :     // test stream button
; 611  : 
; 612  :     //hwndTemp = CreateWindow(TEXT("BUTTON"), Str("MainWindow.TestStream"),
; 613  :     //    WS_CHILDWINDOW|WS_VISIBLE|WS_TABSTOP|BS_TEXT|BS_PUSHBUTTON|WS_CLIPSIBLINGS,
; 614  :     //    0, 0, 0, 0, hwndMain, (HMENU)ID_TESTSTREAM, 0, 0);
; 615  :     //SendMessage(hwndTemp, WM_SETFONT, (WPARAM)GetStockObject(DEFAULT_GUI_FONT), TRUE);
; 616  : 
; 617  :     //-----------------------------------------------------
; 618  :     // plugins button
; 619  : 
; 620  : 	/*   hwndTemp = CreateWindow(TEXT("BUTTON"), Str("MainWindow.Plugins"),
; 621  : 		   WS_CHILDWINDOW|WS_VISIBLE|WS_TABSTOP|BS_TEXT|BS_PUSHBUTTON|WS_CLIPSIBLINGS,
; 622  : 		   0, 0, 0, 0, hwndMain, (HMENU)ID_PLUGINS, 0, 0);
; 623  : 		   SendMessage(hwndTemp, WM_SETFONT, (WPARAM)GetStockObject(DEFAULT_GUI_FONT), TRUE);*/
; 624  : 
; 625  :     //-----------------------------------------------------
; 626  :     // dashboard button
; 627  : 
; 628  :     hwndTemp = CreateWindow(TEXT("BUTTON"), Str("MainWindow.Dashboard"),
; 629  :         WS_CHILDWINDOW|WS_VISIBLE|WS_TABSTOP|BS_TEXT|BS_PUSHBUTTON|WS_CLIPSIBLINGS,
; 630  :         0, 0, 0, 0, hwndMain, (HMENU)ID_DASHBOARD, 0, 0);

	push	0
	push	0
	push	5018					; 0000139aH
	mov	edx, DWORD PTR ?hwndMain@@3PAUHWND__@@A	; hwndMain
	push	edx
	push	0
	push	0
	push	0
	push	0
	push	1409351680				; 54010000H
	push	OFFSET $SG4294800608
	mov	eax, DWORD PTR __imp_?locale@@3PAVLocaleStringLookup@@A
	mov	ecx, DWORD PTR [eax]
	call	DWORD PTR __imp_?LookupString@LocaleStringLookup@@QAEPB_WPB_W@Z
	push	eax
	push	OFFSET $SG4294800607
	push	0
	call	_IsolationAwareCreateWindowExW@48
	mov	DWORD PTR _hwndTemp$[ebp], eax

; 631  :     SendMessage(hwndTemp, WM_SETFONT, (WPARAM)GetStockObject(DEFAULT_GUI_FONT), TRUE);

	push	1
	push	17					; 00000011H
	call	DWORD PTR __imp__GetStockObject@4
	push	eax
	push	48					; 00000030H
	mov	ecx, DWORD PTR _hwndTemp$[ebp]
	push	ecx
	call	DWORD PTR __imp__SendMessageW@16

; 632  : 
; 633  :     //-----------------------------------------------------
; 634  :     // exit button
; 635  : 
; 636  :     //hwndTemp = CreateWindow(TEXT("BUTTON"), Str("MainWindow.Exit"),
; 637  :     //    WS_CHILDWINDOW|WS_VISIBLE|WS_TABSTOP|BS_TEXT|BS_PUSHBUTTON|WS_CLIPSIBLINGS,
; 638  :     //    0, 0, 0, 0, hwndMain, (HMENU)ID_EXIT, 0, 0);
; 639  :     //SendMessage(hwndTemp, WM_SETFONT, (WPARAM)GetStockObject(DEFAULT_GUI_FONT), TRUE);
; 640  : 
; 641  :     //-----------------------------------------------------
; 642  :     // scenes text
; 643  : 
; 644  : 	  hwndTemp = CreateWindow(TEXT("STATIC"), Str("MainWindow.Scenes"),
; 645  : 		  WS_CHILDWINDOW|WS_VISIBLE|WS_CLIPSIBLINGS,
; 646  : 		  0, 0, 0, 0, hwndMain, (HMENU)ID_SCENES_TEXT, 0, 0);

	push	0
	push	0
	push	5012					; 00001394H
	mov	edx, DWORD PTR ?hwndMain@@3PAUHWND__@@A	; hwndMain
	push	edx
	push	0
	push	0
	push	0
	push	0
	push	1409286144				; 54000000H
	push	OFFSET $SG4294800606
	mov	eax, DWORD PTR __imp_?locale@@3PAVLocaleStringLookup@@A
	mov	ecx, DWORD PTR [eax]
	call	DWORD PTR __imp_?LookupString@LocaleStringLookup@@QAEPB_WPB_W@Z
	push	eax
	push	OFFSET $SG4294800605
	push	0
	call	_IsolationAwareCreateWindowExW@48
	mov	DWORD PTR _hwndTemp$[ebp], eax

; 647  : 		  SendMessage(hwndTemp, WM_SETFONT, (WPARAM)GetStockObject(DEFAULT_GUI_FONT), TRUE);

	push	1
	push	17					; 00000011H
	call	DWORD PTR __imp__GetStockObject@4
	push	eax
	push	48					; 00000030H
	mov	ecx, DWORD PTR _hwndTemp$[ebp]
	push	ecx
	call	DWORD PTR __imp__SendMessageW@16

; 648  : 		 // SourceStaticProc = (WNDPROC)GetWindowLongPtr(hwndTemp, GWLP_WNDPROC);
; 649  : 		  SetWindowLongPtr(hwndTemp, GWLP_WNDPROC, (LONG_PTR)OBS::OBSStaticProc);

	push	OFFSET ?OBSStaticProc@OBS@@CGJPAUHWND__@@IIJ@Z ; OBS::OBSStaticProc
	push	-4					; fffffffcH
	mov	edx, DWORD PTR _hwndTemp$[ebp]
	push	edx
	call	DWORD PTR __imp__SetWindowLongW@12

; 650  :     //-----------------------------------------------------
; 651  :     // source text
; 652  : 
; 653  :     hwndTemp = CreateWindow(TEXT("STATIC"), Str("MainWindow.Sources"),
; 654  :         WS_CHILDWINDOW|WS_VISIBLE|WS_CLIPSIBLINGS,
; 655  :         0, 0, 0, 0, hwndMain, (HMENU)ID_SOURCES_TEXT, 0, 0);

	push	0
	push	0
	push	5014					; 00001396H
	mov	eax, DWORD PTR ?hwndMain@@3PAUHWND__@@A	; hwndMain
	push	eax
	push	0
	push	0
	push	0
	push	0
	push	1409286144				; 54000000H
	push	OFFSET $SG4294800604
	mov	ecx, DWORD PTR __imp_?locale@@3PAVLocaleStringLookup@@A
	mov	ecx, DWORD PTR [ecx]
	call	DWORD PTR __imp_?LookupString@LocaleStringLookup@@QAEPB_WPB_W@Z
	push	eax
	push	OFFSET $SG4294800603
	push	0
	call	_IsolationAwareCreateWindowExW@48
	mov	DWORD PTR _hwndTemp$[ebp], eax

; 656  :     SendMessage(hwndTemp, WM_SETFONT, (WPARAM)GetStockObject(DEFAULT_GUI_FONT), TRUE);

	push	1
	push	17					; 00000011H
	call	DWORD PTR __imp__GetStockObject@4
	push	eax
	push	48					; 00000030H
	mov	edx, DWORD PTR _hwndTemp$[ebp]
	push	edx
	call	DWORD PTR __imp__SendMessageW@16

; 657  : 	SourceStaticProc = (WNDPROC)GetWindowLongPtr(hwndTemp, GWLP_WNDPROC);

	push	-4					; fffffffcH
	mov	eax, DWORD PTR _hwndTemp$[ebp]
	push	eax
	call	DWORD PTR __imp__GetWindowLongW@8
	mov	DWORD PTR ?SourceStaticProc@@3P6GJPAUHWND__@@IIJ@ZA, eax ; SourceStaticProc

; 658  : 	SetWindowLongPtr(hwndTemp, GWLP_WNDPROC, (LONG_PTR)OBS::OBSStaticProc);

	push	OFFSET ?OBSStaticProc@OBS@@CGJPAUHWND__@@IIJ@Z ; OBS::OBSStaticProc
	push	-4					; fffffffcH
	mov	ecx, DWORD PTR _hwndTemp$[ebp]
	push	ecx
	call	DWORD PTR __imp__SetWindowLongW@12

; 659  :     //-----------------------------------------------------
; 660  :     // notification area
; 661  : 
; 662  :     bNotificationAreaIcon = false;

	mov	edx, DWORD PTR _this$[ebp]
	mov	BYTE PTR [edx+1324], 0

; 663  :     wmExplorerRestarted = RegisterWindowMessage(TEXT("TaskbarCreated"));

	push	OFFSET $SG4294800602
	call	DWORD PTR __imp__RegisterWindowMessageW@4
	mov	ecx, DWORD PTR _this$[ebp]
	mov	DWORD PTR [ecx+1320], eax

; 664  :     if (AppConfig->GetInt(TEXT("General"), TEXT("ShowNotificationAreaIcon"), 0) != 0)

	push	0
	push	OFFSET $SG4294800601
	push	OFFSET $SG4294800600
	mov	ecx, DWORD PTR ?AppConfig@@3PAVConfigFile@@A ; AppConfig
	call	DWORD PTR __imp_?GetInt@ConfigFile@@QAEHPB_W0H@Z
	test	eax, eax
	je	SHORT $LN26@OBS

; 665  :     {
; 666  :         ShowNotificationAreaIcon();

	mov	ecx, DWORD PTR _this$[ebp]
	call	?ShowNotificationAreaIcon@OBS@@QAEHXZ	; OBS::ShowNotificationAreaIcon
$LN26@OBS:

; 667  :     }
; 668  : 
; 669  :     //-----------------------------------------------------
; 670  :     // populate scenes
; 671  : 
; 672  :     hwndTemp = GetDlgItem(hwndMain, ID_SCENES);

	push	5011					; 00001393H
	mov	edx, DWORD PTR ?hwndMain@@3PAUHWND__@@A	; hwndMain
	push	edx
	call	DWORD PTR __imp__GetDlgItem@8
	mov	DWORD PTR _hwndTemp$[ebp], eax

; 673  : 	// get current collection sence
; 674  :     String collection = GetCurrentSceneCollection();

	call	?GetCurrentSceneCollection@OBS@@SAPB_WXZ ; OBS::GetCurrentSceneCollection
	push	eax
	lea	ecx, DWORD PTR _collection$[ebp]
	call	DWORD PTR __imp_??0String@@QAE@PB_W@Z

; 675  : 
; 676  :     if (!OSFileExists(String() << lpAppDataPath << L"\\sceneCollection\\" << collection << L".xconfig"))

	push	OFFSET $SG4294800598
	lea	eax, DWORD PTR _collection$[ebp]
	push	eax
	push	OFFSET $SG4294800599
	push	OFFSET ?lpAppDataPath@@3PA_WA		; lpAppDataPath
	lea	ecx, DWORD PTR $T6[ebp]
	call	DWORD PTR __imp_??0String@@QAE@XZ
	mov	ecx, eax
	call	DWORD PTR __imp_??6String@@QAEAAV0@PB_W@Z
	mov	ecx, eax
	call	DWORD PTR __imp_??6String@@QAEAAV0@PB_W@Z
	mov	ecx, eax
	call	DWORD PTR __imp_??6String@@QAEAAV0@ABV0@@Z
	mov	ecx, eax
	call	DWORD PTR __imp_??6String@@QAEAAV0@PB_W@Z
	mov	ecx, eax
	call	DWORD PTR __imp_??BString@@QBEPA_WXZ
	push	eax
	call	DWORD PTR __imp_?OSFileExists@@YGHPB_W@Z
	test	eax, eax
	jne	SHORT $LN57@OBS
	mov	DWORD PTR tv1112[ebp], 1
	jmp	SHORT $LN58@OBS
$LN57@OBS:
	mov	DWORD PTR tv1112[ebp], 0
$LN58@OBS:
	mov	cl, BYTE PTR tv1112[ebp]
	mov	BYTE PTR $T21[ebp], cl
	lea	ecx, DWORD PTR $T6[ebp]
	call	DWORD PTR __imp_??1String@@QAE@XZ
	movzx	edx, BYTE PTR $T21[ebp]
	test	edx, edx
	je	SHORT $LN25@OBS

; 677  :         collection.Clear();

	lea	ecx, DWORD PTR _collection$[ebp]
	call	DWORD PTR __imp_?Clear@String@@QAEAAV1@XZ
$LN25@OBS:

; 678  : 	// if not exist collection file use default scenes.xconfig and copy to //sceneCollection dir
; 679  :     if (collection.IsEmpty())

	lea	ecx, DWORD PTR _collection$[ebp]
	call	DWORD PTR __imp_?IsEmpty@String@@QBEHXZ
	test	eax, eax
	je	$LN24@OBS

; 680  :     {
; 681  :         OSFindData ofd;
; 682  :         HANDLE hFind = OSFindFirstFile(String() << lpAppDataPath << L"\\sceneCollection\\*.xconfig", ofd);

	lea	eax, DWORD PTR _ofd$23[ebp]
	push	eax
	push	OFFSET $SG4294800597
	push	OFFSET ?lpAppDataPath@@3PA_WA		; lpAppDataPath
	lea	ecx, DWORD PTR $T8[ebp]
	call	DWORD PTR __imp_??0String@@QAE@XZ
	mov	ecx, eax
	call	DWORD PTR __imp_??6String@@QAEAAV0@PB_W@Z
	mov	ecx, eax
	call	DWORD PTR __imp_??6String@@QAEAAV0@PB_W@Z
	mov	ecx, eax
	call	DWORD PTR __imp_??BString@@QBEPA_WXZ
	push	eax
	call	DWORD PTR __imp_?OSFindFirstFile@@YGPAXPB_WAAUOSFindData@@@Z
	mov	DWORD PTR _hFind$17[ebp], eax
	lea	ecx, DWORD PTR $T8[ebp]
	call	DWORD PTR __imp_??1String@@QAE@XZ

; 683  :         if (hFind)

	cmp	DWORD PTR _hFind$17[ebp], 0
	je	SHORT $LN23@OBS
$LN22@OBS:

; 684  :         {
; 685  :             do
; 686  :             {
; 687  :                 if (!ofd.bDirectory)

	cmp	DWORD PTR _ofd$23[ebp+520], 0
	jne	SHORT $LN21@OBS

; 688  :                 {
; 689  :                     collection = GetPathWithoutExtension(ofd.fileName);

	lea	ecx, DWORD PTR _ofd$23[ebp]
	push	ecx
	lea	edx, DWORD PTR $T2[ebp]
	push	edx
	call	DWORD PTR __imp_?GetPathWithoutExtension@@YA?AVString@@PB_W@Z
	add	esp, 8
	push	eax
	lea	ecx, DWORD PTR _collection$[ebp]
	call	DWORD PTR __imp_??4String@@QAEAAV0@ABV0@@Z
	lea	ecx, DWORD PTR $T2[ebp]
	call	DWORD PTR __imp_??1String@@QAE@XZ

; 690  :                     break;

	jmp	SHORT $LN20@OBS
$LN21@OBS:

; 691  :                 }
; 692  :             } while (OSFindNextFile(hFind, ofd));

	lea	eax, DWORD PTR _ofd$23[ebp]
	push	eax
	mov	ecx, DWORD PTR _hFind$17[ebp]
	push	ecx
	call	DWORD PTR __imp_?OSFindNextFile@@YGHPAXAAUOSFindData@@@Z
	test	eax, eax
	jne	SHORT $LN22@OBS
$LN20@OBS:

; 693  :             OSFindClose(hFind);

	mov	edx, DWORD PTR _hFind$17[ebp]
	push	edx
	call	DWORD PTR __imp_?OSFindClose@@YGXPAX@Z
$LN23@OBS:

; 694  :         }
; 695  : 
; 696  :         if (collection.IsEmpty())

	lea	ecx, DWORD PTR _collection$[ebp]
	call	DWORD PTR __imp_?IsEmpty@String@@QBEHXZ
	test	eax, eax
	je	$LN24@OBS

; 697  :         {
; 698  :             CopyFile(String() << lpAppDataPath << L"\\scenes.xconfig", String() << lpAppDataPath << L"\\sceneCollection\\scenes.xconfig", true);

	push	1
	push	OFFSET $SG4294800596
	push	OFFSET ?lpAppDataPath@@3PA_WA		; lpAppDataPath
	lea	ecx, DWORD PTR $T5[ebp]
	call	DWORD PTR __imp_??0String@@QAE@XZ
	mov	ecx, eax
	call	DWORD PTR __imp_??6String@@QAEAAV0@PB_W@Z
	mov	ecx, eax
	call	DWORD PTR __imp_??6String@@QAEAAV0@PB_W@Z
	mov	ecx, eax
	call	DWORD PTR __imp_??BString@@QBEPA_WXZ
	push	eax
	push	OFFSET $SG4294800595
	push	OFFSET ?lpAppDataPath@@3PA_WA		; lpAppDataPath
	lea	ecx, DWORD PTR $T3[ebp]
	call	DWORD PTR __imp_??0String@@QAE@XZ
	mov	ecx, eax
	call	DWORD PTR __imp_??6String@@QAEAAV0@PB_W@Z
	mov	ecx, eax
	call	DWORD PTR __imp_??6String@@QAEAAV0@PB_W@Z
	mov	ecx, eax
	call	DWORD PTR __imp_??BString@@QBEPA_WXZ
	push	eax
	call	DWORD PTR __imp__CopyFileW@12
	lea	ecx, DWORD PTR $T3[ebp]
	call	DWORD PTR __imp_??1String@@QAE@XZ
	lea	ecx, DWORD PTR $T5[ebp]
	call	DWORD PTR __imp_??1String@@QAE@XZ

; 699  :             collection = L"scenes";

	push	OFFSET $SG4294800594
	lea	ecx, DWORD PTR _collection$[ebp]
	call	DWORD PTR __imp_??4String@@QAEAAV0@PB_W@Z

; 700  :             GlobalConfig->SetString(L"General", L"SceneCollection", collection);

	lea	ecx, DWORD PTR _collection$[ebp]
	call	DWORD PTR __imp_??BString@@QBEPA_WXZ
	push	eax
	push	OFFSET $SG4294800593
	push	OFFSET $SG4294800592
	mov	ecx, DWORD PTR ?GlobalConfig@@3PAVConfigFile@@A ; GlobalConfig
	call	DWORD PTR __imp_?SetString@ConfigFile@@QAEXPB_W00@Z
$LN24@OBS:

; 701  :         }
; 702  :     }
; 703  : 
; 704  :     String strScenesConfig;

	lea	ecx, DWORD PTR _strScenesConfig$[ebp]
	call	DWORD PTR __imp_??0String@@QAE@XZ

; 705  :     strScenesConfig = FormattedString(L"%s\\sceneCollection\\%s.xconfig", lpAppDataPath, collection.Array());

	lea	ecx, DWORD PTR _collection$[ebp]
	call	DWORD PTR __imp_?Array@String@@QBEPA_WXZ
	push	eax
	push	OFFSET ?lpAppDataPath@@3PA_WA		; lpAppDataPath
	push	OFFSET $SG4294800591
	lea	eax, DWORD PTR $T1[ebp]
	push	eax
	call	DWORD PTR __imp_?FormattedString@@YA?AVString@@PB_WZZ
	add	esp, 16					; 00000010H
	push	eax
	lea	ecx, DWORD PTR _strScenesConfig$[ebp]
	call	DWORD PTR __imp_??4String@@QAEAAV0@ABV0@@Z
	lea	ecx, DWORD PTR $T1[ebp]
	call	DWORD PTR __imp_??1String@@QAE@XZ

; 706  : 
; 707  :     if(!scenesConfig.Open(strScenesConfig))

	lea	ecx, DWORD PTR _strScenesConfig$[ebp]
	call	DWORD PTR __imp_??BString@@QBEPA_WXZ
	push	eax
	mov	ecx, DWORD PTR _this$[ebp]
	add	ecx, 168				; 000000a8H
	call	DWORD PTR __imp_?Open@XConfig@@QAE_NPB_W@Z
	movzx	ecx, al
	test	ecx, ecx
	jne	SHORT $LN17@OBS

; 708  :         CrashError(TEXT("Could not open '%s'"), strScenesConfig.Array());

	lea	ecx, DWORD PTR _strScenesConfig$[ebp]
	call	DWORD PTR __imp_?Array@String@@QBEPA_WXZ
	push	eax
	push	OFFSET $SG4294800590
	call	DWORD PTR __imp_?CrashError@@YAXPB_WZZ
$LN17@OBS:

; 709  : 	// get root node scenes
; 710  :     XElement *scenes = scenesConfig.GetElement(TEXT("scenes"));

	push	OFFSET $SG4294800589
	mov	ecx, DWORD PTR _this$[ebp]
	add	ecx, 168				; 000000a8H
	call	DWORD PTR __imp_?GetElement@XConfig@@QAEPAVXElement@@PB_W@Z
	mov	DWORD PTR _scenes$[ebp], eax

; 711  :     if(!scenes)

	cmp	DWORD PTR _scenes$[ebp], 0
	jne	SHORT $LN16@OBS

; 712  :         scenes = scenesConfig.CreateElement(TEXT("scenes"));

	push	OFFSET $SG4294800588
	mov	ecx, DWORD PTR _this$[ebp]
	add	ecx, 168				; 000000a8H
	call	DWORD PTR __imp_?CreateElement@XConfig@@QAEPAVXElement@@PB_W@Z
	mov	DWORD PTR _scenes$[ebp], eax
$LN16@OBS:

; 713  : 
; 714  :     UINT numScenes = scenes->NumElements();

	push	0
	mov	ecx, DWORD PTR _scenes$[ebp]
	call	DWORD PTR __imp_?NumElements@XElement@@QAEKPB_W@Z
	mov	DWORD PTR _numScenes$[ebp], eax

; 715  :     if(!numScenes)

	cmp	DWORD PTR _numScenes$[ebp], 0
	jne	SHORT $LN15@OBS

; 716  :     {
; 717  :         XElement *scene = scenes->CreateElement(Str("Scene"));

	push	OFFSET $SG4294800587
	mov	edx, DWORD PTR __imp_?locale@@3PAVLocaleStringLookup@@A
	mov	ecx, DWORD PTR [edx]
	call	DWORD PTR __imp_?LookupString@LocaleStringLookup@@QAEPB_WPB_W@Z
	push	eax
	mov	ecx, DWORD PTR _scenes$[ebp]
	call	DWORD PTR __imp_?CreateElement@XElement@@QAEPAV1@PB_W@Z
	mov	DWORD PTR _scene$12[ebp], eax

; 718  :         scene->SetString(TEXT("class"), TEXT("Scene"));

	push	OFFSET $SG4294800586
	push	OFFSET $SG4294800585
	mov	ecx, DWORD PTR _scene$12[ebp]
	call	DWORD PTR __imp_?SetString@XElement@@QAEXPB_W0@Z

; 719  :         numScenes++;

	mov	eax, DWORD PTR _numScenes$[ebp]
	add	eax, 1
	mov	DWORD PTR _numScenes$[ebp], eax
$LN15@OBS:

; 720  :     }
; 721  : 
; 722  :     for(UINT i=0; i<numScenes; i++)

	mov	DWORD PTR _i$18[ebp], 0
	jmp	SHORT $LN14@OBS
$LN13@OBS:
	mov	ecx, DWORD PTR _i$18[ebp]
	add	ecx, 1
	mov	DWORD PTR _i$18[ebp], ecx
$LN14@OBS:
	mov	edx, DWORD PTR _i$18[ebp]
	cmp	edx, DWORD PTR _numScenes$[ebp]
	jae	SHORT $LN12@OBS

; 723  :     {
; 724  :         XElement *scene = scenes->GetElementByID(i);

	mov	eax, DWORD PTR _i$18[ebp]
	push	eax
	mov	ecx, DWORD PTR _scenes$[ebp]
