; Listing generated by Microsoft (R) Optimizing Compiler Version 18.00.21005.1 

	TITLE	F:\songmm_moon_stone_obs\OBS\Source\OBSButton.cpp
	.686P
	.XMM
	include listing.inc
	.model	flat

INCLUDELIB OLDNAMES

PUBLIC	??_R0?AVImage@Gdiplus@@@8			; Gdiplus::Image `RTTI Type Descriptor'
PUBLIC	??_R0?AVGdiplusBase@Gdiplus@@@8			; Gdiplus::GdiplusBase `RTTI Type Descriptor'
PUBLIC	??_R3GdiplusBase@Gdiplus@@8			; Gdiplus::GdiplusBase::`RTTI Class Hierarchy Descriptor'
PUBLIC	??_R2GdiplusBase@Gdiplus@@8			; Gdiplus::GdiplusBase::`RTTI Base Class Array'
PUBLIC	??_R2Image@Gdiplus@@8				; Gdiplus::Image::`RTTI Base Class Array'
PUBLIC	??_R13?0A@EA@GdiplusBase@Gdiplus@@8		; Gdiplus::GdiplusBase::`RTTI Base Class Descriptor at (4,-1,0,64)'
PUBLIC	??_7Image@Gdiplus@@6B@				; Gdiplus::Image::`vftable'
PUBLIC	??_R1A@?0A@EA@GdiplusBase@Gdiplus@@8		; Gdiplus::GdiplusBase::`RTTI Base Class Descriptor at (0,-1,0,64)'
PUBLIC	??_R4Image@Gdiplus@@6B@				; Gdiplus::Image::`RTTI Complete Object Locator'
PUBLIC	??_R1A@?0A@EA@Image@Gdiplus@@8			; Gdiplus::Image::`RTTI Base Class Descriptor at (0,-1,0,64)'
PUBLIC	??_R3Image@Gdiplus@@8				; Gdiplus::Image::`RTTI Class Hierarchy Descriptor'
EXTRN	__imp__DrawTextW@20:PROC
EXTRN	__imp__SetTextColor@8:PROC
EXTRN	__imp__TrackMouseEvent@4:PROC
EXTRN	__imp__GetParent@4:PROC
EXTRN	__imp__StretchBlt@44:PROC
EXTRN	__imp__PtInRect@12:PROC
EXTRN	_wcsstr:PROC
EXTRN	__imp__Rectangle@20:PROC
EXTRN	__imp__CreateFontW@56:PROC
EXTRN	__imp__GetObjectW@12:PROC
EXTRN	__imp__SetStretchBltMode@8:PROC
EXTRN	__imp__CreatePen@12:PROC
EXTRN	__imp__GdipGetImageWidth@8:PROC
EXTRN	__imp__GdipCloneImage@8:PROC
EXTRN	__imp__GdipCreateFromHDC@8:PROC
EXTRN	__imp__GdipDisposeImage@4:PROC
EXTRN	__imp__GdipAlloc@4:PROC
EXTRN	__imp__GdipLoadImageFromFileICM@8:PROC
EXTRN	__imp__GdipSetSmoothingMode@8:PROC
EXTRN	__imp__GdipLoadImageFromFile@8:PROC
EXTRN	__imp__GdipDrawImageRectI@24:PROC
EXTRN	__imp__GdipDeleteGraphics@4:PROC
EXTRN	__imp__GdipGetImageHeight@8:PROC
EXTRN	__imp__GdipFree@4:PROC
EXTRN	__imp__CallWindowProcW@20:PROC
_GenericSansSerifFontFamilyBuffer DB 08H DUP (?)
_GenericTypographicStringFormatBuffer DB 08H DUP (?)
_GenericMonospaceFontFamilyBuffer DB 08H DUP (?)
_GenericDefaultStringFormatBuffer DB 08H DUP (?)
_GenericSerifFontFamilyBuffer DB 08H DUP (?)
_BSS	ENDS
;	COMDAT ??_R3Image@Gdiplus@@8
rdata$r	SEGMENT
??_R3Image@Gdiplus@@8 DD 00H				; Gdiplus::Image::`RTTI Class Hierarchy Descriptor'
	DD	00H
	DD	02H
	DD	FLAT:??_R2Image@Gdiplus@@8
rdata$r	ENDS
;	COMDAT ??_R1A@?0A@EA@Image@Gdiplus@@8
rdata$r	SEGMENT
??_R1A@?0A@EA@Image@Gdiplus@@8 DD FLAT:??_R0?AVImage@Gdiplus@@@8 ; Gdiplus::Image::`RTTI Base Class Descriptor at (0,-1,0,64)'
	DD	01H
	DD	00H
	DD	0ffffffffH
	DD	00H
	DD	040H
	DD	FLAT:??_R3Image@Gdiplus@@8
rdata$r	ENDS
;	COMDAT ??_R4Image@Gdiplus@@6B@
rdata$r	SEGMENT
??_R4Image@Gdiplus@@6B@ DD 00H				; Gdiplus::Image::`RTTI Complete Object Locator'
	DD	00H
	DD	00H
	DD	FLAT:??_R0?AVImage@Gdiplus@@@8
	DD	FLAT:??_R3Image@Gdiplus@@8
rdata$r	ENDS
;	COMDAT ??_R1A@?0A@EA@GdiplusBase@Gdiplus@@8
rdata$r	SEGMENT
??_R1A@?0A@EA@GdiplusBase@Gdiplus@@8 DD FLAT:??_R0?AVGdiplusBase@Gdiplus@@@8 ; Gdiplus::GdiplusBase::`RTTI Base Class Descriptor at (0,-1,0,64)'
	DD	00H
	DD	00H
	DD	0ffffffffH
	DD	00H
	DD	040H
	DD	FLAT:??_R3GdiplusBase@Gdiplus@@8
rdata$r	ENDS
;	COMDAT ??_7Image@Gdiplus@@6B@
CONST	SEGMENT
??_7Image@Gdiplus@@6B@ DD FLAT:??_R4Image@Gdiplus@@6B@	; Gdiplus::Image::`vftable'
	DD	FLAT:??_EImage@Gdiplus@@UAEPAXI@Z
	DD	FLAT:?Clone@Image@Gdiplus@@UAEPAV12@XZ
CONST	ENDS
;	COMDAT ??_R13?0A@EA@GdiplusBase@Gdiplus@@8
rdata$r	SEGMENT
??_R13?0A@EA@GdiplusBase@Gdiplus@@8 DD FLAT:??_R0?AVGdiplusBase@Gdiplus@@@8 ; Gdiplus::GdiplusBase::`RTTI Base Class Descriptor at (4,-1,0,64)'
	DD	00H
	DD	04H
	DD	0ffffffffH
	DD	00H
	DD	040H
	DD	FLAT:??_R3GdiplusBase@Gdiplus@@8
rdata$r	ENDS
;	COMDAT ??_R2Image@Gdiplus@@8
rdata$r	SEGMENT
??_R2Image@Gdiplus@@8 DD FLAT:??_R1A@?0A@EA@Image@Gdiplus@@8 ; Gdiplus::Image::`RTTI Base Class Array'
	DD	FLAT:??_R13?0A@EA@GdiplusBase@Gdiplus@@8
rdata$r	ENDS
;	COMDAT ??_R2GdiplusBase@Gdiplus@@8
rdata$r	SEGMENT
??_R2GdiplusBase@Gdiplus@@8 DD FLAT:??_R1A@?0A@EA@GdiplusBase@Gdiplus@@8 ; Gdiplus::GdiplusBase::`RTTI Base Class Array'
rdata$r	ENDS
;	COMDAT ??_R3GdiplusBase@Gdiplus@@8
rdata$r	SEGMENT
??_R3GdiplusBase@Gdiplus@@8 DD 00H			; Gdiplus::GdiplusBase::`RTTI Class Hierarchy Descriptor'
	DD	00H
	DD	01H
	DD	FLAT:??_R2GdiplusBase@Gdiplus@@8
rdata$r	ENDS
;	COMDAT ??_R0?AVGdiplusBase@Gdiplus@@@8
data$r	SEGMENT
??_R0?AVGdiplusBase@Gdiplus@@@8 DD FLAT:??_7type_info@@6B@ ; Gdiplus::GdiplusBase `RTTI Type Descriptor'
	DD	00H
	DB	'.?AVGdiplusBase@Gdiplus@@', 00H
data$r	ENDS
;	COMDAT ??_R0?AVImage@Gdiplus@@@8
data$r	SEGMENT
??_R0?AVImage@Gdiplus@@@8 DD FLAT:??_7type_info@@6B@	; Gdiplus::Image `RTTI Type Descriptor'
	DD	00H
	DB	'.?AVImage@Gdiplus@@', 00H
$SG4294832681 DB 'A', 00H, 'r', 00H, 'i', 00H, 'a', 00H, 'l', 00H, 00H, 00H
$SG4294832680 DB '\', 00H, 'r', 00H, '\', 00H, 'n', 00H, 00H, 00H
	ORG $+2
$SG4294832682 DB 'B', 00H, 'U', 00H, 'T', 00H, 'T', 00H, 'O', 00H, 'N', 00H
	DB	00H, 00H
PUBLIC	?EnableButton@COBSButton@@QAEX_N@Z		; COBSButton::EnableButton
PUBLIC	?InvalidataCtrl@COBSButton@@QAE_NXZ		; COBSButton::InvalidataCtrl
PUBLIC	?DrawFocusRect@COBSButton@@QAEXPAUHDC__@@AAUtagRECT@@@Z ; COBSButton::DrawFocusRect
PUBLIC	?Draw@COBSButton@@QAEXPAUHDC__@@@Z		; COBSButton::Draw
PUBLIC	?OnMouseLeave@COBSButton@@QAEXIJ@Z		; COBSButton::OnMouseLeave
PUBLIC	?OnMouseMove@COBSButton@@QAEXIJ@Z		; COBSButton::OnMouseMove
PUBLIC	?OnLbuttonDBClick@COBSButton@@QAEXIJ@Z		; COBSButton::OnLbuttonDBClick
PUBLIC	?OnLbuttonUp@COBSButton@@QAEXIJ@Z		; COBSButton::OnLbuttonUp
PUBLIC	?OnLbuttonDown@COBSButton@@QAEXIJ@Z		; COBSButton::OnLbuttonDown
PUBLIC	?ButtonProc@COBSButton@@CGJPAUHWND__@@IIJ@Z	; COBSButton::ButtonProc
PUBLIC	?Create@COBSButton@@QAEHPB_WABUtagRECT@@PAUHWND__@@I0H@Z ; COBSButton::Create
PUBLIC	??1COBSButton@@QAE@XZ				; COBSButton::~COBSButton
PUBLIC	??0COBSButton@@QAE@XZ				; COBSButton::COBSButton
PUBLIC	??_H@YGXPAXIHP6EPAX0@Z@Z			; `vector constructor iterator'
PUBLIC	?SetNativeImage@Image@Gdiplus@@IAEXPAVGpImage@2@@Z ; Gdiplus::Image::SetNativeImage
PUBLIC	??0Image@Gdiplus@@IAE@PAVGpImage@1@W4Status@1@@Z ; Gdiplus::Image::Image
PUBLIC	?GetLastStatus@Image@Gdiplus@@QBE?AW4Status@2@XZ ; Gdiplus::Image::GetLastStatus
PUBLIC	?GetHeight@Image@Gdiplus@@QAEIXZ		; Gdiplus::Image::GetHeight
PUBLIC	?GetWidth@Image@Gdiplus@@QAEIXZ			; Gdiplus::Image::GetWidth
PUBLIC	?Clone@Image@Gdiplus@@UAEPAV12@XZ		; Gdiplus::Image::Clone
PUBLIC	??1Image@Gdiplus@@UAE@XZ			; Gdiplus::Image::~Image
PUBLIC	?FromFile@Image@Gdiplus@@SAPAV12@PB_WH@Z	; Gdiplus::Image::FromFile
PUBLIC	??0Image@Gdiplus@@QAE@PB_WH@Z			; Gdiplus::Image::Image
PUBLIC	?SetStatus@Graphics@Gdiplus@@IBE?AW4Status@2@W432@@Z ; Gdiplus::Graphics::SetStatus
PUBLIC	?SetNativeGraphics@Graphics@Gdiplus@@IAEXPAVGpGraphics@2@@Z ; Gdiplus::Graphics::SetNativeGraphics
PUBLIC	?DrawImage@Graphics@Gdiplus@@QAE?AW4Status@2@PAVImage@2@HHHH@Z ; Gdiplus::Graphics::DrawImage
PUBLIC	?SetSmoothingMode@Graphics@Gdiplus@@QAE?AW4Status@2@W4SmoothingMode@2@@Z ; Gdiplus::Graphics::SetSmoothingMode
PUBLIC	??1Graphics@Gdiplus@@QAE@XZ			; Gdiplus::Graphics::~Graphics
PUBLIC	??0Graphics@Gdiplus@@QAE@PAUHDC__@@@Z		; Gdiplus::Graphics::Graphics
PUBLIC	??_GImage@Gdiplus@@UAEPAXI@Z			; Gdiplus::Image::`scalar deleting destructor'
PUBLIC	?SetStatus@Image@Gdiplus@@IBE?AW4Status@2@W432@@Z ; Gdiplus::Image::SetStatus
PUBLIC	??2GdiplusBase@Gdiplus@@SAPAXI@Z		; Gdiplus::GdiplusBase::operator new
PUBLIC	??3GdiplusBase@Gdiplus@@SAXPAX@Z		; Gdiplus::GdiplusBase::operator delete
PUBLIC	?wcsstr@@YAPA_WPA_WPB_W@Z			; wcsstr
EXTRN	??_EImage@Gdiplus@@UAEPAXI@Z:PROC		; Gdiplus::Image::`vector deleting destructor'
; Function compile flags: /Odtp
; File d:\vs2013\vc\include\string.h
;	COMDAT ?wcsstr@@YAPA_WPA_WPB_W@Z
_TEXT	SEGMENT
__Str$ = 8						; size = 4
__SubStr$ = 12						; size = 4
?wcsstr@@YAPA_WPA_WPB_W@Z PROC				; wcsstr, COMDAT

; 391  :         {return ((wchar_t *)wcsstr((const wchar_t *)_Str, _SubStr)); }

	push	ebp
	mov	ebp, esp
	mov	eax, DWORD PTR __SubStr$[ebp]
	push	eax
	mov	ecx, DWORD PTR __Str$[ebp]
	push	ecx
	call	_wcsstr
	add	esp, 8
	pop	ebp
	ret	0
?wcsstr@@YAPA_WPA_WPB_W@Z ENDP				; wcsstr
_TEXT	ENDS
; Function compile flags: /Odtp
; File c:\program files (x86)\windows kits\8.1\include\um\gdiplusbase.h
;	COMDAT ??3GdiplusBase@Gdiplus@@SAXPAX@Z
_TEXT	SEGMENT
_in_pVoid$ = 8						; size = 4
??3GdiplusBase@Gdiplus@@SAXPAX@Z PROC			; Gdiplus::GdiplusBase::operator delete, COMDAT

; 27   :     {

	push	ebp
	mov	ebp, esp

; 28   :        DllExports::GdipFree(in_pVoid);

	mov	eax, DWORD PTR _in_pVoid$[ebp]
	push	eax
	call	DWORD PTR __imp__GdipFree@4

; 29   :     }

	pop	ebp
	ret	0
??3GdiplusBase@Gdiplus@@SAXPAX@Z ENDP			; Gdiplus::GdiplusBase::operator delete
_TEXT	ENDS
; Function compile flags: /Odtp
; File c:\program files (x86)\windows kits\8.1\include\um\gdiplusbase.h
;	COMDAT ??2GdiplusBase@Gdiplus@@SAPAXI@Z
_TEXT	SEGMENT
_in_size$ = 8						; size = 4
??2GdiplusBase@Gdiplus@@SAPAXI@Z PROC			; Gdiplus::GdiplusBase::operator new, COMDAT

; 31   :     {

	push	ebp
	mov	ebp, esp

; 32   :        return DllExports::GdipAlloc(in_size);

	mov	eax, DWORD PTR _in_size$[ebp]
	push	eax
	call	DWORD PTR __imp__GdipAlloc@4

; 33   :     }

	pop	ebp
	ret	0
??2GdiplusBase@Gdiplus@@SAPAXI@Z ENDP			; Gdiplus::GdiplusBase::operator new
_TEXT	ENDS
; Function compile flags: /Odtp
; File c:\program files (x86)\windows kits\8.1\include\um\gdiplusheaders.h
;	COMDAT ?SetStatus@Image@Gdiplus@@IBE?AW4Status@2@W432@@Z
_TEXT	SEGMENT
_this$ = -4						; size = 4
_status$ = 8						; size = 4
?SetStatus@Image@Gdiplus@@IBE?AW4Status@2@W432@@Z PROC	; Gdiplus::Image::SetStatus, COMDAT
; _this$ = ecx

; 485  :     {

	push	ebp
	mov	ebp, esp
	push	ecx
	mov	DWORD PTR _this$[ebp], ecx

; 486  :         if (status != Ok)

	cmp	DWORD PTR _status$[ebp], 0
	je	SHORT $LN2@SetStatus

; 487  :             return (lastResult = status);

	mov	eax, DWORD PTR _this$[ebp]
	mov	ecx, DWORD PTR _status$[ebp]
	mov	DWORD PTR [eax+8], ecx
	mov	eax, DWORD PTR _status$[ebp]
	jmp	SHORT $LN3@SetStatus

; 488  :         else

	jmp	SHORT $LN3@SetStatus
$LN2@SetStatus:

; 489  :             return status;

	mov	eax, DWORD PTR _status$[ebp]
$LN3@SetStatus:

; 490  :     }

	mov	esp, ebp
	pop	ebp
	ret	4
?SetStatus@Image@Gdiplus@@IBE?AW4Status@2@W432@@Z ENDP	; Gdiplus::Image::SetStatus
_TEXT	ENDS
; Function compile flags: /Odtp
;	COMDAT ??_GImage@Gdiplus@@UAEPAXI@Z
_TEXT	SEGMENT
_this$ = -4						; size = 4
___flags$ = 8						; size = 4
??_GImage@Gdiplus@@UAEPAXI@Z PROC			; Gdiplus::Image::`scalar deleting destructor', COMDAT
; _this$ = ecx
	push	ebp
	mov	ebp, esp
	push	ecx
	mov	DWORD PTR _this$[ebp], ecx
	mov	ecx, DWORD PTR _this$[ebp]
	call	??1Image@Gdiplus@@UAE@XZ		; Gdiplus::Image::~Image
	mov	eax, DWORD PTR ___flags$[ebp]
	and	eax, 1
	je	SHORT $LN1@scalar
	mov	ecx, DWORD PTR _this$[ebp]
	push	ecx
	call	??3GdiplusBase@Gdiplus@@SAXPAX@Z	; Gdiplus::GdiplusBase::operator delete
	add	esp, 4
$LN1@scalar:
	mov	eax, DWORD PTR _this$[ebp]
	mov	esp, ebp
	pop	ebp
	ret	4
??_GImage@Gdiplus@@UAEPAXI@Z ENDP			; Gdiplus::Image::`scalar deleting destructor'
_TEXT	ENDS
; Function compile flags: /Odtp
; File c:\program files (x86)\windows kits\8.1\include\um\gdiplusgraphics.h
;	COMDAT ??0Graphics@Gdiplus@@QAE@PAUHDC__@@@Z
_TEXT	SEGMENT
_graphics$ = -8						; size = 4
_this$ = -4						; size = 4
_hdc$ = 8						; size = 4
??0Graphics@Gdiplus@@QAE@PAUHDC__@@@Z PROC		; Gdiplus::Graphics::Graphics, COMDAT
; _this$ = ecx

; 58   :     Graphics(IN HDC hdc)

	push	ebp
	mov	ebp, esp
	sub	esp, 8
	mov	DWORD PTR _this$[ebp], ecx

; 59   :     {
; 60   :         GpGraphics *graphics = NULL;

	mov	DWORD PTR _graphics$[ebp], 0

; 61   : 
; 62   :         lastResult = DllExports::GdipCreateFromHDC(hdc, &graphics);

	lea	eax, DWORD PTR _graphics$[ebp]
	push	eax
	mov	ecx, DWORD PTR _hdc$[ebp]
	push	ecx
	call	DWORD PTR __imp__GdipCreateFromHDC@8
	mov	edx, DWORD PTR _this$[ebp]
	mov	DWORD PTR [edx+4], eax

; 63   : 
; 64   :         SetNativeGraphics(graphics);

	mov	eax, DWORD PTR _graphics$[ebp]
	push	eax
	mov	ecx, DWORD PTR _this$[ebp]
	call	?SetNativeGraphics@Graphics@Gdiplus@@IAEXPAVGpGraphics@2@@Z ; Gdiplus::Graphics::SetNativeGraphics

; 65   :     }

	mov	eax, DWORD PTR _this$[ebp]
	mov	esp, ebp
	pop	ebp
	ret	4
??0Graphics@Gdiplus@@QAE@PAUHDC__@@@Z ENDP		; Gdiplus::Graphics::Graphics
_TEXT	ENDS
; Function compile flags: /Odtp
; File c:\program files (x86)\windows kits\8.1\include\um\gdiplusgraphics.h
;	COMDAT ??1Graphics@Gdiplus@@QAE@XZ
_TEXT	SEGMENT
_this$ = -4						; size = 4
??1Graphics@Gdiplus@@QAE@XZ PROC			; Gdiplus::Graphics::~Graphics, COMDAT
; _this$ = ecx

; 107  :     {

	push	ebp
	mov	ebp, esp
	push	ecx
	mov	DWORD PTR _this$[ebp], ecx

; 108  :         DllExports::GdipDeleteGraphics(nativeGraphics);

	mov	eax, DWORD PTR _this$[ebp]
	mov	ecx, DWORD PTR [eax]
	push	ecx
	call	DWORD PTR __imp__GdipDeleteGraphics@4

; 109  :     }

	mov	esp, ebp
	pop	ebp
	ret	0
??1Graphics@Gdiplus@@QAE@XZ ENDP			; Gdiplus::Graphics::~Graphics
_TEXT	ENDS
; Function compile flags: /Odtp
; File c:\program files (x86)\windows kits\8.1\include\um\gdiplusgraphics.h
;	COMDAT ?SetSmoothingMode@Graphics@Gdiplus@@QAE?AW4Status@2@W4SmoothingMode@2@@Z
_TEXT	SEGMENT
_this$ = -4						; size = 4
_smoothingMode$ = 8					; size = 4
?SetSmoothingMode@Graphics@Gdiplus@@QAE?AW4Status@2@W4SmoothingMode@2@@Z PROC ; Gdiplus::Graphics::SetSmoothingMode, COMDAT
; _this$ = ecx

; 261  :     {

	push	ebp
	mov	ebp, esp
	push	ecx
	mov	DWORD PTR _this$[ebp], ecx

; 262  :         return SetStatus(DllExports::GdipSetSmoothingMode(nativeGraphics,
; 263  :                                                           smoothingMode));

	mov	eax, DWORD PTR _smoothingMode$[ebp]
	push	eax
	mov	ecx, DWORD PTR _this$[ebp]
	mov	edx, DWORD PTR [ecx]
	push	edx
	call	DWORD PTR __imp__GdipSetSmoothingMode@8
	push	eax
	mov	ecx, DWORD PTR _this$[ebp]
	call	?SetStatus@Graphics@Gdiplus@@IBE?AW4Status@2@W432@@Z ; Gdiplus::Graphics::SetStatus

; 264  :     }

	mov	esp, ebp
	pop	ebp
	ret	4
?SetSmoothingMode@Graphics@Gdiplus@@QAE?AW4Status@2@W4SmoothingMode@2@@Z ENDP ; Gdiplus::Graphics::SetSmoothingMode
_TEXT	ENDS
; Function compile flags: /Odtp
; File c:\program files (x86)\windows kits\8.1\include\um\gdiplusgraphics.h
;	COMDAT ?DrawImage@Graphics@Gdiplus@@QAE?AW4Status@2@PAVImage@2@HHHH@Z
_TEXT	SEGMENT
_this$ = -8						; size = 4
tv73 = -4						; size = 4
_image$ = 8						; size = 4
_x$ = 12						; size = 4
_y$ = 16						; size = 4
_width$ = 20						; size = 4
_height$ = 24						; size = 4
?DrawImage@Graphics@Gdiplus@@QAE?AW4Status@2@PAVImage@2@HHHH@Z PROC ; Gdiplus::Graphics::DrawImage, COMDAT
; _this$ = ecx

; 1573 :                      IN INT height) {

	push	ebp
	mov	ebp, esp
	sub	esp, 8
	mov	DWORD PTR _this$[ebp], ecx

; 1574 :         return SetStatus(DllExports::GdipDrawImageRectI(nativeGraphics,
; 1575 :                                                         image ? image->nativeImage
; 1576 :                                                               : NULL,
; 1577 :                                                         x,
; 1578 :                                                         y,
; 1579 :                                                         width,
; 1580 :                                                         height));

	cmp	DWORD PTR _image$[ebp], 0
	je	SHORT $LN3@DrawImage
	mov	eax, DWORD PTR _image$[ebp]
	mov	ecx, DWORD PTR [eax+4]
	mov	DWORD PTR tv73[ebp], ecx
	jmp	SHORT $LN4@DrawImage
$LN3@DrawImage:
	mov	DWORD PTR tv73[ebp], 0
$LN4@DrawImage:
	mov	edx, DWORD PTR _height$[ebp]
	push	edx
	mov	eax, DWORD PTR _width$[ebp]
	push	eax
	mov	ecx, DWORD PTR _y$[ebp]
	push	ecx
	mov	edx, DWORD PTR _x$[ebp]
	push	edx
	mov	eax, DWORD PTR tv73[ebp]
	push	eax
	mov	ecx, DWORD PTR _this$[ebp]
	mov	edx, DWORD PTR [ecx]
	push	edx
	call	DWORD PTR __imp__GdipDrawImageRectI@24
	push	eax
	mov	ecx, DWORD PTR _this$[ebp]
	call	?SetStatus@Graphics@Gdiplus@@IBE?AW4Status@2@W432@@Z ; Gdiplus::Graphics::SetStatus

; 1581 :     }

	mov	esp, ebp
	pop	ebp
	ret	20					; 00000014H
?DrawImage@Graphics@Gdiplus@@QAE?AW4Status@2@PAVImage@2@HHHH@Z ENDP ; Gdiplus::Graphics::DrawImage
_TEXT	ENDS
; Function compile flags: /Odtp
; File c:\program files (x86)\windows kits\8.1\include\um\gdiplusgraphics.h
;	COMDAT ?SetNativeGraphics@Graphics@Gdiplus@@IAEXPAVGpGraphics@2@@Z
_TEXT	SEGMENT
_this$ = -4						; size = 4
_graphics$ = 8						; size = 4
?SetNativeGraphics@Graphics@Gdiplus@@IAEXPAVGpGraphics@2@@Z PROC ; Gdiplus::Graphics::SetNativeGraphics, COMDAT
; _this$ = ecx

; 2394 :     {

	push	ebp
	mov	ebp, esp
	push	ecx
	mov	DWORD PTR _this$[ebp], ecx

; 2395 :         this->nativeGraphics = graphics;

	mov	eax, DWORD PTR _this$[ebp]
	mov	ecx, DWORD PTR _graphics$[ebp]
	mov	DWORD PTR [eax], ecx

; 2396 :     }

	mov	esp, ebp
	pop	ebp
	ret	4
?SetNativeGraphics@Graphics@Gdiplus@@IAEXPAVGpGraphics@2@@Z ENDP ; Gdiplus::Graphics::SetNativeGraphics
_TEXT	ENDS
; Function compile flags: /Odtp
; File c:\program files (x86)\windows kits\8.1\include\um\gdiplusgraphics.h
;	COMDAT ?SetStatus@Graphics@Gdiplus@@IBE?AW4Status@2@W432@@Z
_TEXT	SEGMENT
_this$ = -4						; size = 4
_status$ = 8						; size = 4
?SetStatus@Graphics@Gdiplus@@IBE?AW4Status@2@W432@@Z PROC ; Gdiplus::Graphics::SetStatus, COMDAT
; _this$ = ecx

; 2399 :     {

	push	ebp
	mov	ebp, esp
	push	ecx
	mov	DWORD PTR _this$[ebp], ecx

; 2400 :         if (status != Ok)

	cmp	DWORD PTR _status$[ebp], 0
	je	SHORT $LN2@SetStatus

; 2401 :             return (lastResult = status);

	mov	eax, DWORD PTR _this$[ebp]
	mov	ecx, DWORD PTR _status$[ebp]
	mov	DWORD PTR [eax+4], ecx
	mov	eax, DWORD PTR _status$[ebp]
	jmp	SHORT $LN3@SetStatus

; 2402 :         else

	jmp	SHORT $LN3@SetStatus
$LN2@SetStatus:

; 2403 :             return status;

	mov	eax, DWORD PTR _status$[ebp]
$LN3@SetStatus:

; 2404 :     }

	mov	esp, ebp
	pop	ebp
	ret	4
?SetStatus@Graphics@Gdiplus@@IBE?AW4Status@2@W432@@Z ENDP ; Gdiplus::Graphics::SetStatus
_TEXT	ENDS
; Function compile flags: /Odtp
; File c:\program files (x86)\windows kits\8.1\include\um\gdiplusbitmap.h
;	COMDAT ??0Image@Gdiplus@@QAE@PB_WH@Z
_TEXT	SEGMENT
_this$ = -4						; size = 4
_filename$ = 8						; size = 4
_useEmbeddedColorManagement$ = 12			; size = 4
??0Image@Gdiplus@@QAE@PB_WH@Z PROC			; Gdiplus::Image::Image, COMDAT
; _this$ = ecx

; 30   : {

	push	ebp
	mov	ebp, esp
	push	ecx
	mov	DWORD PTR _this$[ebp], ecx
	mov	eax, DWORD PTR _this$[ebp]
	mov	DWORD PTR [eax], OFFSET ??_7Image@Gdiplus@@6B@

; 31   :     nativeImage = NULL;

	mov	ecx, DWORD PTR _this$[ebp]
	mov	DWORD PTR [ecx+4], 0

; 32   :     if(useEmbeddedColorManagement)

	cmp	DWORD PTR _useEmbeddedColorManagement$[ebp], 0
	je	SHORT $LN2@Image

; 33   :     {
; 34   :         lastResult = DllExports::GdipLoadImageFromFileICM(
; 35   :             filename, 
; 36   :             &nativeImage
; 37   :         );

	mov	edx, DWORD PTR _this$[ebp]
	add	edx, 4
	push	edx
	mov	eax, DWORD PTR _filename$[ebp]
	push	eax
	call	DWORD PTR __imp__GdipLoadImageFromFileICM@8
	mov	ecx, DWORD PTR _this$[ebp]
	mov	DWORD PTR [ecx+8], eax

; 38   :     }
; 39   :     else

	jmp	SHORT $LN3@Image
$LN2@Image:

; 40   :     {      
; 41   :         lastResult = DllExports::GdipLoadImageFromFile(
; 42   :             filename, 
; 43   :             &nativeImage
; 44   :         );

	mov	edx, DWORD PTR _this$[ebp]
	add	edx, 4
	push	edx
	mov	eax, DWORD PTR _filename$[ebp]
	push	eax
	call	DWORD PTR __imp__GdipLoadImageFromFile@8
	mov	ecx, DWORD PTR _this$[ebp]
	mov	DWORD PTR [ecx+8], eax
$LN3@Image:

; 45   :     }
; 46   : }

	mov	eax, DWORD PTR _this$[ebp]
	mov	esp, ebp
	pop	ebp
	ret	8
??0Image@Gdiplus@@QAE@PB_WH@Z ENDP			; Gdiplus::Image::Image
_TEXT	ENDS
; Function compile flags: /Odtp
; File c:\program files (x86)\windows kits\8.1\include\um\gdiplusbitmap.h
;	COMDAT ?FromFile@Image@Gdiplus@@SAPAV12@PB_WH@Z
_TEXT	SEGMENT
tv71 = -8						; size = 4
$T1 = -4						; size = 4
_filename$ = 8						; size = 4
_useEmbeddedColorManagement$ = 12			; size = 4
?FromFile@Image@Gdiplus@@SAPAV12@PB_WH@Z PROC		; Gdiplus::Image::FromFile, COMDAT

; 76   : {

	push	ebp
	mov	ebp, esp
	sub	esp, 8

; 77   :     return new Image(
; 78   :         filename, 
; 79   :         useEmbeddedColorManagement
; 80   :     );

	push	16					; 00000010H
	call	??2GdiplusBase@Gdiplus@@SAPAXI@Z	; Gdiplus::GdiplusBase::operator new
	add	esp, 4
	mov	DWORD PTR $T1[ebp], eax
	cmp	DWORD PTR $T1[ebp], 0
	je	SHORT $LN3@FromFile
	mov	eax, DWORD PTR _useEmbeddedColorManagement$[ebp]
	push	eax
	mov	ecx, DWORD PTR _filename$[ebp]
	push	ecx
	mov	ecx, DWORD PTR $T1[ebp]
	call	??0Image@Gdiplus@@QAE@PB_WH@Z		; Gdiplus::Image::Image
	mov	DWORD PTR tv71[ebp], eax
	jmp	SHORT $LN4@FromFile
$LN3@FromFile:
	mov	DWORD PTR tv71[ebp], 0
$LN4@FromFile:
	mov	eax, DWORD PTR tv71[ebp]

; 81   : }

	mov	esp, ebp
	pop	ebp
	ret	0
?FromFile@Image@Gdiplus@@SAPAV12@PB_WH@Z ENDP		; Gdiplus::Image::FromFile
_TEXT	ENDS
; Function compile flags: /Odtp
; File c:\program files (x86)\windows kits\8.1\include\um\gdiplusbitmap.h
;	COMDAT ??1Image@Gdiplus@@UAE@XZ
_TEXT	SEGMENT
_this$ = -4						; size = 4
??1Image@Gdiplus@@UAE@XZ PROC				; Gdiplus::Image::~Image, COMDAT
; _this$ = ecx

; 97   : {

	push	ebp
	mov	ebp, esp
	push	ecx
	mov	DWORD PTR _this$[ebp], ecx
	mov	eax, DWORD PTR _this$[ebp]
	mov	DWORD PTR [eax], OFFSET ??_7Image@Gdiplus@@6B@

; 98   :     DllExports::GdipDisposeImage(nativeImage);

	mov	ecx, DWORD PTR _this$[ebp]
	mov	edx, DWORD PTR [ecx+4]
	push	edx
	call	DWORD PTR __imp__GdipDisposeImage@4

; 99   : }

	mov	esp, ebp
	pop	ebp
	ret	0
??1Image@Gdiplus@@UAE@XZ ENDP				; Gdiplus::Image::~Image
_TEXT	ENDS
; Function compile flags: /Odtp
; File c:\program files (x86)\windows kits\8.1\include\um\gdiplusbitmap.h
;	COMDAT ?Clone@Image@Gdiplus@@UAEPAV12@XZ
_TEXT	SEGMENT
tv78 = -16						; size = 4
$T1 = -12						; size = 4
_cloneimage$ = -8					; size = 4
_this$ = -4						; size = 4
?Clone@Image@Gdiplus@@UAEPAV12@XZ PROC			; Gdiplus::Image::Clone, COMDAT
; _this$ = ecx

; 103  : {

	push	ebp
	mov	ebp, esp
	sub	esp, 16					; 00000010H
	mov	DWORD PTR _this$[ebp], ecx

; 104  :     GpImage *cloneimage = NULL;

	mov	DWORD PTR _cloneimage$[ebp], 0

; 105  : 
; 106  :     SetStatus(DllExports::GdipCloneImage(nativeImage, &cloneimage));

	lea	eax, DWORD PTR _cloneimage$[ebp]
	push	eax
	mov	ecx, DWORD PTR _this$[ebp]
	mov	edx, DWORD PTR [ecx+4]
	push	edx
	call	DWORD PTR __imp__GdipCloneImage@8
	push	eax
	mov	ecx, DWORD PTR _this$[ebp]
	call	?SetStatus@Image@Gdiplus@@IBE?AW4Status@2@W432@@Z ; Gdiplus::Image::SetStatus

; 107  : 
; 108  :     return new Image(cloneimage, lastResult);

	push	16					; 00000010H
	call	??2GdiplusBase@Gdiplus@@SAPAXI@Z	; Gdiplus::GdiplusBase::operator new
	add	esp, 4
	mov	DWORD PTR $T1[ebp], eax
	cmp	DWORD PTR $T1[ebp], 0
	je	SHORT $LN3@Clone
	mov	eax, DWORD PTR _this$[ebp]
	mov	ecx, DWORD PTR [eax+8]
	push	ecx
	mov	edx, DWORD PTR _cloneimage$[ebp]
	push	edx
	mov	ecx, DWORD PTR $T1[ebp]
	call	??0Image@Gdiplus@@IAE@PAVGpImage@1@W4Status@1@@Z ; Gdiplus::Image::Image
	mov	DWORD PTR tv78[ebp], eax
	jmp	SHORT $LN4@Clone
$LN3@Clone:
	mov	DWORD PTR tv78[ebp], 0
$LN4@Clone:
	mov	eax, DWORD PTR tv78[ebp]

; 109  : }

	mov	esp, ebp
	pop	ebp
	ret	0
?Clone@Image@Gdiplus@@UAEPAV12@XZ ENDP			; Gdiplus::Image::Clone
_TEXT	ENDS
; Function compile flags: /Odtp
; File c:\program files (x86)\windows kits\8.1\include\um\gdiplusbitmap.h
;	COMDAT ?GetWidth@Image@Gdiplus@@QAEIXZ
_TEXT	SEGMENT
_width$ = -8						; size = 4
_this$ = -4						; size = 4
?GetWidth@Image@Gdiplus@@QAEIXZ PROC			; Gdiplus::Image::GetWidth, COMDAT
; _this$ = ecx

; 232  : {

	push	ebp
	mov	ebp, esp
	sub	esp, 8
	mov	DWORD PTR _this$[ebp], ecx

; 233  :     UINT width = 0;

	mov	DWORD PTR _width$[ebp], 0

; 234  : 
; 235  :     SetStatus(DllExports::GdipGetImageWidth(nativeImage, &width));

	lea	eax, DWORD PTR _width$[ebp]
	push	eax
	mov	ecx, DWORD PTR _this$[ebp]
	mov	edx, DWORD PTR [ecx+4]
	push	edx
	call	DWORD PTR __imp__GdipGetImageWidth@8
	push	eax
	mov	ecx, DWORD PTR _this$[ebp]
	call	?SetStatus@Image@Gdiplus@@IBE?AW4Status@2@W432@@Z ; Gdiplus::Image::SetStatus

; 236  : 
; 237  :     return width;

	mov	eax, DWORD PTR _width$[ebp]

; 238  : }

	mov	esp, ebp
	pop	ebp
	ret	0
?GetWidth@Image@Gdiplus@@QAEIXZ ENDP			; Gdiplus::Image::GetWidth
_TEXT	ENDS
; Function compile flags: /Odtp
; File c:\program files (x86)\windows kits\8.1\include\um\gdiplusbitmap.h
;	COMDAT ?GetHeight@Image@Gdiplus@@QAEIXZ
_TEXT	SEGMENT
_height$ = -8						; size = 4
_this$ = -4						; size = 4
?GetHeight@Image@Gdiplus@@QAEIXZ PROC			; Gdiplus::Image::GetHeight, COMDAT
; _this$ = ecx

; 242  : {

	push	ebp
	mov	ebp, esp
	sub	esp, 8
	mov	DWORD PTR _this$[ebp], ecx

; 243  :     UINT height = 0;

	mov	DWORD PTR _height$[ebp], 0

; 244  : 
; 245  :     SetStatus(DllExports::GdipGetImageHeight(nativeImage, &height));

	lea	eax, DWORD PTR _height$[ebp]
	push	eax
	mov	ecx, DWORD PTR _this$[ebp]
	mov	edx, DWORD PTR [ecx+4]
	push	edx
	call	DWORD PTR __imp__GdipGetImageHeight@8
	push	eax
	mov	ecx, DWORD PTR _this$[ebp]
	call	?SetStatus@Image@Gdiplus@@IBE?AW4Status@2@W432@@Z ; Gdiplus::Image::SetStatus

; 246  : 
; 247  :     return height;

	mov	eax, DWORD PTR _height$[ebp]

; 248  : }

	mov	esp, ebp
	pop	ebp
	ret	0
?GetHeight@Image@Gdiplus@@QAEIXZ ENDP			; Gdiplus::Image::GetHeight
_TEXT	ENDS
; Function compile flags: /Odtp
; File c:\program files (x86)\windows kits\8.1\include\um\gdiplusbitmap.h
;	COMDAT ?GetLastStatus@Image@Gdiplus@@QBE?AW4Status@2@XZ
_TEXT	SEGMENT
_lastStatus$ = -8					; size = 4
_this$ = -4						; size = 4
?GetLastStatus@Image@Gdiplus@@QBE?AW4Status@2@XZ PROC	; Gdiplus::Image::GetLastStatus, COMDAT
; _this$ = ecx

; 521  : {

	push	ebp
	mov	ebp, esp
	sub	esp, 8
	mov	DWORD PTR _this$[ebp], ecx

; 522  :     Status lastStatus = lastResult;

	mov	eax, DWORD PTR _this$[ebp]
	mov	ecx, DWORD PTR [eax+8]
	mov	DWORD PTR _lastStatus$[ebp], ecx

; 523  :     lastResult = Ok;

	mov	edx, DWORD PTR _this$[ebp]
	mov	DWORD PTR [edx+8], 0

; 524  : 
; 525  :     return lastStatus;

	mov	eax, DWORD PTR _lastStatus$[ebp]

; 526  : }

	mov	esp, ebp
	pop	ebp
	ret	0
?GetLastStatus@Image@Gdiplus@@QBE?AW4Status@2@XZ ENDP	; Gdiplus::Image::GetLastStatus
_TEXT	ENDS
; Function compile flags: /Odtp
; File c:\program files (x86)\windows kits\8.1\include\um\gdiplusbitmap.h
;	COMDAT ??0Image@Gdiplus@@IAE@PAVGpImage@1@W4Status@1@@Z
_TEXT	SEGMENT
_this$ = -4						; size = 4
_nativeImage$ = 8					; size = 4
_status$ = 12						; size = 4
??0Image@Gdiplus@@IAE@PAVGpImage@1@W4Status@1@@Z PROC	; Gdiplus::Image::Image, COMDAT
; _this$ = ecx

; 530  : {

	push	ebp
	mov	ebp, esp
	push	ecx
	mov	DWORD PTR _this$[ebp], ecx
	mov	eax, DWORD PTR _this$[ebp]
	mov	DWORD PTR [eax], OFFSET ??_7Image@Gdiplus@@6B@

; 531  :     SetNativeImage(nativeImage);

	mov	ecx, DWORD PTR _nativeImage$[ebp]
	push	ecx
	mov	ecx, DWORD PTR _this$[ebp]
	call	?SetNativeImage@Image@Gdiplus@@IAEXPAVGpImage@2@@Z ; Gdiplus::Image::SetNativeImage

; 532  :     lastResult = status;

	mov	edx, DWORD PTR _this$[ebp]
	mov	eax, DWORD PTR _status$[ebp]
	mov	DWORD PTR [edx+8], eax

; 533  : }

	mov	eax, DWORD PTR _this$[ebp]
	mov	esp, ebp
	pop	ebp
	ret	8
??0Image@Gdiplus@@IAE@PAVGpImage@1@W4Status@1@@Z ENDP	; Gdiplus::Image::Image
_TEXT	ENDS
; Function compile flags: /Odtp
; File c:\program files (x86)\windows kits\8.1\include\um\gdiplusbitmap.h
;	COMDAT ?SetNativeImage@Image@Gdiplus@@IAEXPAVGpImage@2@@Z
_TEXT	SEGMENT
_this$ = -4						; size = 4
_nativeImage$ = 8					; size = 4
?SetNativeImage@Image@Gdiplus@@IAEXPAVGpImage@2@@Z PROC	; Gdiplus::Image::SetNativeImage, COMDAT
; _this$ = ecx

; 537  : {

	push	ebp
	mov	ebp, esp
	push	ecx
	mov	DWORD PTR _this$[ebp], ecx

; 538  :     this->nativeImage = nativeImage;

	mov	eax, DWORD PTR _this$[ebp]
	mov	ecx, DWORD PTR _nativeImage$[ebp]
	mov	DWORD PTR [eax+4], ecx

; 539  : }

	mov	esp, ebp
	pop	ebp
	ret	4
?SetNativeImage@Image@Gdiplus@@IAEXPAVGpImage@2@@Z ENDP	; Gdiplus::Image::SetNativeImage
_TEXT	ENDS
; Function compile flags: /Odtp
;	COMDAT ??_H@YGXPAXIHP6EPAX0@Z@Z
_TEXT	SEGMENT
___t$ = 8						; size = 4
___s$ = 12						; size = 4
___n$ = 16						; size = 4
___f$ = 20						; size = 4
??_H@YGXPAXIHP6EPAX0@Z@Z PROC				; `vector constructor iterator', COMDAT
	push	ebp
	mov	ebp, esp
$LN2@vector:
	mov	eax, DWORD PTR ___n$[ebp]
	sub	eax, 1
	mov	DWORD PTR ___n$[ebp], eax
	js	SHORT $LN3@vector
	mov	ecx, DWORD PTR ___t$[ebp]
	call	DWORD PTR ___f$[ebp]
	mov	ecx, DWORD PTR ___t$[ebp]
	add	ecx, DWORD PTR ___s$[ebp]
	mov	DWORD PTR ___t$[ebp], ecx
	jmp	SHORT $LN2@vector
$LN3@vector:
	pop	ebp
	ret	16					; 00000010H
??_H@YGXPAXIHP6EPAX0@Z@Z ENDP				; `vector constructor iterator'
_TEXT	ENDS
; Function compile flags: /Odtp
; File f:\songmm_moon_stone_obs\obs\source\obsbutton.cpp
;	COMDAT ??0COBSButton@@QAE@XZ
_TEXT	SEGMENT
_this$ = -4						; size = 4
??0COBSButton@@QAE@XZ PROC				; COBSButton::COBSButton, COMDAT
; _this$ = ecx

; 11   : {

	push	ebp
	mov	ebp, esp
	push	ecx
	mov	DWORD PTR _this$[ebp], ecx
	mov	eax, DWORD PTR _this$[ebp]
	mov	DWORD PTR [eax+4], 0
	mov	ecx, DWORD PTR _this$[ebp]
	mov	DWORD PTR [ecx+8], 0
	mov	edx, DWORD PTR _this$[ebp]
	mov	DWORD PTR [edx+12], 0
	mov	eax, DWORD PTR _this$[ebp]
	mov	DWORD PTR [eax+16], 0
	mov	ecx, DWORD PTR _this$[ebp]
	mov	DWORD PTR [ecx+24], 0
	mov	edx, DWORD PTR _this$[ebp]
	mov	DWORD PTR [edx+36], 4

; 12   : 
; 13   : }

	mov	eax, DWORD PTR _this$[ebp]
	mov	esp, ebp
	pop	ebp
	ret	0
??0COBSButton@@QAE@XZ ENDP				; COBSButton::COBSButton
_TEXT	ENDS
; Function compile flags: /Odtp
; File f:\songmm_moon_stone_obs\obs\source\obsbutton.cpp
;	COMDAT ??1COBSButton@@QAE@XZ
_TEXT	SEGMENT
_this$ = -4						; size = 4
??1COBSButton@@QAE@XZ PROC				; COBSButton::~COBSButton, COMDAT
; _this$ = ecx

; 16   : {

	push	ebp
	mov	ebp, esp
	push	ecx
	mov	DWORD PTR _this$[ebp], ecx

; 17   : 	if (m_hFourStateBitmap)

	mov	eax, DWORD PTR _this$[ebp]
	cmp	DWORD PTR [eax+16], 0
	je	SHORT $LN3@COBSButton

; 18   : 	{
; 19   : 		DeleteObject(m_hFourStateBitmap);

	mov	ecx, DWORD PTR _this$[ebp]
	mov	edx, DWORD PTR [ecx+16]
	push	edx
	call	DWORD PTR __imp__DeleteObject@4
$LN3@COBSButton:

; 20   : 	}
; 21   : 	if (m_hFont)

	mov	eax, DWORD PTR _this$[ebp]
	cmp	DWORD PTR [eax+32], 0
	je	SHORT $LN2@COBSButton

; 22   : 	{
; 23   : 		DeleteObject(m_hFont);

	mov	ecx, DWORD PTR _this$[ebp]
	mov	edx, DWORD PTR [ecx+32]
	push	edx
	call	DWORD PTR __imp__DeleteObject@4
$LN2@COBSButton:

; 24   : 	}
; 25   : 	if (m_hdcMemory)

	mov	eax, DWORD PTR _this$[ebp]
	cmp	DWORD PTR [eax+8], 0
	je	SHORT $LN4@COBSButton

; 26   : 	{
; 27   : 		DeleteDC(m_hdcMemory);

	mov	ecx, DWORD PTR _this$[ebp]
	mov	edx, DWORD PTR [ecx+8]
	push	edx
	call	DWORD PTR __imp__DeleteDC@4
$LN4@COBSButton:

; 28   : 		
; 29   : 	}
; 30   : }

	mov	esp, ebp
	pop	ebp
	ret	0
??1COBSButton@@QAE@XZ ENDP				; COBSButton::~COBSButton
_TEXT	ENDS
; Function compile flags: /Odtp
; File f:\songmm_moon_stone_obs\obs\source\obsbutton.cpp
;	COMDAT ?Create@COBSButton@@QAEHPB_WABUtagRECT@@PAUHWND__@@I0H@Z
_TEXT	SEGMENT
tv227 = -72						; size = 4
tv172 = -68						; size = 4
$T1 = -64						; size = 4
$T2 = -60						; size = 4
_graph$3 = -56						; size = 8
_hDC$4 = -48						; size = 4
_sizeWindow$5 = -44					; size = 8
$T6 = -36						; size = 4
$T7 = -32						; size = 4
_pImage$ = -28						; size = 4
_this$ = -24						; size = 4
_windowRect$8 = -20					; size = 16
__$ArrayPad$ = -4					; size = 4
_lpszCaption$ = 8					; size = 4
_rect$ = 12						; size = 4
_hParentWnd$ = 16					; size = 4
_nID$ = 20						; size = 4
_lpszImage$ = 24					; size = 4
_nSubPic$ = 28						; size = 4
?Create@COBSButton@@QAEHPB_WABUtagRECT@@PAUHWND__@@I0H@Z PROC ; COBSButton::Create, COMDAT
; _this$ = ecx

; 58   : {

	push	ebp
	mov	ebp, esp
	sub	esp, 72					; 00000048H
	mov	eax, DWORD PTR ___security_cookie
	xor	eax, ebp
	mov	DWORD PTR __$ArrayPad$[ebp], eax
	mov	DWORD PTR _this$[ebp], ecx

; 59   : 	if (m_hWnd)

	mov	eax, DWORD PTR _this$[ebp]
	cmp	DWORD PTR [eax+4], 0
	je	SHORT $LN16@Create

; 60   : 		return FALSE;

	xor	eax, eax
	jmp	$LN17@Create
$LN16@Create:

; 61   : 	if (nSubPic>4||nSubPic<=0)

	cmp	DWORD PTR _nSubPic$[ebp], 4
	jg	SHORT $LN14@Create
	cmp	DWORD PTR _nSubPic$[ebp], 0
	jg	SHORT $LN15@Create
$LN14@Create:

; 62   : 	{
; 63   : 		return FALSE;

	xor	eax, eax
	jmp	$LN17@Create
$LN15@Create:

; 64   : 	}
; 65   : 	m_hWnd = CreateWindow(TEXT("BUTTON"), lpszCaption, \
; 66   : 		WS_CHILD | WS_VISIBLE | WS_TABSTOP | BS_OWNERDRAW, \
; 67   : 		rect.left, rect.top, rect.right - rect.left, rect.bottom - rect.top, \
; 68   : 		hParentWnd, (HMENU)nID, NULL, NULL);

	push	0
	push	0
	mov	ecx, DWORD PTR _nID$[ebp]
	push	ecx
	mov	edx, DWORD PTR _hParentWnd$[ebp]
	push	edx
	mov	eax, DWORD PTR _rect$[ebp]
	mov	ecx, DWORD PTR _rect$[ebp]
	mov	edx, DWORD PTR [eax+12]
	sub	edx, DWORD PTR [ecx+4]
	push	edx
	mov	eax, DWORD PTR _rect$[ebp]
	mov	ecx, DWORD PTR _rect$[ebp]
	mov	edx, DWORD PTR [eax+8]
	sub	edx, DWORD PTR [ecx]
	push	edx
	mov	eax, DWORD PTR _rect$[ebp]
	mov	ecx, DWORD PTR [eax+4]
	push	ecx
	mov	edx, DWORD PTR _rect$[ebp]
	mov	eax, DWORD PTR [edx]
	push	eax
	push	1342242827				; 5001000bH
	mov	ecx, DWORD PTR _lpszCaption$[ebp]
	push	ecx
	push	OFFSET $SG4294832682
	push	0
	call	DWORD PTR __imp__CreateWindowExW@48
	mov	edx, DWORD PTR _this$[ebp]
	mov	DWORD PTR [edx+4], eax

; 69   : 
; 70   : 	if (NULL == m_hWnd)

	mov	eax, DWORD PTR _this$[ebp]
	cmp	DWORD PTR [eax+4], 0
	jne	SHORT $LN13@Create

; 71   : 	{
; 72   : 		goto CREATE_FAIL;

	jmp	$CREATE_FAIL$23
$LN13@Create:

; 73   : 	}
; 74   : 	SendMessage(m_hWnd, WM_SETFONT, (WPARAM)GetStockObject(DEFAULT_GUI_FONT), TRUE);

	push	1
	push	17					; 00000011H
	call	DWORD PTR __imp__GetStockObject@4
	push	eax
	push	48					; 00000030H
	mov	ecx, DWORD PTR _this$[ebp]
	mov	edx, DWORD PTR [ecx+4]
	push	edx
	call	DWORD PTR __imp__SendMessageW@16

; 75   : 	m_OldProc = (WNDPROC)SetWindowLong(m_hWnd, GWLP_WNDPROC /*GWL_WNDPROC*/, (LONG)ButtonProc);

	push	OFFSET ?ButtonProc@COBSButton@@CGJPAUHWND__@@IIJ@Z ; COBSButton::ButtonProc
	push	-4					; fffffffcH
	mov	eax, DWORD PTR _this$[ebp]
	mov	ecx, DWORD PTR [eax+4]
	push	ecx
	call	DWORD PTR __imp__SetWindowLongW@12
	mov	edx, DWORD PTR _this$[ebp]
	mov	DWORD PTR [edx], eax

; 76   : 	SetWindowLong(m_hWnd, GWLP_USERDATA, (LONG)this);

	mov	eax, DWORD PTR _this$[ebp]
	push	eax
	push	-21					; ffffffebH
	mov	ecx, DWORD PTR _this$[ebp]
	mov	edx, DWORD PTR [ecx+4]
	push	edx
	call	DWORD PTR __imp__SetWindowLongW@12

; 77   : 
; 78   : 	m_hFont = CreateFont(16, 0, 0, 0, FW_NORMAL, FALSE, FALSE, 0, DEFAULT_CHARSET, \
; 79   : 		OUT_DEFAULT_PRECIS, CLIP_DEFAULT_PRECIS, DEFAULT_QUALITY, DEFAULT_PITCH | FF_SWISS, TEXT("Arial"));

	push	OFFSET $SG4294832681
	push	32					; 00000020H
	push	0
	push	0
	push	0
	push	1
	push	0
	push	0
	push	0
	push	400					; 00000190H
	push	0
	push	0
	push	0
	push	16					; 00000010H
	call	DWORD PTR __imp__CreateFontW@56
	mov	ecx, DWORD PTR _this$[ebp]
	mov	DWORD PTR [ecx+32], eax

; 80   : 
; 81   : 	Gdiplus::Image* pImage = NULL;

	mov	DWORD PTR _pImage$[ebp], 0

; 82   : 	//加载图片
; 83   : 	if (lpszImage != NULL)

	cmp	DWORD PTR _lpszImage$[ebp], 0
	je	$LN11@Create

; 84   : 	{
; 85   : 
; 86   : 		
; 87   : 		pImage = Gdiplus::Image::FromFile(lpszImage);

	push	0
	mov	edx, DWORD PTR _lpszImage$[ebp]
	push	edx
	call	?FromFile@Image@Gdiplus@@SAPAV12@PB_WH@Z ; Gdiplus::Image::FromFile
	add	esp, 8
	mov	DWORD PTR _pImage$[ebp], eax

; 88   : 		if ((pImage == NULL) || (pImage->GetLastStatus() != Gdiplus::Ok))

	cmp	DWORD PTR _pImage$[ebp], 0
	je	SHORT $LN9@Create
	mov	ecx, DWORD PTR _pImage$[ebp]
	call	?GetLastStatus@Image@Gdiplus@@QBE?AW4Status@2@XZ ; Gdiplus::Image::GetLastStatus
	test	eax, eax
	je	SHORT $LN10@Create
$LN9@Create:

; 89   : 		{
; 90   : 			if (pImage)

	cmp	DWORD PTR _pImage$[ebp], 0
	je	SHORT $LN8@Create

; 91   : 			{
; 92   : 				delete pImage;

	mov	eax, DWORD PTR _pImage$[ebp]
	mov	DWORD PTR $T2[ebp], eax
	mov	ecx, DWORD PTR $T2[ebp]
	mov	DWORD PTR $T6[ebp], ecx
	cmp	DWORD PTR $T6[ebp], 0
	je	SHORT $LN19@Create
	push	1
	mov	edx, DWORD PTR $T6[ebp]
	mov	eax, DWORD PTR [edx]
	mov	ecx, DWORD PTR $T6[ebp]
	mov	edx, DWORD PTR [eax]
	call	edx
	mov	DWORD PTR tv172[ebp], eax
	jmp	SHORT $LN20@Create
$LN19@Create:
	mov	DWORD PTR tv172[ebp], 0
$LN20@Create:

; 93   : 				pImage = NULL;

	mov	DWORD PTR _pImage$[ebp], 0
$LN8@Create:

; 94   : 			}
; 95   : 			return FALSE;

	xor	eax, eax
	jmp	$LN17@Create
$LN10@Create:

; 96   : 		}
; 97   : 		RECT windowRect;
; 98   : 		GetWindowRect(m_hWnd, &windowRect);

	lea	eax, DWORD PTR _windowRect$8[ebp]
	push	eax
	mov	ecx, DWORD PTR _this$[ebp]
	mov	edx, DWORD PTR [ecx+4]
	push	edx
	call	DWORD PTR __imp__GetWindowRect@8

; 99   : 		SIZE sizeWindow;
; 100  : 		sizeWindow.cx = (pImage->GetWidth() / nSubPic)*4;//计算4张图片需要多少像素

	mov	ecx, DWORD PTR _pImage$[ebp]
	call	?GetWidth@Image@Gdiplus@@QAEIXZ		; Gdiplus::Image::GetWidth
	xor	edx, edx
	div	DWORD PTR _nSubPic$[ebp]
	shl	eax, 2
	mov	DWORD PTR _sizeWindow$5[ebp], eax

; 101  : 	    sizeWindow.cy = pImage->GetHeight();

	mov	ecx, DWORD PTR _pImage$[ebp]
	call	?GetHeight@Image@Gdiplus@@QAEIXZ	; Gdiplus::Image::GetHeight
	mov	DWORD PTR _sizeWindow$5[ebp+4], eax

; 102  : 		
; 103  : 		HDC hDC = GetDC(m_hWnd);

	mov	eax, DWORD PTR _this$[ebp]
	mov	ecx, DWORD PTR [eax+4]
	push	ecx
	call	DWORD PTR __imp__GetDC@4
	mov	DWORD PTR _hDC$4[ebp], eax

; 104  : 		m_hdcMemory = CreateCompatibleDC(hDC);

	mov	edx, DWORD PTR _hDC$4[ebp]
	push	edx
	call	DWORD PTR __imp__CreateCompatibleDC@4
	mov	ecx, DWORD PTR _this$[ebp]
	mov	DWORD PTR [ecx+8], eax

; 105  : 		if (m_hdcMemory == NULL) return FALSE;

	mov	edx, DWORD PTR _this$[ebp]
	cmp	DWORD PTR [edx+8], 0
	jne	SHORT $LN7@Create
	xor	eax, eax
	jmp	$LN17@Create
$LN7@Create:

; 106  : 		m_hFourStateBitmap = CreateCompatibleBitmap(hDC, sizeWindow.cx, sizeWindow.cy);

	mov	eax, DWORD PTR _sizeWindow$5[ebp+4]
	push	eax
	mov	ecx, DWORD PTR _sizeWindow$5[ebp]
	push	ecx
	mov	edx, DWORD PTR _hDC$4[ebp]
	push	edx
	call	DWORD PTR __imp__CreateCompatibleBitmap@12
	mov	ecx, DWORD PTR _this$[ebp]
	mov	DWORD PTR [ecx+16], eax

; 107  : 		if (m_hFourStateBitmap == NULL) return FALSE;

	mov	edx, DWORD PTR _this$[ebp]
	cmp	DWORD PTR [edx+16], 0
	jne	SHORT $LN6@Create
	xor	eax, eax
	jmp	$LN17@Create
$LN6@Create:

; 108  : 		m_hOldBmp = (HBITMAP)::SelectObject(m_hdcMemory, m_hFourStateBitmap);

	mov	eax, DWORD PTR _this$[ebp]
	mov	ecx, DWORD PTR [eax+16]
	push	ecx
	mov	edx, DWORD PTR _this$[ebp]
	mov	eax, DWORD PTR [edx+8]
	push	eax
	call	DWORD PTR __imp__SelectObject@8
	mov	ecx, DWORD PTR _this$[ebp]
	mov	DWORD PTR [ecx+12], eax

; 109  : 		if (m_hOldBmp == NULL) return FALSE;

	mov	edx, DWORD PTR _this$[ebp]
	cmp	DWORD PTR [edx+12], 0
	jne	SHORT $LN5@Create
	xor	eax, eax
	jmp	$LN17@Create
$LN5@Create:

; 110  : 		Gdiplus::Graphics graph(m_hdcMemory);

	mov	eax, DWORD PTR _this$[ebp]
	mov	ecx, DWORD PTR [eax+8]
	push	ecx
	lea	ecx, DWORD PTR _graph$3[ebp]
	call	??0Graphics@Gdiplus@@QAE@PAUHDC__@@@Z	; Gdiplus::Graphics::Graphics

; 111  : 		graph.SetSmoothingMode(Gdiplus::SmoothingModeNone);

	push	3
	lea	ecx, DWORD PTR _graph$3[ebp]
	call	?SetSmoothingMode@Graphics@Gdiplus@@QAE?AW4Status@2@W4SmoothingMode@2@@Z ; Gdiplus::Graphics::SetSmoothingMode

; 112  : 		graph.DrawImage(pImage, 0, 0, sizeWindow.cx, sizeWindow.cy);

	mov	edx, DWORD PTR _sizeWindow$5[ebp+4]
	push	edx
	mov	eax, DWORD PTR _sizeWindow$5[ebp]
	push	eax
	push	0
	push	0
	mov	ecx, DWORD PTR _pImage$[ebp]
	push	ecx
	lea	ecx, DWORD PTR _graph$3[ebp]
	call	?DrawImage@Graphics@Gdiplus@@QAE?AW4Status@2@PAVImage@2@HHHH@Z ; Gdiplus::Graphics::DrawImage

; 113  : 
; 114  : 		if (NULL == m_hFourStateBitmap)

	mov	edx, DWORD PTR _this$[ebp]
	cmp	DWORD PTR [edx+16], 0
	jne	SHORT $LN4@Create

; 130  : 
; 131  : CREATE_FAIL:

	lea	ecx, DWORD PTR _graph$3[ebp]
	call	??1Graphics@Gdiplus@@QAE@XZ		; Gdiplus::Graphics::~Graphics

; 115  : 		{
; 116  : 			goto CREATE_FAIL;

	jmp	SHORT $CREATE_FAIL$23
$LN4@Create:

; 117  : 		}
; 118  : 	}

	lea	ecx, DWORD PTR _graph$3[ebp]
	call	??1Graphics@Gdiplus@@QAE@XZ		; Gdiplus::Graphics::~Graphics
$LN11@Create:

; 119  : 
; 120  : 
; 121  : 
; 122  : 
; 123  : 	if (pImage)

	cmp	DWORD PTR _pImage$[ebp], 0
	je	SHORT $LN2@Create

; 124  : 	{
; 125  : 		delete pImage;

	mov	eax, DWORD PTR _pImage$[ebp]
	mov	DWORD PTR $T1[ebp], eax
	mov	ecx, DWORD PTR $T1[ebp]
	mov	DWORD PTR $T7[ebp], ecx
	cmp	DWORD PTR $T7[ebp], 0
	je	SHORT $LN21@Create
	push	1
	mov	edx, DWORD PTR $T7[ebp]
	mov	eax, DWORD PTR [edx]
	mov	ecx, DWORD PTR $T7[ebp]
	mov	edx, DWORD PTR [eax]
	call	edx
	mov	DWORD PTR tv227[ebp], eax
	jmp	SHORT $LN22@Create
$LN21@Create:
	mov	DWORD PTR tv227[ebp], 0
$LN22@Create:

; 126  : 		pImage = NULL;

	mov	DWORD PTR _pImage$[ebp], 0
$LN2@Create:

; 127  : 	}
; 128  : 
; 129  : 	return TRUE;

	mov	eax, 1
	jmp	SHORT $LN17@Create
$CREATE_FAIL$23:

; 132  : 	if (m_hFourStateBitmap)

	mov	eax, DWORD PTR _this$[ebp]
	cmp	DWORD PTR [eax+16], 0
	je	SHORT $LN1@Create

; 133  : 	{
; 134  : 		DeleteObject(m_hFourStateBitmap);

	mov	ecx, DWORD PTR _this$[ebp]
	mov	edx, DWORD PTR [ecx+16]
	push	edx
	call	DWORD PTR __imp__DeleteObject@4
$LN1@Create:

; 135  : 	}
; 136  : 	return FALSE;

	xor	eax, eax
$LN17@Create:

; 137  : }

	mov	ecx, DWORD PTR __$ArrayPad$[ebp]
	xor	ecx, ebp
	call	@__security_check_cookie@4
	mov	esp, ebp
	pop	ebp
	ret	24					; 00000018H
?Create@COBSButton@@QAEHPB_WABUtagRECT@@PAUHWND__@@I0H@Z ENDP ; COBSButton::Create
_TEXT	ENDS
; Function compile flags: /Odtp
; File f:\songmm_moon_stone_obs\obs\source\obsbutton.cpp
;	COMDAT ?ButtonProc@COBSButton@@CGJPAUHWND__@@IIJ@Z
_TEXT	SEGMENT
_hdc$ = -100						; size = 4
_pDrawItemSturct$1 = -96				; size = 4
tv68 = -92						; size = 4
__this$ = -88						; size = 4
_ps$ = -84						; size = 64
_rtFocus$2 = -20					; size = 16
__$ArrayPad$ = -4					; size = 4
_hWnd$ = 8						; size = 4
_message$ = 12						; size = 4
_wParam$ = 16						; size = 4
_lParam$ = 20						; size = 4
?ButtonProc@COBSButton@@CGJPAUHWND__@@IIJ@Z PROC	; COBSButton::ButtonProc, COMDAT

; 140  : {

	push	ebp
	mov	ebp, esp
	sub	esp, 100				; 00000064H
	mov	eax, DWORD PTR ___security_cookie
	xor	eax, ebp
	mov	DWORD PTR __$ArrayPad$[ebp], eax

; 141  : 	PAINTSTRUCT ps;
; 142  : 	HDC hdc;
; 143  : 	COBSButton *_this = (COBSButton *)GetWindowLong(hWnd, GWLP_USERDATA);

	push	-21					; ffffffebH
	mov	eax, DWORD PTR _hWnd$[ebp]
	push	eax
	call	DWORD PTR __imp__GetWindowLongW@8
	mov	DWORD PTR __this$[ebp], eax

; 144  : 	_this->m_hWnd = hWnd;

	mov	ecx, DWORD PTR __this$[ebp]
	mov	edx, DWORD PTR _hWnd$[ebp]
	mov	DWORD PTR [ecx+4], edx

; 145  : 
; 146  : 	switch (message)

	mov	eax, DWORD PTR _message$[ebp]
	mov	DWORD PTR tv68[ebp], eax
	cmp	DWORD PTR tv68[ebp], 512		; 00000200H
	ja	SHORT $LN15@ButtonProc
	cmp	DWORD PTR tv68[ebp], 512		; 00000200H
	je	$LN3@ButtonProc
	cmp	DWORD PTR tv68[ebp], 15			; 0000000fH
	je	SHORT $LN10@ButtonProc
	cmp	DWORD PTR tv68[ebp], 20			; 00000014H
	je	SHORT $LN9@ButtonProc
	cmp	DWORD PTR tv68[ebp], 43			; 0000002bH
	je	SHORT $LN8@ButtonProc
	jmp	$LN1@ButtonProc
$LN15@ButtonProc:
	mov	ecx, DWORD PTR tv68[ebp]
	sub	ecx, 513				; 00000201H
	mov	DWORD PTR tv68[ebp], ecx
	cmp	DWORD PTR tv68[ebp], 162		; 000000a2H
	ja	$LN1@ButtonProc
	mov	edx, DWORD PTR tv68[ebp]
	movzx	eax, BYTE PTR $LN16@ButtonProc[edx]
	jmp	DWORD PTR $LN17@ButtonProc[eax*4]
$LN10@ButtonProc:

; 147  : 	{
; 148  : 	case WM_PAINT:
; 149  : 		hdc = BeginPaint(hWnd, &ps);

	lea	ecx, DWORD PTR _ps$[ebp]
	push	ecx
	mov	edx, DWORD PTR _hWnd$[ebp]
	push	edx
	call	DWORD PTR __imp__BeginPaint@8
	mov	DWORD PTR _hdc$[ebp], eax

; 150  : 		// TODO: Add any drawing code here...
; 151  : 		_this->Draw(hdc);

	mov	eax, DWORD PTR _hdc$[ebp]
	push	eax
	mov	ecx, DWORD PTR __this$[ebp]
	call	?Draw@COBSButton@@QAEXPAUHDC__@@@Z	; COBSButton::Draw

; 152  : 		EndPaint(hWnd, &ps);

	lea	ecx, DWORD PTR _ps$[ebp]
	push	ecx
	mov	edx, DWORD PTR _hWnd$[ebp]
	push	edx
	call	DWORD PTR __imp__EndPaint@8

; 153  : 		break;

	jmp	$LN11@ButtonProc
$LN9@ButtonProc:

; 154  : 	case WM_ERASEBKGND:
; 155  : 		return TRUE;

	mov	eax, 1
	jmp	$LN13@ButtonProc
$LN8@ButtonProc:

; 156  : 	case WM_DRAWITEM:
; 157  : 	{
; 158  : 						DRAWITEMSTRUCT *pDrawItemSturct = (DRAWITEMSTRUCT *)lParam;

	mov	eax, DWORD PTR _lParam$[ebp]
	mov	DWORD PTR _pDrawItemSturct$1[ebp], eax

; 159  : 
; 160  : 						if (pDrawItemSturct->itemState & ODS_FOCUS)

	mov	ecx, DWORD PTR _pDrawItemSturct$1[ebp]
	mov	edx, DWORD PTR [ecx+16]
	and	edx, 16					; 00000010H
	je	SHORT $LN7@ButtonProc

; 161  : 						{
; 162  : 							RECT rtFocus = pDrawItemSturct->rcItem;

	mov	eax, DWORD PTR _pDrawItemSturct$1[ebp]
	add	eax, 28					; 0000001cH
	mov	ecx, DWORD PTR [eax]
	mov	DWORD PTR _rtFocus$2[ebp], ecx
	mov	edx, DWORD PTR [eax+4]
	mov	DWORD PTR _rtFocus$2[ebp+4], edx
	mov	ecx, DWORD PTR [eax+8]
	mov	DWORD PTR _rtFocus$2[ebp+8], ecx
	mov	edx, DWORD PTR [eax+12]
	mov	DWORD PTR _rtFocus$2[ebp+12], edx

; 163  : 							rtFocus.left += 3;

	mov	eax, DWORD PTR _rtFocus$2[ebp]
	add	eax, 3
	mov	DWORD PTR _rtFocus$2[ebp], eax

; 164  : 							rtFocus.top += 3;

	mov	ecx, DWORD PTR _rtFocus$2[ebp+4]
	add	ecx, 3
	mov	DWORD PTR _rtFocus$2[ebp+4], ecx

; 165  : 							rtFocus.right -= 3;

	mov	edx, DWORD PTR _rtFocus$2[ebp+8]
	sub	edx, 3
	mov	DWORD PTR _rtFocus$2[ebp+8], edx

; 166  : 							rtFocus.bottom -= 3;

	mov	eax, DWORD PTR _rtFocus$2[ebp+12]
	sub	eax, 3
	mov	DWORD PTR _rtFocus$2[ebp+12], eax

; 167  : 							_this->DrawFocusRect(pDrawItemSturct->hDC, rtFocus);

	lea	ecx, DWORD PTR _rtFocus$2[ebp]
	push	ecx
	mov	edx, DWORD PTR _pDrawItemSturct$1[ebp]
	mov	eax, DWORD PTR [edx+24]
	push	eax
	mov	ecx, DWORD PTR __this$[ebp]
	call	?DrawFocusRect@COBSButton@@QAEXPAUHDC__@@AAUtagRECT@@@Z ; COBSButton::DrawFocusRect
$LN7@ButtonProc:

; 168  : 						}
; 169  : 						//_this->Draw(pDrawItemSturct->hDC);
; 170  : 	}
; 171  : 		break;

	jmp	SHORT $LN11@ButtonProc
$LN6@ButtonProc:

; 172  : 	case WM_LBUTTONDOWN:
; 173  : 	{
; 174  : 						   _this->OnLbuttonDown(wParam, lParam);

	mov	ecx, DWORD PTR _lParam$[ebp]
	push	ecx
	mov	edx, DWORD PTR _wParam$[ebp]
	push	edx
	mov	ecx, DWORD PTR __this$[ebp]
	call	?OnLbuttonDown@COBSButton@@QAEXIJ@Z	; COBSButton::OnLbuttonDown

; 175  : 
; 176  : 	}
; 177  : 		break;

	jmp	SHORT $LN11@ButtonProc
$LN5@ButtonProc:

; 178  : 	case WM_LBUTTONUP:
; 179  : 	{
; 180  : 						 _this->OnLbuttonUp(wParam, lParam);

	mov	eax, DWORD PTR _lParam$[ebp]
	push	eax
	mov	ecx, DWORD PTR _wParam$[ebp]
	push	ecx
	mov	ecx, DWORD PTR __this$[ebp]
	call	?OnLbuttonUp@COBSButton@@QAEXIJ@Z	; COBSButton::OnLbuttonUp

; 181  : 
; 182  : 	}
; 183  : 		break;

	jmp	SHORT $LN11@ButtonProc
$LN4@ButtonProc:

; 184  : 	case WM_LBUTTONDBLCLK:
; 185  : 	{
; 186  : 							 _this->OnLbuttonDBClick(wParam, lParam);

	mov	edx, DWORD PTR _lParam$[ebp]
	push	edx
	mov	eax, DWORD PTR _wParam$[ebp]
	push	eax
	mov	ecx, DWORD PTR __this$[ebp]
	call	?OnLbuttonDBClick@COBSButton@@QAEXIJ@Z	; COBSButton::OnLbuttonDBClick

; 187  : 
; 188  : 	}
; 189  : 		break;

	jmp	SHORT $LN11@ButtonProc
$LN3@ButtonProc:

; 190  : 	case WM_MOUSEMOVE:
; 191  : 	{
; 192  : 						 _this->OnMouseMove(wParam, lParam);

	mov	ecx, DWORD PTR _lParam$[ebp]
	push	ecx
	mov	edx, DWORD PTR _wParam$[ebp]
	push	edx
	mov	ecx, DWORD PTR __this$[ebp]
	call	?OnMouseMove@COBSButton@@QAEXIJ@Z	; COBSButton::OnMouseMove

; 193  : 	}
; 194  : 		break;

	jmp	SHORT $LN11@ButtonProc
$LN2@ButtonProc:

; 195  : 	case WM_MOUSELEAVE:
; 196  : 	{
; 197  : 						  _this->OnMouseLeave(wParam, lParam);

	mov	eax, DWORD PTR _lParam$[ebp]
	push	eax
	mov	ecx, DWORD PTR _wParam$[ebp]
	push	ecx
	mov	ecx, DWORD PTR __this$[ebp]
	call	?OnMouseLeave@COBSButton@@QAEXIJ@Z	; COBSButton::OnMouseLeave

; 198  : 	}
; 199  : 		break;

	jmp	SHORT $LN11@ButtonProc
$LN1@ButtonProc:

; 200  : 	default:
; 201  : 		return CallWindowProc(_this->m_OldProc, hWnd, message, wParam, lParam);

	mov	edx, DWORD PTR _lParam$[ebp]
	push	edx
	mov	eax, DWORD PTR _wParam$[ebp]
	push	eax
	mov	ecx, DWORD PTR _message$[ebp]
	push	ecx
	mov	edx, DWORD PTR _hWnd$[ebp]
	push	edx
	mov	eax, DWORD PTR __this$[ebp]
	mov	ecx, DWORD PTR [eax]
	push	ecx
	call	DWORD PTR __imp__CallWindowProcW@20
	jmp	SHORT $LN13@ButtonProc
$LN11@ButtonProc:

; 202  : 	}
; 203  : 	return 0;

	xor	eax, eax
$LN13@ButtonProc:

; 204  : }

	mov	ecx, DWORD PTR __$ArrayPad$[ebp]
	xor	ecx, ebp
	call	@__security_check_cookie@4
	mov	esp, ebp
	pop	ebp
	ret	16					; 00000010H
$LN17@ButtonProc:
	DD	$LN6@ButtonProc
	DD	$LN5@ButtonProc
	DD	$LN4@ButtonProc
	DD	$LN2@ButtonProc
	DD	$LN1@ButtonProc
$LN16@ButtonProc:
	DB	0
	DB	1
	DB	2
	DB	4
	DB	4
	DB	4
	DB	4
	DB	4
	DB	4
	DB	4
	DB	4
	DB	4
	DB	4
	DB	4
	DB	4
	DB	4
	DB	4
	DB	4
	DB	4
	DB	4
	DB	4
	DB	4
	DB	4
	DB	4
	DB	4
	DB	4
	DB	4
	DB	4
	DB	4
	DB	4
	DB	4
	DB	4
	DB	4
	DB	4
	DB	4
	DB	4
	DB	4
	DB	4
	DB	4
	DB	4
	DB	4
	DB	4
	DB	4
	DB	4
	DB	4
	DB	4
	DB	4
	DB	4
	DB	4
	DB	4
	DB	4
	DB	4
	DB	4
	DB	4
	DB	4
	DB	4
	DB	4
	DB	4
	DB	4
	DB	4
	DB	4
	DB	4
	DB	4
	DB	4
	DB	4
	DB	4
	DB	4
	DB	4
	DB	4
	DB	4
	DB	4
	DB	4
	DB	4
	DB	4
	DB	4
	DB	4
	DB	4
	DB	4
	DB	4
	DB	4
	DB	4
	DB	4
	DB	4
	DB	4
	DB	4
	DB	4
	DB	4
	DB	4
	DB	4
	DB	4
	DB	4
	DB	4
	DB	4
	DB	4
	DB	4
	DB	4
	DB	4
	DB	4
	DB	4
	DB	4
	DB	4
	DB	4
	DB	4
	DB	4
	DB	4
	DB	4
	DB	4
	DB	4
	DB	4
	DB	4
	DB	4
	DB	4
	DB	4
	DB	4
	DB	4
	DB	4
	DB	4
	DB	4
	DB	4
	DB	4
	DB	4
	DB	4
	DB	4
	DB	4
	DB	4
	DB	4
	DB	4
	DB	4
	DB	4
	DB	4
	DB	4
	DB	4
	DB	4
	DB	4
	DB	4
	DB	4
	DB	4
	DB	4
	DB	4
	DB	4
	DB	4
	DB	4
	DB	4
	DB	4
	DB	4
	DB	4
	DB	4
	DB	4
	DB	4
	DB	4
	DB	4
	DB	4
	DB	4
	DB	4
	DB	4
	DB	4
	DB	4
	DB	4
	DB	4
	DB	4
	DB	4
	DB	4
	DB	3
?ButtonProc@COBSButton@@CGJPAUHWND__@@IIJ@Z ENDP	; COBSButton::ButtonProc
_TEXT	ENDS
; Function compile flags: /Odtp
; File f:\songmm_moon_stone_obs\obs\source\obsbutton.cpp
;	COMDAT ?OnLbuttonDown@COBSButton@@QAEXIJ@Z
_TEXT	SEGMENT
_this$ = -4						; size = 4
_wParam$ = 8						; size = 4
_lParam$ = 12						; size = 4
?OnLbuttonDown@COBSButton@@QAEXIJ@Z PROC		; COBSButton::OnLbuttonDown, COMDAT
; _this$ = ecx

; 206  : {

	push	ebp
	mov	ebp, esp
	push	ecx
	mov	DWORD PTR _this$[ebp], ecx

; 207  : 	SetCapture(m_hWnd);

	mov	eax, DWORD PTR _this$[ebp]
	mov	ecx, DWORD PTR [eax+4]
	push	ecx
	call	DWORD PTR __imp__SetCapture@4

; 208  : 	m_nButtonState = STATE_DOWN;

	mov	edx, DWORD PTR _this$[ebp]
	mov	DWORD PTR [edx+28], 1

; 209  : 	InvalidataCtrl();

	mov	ecx, DWORD PTR _this$[ebp]
	call	?InvalidataCtrl@COBSButton@@QAE_NXZ	; COBSButton::InvalidataCtrl

; 210  : }

	mov	esp, ebp
	pop	ebp
	ret	8
?OnLbuttonDown@COBSButton@@QAEXIJ@Z ENDP		; COBSButton::OnLbuttonDown
_TEXT	ENDS
; Function compile flags: /Odtp
; File f:\songmm_moon_stone_obs\obs\source\obsbutton.cpp
;	COMDAT ?OnLbuttonUp@COBSButton@@QAEXIJ@Z
_TEXT	SEGMENT
_pt$1 = -32						; size = 8
_this$ = -24						; size = 4
_rcWnd$2 = -20						; size = 16
__$ArrayPad$ = -4					; size = 4
_wParam$ = 8						; size = 4
_lParam$ = 12						; size = 4
?OnLbuttonUp@COBSButton@@QAEXIJ@Z PROC			; COBSButton::OnLbuttonUp, COMDAT
; _this$ = ecx

; 212  : {

	push	ebp
	mov	ebp, esp
	sub	esp, 32					; 00000020H
	mov	eax, DWORD PTR ___security_cookie
	xor	eax, ebp
	mov	DWORD PTR __$ArrayPad$[ebp], eax
	mov	DWORD PTR _this$[ebp], ecx

; 213  : 	if (m_nButtonState == STATE_DOWN)

	mov	eax, DWORD PTR _this$[ebp]
	cmp	DWORD PTR [eax+28], 1
	jne	$LN4@OnLbuttonU

; 214  : 	{
; 215  : 		ReleaseCapture();

	call	DWORD PTR __imp__ReleaseCapture@0

; 216  : 		POINT pt = {};

	xor	ecx, ecx
	mov	DWORD PTR _pt$1[ebp], ecx
	mov	DWORD PTR _pt$1[ebp+4], ecx

; 217  : 		GetCursorPos(&pt);

	lea	edx, DWORD PTR _pt$1[ebp]
	push	edx
	call	DWORD PTR __imp__GetCursorPos@4

; 218  : 		RECT rcWnd = {};

	xor	eax, eax
	mov	DWORD PTR _rcWnd$2[ebp], eax
	mov	DWORD PTR _rcWnd$2[ebp+4], eax
	mov	DWORD PTR _rcWnd$2[ebp+8], eax
	mov	DWORD PTR _rcWnd$2[ebp+12], eax

; 219  : 		GetWindowRect(m_hWnd, &rcWnd);

	lea	ecx, DWORD PTR _rcWnd$2[ebp]
	push	ecx
	mov	edx, DWORD PTR _this$[ebp]
	mov	eax, DWORD PTR [edx+4]
	push	eax
	call	DWORD PTR __imp__GetWindowRect@8

; 220  : 		if (PtInRect(&rcWnd, pt))

	mov	ecx, DWORD PTR _pt$1[ebp+4]
	push	ecx
	mov	edx, DWORD PTR _pt$1[ebp]
	push	edx
	lea	eax, DWORD PTR _rcWnd$2[ebp]
	push	eax
	call	DWORD PTR __imp__PtInRect@12
	test	eax, eax
	je	SHORT $LN2@OnLbuttonU

; 221  : 		{
; 222  : 			m_fTrackMouse = TRUE;

	mov	ecx, DWORD PTR _this$[ebp]
	mov	DWORD PTR [ecx+24], 1

; 223  : 			m_nButtonState = STATE_FOCUS;

	mov	edx, DWORD PTR _this$[ebp]
	mov	DWORD PTR [edx+28], 2

; 224  : 			SendMessage(GetParent(m_hWnd), WM_COMMAND, MAKEWPARAM(GetDlgCtrlID(m_hWnd), \
; 225  : 				BN_CLICKED), (LPARAM)m_hWnd);

	mov	eax, DWORD PTR _this$[ebp]
	mov	ecx, DWORD PTR [eax+4]
	push	ecx
	mov	edx, DWORD PTR _this$[ebp]
	mov	eax, DWORD PTR [edx+4]
	push	eax
	call	DWORD PTR __imp__GetDlgCtrlID@4
	and	eax, 65535				; 0000ffffH
	movzx	ecx, ax
	push	ecx
	push	273					; 00000111H
	mov	edx, DWORD PTR _this$[ebp]
	mov	eax, DWORD PTR [edx+4]
	push	eax
	call	DWORD PTR __imp__GetParent@4
	push	eax
	call	DWORD PTR __imp__SendMessageW@16

; 226  : 		}
; 227  : 		else

	jmp	SHORT $LN1@OnLbuttonU
$LN2@OnLbuttonU:

; 228  : 		{
; 229  : 			m_fTrackMouse = FALSE;

	mov	ecx, DWORD PTR _this$[ebp]
	mov	DWORD PTR [ecx+24], 0

; 230  : 			m_nButtonState = STATE_UP;

	mov	edx, DWORD PTR _this$[ebp]
	mov	DWORD PTR [edx+28], 0
$LN1@OnLbuttonU:

; 231  : 		}
; 232  : 		InvalidataCtrl();

	mov	ecx, DWORD PTR _this$[ebp]
	call	?InvalidataCtrl@COBSButton@@QAE_NXZ	; COBSButton::InvalidataCtrl
$LN4@OnLbuttonU:

; 233  : 	}
; 234  : }

	mov	ecx, DWORD PTR __$ArrayPad$[ebp]
	xor	ecx, ebp
	call	@__security_check_cookie@4
	mov	esp, ebp
	pop	ebp
	ret	8
?OnLbuttonUp@COBSButton@@QAEXIJ@Z ENDP			; COBSButton::OnLbuttonUp
_TEXT	ENDS
; Function compile flags: /Odtp
; File f:\songmm_moon_stone_obs\obs\source\obsbutton.cpp
;	COMDAT ?OnLbuttonDBClick@COBSButton@@QAEXIJ@Z
_TEXT	SEGMENT
_this$ = -4						; size = 4
_wParam$ = 8						; size = 4
_lParam$ = 12						; size = 4
?OnLbuttonDBClick@COBSButton@@QAEXIJ@Z PROC		; COBSButton::OnLbuttonDBClick, COMDAT
; _this$ = ecx

; 237  : {

	push	ebp
	mov	ebp, esp
	push	ecx
	mov	DWORD PTR _this$[ebp], ecx

; 238  : 	SendMessage(m_hWnd, WM_LBUTTONDOWN, NULL, NULL);

	push	0
	push	0
	push	513					; 00000201H
	mov	eax, DWORD PTR _this$[ebp]
	mov	ecx, DWORD PTR [eax+4]
	push	ecx
	call	DWORD PTR __imp__SendMessageW@16

; 239  : }

	mov	esp, ebp
	pop	ebp
	ret	8
?OnLbuttonDBClick@COBSButton@@QAEXIJ@Z ENDP		; COBSButton::OnLbuttonDBClick
_TEXT	ENDS
; Function compile flags: /Odtp
; File f:\songmm_moon_stone_obs\obs\source\obsbutton.cpp
;	COMDAT ?OnMouseMove@COBSButton@@QAEXIJ@Z
_TEXT	SEGMENT
_MouseEvent$1 = -20					; size = 16
_this$ = -4						; size = 4
_wParam$ = 8						; size = 4
_lParam$ = 12						; size = 4
?OnMouseMove@COBSButton@@QAEXIJ@Z PROC			; COBSButton::OnMouseMove, COMDAT
; _this$ = ecx

; 242  : {

	push	ebp
	mov	ebp, esp
	sub	esp, 20					; 00000014H
	mov	DWORD PTR _this$[ebp], ecx

; 243  : 	if (!m_fTrackMouse)

	mov	eax, DWORD PTR _this$[ebp]
	cmp	DWORD PTR [eax+24], 0
	jne	SHORT $LN2@OnMouseMov

; 244  : 	{
; 245  : 		TRACKMOUSEEVENT MouseEvent = { sizeof(TRACKMOUSEEVENT) };

	mov	DWORD PTR _MouseEvent$1[ebp], 16	; 00000010H
	xor	ecx, ecx
	mov	DWORD PTR _MouseEvent$1[ebp+4], ecx
	mov	DWORD PTR _MouseEvent$1[ebp+8], ecx
	mov	DWORD PTR _MouseEvent$1[ebp+12], ecx

; 246  : 		MouseEvent.dwFlags = TME_LEAVE;

	mov	DWORD PTR _MouseEvent$1[ebp+4], 2

; 247  : 		MouseEvent.hwndTrack = m_hWnd;

	mov	edx, DWORD PTR _this$[ebp]
	mov	eax, DWORD PTR [edx+4]
	mov	DWORD PTR _MouseEvent$1[ebp+8], eax

; 248  : 		MouseEvent.dwHoverTime = 1000;

	mov	DWORD PTR _MouseEvent$1[ebp+12], 1000	; 000003e8H

; 249  : 		TrackMouseEvent(&MouseEvent);

	lea	ecx, DWORD PTR _MouseEvent$1[ebp]
	push	ecx
	call	DWORD PTR __imp__TrackMouseEvent@4

; 250  : 
; 251  : 		m_fTrackMouse = TRUE;

	mov	edx, DWORD PTR _this$[ebp]
	mov	DWORD PTR [edx+24], 1

; 252  : 		m_nButtonState = STATE_FOCUS;

	mov	eax, DWORD PTR _this$[ebp]
	mov	DWORD PTR [eax+28], 2

; 253  : 		InvalidataCtrl();

	mov	ecx, DWORD PTR _this$[ebp]
	call	?InvalidataCtrl@COBSButton@@QAE_NXZ	; COBSButton::InvalidataCtrl
$LN2@OnMouseMov:

; 254  : 	}
; 255  : }

	mov	esp, ebp
	pop	ebp
	ret	8
?OnMouseMove@COBSButton@@QAEXIJ@Z ENDP			; COBSButton::OnMouseMove
_TEXT	ENDS
; Function compile flags: /Odtp
; File f:\songmm_moon_stone_obs\obs\source\obsbutton.cpp
;	COMDAT ?OnMouseLeave@COBSButton@@QAEXIJ@Z
_TEXT	SEGMENT
_this$ = -4						; size = 4
_wParam$ = 8						; size = 4
_lParam$ = 12						; size = 4
?OnMouseLeave@COBSButton@@QAEXIJ@Z PROC			; COBSButton::OnMouseLeave, COMDAT
; _this$ = ecx

; 258  : {

	push	ebp
	mov	ebp, esp
	push	ecx
	mov	DWORD PTR _this$[ebp], ecx

; 259  : 	m_fTrackMouse = FALSE;

	mov	eax, DWORD PTR _this$[ebp]
	mov	DWORD PTR [eax+24], 0

; 260  : 	m_nButtonState = STATE_UP;

	mov	ecx, DWORD PTR _this$[ebp]
	mov	DWORD PTR [ecx+28], 0

; 261  : 	InvalidataCtrl();

	mov	ecx, DWORD PTR _this$[ebp]
	call	?InvalidataCtrl@COBSButton@@QAE_NXZ	; COBSButton::InvalidataCtrl

; 262  : }

	mov	esp, ebp
	pop	ebp
	ret	8
?OnMouseLeave@COBSButton@@QAEXIJ@Z ENDP			; COBSButton::OnMouseLeave
_TEXT	ENDS
; Function compile flags: /Odtp
; File f:\songmm_moon_stone_obs\obs\source\obsbutton.cpp
;	COMDAT ?Draw@COBSButton@@QAEXPAUHDC__@@@Z
_TEXT	SEGMENT
_bmpInfo$ = -220					; size = 24
tv242 = -196						; size = 4
_nWidth$ = -192						; size = 4
tv283 = -188						; size = 4
_nBmpHeight$ = -184					; size = 4
tv180 = -180						; size = 4
_hOldFont$1 = -176					; size = 4
tv146 = -172						; size = 4
tv189 = -168						; size = 4
tv300 = -164						; size = 4
_nHeight$ = -160					; size = 4
_nBmpWidth$ = -156					; size = 4
_pszSecondLine$2 = -152					; size = 4
tv245 = -146						; size = 2
tv286 = -144						; size = 2
tv303 = -142						; size = 2
_pReturnPos$3 = -140					; size = 4
tv297 = -136						; size = 4
tv239 = -132						; size = 4
tv280 = -128						; size = 4
_this$ = -124						; size = 4
_rcWnd$ = -120						; size = 16
_szCaption$ = -104					; size = 100
__$ArrayPad$ = -4					; size = 4
_hDC$ = 8						; size = 4
?Draw@COBSButton@@QAEXPAUHDC__@@@Z PROC			; COBSButton::Draw, COMDAT
; _this$ = ecx

; 265  : {

	push	ebp
	mov	ebp, esp
	sub	esp, 220				; 000000dcH
	mov	eax, DWORD PTR ___security_cookie
	xor	eax, ebp
	mov	DWORD PTR __$ArrayPad$[ebp], eax
	mov	DWORD PTR _this$[ebp], ecx

; 266  : 
; 267  : 	BITMAP bmpInfo = {};

	xor	eax, eax
	mov	DWORD PTR _bmpInfo$[ebp], eax
	mov	DWORD PTR _bmpInfo$[ebp+4], eax
	mov	DWORD PTR _bmpInfo$[ebp+8], eax
	mov	DWORD PTR _bmpInfo$[ebp+12], eax
	mov	DWORD PTR _bmpInfo$[ebp+16], eax
	mov	DWORD PTR _bmpInfo$[ebp+20], eax

; 268  : 	GetObject(m_hFourStateBitmap, sizeof(bmpInfo), &bmpInfo);

	lea	ecx, DWORD PTR _bmpInfo$[ebp]
	push	ecx
	push	24					; 00000018H
	mov	edx, DWORD PTR _this$[ebp]
	mov	eax, DWORD PTR [edx+16]
	push	eax
	call	DWORD PTR __imp__GetObjectW@12

; 269  : 
; 270  : 
; 271  : 	RECT rcWnd = {};

	xor	ecx, ecx
	mov	DWORD PTR _rcWnd$[ebp], ecx
	mov	DWORD PTR _rcWnd$[ebp+4], ecx
	mov	DWORD PTR _rcWnd$[ebp+8], ecx
	mov	DWORD PTR _rcWnd$[ebp+12], ecx

; 272  : 	GetClientRect(m_hWnd, &rcWnd);

	lea	edx, DWORD PTR _rcWnd$[ebp]
	push	edx
	mov	eax, DWORD PTR _this$[ebp]
	mov	ecx, DWORD PTR [eax+4]
	push	ecx
	call	DWORD PTR __imp__GetClientRect@8

; 273  : 	int nWidth = rcWnd.right - rcWnd.left;

	mov	edx, DWORD PTR _rcWnd$[ebp+8]
	sub	edx, DWORD PTR _rcWnd$[ebp]
	mov	DWORD PTR _nWidth$[ebp], edx

; 274  : 	int nHeight = rcWnd.bottom - rcWnd.top;

	mov	eax, DWORD PTR _rcWnd$[ebp+12]
	sub	eax, DWORD PTR _rcWnd$[ebp+4]
	mov	DWORD PTR _nHeight$[ebp], eax

; 275  : 	int nBmpWidth = bmpInfo.bmWidth / 4;

	mov	eax, DWORD PTR _bmpInfo$[ebp+4]
	cdq
	and	edx, 3
	add	eax, edx
	sar	eax, 2
	mov	DWORD PTR _nBmpWidth$[ebp], eax

; 276  : 	int nBmpHeight = bmpInfo.bmHeight;

	mov	ecx, DWORD PTR _bmpInfo$[ebp+8]
	mov	DWORD PTR _nBmpHeight$[ebp], ecx

; 277  : 	//绘制背景图
; 278  : 	SetStretchBltMode(hDC, HALFTONE);

	push	4
	mov	edx, DWORD PTR _hDC$[ebp]
	push	edx
	call	DWORD PTR __imp__SetStretchBltMode@8

; 279  : 
; 280  : 	StretchBlt(hDC, 0, 0, nWidth, nHeight, m_hdcMemory, nBmpWidth * m_nButtonState, \
; 281  : 		0, nBmpWidth, nBmpHeight, SRCCOPY);

	push	13369376				; 00cc0020H
	mov	eax, DWORD PTR _nBmpHeight$[ebp]
	push	eax
	mov	ecx, DWORD PTR _nBmpWidth$[ebp]
	push	ecx
	push	0
	mov	edx, DWORD PTR _this$[ebp]
	mov	eax, DWORD PTR _nBmpWidth$[ebp]
	imul	eax, DWORD PTR [edx+28]
	push	eax
	mov	ecx, DWORD PTR _this$[ebp]
	mov	edx, DWORD PTR [ecx+8]
	push	edx
	mov	eax, DWORD PTR _nHeight$[ebp]
	push	eax
	mov	ecx, DWORD PTR _nWidth$[ebp]
	push	ecx
	push	0
	push	0
	mov	edx, DWORD PTR _hDC$[ebp]
	push	edx
	call	DWORD PTR __imp__StretchBlt@44

; 282  : 
; 283  : 
; 284  : 
; 285  : 	if (m_nButtonState == STATE_DOWN||m_nButtonState==STATE_FOCUS)

	mov	eax, DWORD PTR _this$[ebp]
	cmp	DWORD PTR [eax+28], 1
	je	SHORT $LN5@Draw
	mov	ecx, DWORD PTR _this$[ebp]
	cmp	DWORD PTR [ecx+28], 2
	jne	SHORT $LN6@Draw
$LN5@Draw:

; 286  : 	{
; 287  : 		SetTextColor(hDC, RGB(216, 92, 18));

	push	1203416					; 00125cd8H
	mov	edx, DWORD PTR _hDC$[ebp]
	push	edx
	call	DWORD PTR __imp__SetTextColor@8

; 288  : 		
; 289  : 		rcWnd.top += 2;

	mov	eax, DWORD PTR _rcWnd$[ebp+4]
	add	eax, 2
	mov	DWORD PTR _rcWnd$[ebp+4], eax

; 290  : 	}else 

	jmp	SHORT $LN4@Draw
$LN6@Draw:

; 291  : 	{
; 292  : 		SetTextColor(hDC, RGB(100, 100, 100));

	push	6579300					; 00646464H
	mov	ecx, DWORD PTR _hDC$[ebp]
	push	ecx
	call	DWORD PTR __imp__SetTextColor@8
$LN4@Draw:

; 293  : 	}
; 294  : 
; 295  : 	//绘制文本
; 296  : 	TCHAR szCaption[g_nCaptionLen] = {};

	push	100					; 00000064H
	push	0
	lea	edx, DWORD PTR _szCaption$[ebp]
	push	edx
	call	_memset
	add	esp, 12					; 0000000cH

; 297  : 	GetWindowText(m_hWnd, szCaption, g_nCaptionLen - 1);

	push	49					; 00000031H
	lea	eax, DWORD PTR _szCaption$[ebp]
	push	eax
	mov	ecx, DWORD PTR _this$[ebp]
	mov	edx, DWORD PTR [ecx+4]
	push	edx
	call	DWORD PTR __imp__GetWindowTextW@12

; 298  : 	if (_tcslen(szCaption) > 0)

	lea	eax, DWORD PTR _szCaption$[ebp]
	mov	DWORD PTR tv239[ebp], eax
	mov	ecx, DWORD PTR tv239[ebp]
	add	ecx, 2
	mov	DWORD PTR tv242[ebp], ecx
$LL9@Draw:
	mov	edx, DWORD PTR tv239[ebp]
	mov	ax, WORD PTR [edx]
	mov	WORD PTR tv245[ebp], ax
	add	DWORD PTR tv239[ebp], 2
	cmp	WORD PTR tv245[ebp], 0
	jne	SHORT $LL9@Draw
	mov	ecx, DWORD PTR tv239[ebp]
	sub	ecx, DWORD PTR tv242[ebp]
	sar	ecx, 1
	mov	DWORD PTR tv146[ebp], ecx
	je	$LN7@Draw

; 299  : 	{
; 300  : 		SetBkMode(hDC, TRANSPARENT);

	push	1
	mov	edx, DWORD PTR _hDC$[ebp]
	push	edx
	call	DWORD PTR __imp__SetBkMode@8

; 301  : 		TCHAR *pReturnPos = NULL;

	mov	DWORD PTR _pReturnPos$3[ebp], 0

; 302  : 		HFONT hOldFont = (HFONT)SelectObject(hDC, m_hFont);

	mov	eax, DWORD PTR _this$[ebp]
	mov	ecx, DWORD PTR [eax+32]
	push	ecx
	mov	edx, DWORD PTR _hDC$[ebp]
	push	edx
	call	DWORD PTR __imp__SelectObject@8
	mov	DWORD PTR _hOldFont$1[ebp], eax

; 303  : 		if (pReturnPos = _tcsstr(szCaption, TEXT("\\r\\n")))

	push	OFFSET $SG4294832680
	lea	eax, DWORD PTR _szCaption$[ebp]
	push	eax
	call	?wcsstr@@YAPA_WPA_WPB_W@Z		; wcsstr
	add	esp, 8
	mov	DWORD PTR _pReturnPos$3[ebp], eax
	cmp	DWORD PTR _pReturnPos$3[ebp], 0
	je	$LN2@Draw

; 304  : 		{
; 305  : 		
; 306  : 			TCHAR *pszSecondLine = pReturnPos + 4;

	mov	ecx, DWORD PTR _pReturnPos$3[ebp]
	add	ecx, 8
	mov	DWORD PTR _pszSecondLine$2[ebp], ecx

; 307  : 			rcWnd.bottom = (rcWnd.bottom + rcWnd.top) / 2;

	mov	eax, DWORD PTR _rcWnd$[ebp+12]
	add	eax, DWORD PTR _rcWnd$[ebp+4]
	cdq
	sub	eax, edx
	sar	eax, 1
	mov	DWORD PTR _rcWnd$[ebp+12], eax

; 308  : 			rcWnd.top += 1;

	mov	edx, DWORD PTR _rcWnd$[ebp+4]
	add	edx, 1
	mov	DWORD PTR _rcWnd$[ebp+4], edx

; 309  : 			DrawText(hDC, szCaption, pReturnPos - szCaption, &rcWnd, DT_CENTER);

	push	1
	lea	eax, DWORD PTR _rcWnd$[ebp]
	push	eax
	mov	ecx, DWORD PTR _pReturnPos$3[ebp]
	lea	edx, DWORD PTR _szCaption$[ebp]
	sub	ecx, edx
	sar	ecx, 1
	push	ecx
	lea	eax, DWORD PTR _szCaption$[ebp]
	push	eax
	mov	ecx, DWORD PTR _hDC$[ebp]
	push	ecx
	call	DWORD PTR __imp__DrawTextW@20

; 310  : 			rcWnd.top -= 1;

	mov	edx, DWORD PTR _rcWnd$[ebp+4]
	sub	edx, 1
	mov	DWORD PTR _rcWnd$[ebp+4], edx

; 311  : 			rcWnd.bottom = rcWnd.bottom * 2 - rcWnd.top;

	mov	eax, DWORD PTR _rcWnd$[ebp+12]
	shl	eax, 1
	sub	eax, DWORD PTR _rcWnd$[ebp+4]
	mov	DWORD PTR _rcWnd$[ebp+12], eax

; 312  : 			rcWnd.top = (rcWnd.bottom + rcWnd.top) / 2;

	mov	eax, DWORD PTR _rcWnd$[ebp+12]
	add	eax, DWORD PTR _rcWnd$[ebp+4]
	cdq
	sub	eax, edx
	sar	eax, 1
	mov	DWORD PTR _rcWnd$[ebp+4], eax

; 313  : 			rcWnd.top -= 1;

	mov	ecx, DWORD PTR _rcWnd$[ebp+4]
	sub	ecx, 1
	mov	DWORD PTR _rcWnd$[ebp+4], ecx

; 314  : 			DrawText(hDC, pszSecondLine, _tcslen(pszSecondLine), &rcWnd, DT_CENTER);

	mov	edx, DWORD PTR _pszSecondLine$2[ebp]
	mov	DWORD PTR tv280[ebp], edx
	mov	eax, DWORD PTR tv280[ebp]
	add	eax, 2
	mov	DWORD PTR tv283[ebp], eax
$LL10@Draw:
	mov	ecx, DWORD PTR tv280[ebp]
	mov	dx, WORD PTR [ecx]
	mov	WORD PTR tv286[ebp], dx
	add	DWORD PTR tv280[ebp], 2
	cmp	WORD PTR tv286[ebp], 0
	jne	SHORT $LL10@Draw
	mov	eax, DWORD PTR tv280[ebp]
	sub	eax, DWORD PTR tv283[ebp]
	sar	eax, 1
	mov	DWORD PTR tv180[ebp], eax
	push	1
	lea	ecx, DWORD PTR _rcWnd$[ebp]
	push	ecx
	mov	edx, DWORD PTR tv180[ebp]
	push	edx
	mov	eax, DWORD PTR _pszSecondLine$2[ebp]
	push	eax
	mov	ecx, DWORD PTR _hDC$[ebp]
	push	ecx
	call	DWORD PTR __imp__DrawTextW@20

; 315  : 		}
; 316  : 		else

	jmp	SHORT $LN1@Draw
$LN2@Draw:

; 317  : 		{
; 318  : 			rcWnd.left += 18;

	mov	edx, DWORD PTR _rcWnd$[ebp]
	add	edx, 18					; 00000012H
	mov	DWORD PTR _rcWnd$[ebp], edx

; 319  : 			
; 320  : 			DrawText(hDC, szCaption, _tcslen(szCaption), &rcWnd, DT_CENTER | DT_VCENTER | DT_SINGLELINE);

	lea	eax, DWORD PTR _szCaption$[ebp]
	mov	DWORD PTR tv297[ebp], eax
	mov	ecx, DWORD PTR tv297[ebp]
	add	ecx, 2
	mov	DWORD PTR tv300[ebp], ecx
$LL11@Draw:
	mov	edx, DWORD PTR tv297[ebp]
	mov	ax, WORD PTR [edx]
	mov	WORD PTR tv303[ebp], ax
	add	DWORD PTR tv297[ebp], 2
	cmp	WORD PTR tv303[ebp], 0
	jne	SHORT $LL11@Draw
	mov	ecx, DWORD PTR tv297[ebp]
	sub	ecx, DWORD PTR tv300[ebp]
	sar	ecx, 1
	mov	DWORD PTR tv189[ebp], ecx
	push	37					; 00000025H
	lea	edx, DWORD PTR _rcWnd$[ebp]
	push	edx
	mov	eax, DWORD PTR tv189[ebp]
	push	eax
	lea	ecx, DWORD PTR _szCaption$[ebp]
	push	ecx
	mov	edx, DWORD PTR _hDC$[ebp]
	push	edx
	call	DWORD PTR __imp__DrawTextW@20
$LN1@Draw:

; 321  : 		}
; 322  : 		SelectObject(hDC, hOldFont);

	mov	eax, DWORD PTR _hOldFont$1[ebp]
	push	eax
	mov	ecx, DWORD PTR _hDC$[ebp]
	push	ecx
	call	DWORD PTR __imp__SelectObject@8
$LN7@Draw:

; 323  : 	}
; 324  : 
; 325  : 	
; 326  : }

	mov	ecx, DWORD PTR __$ArrayPad$[ebp]
	xor	ecx, ebp
	call	@__security_check_cookie@4
	mov	esp, ebp
	pop	ebp
	ret	4
?Draw@COBSButton@@QAEXPAUHDC__@@@Z ENDP			; COBSButton::Draw
_TEXT	ENDS
; Function compile flags: /Odtp
; File f:\songmm_moon_stone_obs\obs\source\obsbutton.cpp
;	COMDAT ?DrawFocusRect@COBSButton@@QAEXPAUHDC__@@AAUtagRECT@@@Z
_TEXT	SEGMENT
_this$ = -20						; size = 4
_hOldBrush$ = -16					; size = 4
_hBrush$ = -12						; size = 4
_hDrawPen$ = -8						; size = 4
_hOldPen$ = -4						; size = 4
_hDC$ = 8						; size = 4
_rcWnd$ = 12						; size = 4
?DrawFocusRect@COBSButton@@QAEXPAUHDC__@@AAUtagRECT@@@Z PROC ; COBSButton::DrawFocusRect, COMDAT
; _this$ = ecx

; 329  : {

	push	ebp
	mov	ebp, esp
	sub	esp, 20					; 00000014H
	mov	DWORD PTR _this$[ebp], ecx

; 330  : 	HPEN hOldPen = NULL;

	mov	DWORD PTR _hOldPen$[ebp], 0

; 331  : 	HPEN hDrawPen = CreatePen(PS_DOT, 2, RGB(0, 0, 0));

	push	0
	push	2
	push	2
	call	DWORD PTR __imp__CreatePen@12
	mov	DWORD PTR _hDrawPen$[ebp], eax

; 332  : 
; 333  : 	HBRUSH hBrush = (HBRUSH)GetStockObject(NULL_BRUSH);

	push	5
	call	DWORD PTR __imp__GetStockObject@4
	mov	DWORD PTR _hBrush$[ebp], eax

; 334  : 	HBRUSH hOldBrush = (HBRUSH)SelectObject(hDC, hBrush);

	mov	eax, DWORD PTR _hBrush$[ebp]
	push	eax
	mov	ecx, DWORD PTR _hDC$[ebp]
	push	ecx
	call	DWORD PTR __imp__SelectObject@8
	mov	DWORD PTR _hOldBrush$[ebp], eax

; 335  : 	hOldPen = (HPEN)SelectObject(hDC, hDrawPen);

	mov	edx, DWORD PTR _hDrawPen$[ebp]
	push	edx
	mov	eax, DWORD PTR _hDC$[ebp]
	push	eax
	call	DWORD PTR __imp__SelectObject@8
	mov	DWORD PTR _hOldPen$[ebp], eax

; 336  : 	Rectangle(hDC, rcWnd.left, rcWnd.top, rcWnd.right, rcWnd.bottom);

	mov	ecx, DWORD PTR _rcWnd$[ebp]
	mov	edx, DWORD PTR [ecx+12]
	push	edx
	mov	eax, DWORD PTR _rcWnd$[ebp]
	mov	ecx, DWORD PTR [eax+8]
	push	ecx
	mov	edx, DWORD PTR _rcWnd$[ebp]
	mov	eax, DWORD PTR [edx+4]
	push	eax
	mov	ecx, DWORD PTR _rcWnd$[ebp]
	mov	edx, DWORD PTR [ecx]
	push	edx
	mov	eax, DWORD PTR _hDC$[ebp]
	push	eax
	call	DWORD PTR __imp__Rectangle@20

; 337  : 
; 338  : 	SelectObject(hDC, hOldBrush);

	mov	ecx, DWORD PTR _hOldBrush$[ebp]
	push	ecx
	mov	edx, DWORD PTR _hDC$[ebp]
	push	edx
	call	DWORD PTR __imp__SelectObject@8

; 339  : 	SelectObject(hDC, hOldPen);

	mov	eax, DWORD PTR _hOldPen$[ebp]
	push	eax
	mov	ecx, DWORD PTR _hDC$[ebp]
	push	ecx
	call	DWORD PTR __imp__SelectObject@8

; 340  : 	DeleteObject(hDrawPen);

	mov	edx, DWORD PTR _hDrawPen$[ebp]
	push	edx
	call	DWORD PTR __imp__DeleteObject@4

; 341  : }

	mov	esp, ebp
	pop	ebp
	ret	8
?DrawFocusRect@COBSButton@@QAEXPAUHDC__@@AAUtagRECT@@@Z ENDP ; COBSButton::DrawFocusRect
_TEXT	ENDS
; Function compile flags: /Odtp
; File f:\songmm_moon_stone_obs\obs\source\obsbutton.cpp
;	COMDAT ?InvalidataCtrl@COBSButton@@QAE_NXZ
_TEXT	SEGMENT
_hDC$ = -8						; size = 4
_this$ = -4						; size = 4
?InvalidataCtrl@COBSButton@@QAE_NXZ PROC		; COBSButton::InvalidataCtrl, COMDAT
; _this$ = ecx

; 344  : {

	push	ebp
	mov	ebp, esp
	sub	esp, 8
	mov	DWORD PTR _this$[ebp], ecx

; 345  : 	//RECT rcWnd = {};
; 346  : 	//GetClientRect(m_hWnd, &rcWnd);
; 347  : 	//InvalidateRect(m_hWnd, &rcWnd, bErase);
; 348  : 	HDC hDC = GetDC(m_hWnd);

	mov	eax, DWORD PTR _this$[ebp]
	mov	ecx, DWORD PTR [eax+4]
	push	ecx
	call	DWORD PTR __imp__GetDC@4
	mov	DWORD PTR _hDC$[ebp], eax

; 349  : 	Draw(hDC);

	mov	edx, DWORD PTR _hDC$[ebp]
	push	edx
	mov	ecx, DWORD PTR _this$[ebp]
	call	?Draw@COBSButton@@QAEXPAUHDC__@@@Z	; COBSButton::Draw

; 350  : 	ReleaseDC(m_hWnd, hDC);

	mov	eax, DWORD PTR _hDC$[ebp]
	push	eax
	mov	ecx, DWORD PTR _this$[ebp]
	mov	edx, DWORD PTR [ecx+4]
	push	edx
	call	DWORD PTR __imp__ReleaseDC@8

; 351  : 	return true;

	mov	al, 1

; 352  : }

	mov	esp, ebp
	pop	ebp
	ret	0
?InvalidataCtrl@COBSButton@@QAE_NXZ ENDP		; COBSButton::InvalidataCtrl
_TEXT	ENDS
; Function compile flags: /Odtp
; File f:\songmm_moon_stone_obs\obs\source\obsbutton.cpp
;	COMDAT ?EnableButton@COBSButton@@QAEX_N@Z
_TEXT	SEGMENT
_this$ = -4						; size = 4
_fEnable$ = 8						; size = 1
?EnableButton@COBSButton@@QAEX_N@Z PROC			; COBSButton::EnableButton, COMDAT
; _this$ = ecx

; 355  : {

	push	ebp
	mov	ebp, esp
	push	ecx
	mov	DWORD PTR _this$[ebp], ecx

; 356  : 	if (fEnable)

	movzx	eax, BYTE PTR _fEnable$[ebp]
	test	eax, eax
	je	SHORT $LN2@EnableButt

; 357  : 	{
; 358  : 		m_nButtonState = STATE_UP;

	mov	ecx, DWORD PTR _this$[ebp]
	mov	DWORD PTR [ecx+28], 0

; 359  : 	}
; 360  : 	else

	jmp	SHORT $LN1@EnableButt
$LN2@EnableButt:

; 361  : 	{
; 362  : 		m_nButtonState = STATE_DISABLE;

	mov	edx, DWORD PTR _this$[ebp]
	mov	DWORD PTR [edx+28], 3
$LN1@EnableButt:

; 363  : 	}
; 364  : 	EnableWindow(m_hWnd, fEnable);

	movzx	eax, BYTE PTR _fEnable$[ebp]
	push	eax
	mov	ecx, DWORD PTR _this$[ebp]
	mov	edx, DWORD PTR [ecx+4]
	push	edx
	call	DWORD PTR __imp__EnableWindow@8

; 365  : 	InvalidataCtrl();

	mov	ecx, DWORD PTR _this$[ebp]
	call	?InvalidataCtrl@COBSButton@@QAE_NXZ	; COBSButton::InvalidataCtrl

; 366  : }

	mov	esp, ebp
	pop	ebp
	ret	4
?EnableButton@COBSButton@@QAEX_N@Z ENDP			; COBSButton::EnableButton
_TEXT	ENDS
END
