; Listing generated by Microsoft (R) Optimizing Compiler Version 18.00.21005.1 

	TITLE	F:\songmm_moon_stone_obs\OBS\Source\OBSCapture.cpp
	.686P
	.XMM
	include listing.inc
	.model	flat

INCLUDELIB OLDNAMES

PUBLIC	??_R4?$_Func_impl@U?$_Callable_obj@V<lambda_3648d362fc95221bbf9c4c4a922d1611>@@$0A@@std@@V?$allocator@V?$_Func_class@X$$$V@std@@@2@X$$$V@std@@6B@ ; std::_Func_impl<std::_Callable_obj<<lambda_3648d362fc95221bbf9c4c4a922d1611>,0>,std::allocator<std::_Func_class<void> >,void>::`RTTI Complete Object Locator'
PUBLIC	??_R3?$_Func_base@X$$$V@std@@8			; std::_Func_base<void>::`RTTI Class Hierarchy Descriptor'
PUBLIC	??_R0?AV<lambda_582637cdd8d6a2f689bc987be9ec55df>@@@8 ; <lambda_582637cdd8d6a2f689bc987be9ec55df> `RTTI Type Descriptor'
PUBLIC	??_R2?$_Func_impl@U?$_Callable_obj@V<lambda_3648d362fc95221bbf9c4c4a922d1611>@@$0A@@std@@V?$allocator@V?$_Func_class@X$$$V@std@@@2@X$$$V@std@@8 ; std::_Func_impl<std::_Callable_obj<<lambda_3648d362fc95221bbf9c4c4a922d1611>,0>,std::allocator<std::_Func_class<void> >,void>::`RTTI Base Class Array'
PUBLIC	??_R1A@?0A@EA@?$_Func_impl@U?$_Callable_obj@V<lambda_3b020cec0f1508adac4c896f138918cf>@@$0A@@std@@V?$allocator@V?$_Func_class@X$$$V@std@@@2@X$$$V@std@@8 ; std::_Func_impl<std::_Callable_obj<<lambda_3b020cec0f1508adac4c896f138918cf>,0>,std::allocator<std::_Func_class<void> >,void>::`RTTI Base Class Descriptor at (0,-1,0,64)'
PUBLIC	??_R0?AV?$_Func_impl@U?$_Callable_obj@V<lambda_3b020cec0f1508adac4c896f138918cf>@@$0A@@std@@V?$allocator@V?$_Func_class@X$$$V@std@@@2@X$$$V@std@@@8 ; std::_Func_impl<std::_Callable_obj<<lambda_3b020cec0f1508adac4c896f138918cf>,0>,std::allocator<std::_Func_class<void> >,void> `RTTI Type Descriptor'
PUBLIC	??_7?$_Func_impl@U?$_Callable_obj@V<lambda_3648d362fc95221bbf9c4c4a922d1611>@@$0A@@std@@V?$allocator@V?$_Func_class@X$$$V@std@@@2@X$$$V@std@@6B@ ; std::_Func_impl<std::_Callable_obj<<lambda_3648d362fc95221bbf9c4c4a922d1611>,0>,std::allocator<std::_Func_class<void> >,void>::`vftable'
PUBLIC	??_R1A@?0A@EA@?$_Func_impl@U?$_Callable_obj@V<lambda_7c9af1b141e25bc2e890d47a77a39da9>@@$0A@@std@@V?$allocator@V?$_Func_class@X$$$V@std@@@2@X$$$V@std@@8 ; std::_Func_impl<std::_Callable_obj<<lambda_7c9af1b141e25bc2e890d47a77a39da9>,0>,std::allocator<std::_Func_class<void> >,void>::`RTTI Base Class Descriptor at (0,-1,0,64)'
PUBLIC	??_R2?$_Func_base@X$$$V@std@@8			; std::_Func_base<void>::`RTTI Base Class Array'
PUBLIC	??_R1A@?0A@EA@?$_Func_impl@U?$_Callable_obj@V<lambda_3648d362fc95221bbf9c4c4a922d1611>@@$0A@@std@@V?$allocator@V?$_Func_class@X$$$V@std@@@2@X$$$V@std@@8 ; std::_Func_impl<std::_Callable_obj<<lambda_3648d362fc95221bbf9c4c4a922d1611>,0>,std::allocator<std::_Func_class<void> >,void>::`RTTI Base Class Descriptor at (0,-1,0,64)'
PUBLIC	??_R4?$_Func_base@X$$$V@std@@6B@		; std::_Func_base<void>::`RTTI Complete Object Locator'
PUBLIC	??_7?$_Func_impl@U?$_Callable_obj@V<lambda_7c9af1b141e25bc2e890d47a77a39da9>@@$0A@@std@@V?$allocator@V?$_Func_class@X$$$V@std@@@2@X$$$V@std@@6B@ ; std::_Func_impl<std::_Callable_obj<<lambda_7c9af1b141e25bc2e890d47a77a39da9>,0>,std::allocator<std::_Func_class<void> >,void>::`vftable'
PUBLIC	??_R2?$_Func_impl@U?$_Callable_obj@V<lambda_e856d28dddb7588070dd099cfda6c634>@@$0A@@std@@V?$allocator@V?$_Func_class@X$$$V@std@@@2@X$$$V@std@@8 ; std::_Func_impl<std::_Callable_obj<<lambda_e856d28dddb7588070dd099cfda6c634>,0>,std::allocator<std::_Func_class<void> >,void>::`RTTI Base Class Array'
PUBLIC	??_R0?AV?$_Func_base@X$$$V@std@@@8		; std::_Func_base<void> `RTTI Type Descriptor'
PUBLIC	??_R3?$_Func_impl@U?$_Callable_obj@V<lambda_582637cdd8d6a2f689bc987be9ec55df>@@$0A@@std@@V?$allocator@V?$_Func_class@X$$$V@std@@@2@X$$$V@std@@8 ; std::_Func_impl<std::_Callable_obj<<lambda_582637cdd8d6a2f689bc987be9ec55df>,0>,std::allocator<std::_Func_class<void> >,void>::`RTTI Class Hierarchy Descriptor'
PUBLIC	??_R0?AV<lambda_3b020cec0f1508adac4c896f138918cf>@@@8 ; <lambda_3b020cec0f1508adac4c896f138918cf> `RTTI Type Descriptor'
PUBLIC	??_7?$_Func_impl@U?$_Callable_obj@V<lambda_e856d28dddb7588070dd099cfda6c634>@@$0A@@std@@V?$allocator@V?$_Func_class@X$$$V@std@@@2@X$$$V@std@@6B@ ; std::_Func_impl<std::_Callable_obj<<lambda_e856d28dddb7588070dd099cfda6c634>,0>,std::allocator<std::_Func_class<void> >,void>::`vftable'
PUBLIC	??_R1A@?0A@EA@?$_Func_impl@U?$_Callable_obj@V<lambda_582637cdd8d6a2f689bc987be9ec55df>@@$0A@@std@@V?$allocator@V?$_Func_class@X$$$V@std@@@2@X$$$V@std@@8 ; std::_Func_impl<std::_Callable_obj<<lambda_582637cdd8d6a2f689bc987be9ec55df>,0>,std::allocator<std::_Func_class<void> >,void>::`RTTI Base Class Descriptor at (0,-1,0,64)'
PUBLIC	?bLoggedSystemStats@@3HA			; bLoggedSystemStats
PUBLIC	??_R4?$_Func_impl@U?$_Callable_obj@V<lambda_3b020cec0f1508adac4c896f138918cf>@@$0A@@std@@V?$allocator@V?$_Func_class@X$$$V@std@@@2@X$$$V@std@@6B@ ; std::_Func_impl<std::_Callable_obj<<lambda_3b020cec0f1508adac4c896f138918cf>,0>,std::allocator<std::_Func_class<void> >,void>::`RTTI Complete Object Locator'
PUBLIC	??_R4?$_Func_impl@U?$_Callable_obj@V<lambda_e856d28dddb7588070dd099cfda6c634>@@$0A@@std@@V?$allocator@V?$_Func_class@X$$$V@std@@@2@X$$$V@std@@6B@ ; std::_Func_impl<std::_Callable_obj<<lambda_e856d28dddb7588070dd099cfda6c634>,0>,std::allocator<std::_Func_class<void> >,void>::`RTTI Complete Object Locator'
PUBLIC	??_R0?AUFrameAudio@@@8				; FrameAudio `RTTI Type Descriptor'
PUBLIC	??_R0?AV?$_Func_impl@U?$_Callable_obj@V<lambda_582637cdd8d6a2f689bc987be9ec55df>@@$0A@@std@@V?$allocator@V?$_Func_class@X$$$V@std@@@2@X$$$V@std@@@8 ; std::_Func_impl<std::_Callable_obj<<lambda_582637cdd8d6a2f689bc987be9ec55df>,0>,std::allocator<std::_Func_class<void> >,void> `RTTI Type Descriptor'
PUBLIC	??_7?$_Func_impl@U?$_Callable_obj@V<lambda_582637cdd8d6a2f689bc987be9ec55df>@@$0A@@std@@V?$allocator@V?$_Func_class@X$$$V@std@@@2@X$$$V@std@@6B@ ; std::_Func_impl<std::_Callable_obj<<lambda_582637cdd8d6a2f689bc987be9ec55df>,0>,std::allocator<std::_Func_class<void> >,void>::`vftable'
PUBLIC	??_R0?AV?$_Func_impl@U?$_Callable_obj@V<lambda_e856d28dddb7588070dd099cfda6c634>@@$0A@@std@@V?$allocator@V?$_Func_class@X$$$V@std@@@2@X$$$V@std@@@8 ; std::_Func_impl<std::_Callable_obj<<lambda_e856d28dddb7588070dd099cfda6c634>,0>,std::allocator<std::_Func_class<void> >,void> `RTTI Type Descriptor'
PUBLIC	??_R0?AV<lambda_7c9af1b141e25bc2e890d47a77a39da9>@@@8 ; <lambda_7c9af1b141e25bc2e890d47a77a39da9> `RTTI Type Descriptor'
PUBLIC	??_R1A@?0A@EA@?$_Func_impl@U?$_Callable_obj@V<lambda_e856d28dddb7588070dd099cfda6c634>@@$0A@@std@@V?$allocator@V?$_Func_class@X$$$V@std@@@2@X$$$V@std@@8 ; std::_Func_impl<std::_Callable_obj<<lambda_e856d28dddb7588070dd099cfda6c634>,0>,std::allocator<std::_Func_class<void> >,void>::`RTTI Base Class Descriptor at (0,-1,0,64)'
PUBLIC	??_7?$_Func_base@X$$$V@std@@6B@			; std::_Func_base<void>::`vftable'
PUBLIC	??_R4?$_Func_impl@U?$_Callable_obj@V<lambda_582637cdd8d6a2f689bc987be9ec55df>@@$0A@@std@@V?$allocator@V?$_Func_class@X$$$V@std@@@2@X$$$V@std@@6B@ ; std::_Func_impl<std::_Callable_obj<<lambda_582637cdd8d6a2f689bc987be9ec55df>,0>,std::allocator<std::_Func_class<void> >,void>::`RTTI Complete Object Locator'
PUBLIC	??_R1A@?0A@EA@?$_Func_base@X$$$V@std@@8		; std::_Func_base<void>::`RTTI Base Class Descriptor at (0,-1,0,64)'
PUBLIC	??_R0?AV?$_Func_impl@U?$_Callable_obj@V<lambda_3648d362fc95221bbf9c4c4a922d1611>@@$0A@@std@@V?$allocator@V?$_Func_class@X$$$V@std@@@2@X$$$V@std@@@8 ; std::_Func_impl<std::_Callable_obj<<lambda_3648d362fc95221bbf9c4c4a922d1611>,0>,std::allocator<std::_Func_class<void> >,void> `RTTI Type Descriptor'
PUBLIC	??_R0?AV?$_Func_impl@U?$_Callable_obj@V<lambda_7c9af1b141e25bc2e890d47a77a39da9>@@$0A@@std@@V?$allocator@V?$_Func_class@X$$$V@std@@@2@X$$$V@std@@@8 ; std::_Func_impl<std::_Callable_obj<<lambda_7c9af1b141e25bc2e890d47a77a39da9>,0>,std::allocator<std::_Func_class<void> >,void> `RTTI Type Descriptor'
PUBLIC	??_R0?AV<lambda_3648d362fc95221bbf9c4c4a922d1611>@@@8 ; <lambda_3648d362fc95221bbf9c4c4a922d1611> `RTTI Type Descriptor'
PUBLIC	??_R4?$_Func_impl@U?$_Callable_obj@V<lambda_7c9af1b141e25bc2e890d47a77a39da9>@@$0A@@std@@V?$allocator@V?$_Func_class@X$$$V@std@@@2@X$$$V@std@@6B@ ; std::_Func_impl<std::_Callable_obj<<lambda_7c9af1b141e25bc2e890d47a77a39da9>,0>,std::allocator<std::_Func_class<void> >,void>::`RTTI Complete Object Locator'
PUBLIC	??_R3?$_Func_impl@U?$_Callable_obj@V<lambda_3b020cec0f1508adac4c896f138918cf>@@$0A@@std@@V?$allocator@V?$_Func_class@X$$$V@std@@@2@X$$$V@std@@8 ; std::_Func_impl<std::_Callable_obj<<lambda_3b020cec0f1508adac4c896f138918cf>,0>,std::allocator<std::_Func_class<void> >,void>::`RTTI Class Hierarchy Descriptor'
PUBLIC	??_R3?$_Func_impl@U?$_Callable_obj@V<lambda_e856d28dddb7588070dd099cfda6c634>@@$0A@@std@@V?$allocator@V?$_Func_class@X$$$V@std@@@2@X$$$V@std@@8 ; std::_Func_impl<std::_Callable_obj<<lambda_e856d28dddb7588070dd099cfda6c634>,0>,std::allocator<std::_Func_class<void> >,void>::`RTTI Class Hierarchy Descriptor'
PUBLIC	??_R3?$_Func_impl@U?$_Callable_obj@V<lambda_3648d362fc95221bbf9c4c4a922d1611>@@$0A@@std@@V?$allocator@V?$_Func_class@X$$$V@std@@@2@X$$$V@std@@8 ; std::_Func_impl<std::_Callable_obj<<lambda_3648d362fc95221bbf9c4c4a922d1611>,0>,std::allocator<std::_Func_class<void> >,void>::`RTTI Class Hierarchy Descriptor'
PUBLIC	??_R2?$_Func_impl@U?$_Callable_obj@V<lambda_7c9af1b141e25bc2e890d47a77a39da9>@@$0A@@std@@V?$allocator@V?$_Func_class@X$$$V@std@@@2@X$$$V@std@@8 ; std::_Func_impl<std::_Callable_obj<<lambda_7c9af1b141e25bc2e890d47a77a39da9>,0>,std::allocator<std::_Func_class<void> >,void>::`RTTI Base Class Array'
PUBLIC	??_R2?$_Func_impl@U?$_Callable_obj@V<lambda_582637cdd8d6a2f689bc987be9ec55df>@@$0A@@std@@V?$allocator@V?$_Func_class@X$$$V@std@@@2@X$$$V@std@@8 ; std::_Func_impl<std::_Callable_obj<<lambda_582637cdd8d6a2f689bc987be9ec55df>,0>,std::allocator<std::_Func_class<void> >,void>::`RTTI Base Class Array'
PUBLIC	??_R2?$_Func_impl@U?$_Callable_obj@V<lambda_3b020cec0f1508adac4c896f138918cf>@@$0A@@std@@V?$allocator@V?$_Func_class@X$$$V@std@@@2@X$$$V@std@@8 ; std::_Func_impl<std::_Callable_obj<<lambda_3b020cec0f1508adac4c896f138918cf>,0>,std::allocator<std::_Func_class<void> >,void>::`RTTI Base Class Array'
PUBLIC	??_R3?$_Func_impl@U?$_Callable_obj@V<lambda_7c9af1b141e25bc2e890d47a77a39da9>@@$0A@@std@@V?$allocator@V?$_Func_class@X$$$V@std@@@2@X$$$V@std@@8 ; std::_Func_impl<std::_Callable_obj<<lambda_7c9af1b141e25bc2e890d47a77a39da9>,0>,std::allocator<std::_Func_class<void> >,void>::`RTTI Class Hierarchy Descriptor'
PUBLIC	??_7?$_Func_impl@U?$_Callable_obj@V<lambda_3b020cec0f1508adac4c896f138918cf>@@$0A@@std@@V?$allocator@V?$_Func_class@X$$$V@std@@@2@X$$$V@std@@6B@ ; std::_Func_impl<std::_Callable_obj<<lambda_3b020cec0f1508adac4c896f138918cf>,0>,std::allocator<std::_Func_class<void> >,void>::`vftable'
PUBLIC	??_R0?AV<lambda_e856d28dddb7588070dd099cfda6c634>@@@8 ; <lambda_e856d28dddb7588070dd099cfda6c634> `RTTI Type Descriptor'
EXTRN	__imp_??9String@@QBEHABV0@@Z:PROC
EXTRN	__imp_?Select@SceneItem@@QAEX_N@Z:PROC
EXTRN	__imp_?OSIncompatiblePatchesLoaded@@YGHAAVString@@@Z:PROC
EXTRN	__imp_?GetPathDirectory@@YA?AVString@@PB_W@Z:PROC
EXTRN	__imp_?FreeProfileData@@YGXXZ:PROC
EXTRN	__imp_?Right@String@@QAE?AV1@I@Z:PROC
EXTRN	__imp_?AppendChar@String@@QAEAAV1@_W@Z:PROC
EXTRN	__imp_?IsSafeFilename@@YAHPB_W@Z:PROC
EXTRN	__imp_?CreateVertexShaderFromFile@GraphicsSystem@@QAEPAVShader@@PB_W@Z:PROC
EXTRN	__finite:PROC
EXTRN	__imp_?GetVolume@AudioSource@@QBEMXZ:PROC
EXTRN	__imp_?SortAudio@AudioSource@@QAEX_K@Z:PROC
EXTRN	__imp_?QueryAudio2@AudioSource@@QAEIM_N@Z:PROC
EXTRN	__imp__AvSetMmThreadCharacteristicsW@8:PROC
EXTRN	__imp_?OSCheckForBuggyDLLs@@YGXXZ:PROC
EXTRN	__imp_?DumpProfileData@@YGXXZ:PROC
EXTRN	__imp__InvalidateRect@12:PROC
EXTRN	__imp__SystemParametersInfoW@16:PROC
EXTRN	__imp_?MixAudio@@YAXPAM0I_N@Z:PROC
EXTRN	__imp__SetThreadExecutionState@4:PROC
EXTRN	__imp_?OSIncompatibleModulesLoaded@@YGHXZ:PROC
EXTRN	__imp_?CreatePath@@YAHPB_W@Z:PROC
EXTRN	__imp__CoUninitialize@0:PROC
EXTRN	__imp__SetPriorityClass@8:PROC
EXTRN	__imp_?OSGetDefaultVideoSavePath@@YG?AVString@@PB_W@Z:PROC
EXTRN	__imp__AvRevertMmThreadCharacteristics@4:PROC
?bLoggedSystemStats@@3HA DD 01H DUP (?)			; bLoggedSystemStats
_BSS	ENDS
;	COMDAT ??_R0?AV<lambda_e856d28dddb7588070dd099cfda6c634>@@@8
data$r	SEGMENT
??_R0?AV<lambda_e856d28dddb7588070dd099cfda6c634>@@@8 DD FLAT:??_7type_info@@6B@ ; <lambda_e856d28dddb7588070dd099cfda6c634> `RTTI Type Descriptor'
	DD	00H
	DB	'.?AV<lambda_e856d28dddb7588070dd099cfda6c634>@@', 00H
data$r	ENDS
;	COMDAT ??_7?$_Func_impl@U?$_Callable_obj@V<lambda_3b020cec0f1508adac4c896f138918cf>@@$0A@@std@@V?$allocator@V?$_Func_class@X$$$V@std@@@2@X$$$V@std@@6B@
CONST	SEGMENT
??_7?$_Func_impl@U?$_Callable_obj@V<lambda_3b020cec0f1508adac4c896f138918cf>@@$0A@@std@@V?$allocator@V?$_Func_class@X$$$V@std@@@2@X$$$V@std@@6B@ DD FLAT:??_R4?$_Func_impl@U?$_Callable_obj@V<lambda_3b020cec0f1508adac4c896f138918cf>@@$0A@@std@@V?$allocator@V?$_Func_class@X$$$V@std@@@2@X$$$V@std@@6B@ ; std::_Func_impl<std::_Callable_obj<<lambda_3b020cec0f1508adac4c896f138918cf>,0>,std::allocator<std::_Func_class<void> >,void>::`vftable'
	DD	FLAT:?_Copy@?$_Func_impl@U?$_Callable_obj@V<lambda_3b020cec0f1508adac4c896f138918cf>@@$0A@@std@@V?$allocator@V?$_Func_class@X$$$V@std@@@2@X$$$V@std@@UAEPAV?$_Func_base@X$$$V@2@PAX@Z
	DD	FLAT:?_Move@?$_Func_impl@U?$_Callable_obj@V<lambda_3b020cec0f1508adac4c896f138918cf>@@$0A@@std@@V?$allocator@V?$_Func_class@X$$$V@std@@@2@X$$$V@std@@UAEPAV?$_Func_base@X$$$V@2@PAX@Z
	DD	FLAT:?_Do_call@?$_Func_impl@U?$_Callable_obj@V<lambda_3b020cec0f1508adac4c896f138918cf>@@$0A@@std@@V?$allocator@V?$_Func_class@X$$$V@std@@@2@X$$$V@std@@UAEXXZ
	DD	FLAT:?_Target_type@?$_Func_impl@U?$_Callable_obj@V<lambda_3b020cec0f1508adac4c896f138918cf>@@$0A@@std@@V?$allocator@V?$_Func_class@X$$$V@std@@@2@X$$$V@std@@UBEABVtype_info@@XZ
	DD	FLAT:?_Delete_this@?$_Func_impl@U?$_Callable_obj@V<lambda_3b020cec0f1508adac4c896f138918cf>@@$0A@@std@@V?$allocator@V?$_Func_class@X$$$V@std@@@2@X$$$V@std@@EAEX_N@Z
	DD	FLAT:??_E?$_Func_impl@U?$_Callable_obj@V<lambda_3b020cec0f1508adac4c896f138918cf>@@$0A@@std@@V?$allocator@V?$_Func_class@X$$$V@std@@@2@X$$$V@std@@UAEPAXI@Z
	DD	FLAT:?_Get@?$_Func_impl@U?$_Callable_obj@V<lambda_3b020cec0f1508adac4c896f138918cf>@@$0A@@std@@V?$allocator@V?$_Func_class@X$$$V@std@@@2@X$$$V@std@@EBEPBXXZ
CONST	ENDS
;	COMDAT ??_R3?$_Func_impl@U?$_Callable_obj@V<lambda_7c9af1b141e25bc2e890d47a77a39da9>@@$0A@@std@@V?$allocator@V?$_Func_class@X$$$V@std@@@2@X$$$V@std@@8
rdata$r	SEGMENT
??_R3?$_Func_impl@U?$_Callable_obj@V<lambda_7c9af1b141e25bc2e890d47a77a39da9>@@$0A@@std@@V?$allocator@V?$_Func_class@X$$$V@std@@@2@X$$$V@std@@8 DD 00H ; std::_Func_impl<std::_Callable_obj<<lambda_7c9af1b141e25bc2e890d47a77a39da9>,0>,std::allocator<std::_Func_class<void> >,void>::`RTTI Class Hierarchy Descriptor'
	DD	00H
	DD	02H
	DD	FLAT:??_R2?$_Func_impl@U?$_Callable_obj@V<lambda_7c9af1b141e25bc2e890d47a77a39da9>@@$0A@@std@@V?$allocator@V?$_Func_class@X$$$V@std@@@2@X$$$V@std@@8
rdata$r	ENDS
;	COMDAT ??_R2?$_Func_impl@U?$_Callable_obj@V<lambda_3b020cec0f1508adac4c896f138918cf>@@$0A@@std@@V?$allocator@V?$_Func_class@X$$$V@std@@@2@X$$$V@std@@8
rdata$r	SEGMENT
??_R2?$_Func_impl@U?$_Callable_obj@V<lambda_3b020cec0f1508adac4c896f138918cf>@@$0A@@std@@V?$allocator@V?$_Func_class@X$$$V@std@@@2@X$$$V@std@@8 DD FLAT:??_R1A@?0A@EA@?$_Func_impl@U?$_Callable_obj@V<lambda_3b020cec0f1508adac4c896f138918cf>@@$0A@@std@@V?$allocator@V?$_Func_class@X$$$V@std@@@2@X$$$V@std@@8 ; std::_Func_impl<std::_Callable_obj<<lambda_3b020cec0f1508adac4c896f138918cf>,0>,std::allocator<std::_Func_class<void> >,void>::`RTTI Base Class Array'
	DD	FLAT:??_R1A@?0A@EA@?$_Func_base@X$$$V@std@@8
rdata$r	ENDS
;	COMDAT ??_R2?$_Func_impl@U?$_Callable_obj@V<lambda_582637cdd8d6a2f689bc987be9ec55df>@@$0A@@std@@V?$allocator@V?$_Func_class@X$$$V@std@@@2@X$$$V@std@@8
rdata$r	SEGMENT
??_R2?$_Func_impl@U?$_Callable_obj@V<lambda_582637cdd8d6a2f689bc987be9ec55df>@@$0A@@std@@V?$allocator@V?$_Func_class@X$$$V@std@@@2@X$$$V@std@@8 DD FLAT:??_R1A@?0A@EA@?$_Func_impl@U?$_Callable_obj@V<lambda_582637cdd8d6a2f689bc987be9ec55df>@@$0A@@std@@V?$allocator@V?$_Func_class@X$$$V@std@@@2@X$$$V@std@@8 ; std::_Func_impl<std::_Callable_obj<<lambda_582637cdd8d6a2f689bc987be9ec55df>,0>,std::allocator<std::_Func_class<void> >,void>::`RTTI Base Class Array'
	DD	FLAT:??_R1A@?0A@EA@?$_Func_base@X$$$V@std@@8
rdata$r	ENDS
;	COMDAT ??_R2?$_Func_impl@U?$_Callable_obj@V<lambda_7c9af1b141e25bc2e890d47a77a39da9>@@$0A@@std@@V?$allocator@V?$_Func_class@X$$$V@std@@@2@X$$$V@std@@8
rdata$r	SEGMENT
??_R2?$_Func_impl@U?$_Callable_obj@V<lambda_7c9af1b141e25bc2e890d47a77a39da9>@@$0A@@std@@V?$allocator@V?$_Func_class@X$$$V@std@@@2@X$$$V@std@@8 DD FLAT:??_R1A@?0A@EA@?$_Func_impl@U?$_Callable_obj@V<lambda_7c9af1b141e25bc2e890d47a77a39da9>@@$0A@@std@@V?$allocator@V?$_Func_class@X$$$V@std@@@2@X$$$V@std@@8 ; std::_Func_impl<std::_Callable_obj<<lambda_7c9af1b141e25bc2e890d47a77a39da9>,0>,std::allocator<std::_Func_class<void> >,void>::`RTTI Base Class Array'
	DD	FLAT:??_R1A@?0A@EA@?$_Func_base@X$$$V@std@@8
rdata$r	ENDS
;	COMDAT ??_R3?$_Func_impl@U?$_Callable_obj@V<lambda_3648d362fc95221bbf9c4c4a922d1611>@@$0A@@std@@V?$allocator@V?$_Func_class@X$$$V@std@@@2@X$$$V@std@@8
rdata$r	SEGMENT
??_R3?$_Func_impl@U?$_Callable_obj@V<lambda_3648d362fc95221bbf9c4c4a922d1611>@@$0A@@std@@V?$allocator@V?$_Func_class@X$$$V@std@@@2@X$$$V@std@@8 DD 00H ; std::_Func_impl<std::_Callable_obj<<lambda_3648d362fc95221bbf9c4c4a922d1611>,0>,std::allocator<std::_Func_class<void> >,void>::`RTTI Class Hierarchy Descriptor'
	DD	00H
	DD	02H
	DD	FLAT:??_R2?$_Func_impl@U?$_Callable_obj@V<lambda_3648d362fc95221bbf9c4c4a922d1611>@@$0A@@std@@V?$allocator@V?$_Func_class@X$$$V@std@@@2@X$$$V@std@@8
rdata$r	ENDS
;	COMDAT ??_R3?$_Func_impl@U?$_Callable_obj@V<lambda_e856d28dddb7588070dd099cfda6c634>@@$0A@@std@@V?$allocator@V?$_Func_class@X$$$V@std@@@2@X$$$V@std@@8
rdata$r	SEGMENT
??_R3?$_Func_impl@U?$_Callable_obj@V<lambda_e856d28dddb7588070dd099cfda6c634>@@$0A@@std@@V?$allocator@V?$_Func_class@X$$$V@std@@@2@X$$$V@std@@8 DD 00H ; std::_Func_impl<std::_Callable_obj<<lambda_e856d28dddb7588070dd099cfda6c634>,0>,std::allocator<std::_Func_class<void> >,void>::`RTTI Class Hierarchy Descriptor'
	DD	00H
	DD	02H
	DD	FLAT:??_R2?$_Func_impl@U?$_Callable_obj@V<lambda_e856d28dddb7588070dd099cfda6c634>@@$0A@@std@@V?$allocator@V?$_Func_class@X$$$V@std@@@2@X$$$V@std@@8
rdata$r	ENDS
;	COMDAT ??_R3?$_Func_impl@U?$_Callable_obj@V<lambda_3b020cec0f1508adac4c896f138918cf>@@$0A@@std@@V?$allocator@V?$_Func_class@X$$$V@std@@@2@X$$$V@std@@8
rdata$r	SEGMENT
??_R3?$_Func_impl@U?$_Callable_obj@V<lambda_3b020cec0f1508adac4c896f138918cf>@@$0A@@std@@V?$allocator@V?$_Func_class@X$$$V@std@@@2@X$$$V@std@@8 DD 00H ; std::_Func_impl<std::_Callable_obj<<lambda_3b020cec0f1508adac4c896f138918cf>,0>,std::allocator<std::_Func_class<void> >,void>::`RTTI Class Hierarchy Descriptor'
	DD	00H
	DD	02H
	DD	FLAT:??_R2?$_Func_impl@U?$_Callable_obj@V<lambda_3b020cec0f1508adac4c896f138918cf>@@$0A@@std@@V?$allocator@V?$_Func_class@X$$$V@std@@@2@X$$$V@std@@8
rdata$r	ENDS
;	COMDAT ??_R4?$_Func_impl@U?$_Callable_obj@V<lambda_7c9af1b141e25bc2e890d47a77a39da9>@@$0A@@std@@V?$allocator@V?$_Func_class@X$$$V@std@@@2@X$$$V@std@@6B@
rdata$r	SEGMENT
??_R4?$_Func_impl@U?$_Callable_obj@V<lambda_7c9af1b141e25bc2e890d47a77a39da9>@@$0A@@std@@V?$allocator@V?$_Func_class@X$$$V@std@@@2@X$$$V@std@@6B@ DD 00H ; std::_Func_impl<std::_Callable_obj<<lambda_7c9af1b141e25bc2e890d47a77a39da9>,0>,std::allocator<std::_Func_class<void> >,void>::`RTTI Complete Object Locator'
	DD	00H
	DD	00H
	DD	FLAT:??_R0?AV?$_Func_impl@U?$_Callable_obj@V<lambda_7c9af1b141e25bc2e890d47a77a39da9>@@$0A@@std@@V?$allocator@V?$_Func_class@X$$$V@std@@@2@X$$$V@std@@@8
	DD	FLAT:??_R3?$_Func_impl@U?$_Callable_obj@V<lambda_7c9af1b141e25bc2e890d47a77a39da9>@@$0A@@std@@V?$allocator@V?$_Func_class@X$$$V@std@@@2@X$$$V@std@@8
rdata$r	ENDS
;	COMDAT ??_R0?AV<lambda_3648d362fc95221bbf9c4c4a922d1611>@@@8
data$r	SEGMENT
??_R0?AV<lambda_3648d362fc95221bbf9c4c4a922d1611>@@@8 DD FLAT:??_7type_info@@6B@ ; <lambda_3648d362fc95221bbf9c4c4a922d1611> `RTTI Type Descriptor'
	DD	00H
	DB	'.?AV<lambda_3648d362fc95221bbf9c4c4a922d1611>@@', 00H
data$r	ENDS
;	COMDAT ??_R0?AV?$_Func_impl@U?$_Callable_obj@V<lambda_7c9af1b141e25bc2e890d47a77a39da9>@@$0A@@std@@V?$allocator@V?$_Func_class@X$$$V@std@@@2@X$$$V@std@@@8
data$r	SEGMENT
??_R0?AV?$_Func_impl@U?$_Callable_obj@V<lambda_7c9af1b141e25bc2e890d47a77a39da9>@@$0A@@std@@V?$allocator@V?$_Func_class@X$$$V@std@@@2@X$$$V@std@@@8 DD FLAT:??_7type_info@@6B@ ; std::_Func_impl<std::_Callable_obj<<lambda_7c9af1b141e25bc2e890d47a77a39da9>,0>,std::allocator<std::_Func_class<void> >,void> `RTTI Type Descriptor'
	DD	00H
	DB	'.?AV?$_Func_impl@U?$_Callable_obj@V<lambda_7c9af1b141e25'
	DB	'bc2e890d47a77a39da9>@@$0A@@std@@V?$allocator@V?$_Func_class@X'
	DB	'$$$V@std@@@2@X$$$V@std@@', 00H
data$r	ENDS
;	COMDAT ??_R0?AV?$_Func_impl@U?$_Callable_obj@V<lambda_3648d362fc95221bbf9c4c4a922d1611>@@$0A@@std@@V?$allocator@V?$_Func_class@X$$$V@std@@@2@X$$$V@std@@@8
data$r	SEGMENT
??_R0?AV?$_Func_impl@U?$_Callable_obj@V<lambda_3648d362fc95221bbf9c4c4a922d1611>@@$0A@@std@@V?$allocator@V?$_Func_class@X$$$V@std@@@2@X$$$V@std@@@8 DD FLAT:??_7type_info@@6B@ ; std::_Func_impl<std::_Callable_obj<<lambda_3648d362fc95221bbf9c4c4a922d1611>,0>,std::allocator<std::_Func_class<void> >,void> `RTTI Type Descriptor'
	DD	00H
	DB	'.?AV?$_Func_impl@U?$_Callable_obj@V<lambda_3648d362fc952'
	DB	'21bbf9c4c4a922d1611>@@$0A@@std@@V?$allocator@V?$_Func_class@X'
	DB	'$$$V@std@@@2@X$$$V@std@@', 00H
data$r	ENDS
;	COMDAT ??_R1A@?0A@EA@?$_Func_base@X$$$V@std@@8
rdata$r	SEGMENT
??_R1A@?0A@EA@?$_Func_base@X$$$V@std@@8 DD FLAT:??_R0?AV?$_Func_base@X$$$V@std@@@8 ; std::_Func_base<void>::`RTTI Base Class Descriptor at (0,-1,0,64)'
	DD	00H
	DD	00H
	DD	0ffffffffH
	DD	00H
	DD	040H
	DD	FLAT:??_R3?$_Func_base@X$$$V@std@@8
rdata$r	ENDS
;	COMDAT ??_R4?$_Func_impl@U?$_Callable_obj@V<lambda_582637cdd8d6a2f689bc987be9ec55df>@@$0A@@std@@V?$allocator@V?$_Func_class@X$$$V@std@@@2@X$$$V@std@@6B@
rdata$r	SEGMENT
??_R4?$_Func_impl@U?$_Callable_obj@V<lambda_582637cdd8d6a2f689bc987be9ec55df>@@$0A@@std@@V?$allocator@V?$_Func_class@X$$$V@std@@@2@X$$$V@std@@6B@ DD 00H ; std::_Func_impl<std::_Callable_obj<<lambda_582637cdd8d6a2f689bc987be9ec55df>,0>,std::allocator<std::_Func_class<void> >,void>::`RTTI Complete Object Locator'
	DD	00H
	DD	00H
	DD	FLAT:??_R0?AV?$_Func_impl@U?$_Callable_obj@V<lambda_582637cdd8d6a2f689bc987be9ec55df>@@$0A@@std@@V?$allocator@V?$_Func_class@X$$$V@std@@@2@X$$$V@std@@@8
	DD	FLAT:??_R3?$_Func_impl@U?$_Callable_obj@V<lambda_582637cdd8d6a2f689bc987be9ec55df>@@$0A@@std@@V?$allocator@V?$_Func_class@X$$$V@std@@@2@X$$$V@std@@8
rdata$r	ENDS
;	COMDAT ??_7?$_Func_base@X$$$V@std@@6B@
CONST	SEGMENT
??_7?$_Func_base@X$$$V@std@@6B@ DD FLAT:??_R4?$_Func_base@X$$$V@std@@6B@ ; std::_Func_base<void>::`vftable'
	DD	FLAT:__purecall
	DD	FLAT:__purecall
	DD	FLAT:__purecall
	DD	FLAT:__purecall
	DD	FLAT:__purecall
	DD	FLAT:??_E?$_Func_base@X$$$V@std@@UAEPAXI@Z
	DD	FLAT:__purecall
CONST	ENDS
;	COMDAT ??_R1A@?0A@EA@?$_Func_impl@U?$_Callable_obj@V<lambda_e856d28dddb7588070dd099cfda6c634>@@$0A@@std@@V?$allocator@V?$_Func_class@X$$$V@std@@@2@X$$$V@std@@8
rdata$r	SEGMENT
??_R1A@?0A@EA@?$_Func_impl@U?$_Callable_obj@V<lambda_e856d28dddb7588070dd099cfda6c634>@@$0A@@std@@V?$allocator@V?$_Func_class@X$$$V@std@@@2@X$$$V@std@@8 DD FLAT:??_R0?AV?$_Func_impl@U?$_Callable_obj@V<lambda_e856d28dddb7588070dd099cfda6c634>@@$0A@@std@@V?$allocator@V?$_Func_class@X$$$V@std@@@2@X$$$V@std@@@8 ; std::_Func_impl<std::_Callable_obj<<lambda_e856d28dddb7588070dd099cfda6c634>,0>,std::allocator<std::_Func_class<void> >,void>::`RTTI Base Class Descriptor at (0,-1,0,64)'
	DD	01H
	DD	00H
	DD	0ffffffffH
	DD	00H
	DD	040H
	DD	FLAT:??_R3?$_Func_impl@U?$_Callable_obj@V<lambda_e856d28dddb7588070dd099cfda6c634>@@$0A@@std@@V?$allocator@V?$_Func_class@X$$$V@std@@@2@X$$$V@std@@8
rdata$r	ENDS
;	COMDAT ??_R0?AV<lambda_7c9af1b141e25bc2e890d47a77a39da9>@@@8
data$r	SEGMENT
??_R0?AV<lambda_7c9af1b141e25bc2e890d47a77a39da9>@@@8 DD FLAT:??_7type_info@@6B@ ; <lambda_7c9af1b141e25bc2e890d47a77a39da9> `RTTI Type Descriptor'
	DD	00H
	DB	'.?AV<lambda_7c9af1b141e25bc2e890d47a77a39da9>@@', 00H
data$r	ENDS
;	COMDAT ??_R0?AV?$_Func_impl@U?$_Callable_obj@V<lambda_e856d28dddb7588070dd099cfda6c634>@@$0A@@std@@V?$allocator@V?$_Func_class@X$$$V@std@@@2@X$$$V@std@@@8
data$r	SEGMENT
??_R0?AV?$_Func_impl@U?$_Callable_obj@V<lambda_e856d28dddb7588070dd099cfda6c634>@@$0A@@std@@V?$allocator@V?$_Func_class@X$$$V@std@@@2@X$$$V@std@@@8 DD FLAT:??_7type_info@@6B@ ; std::_Func_impl<std::_Callable_obj<<lambda_e856d28dddb7588070dd099cfda6c634>,0>,std::allocator<std::_Func_class<void> >,void> `RTTI Type Descriptor'
	DD	00H
	DB	'.?AV?$_Func_impl@U?$_Callable_obj@V<lambda_e856d28dddb75'
	DB	'88070dd099cfda6c634>@@$0A@@std@@V?$allocator@V?$_Func_class@X'
	DB	'$$$V@std@@@2@X$$$V@std@@', 00H
data$r	ENDS
;	COMDAT ??_7?$_Func_impl@U?$_Callable_obj@V<lambda_582637cdd8d6a2f689bc987be9ec55df>@@$0A@@std@@V?$allocator@V?$_Func_class@X$$$V@std@@@2@X$$$V@std@@6B@
CONST	SEGMENT
??_7?$_Func_impl@U?$_Callable_obj@V<lambda_582637cdd8d6a2f689bc987be9ec55df>@@$0A@@std@@V?$allocator@V?$_Func_class@X$$$V@std@@@2@X$$$V@std@@6B@ DD FLAT:??_R4?$_Func_impl@U?$_Callable_obj@V<lambda_582637cdd8d6a2f689bc987be9ec55df>@@$0A@@std@@V?$allocator@V?$_Func_class@X$$$V@std@@@2@X$$$V@std@@6B@ ; std::_Func_impl<std::_Callable_obj<<lambda_582637cdd8d6a2f689bc987be9ec55df>,0>,std::allocator<std::_Func_class<void> >,void>::`vftable'
	DD	FLAT:?_Copy@?$_Func_impl@U?$_Callable_obj@V<lambda_582637cdd8d6a2f689bc987be9ec55df>@@$0A@@std@@V?$allocator@V?$_Func_class@X$$$V@std@@@2@X$$$V@std@@UAEPAV?$_Func_base@X$$$V@2@PAX@Z
	DD	FLAT:?_Move@?$_Func_impl@U?$_Callable_obj@V<lambda_582637cdd8d6a2f689bc987be9ec55df>@@$0A@@std@@V?$allocator@V?$_Func_class@X$$$V@std@@@2@X$$$V@std@@UAEPAV?$_Func_base@X$$$V@2@PAX@Z
	DD	FLAT:?_Do_call@?$_Func_impl@U?$_Callable_obj@V<lambda_582637cdd8d6a2f689bc987be9ec55df>@@$0A@@std@@V?$allocator@V?$_Func_class@X$$$V@std@@@2@X$$$V@std@@UAEXXZ
	DD	FLAT:?_Target_type@?$_Func_impl@U?$_Callable_obj@V<lambda_582637cdd8d6a2f689bc987be9ec55df>@@$0A@@std@@V?$allocator@V?$_Func_class@X$$$V@std@@@2@X$$$V@std@@UBEABVtype_info@@XZ
	DD	FLAT:?_Delete_this@?$_Func_impl@U?$_Callable_obj@V<lambda_582637cdd8d6a2f689bc987be9ec55df>@@$0A@@std@@V?$allocator@V?$_Func_class@X$$$V@std@@@2@X$$$V@std@@EAEX_N@Z
	DD	FLAT:??_E?$_Func_impl@U?$_Callable_obj@V<lambda_582637cdd8d6a2f689bc987be9ec55df>@@$0A@@std@@V?$allocator@V?$_Func_class@X$$$V@std@@@2@X$$$V@std@@UAEPAXI@Z
	DD	FLAT:?_Get@?$_Func_impl@U?$_Callable_obj@V<lambda_582637cdd8d6a2f689bc987be9ec55df>@@$0A@@std@@V?$allocator@V?$_Func_class@X$$$V@std@@@2@X$$$V@std@@EBEPBXXZ
CONST	ENDS
;	COMDAT ??_R0?AV?$_Func_impl@U?$_Callable_obj@V<lambda_582637cdd8d6a2f689bc987be9ec55df>@@$0A@@std@@V?$allocator@V?$_Func_class@X$$$V@std@@@2@X$$$V@std@@@8
data$r	SEGMENT
??_R0?AV?$_Func_impl@U?$_Callable_obj@V<lambda_582637cdd8d6a2f689bc987be9ec55df>@@$0A@@std@@V?$allocator@V?$_Func_class@X$$$V@std@@@2@X$$$V@std@@@8 DD FLAT:??_7type_info@@6B@ ; std::_Func_impl<std::_Callable_obj<<lambda_582637cdd8d6a2f689bc987be9ec55df>,0>,std::allocator<std::_Func_class<void> >,void> `RTTI Type Descriptor'
	DD	00H
	DB	'.?AV?$_Func_impl@U?$_Callable_obj@V<lambda_582637cdd8d6a'
	DB	'2f689bc987be9ec55df>@@$0A@@std@@V?$allocator@V?$_Func_class@X'
	DB	'$$$V@std@@@2@X$$$V@std@@', 00H
data$r	ENDS
;	COMDAT ??_R0?AUFrameAudio@@@8
data$r	SEGMENT
??_R0?AUFrameAudio@@@8 DD FLAT:??_7type_info@@6B@	; FrameAudio `RTTI Type Descriptor'
	DD	00H
	DB	'.?AUFrameAudio@@', 00H
data$r	ENDS
;	COMDAT ??_R4?$_Func_impl@U?$_Callable_obj@V<lambda_e856d28dddb7588070dd099cfda6c634>@@$0A@@std@@V?$allocator@V?$_Func_class@X$$$V@std@@@2@X$$$V@std@@6B@
rdata$r	SEGMENT
??_R4?$_Func_impl@U?$_Callable_obj@V<lambda_e856d28dddb7588070dd099cfda6c634>@@$0A@@std@@V?$allocator@V?$_Func_class@X$$$V@std@@@2@X$$$V@std@@6B@ DD 00H ; std::_Func_impl<std::_Callable_obj<<lambda_e856d28dddb7588070dd099cfda6c634>,0>,std::allocator<std::_Func_class<void> >,void>::`RTTI Complete Object Locator'
	DD	00H
	DD	00H
	DD	FLAT:??_R0?AV?$_Func_impl@U?$_Callable_obj@V<lambda_e856d28dddb7588070dd099cfda6c634>@@$0A@@std@@V?$allocator@V?$_Func_class@X$$$V@std@@@2@X$$$V@std@@@8
	DD	FLAT:??_R3?$_Func_impl@U?$_Callable_obj@V<lambda_e856d28dddb7588070dd099cfda6c634>@@$0A@@std@@V?$allocator@V?$_Func_class@X$$$V@std@@@2@X$$$V@std@@8
rdata$r	ENDS
;	COMDAT ??_R4?$_Func_impl@U?$_Callable_obj@V<lambda_3b020cec0f1508adac4c896f138918cf>@@$0A@@std@@V?$allocator@V?$_Func_class@X$$$V@std@@@2@X$$$V@std@@6B@
rdata$r	SEGMENT
??_R4?$_Func_impl@U?$_Callable_obj@V<lambda_3b020cec0f1508adac4c896f138918cf>@@$0A@@std@@V?$allocator@V?$_Func_class@X$$$V@std@@@2@X$$$V@std@@6B@ DD 00H ; std::_Func_impl<std::_Callable_obj<<lambda_3b020cec0f1508adac4c896f138918cf>,0>,std::allocator<std::_Func_class<void> >,void>::`RTTI Complete Object Locator'
	DD	00H
	DD	00H
	DD	FLAT:??_R0?AV?$_Func_impl@U?$_Callable_obj@V<lambda_3b020cec0f1508adac4c896f138918cf>@@$0A@@std@@V?$allocator@V?$_Func_class@X$$$V@std@@@2@X$$$V@std@@@8
	DD	FLAT:??_R3?$_Func_impl@U?$_Callable_obj@V<lambda_3b020cec0f1508adac4c896f138918cf>@@$0A@@std@@V?$allocator@V?$_Func_class@X$$$V@std@@@2@X$$$V@std@@8
rdata$r	ENDS
;	COMDAT ??_R1A@?0A@EA@?$_Func_impl@U?$_Callable_obj@V<lambda_582637cdd8d6a2f689bc987be9ec55df>@@$0A@@std@@V?$allocator@V?$_Func_class@X$$$V@std@@@2@X$$$V@std@@8
rdata$r	SEGMENT
??_R1A@?0A@EA@?$_Func_impl@U?$_Callable_obj@V<lambda_582637cdd8d6a2f689bc987be9ec55df>@@$0A@@std@@V?$allocator@V?$_Func_class@X$$$V@std@@@2@X$$$V@std@@8 DD FLAT:??_R0?AV?$_Func_impl@U?$_Callable_obj@V<lambda_582637cdd8d6a2f689bc987be9ec55df>@@$0A@@std@@V?$allocator@V?$_Func_class@X$$$V@std@@@2@X$$$V@std@@@8 ; std::_Func_impl<std::_Callable_obj<<lambda_582637cdd8d6a2f689bc987be9ec55df>,0>,std::allocator<std::_Func_class<void> >,void>::`RTTI Base Class Descriptor at (0,-1,0,64)'
	DD	01H
	DD	00H
	DD	0ffffffffH
	DD	00H
	DD	040H
	DD	FLAT:??_R3?$_Func_impl@U?$_Callable_obj@V<lambda_582637cdd8d6a2f689bc987be9ec55df>@@$0A@@std@@V?$allocator@V?$_Func_class@X$$$V@std@@@2@X$$$V@std@@8
rdata$r	ENDS
;	COMDAT ??_7?$_Func_impl@U?$_Callable_obj@V<lambda_e856d28dddb7588070dd099cfda6c634>@@$0A@@std@@V?$allocator@V?$_Func_class@X$$$V@std@@@2@X$$$V@std@@6B@
CONST	SEGMENT
??_7?$_Func_impl@U?$_Callable_obj@V<lambda_e856d28dddb7588070dd099cfda6c634>@@$0A@@std@@V?$allocator@V?$_Func_class@X$$$V@std@@@2@X$$$V@std@@6B@ DD FLAT:??_R4?$_Func_impl@U?$_Callable_obj@V<lambda_e856d28dddb7588070dd099cfda6c634>@@$0A@@std@@V?$allocator@V?$_Func_class@X$$$V@std@@@2@X$$$V@std@@6B@ ; std::_Func_impl<std::_Callable_obj<<lambda_e856d28dddb7588070dd099cfda6c634>,0>,std::allocator<std::_Func_class<void> >,void>::`vftable'
	DD	FLAT:?_Copy@?$_Func_impl@U?$_Callable_obj@V<lambda_e856d28dddb7588070dd099cfda6c634>@@$0A@@std@@V?$allocator@V?$_Func_class@X$$$V@std@@@2@X$$$V@std@@UAEPAV?$_Func_base@X$$$V@2@PAX@Z
	DD	FLAT:?_Move@?$_Func_impl@U?$_Callable_obj@V<lambda_e856d28dddb7588070dd099cfda6c634>@@$0A@@std@@V?$allocator@V?$_Func_class@X$$$V@std@@@2@X$$$V@std@@UAEPAV?$_Func_base@X$$$V@2@PAX@Z
	DD	FLAT:?_Do_call@?$_Func_impl@U?$_Callable_obj@V<lambda_e856d28dddb7588070dd099cfda6c634>@@$0A@@std@@V?$allocator@V?$_Func_class@X$$$V@std@@@2@X$$$V@std@@UAEXXZ
	DD	FLAT:?_Target_type@?$_Func_impl@U?$_Callable_obj@V<lambda_e856d28dddb7588070dd099cfda6c634>@@$0A@@std@@V?$allocator@V?$_Func_class@X$$$V@std@@@2@X$$$V@std@@UBEABVtype_info@@XZ
	DD	FLAT:?_Delete_this@?$_Func_impl@U?$_Callable_obj@V<lambda_e856d28dddb7588070dd099cfda6c634>@@$0A@@std@@V?$allocator@V?$_Func_class@X$$$V@std@@@2@X$$$V@std@@EAEX_N@Z
	DD	FLAT:??_E?$_Func_impl@U?$_Callable_obj@V<lambda_e856d28dddb7588070dd099cfda6c634>@@$0A@@std@@V?$allocator@V?$_Func_class@X$$$V@std@@@2@X$$$V@std@@UAEPAXI@Z
	DD	FLAT:?_Get@?$_Func_impl@U?$_Callable_obj@V<lambda_e856d28dddb7588070dd099cfda6c634>@@$0A@@std@@V?$allocator@V?$_Func_class@X$$$V@std@@@2@X$$$V@std@@EBEPBXXZ
CONST	ENDS
;	COMDAT ??_R0?AV<lambda_3b020cec0f1508adac4c896f138918cf>@@@8
data$r	SEGMENT
??_R0?AV<lambda_3b020cec0f1508adac4c896f138918cf>@@@8 DD FLAT:??_7type_info@@6B@ ; <lambda_3b020cec0f1508adac4c896f138918cf> `RTTI Type Descriptor'
	DD	00H
	DB	'.?AV<lambda_3b020cec0f1508adac4c896f138918cf>@@', 00H
data$r	ENDS
;	COMDAT ??_R3?$_Func_impl@U?$_Callable_obj@V<lambda_582637cdd8d6a2f689bc987be9ec55df>@@$0A@@std@@V?$allocator@V?$_Func_class@X$$$V@std@@@2@X$$$V@std@@8
rdata$r	SEGMENT
??_R3?$_Func_impl@U?$_Callable_obj@V<lambda_582637cdd8d6a2f689bc987be9ec55df>@@$0A@@std@@V?$allocator@V?$_Func_class@X$$$V@std@@@2@X$$$V@std@@8 DD 00H ; std::_Func_impl<std::_Callable_obj<<lambda_582637cdd8d6a2f689bc987be9ec55df>,0>,std::allocator<std::_Func_class<void> >,void>::`RTTI Class Hierarchy Descriptor'
	DD	00H
	DD	02H
	DD	FLAT:??_R2?$_Func_impl@U?$_Callable_obj@V<lambda_582637cdd8d6a2f689bc987be9ec55df>@@$0A@@std@@V?$allocator@V?$_Func_class@X$$$V@std@@@2@X$$$V@std@@8
rdata$r	ENDS
;	COMDAT ??_R0?AV?$_Func_base@X$$$V@std@@@8
data$r	SEGMENT
??_R0?AV?$_Func_base@X$$$V@std@@@8 DD FLAT:??_7type_info@@6B@ ; std::_Func_base<void> `RTTI Type Descriptor'
	DD	00H
	DB	'.?AV?$_Func_base@X$$$V@std@@', 00H
data$r	ENDS
;	COMDAT ??_R2?$_Func_impl@U?$_Callable_obj@V<lambda_e856d28dddb7588070dd099cfda6c634>@@$0A@@std@@V?$allocator@V?$_Func_class@X$$$V@std@@@2@X$$$V@std@@8
rdata$r	SEGMENT
??_R2?$_Func_impl@U?$_Callable_obj@V<lambda_e856d28dddb7588070dd099cfda6c634>@@$0A@@std@@V?$allocator@V?$_Func_class@X$$$V@std@@@2@X$$$V@std@@8 DD FLAT:??_R1A@?0A@EA@?$_Func_impl@U?$_Callable_obj@V<lambda_e856d28dddb7588070dd099cfda6c634>@@$0A@@std@@V?$allocator@V?$_Func_class@X$$$V@std@@@2@X$$$V@std@@8 ; std::_Func_impl<std::_Callable_obj<<lambda_e856d28dddb7588070dd099cfda6c634>,0>,std::allocator<std::_Func_class<void> >,void>::`RTTI Base Class Array'
	DD	FLAT:??_R1A@?0A@EA@?$_Func_base@X$$$V@std@@8
rdata$r	ENDS
;	COMDAT ??_7?$_Func_impl@U?$_Callable_obj@V<lambda_7c9af1b141e25bc2e890d47a77a39da9>@@$0A@@std@@V?$allocator@V?$_Func_class@X$$$V@std@@@2@X$$$V@std@@6B@
CONST	SEGMENT
??_7?$_Func_impl@U?$_Callable_obj@V<lambda_7c9af1b141e25bc2e890d47a77a39da9>@@$0A@@std@@V?$allocator@V?$_Func_class@X$$$V@std@@@2@X$$$V@std@@6B@ DD FLAT:??_R4?$_Func_impl@U?$_Callable_obj@V<lambda_7c9af1b141e25bc2e890d47a77a39da9>@@$0A@@std@@V?$allocator@V?$_Func_class@X$$$V@std@@@2@X$$$V@std@@6B@ ; std::_Func_impl<std::_Callable_obj<<lambda_7c9af1b141e25bc2e890d47a77a39da9>,0>,std::allocator<std::_Func_class<void> >,void>::`vftable'
	DD	FLAT:?_Copy@?$_Func_impl@U?$_Callable_obj@V<lambda_7c9af1b141e25bc2e890d47a77a39da9>@@$0A@@std@@V?$allocator@V?$_Func_class@X$$$V@std@@@2@X$$$V@std@@UAEPAV?$_Func_base@X$$$V@2@PAX@Z
	DD	FLAT:?_Move@?$_Func_impl@U?$_Callable_obj@V<lambda_7c9af1b141e25bc2e890d47a77a39da9>@@$0A@@std@@V?$allocator@V?$_Func_class@X$$$V@std@@@2@X$$$V@std@@UAEPAV?$_Func_base@X$$$V@2@PAX@Z
	DD	FLAT:?_Do_call@?$_Func_impl@U?$_Callable_obj@V<lambda_7c9af1b141e25bc2e890d47a77a39da9>@@$0A@@std@@V?$allocator@V?$_Func_class@X$$$V@std@@@2@X$$$V@std@@UAEXXZ
	DD	FLAT:?_Target_type@?$_Func_impl@U?$_Callable_obj@V<lambda_7c9af1b141e25bc2e890d47a77a39da9>@@$0A@@std@@V?$allocator@V?$_Func_class@X$$$V@std@@@2@X$$$V@std@@UBEABVtype_info@@XZ
	DD	FLAT:?_Delete_this@?$_Func_impl@U?$_Callable_obj@V<lambda_7c9af1b141e25bc2e890d47a77a39da9>@@$0A@@std@@V?$allocator@V?$_Func_class@X$$$V@std@@@2@X$$$V@std@@EAEX_N@Z
	DD	FLAT:??_E?$_Func_impl@U?$_Callable_obj@V<lambda_7c9af1b141e25bc2e890d47a77a39da9>@@$0A@@std@@V?$allocator@V?$_Func_class@X$$$V@std@@@2@X$$$V@std@@UAEPAXI@Z
	DD	FLAT:?_Get@?$_Func_impl@U?$_Callable_obj@V<lambda_7c9af1b141e25bc2e890d47a77a39da9>@@$0A@@std@@V?$allocator@V?$_Func_class@X$$$V@std@@@2@X$$$V@std@@EBEPBXXZ
CONST	ENDS
;	COMDAT ??_R4?$_Func_base@X$$$V@std@@6B@
rdata$r	SEGMENT
??_R4?$_Func_base@X$$$V@std@@6B@ DD 00H			; std::_Func_base<void>::`RTTI Complete Object Locator'
	DD	00H
	DD	00H
	DD	FLAT:??_R0?AV?$_Func_base@X$$$V@std@@@8
	DD	FLAT:??_R3?$_Func_base@X$$$V@std@@8
rdata$r	ENDS
;	COMDAT ??_R1A@?0A@EA@?$_Func_impl@U?$_Callable_obj@V<lambda_3648d362fc95221bbf9c4c4a922d1611>@@$0A@@std@@V?$allocator@V?$_Func_class@X$$$V@std@@@2@X$$$V@std@@8
rdata$r	SEGMENT
??_R1A@?0A@EA@?$_Func_impl@U?$_Callable_obj@V<lambda_3648d362fc95221bbf9c4c4a922d1611>@@$0A@@std@@V?$allocator@V?$_Func_class@X$$$V@std@@@2@X$$$V@std@@8 DD FLAT:??_R0?AV?$_Func_impl@U?$_Callable_obj@V<lambda_3648d362fc95221bbf9c4c4a922d1611>@@$0A@@std@@V?$allocator@V?$_Func_class@X$$$V@std@@@2@X$$$V@std@@@8 ; std::_Func_impl<std::_Callable_obj<<lambda_3648d362fc95221bbf9c4c4a922d1611>,0>,std::allocator<std::_Func_class<void> >,void>::`RTTI Base Class Descriptor at (0,-1,0,64)'
	DD	01H
	DD	00H
	DD	0ffffffffH
	DD	00H
	DD	040H
	DD	FLAT:??_R3?$_Func_impl@U?$_Callable_obj@V<lambda_3648d362fc95221bbf9c4c4a922d1611>@@$0A@@std@@V?$allocator@V?$_Func_class@X$$$V@std@@@2@X$$$V@std@@8
rdata$r	ENDS
;	COMDAT ??_R2?$_Func_base@X$$$V@std@@8
rdata$r	SEGMENT
??_R2?$_Func_base@X$$$V@std@@8 DD FLAT:??_R1A@?0A@EA@?$_Func_base@X$$$V@std@@8 ; std::_Func_base<void>::`RTTI Base Class Array'
rdata$r	ENDS
;	COMDAT ??_R1A@?0A@EA@?$_Func_impl@U?$_Callable_obj@V<lambda_7c9af1b141e25bc2e890d47a77a39da9>@@$0A@@std@@V?$allocator@V?$_Func_class@X$$$V@std@@@2@X$$$V@std@@8
rdata$r	SEGMENT
??_R1A@?0A@EA@?$_Func_impl@U?$_Callable_obj@V<lambda_7c9af1b141e25bc2e890d47a77a39da9>@@$0A@@std@@V?$allocator@V?$_Func_class@X$$$V@std@@@2@X$$$V@std@@8 DD FLAT:??_R0?AV?$_Func_impl@U?$_Callable_obj@V<lambda_7c9af1b141e25bc2e890d47a77a39da9>@@$0A@@std@@V?$allocator@V?$_Func_class@X$$$V@std@@@2@X$$$V@std@@@8 ; std::_Func_impl<std::_Callable_obj<<lambda_7c9af1b141e25bc2e890d47a77a39da9>,0>,std::allocator<std::_Func_class<void> >,void>::`RTTI Base Class Descriptor at (0,-1,0,64)'
	DD	01H
	DD	00H
	DD	0ffffffffH
	DD	00H
	DD	040H
	DD	FLAT:??_R3?$_Func_impl@U?$_Callable_obj@V<lambda_7c9af1b141e25bc2e890d47a77a39da9>@@$0A@@std@@V?$allocator@V?$_Func_class@X$$$V@std@@@2@X$$$V@std@@8
rdata$r	ENDS
;	COMDAT ??_7?$_Func_impl@U?$_Callable_obj@V<lambda_3648d362fc95221bbf9c4c4a922d1611>@@$0A@@std@@V?$allocator@V?$_Func_class@X$$$V@std@@@2@X$$$V@std@@6B@
CONST	SEGMENT
??_7?$_Func_impl@U?$_Callable_obj@V<lambda_3648d362fc95221bbf9c4c4a922d1611>@@$0A@@std@@V?$allocator@V?$_Func_class@X$$$V@std@@@2@X$$$V@std@@6B@ DD FLAT:??_R4?$_Func_impl@U?$_Callable_obj@V<lambda_3648d362fc95221bbf9c4c4a922d1611>@@$0A@@std@@V?$allocator@V?$_Func_class@X$$$V@std@@@2@X$$$V@std@@6B@ ; std::_Func_impl<std::_Callable_obj<<lambda_3648d362fc95221bbf9c4c4a922d1611>,0>,std::allocator<std::_Func_class<void> >,void>::`vftable'
	DD	FLAT:?_Copy@?$_Func_impl@U?$_Callable_obj@V<lambda_3648d362fc95221bbf9c4c4a922d1611>@@$0A@@std@@V?$allocator@V?$_Func_class@X$$$V@std@@@2@X$$$V@std@@UAEPAV?$_Func_base@X$$$V@2@PAX@Z
	DD	FLAT:?_Move@?$_Func_impl@U?$_Callable_obj@V<lambda_3648d362fc95221bbf9c4c4a922d1611>@@$0A@@std@@V?$allocator@V?$_Func_class@X$$$V@std@@@2@X$$$V@std@@UAEPAV?$_Func_base@X$$$V@2@PAX@Z
	DD	FLAT:?_Do_call@?$_Func_impl@U?$_Callable_obj@V<lambda_3648d362fc95221bbf9c4c4a922d1611>@@$0A@@std@@V?$allocator@V?$_Func_class@X$$$V@std@@@2@X$$$V@std@@UAEXXZ
	DD	FLAT:?_Target_type@?$_Func_impl@U?$_Callable_obj@V<lambda_3648d362fc95221bbf9c4c4a922d1611>@@$0A@@std@@V?$allocator@V?$_Func_class@X$$$V@std@@@2@X$$$V@std@@UBEABVtype_info@@XZ
	DD	FLAT:?_Delete_this@?$_Func_impl@U?$_Callable_obj@V<lambda_3648d362fc95221bbf9c4c4a922d1611>@@$0A@@std@@V?$allocator@V?$_Func_class@X$$$V@std@@@2@X$$$V@std@@EAEX_N@Z
	DD	FLAT:??_E?$_Func_impl@U?$_Callable_obj@V<lambda_3648d362fc95221bbf9c4c4a922d1611>@@$0A@@std@@V?$allocator@V?$_Func_class@X$$$V@std@@@2@X$$$V@std@@UAEPAXI@Z
	DD	FLAT:?_Get@?$_Func_impl@U?$_Callable_obj@V<lambda_3648d362fc95221bbf9c4c4a922d1611>@@$0A@@std@@V?$allocator@V?$_Func_class@X$$$V@std@@@2@X$$$V@std@@EBEPBXXZ
CONST	ENDS
;	COMDAT ??_R0?AV?$_Func_impl@U?$_Callable_obj@V<lambda_3b020cec0f1508adac4c896f138918cf>@@$0A@@std@@V?$allocator@V?$_Func_class@X$$$V@std@@@2@X$$$V@std@@@8
data$r	SEGMENT
??_R0?AV?$_Func_impl@U?$_Callable_obj@V<lambda_3b020cec0f1508adac4c896f138918cf>@@$0A@@std@@V?$allocator@V?$_Func_class@X$$$V@std@@@2@X$$$V@std@@@8 DD FLAT:??_7type_info@@6B@ ; std::_Func_impl<std::_Callable_obj<<lambda_3b020cec0f1508adac4c896f138918cf>,0>,std::allocator<std::_Func_class<void> >,void> `RTTI Type Descriptor'
	DD	00H
	DB	'.?AV?$_Func_impl@U?$_Callable_obj@V<lambda_3b020cec0f150'
	DB	'8adac4c896f138918cf>@@$0A@@std@@V?$allocator@V?$_Func_class@X'
	DB	'$$$V@std@@@2@X$$$V@std@@', 00H
data$r	ENDS
;	COMDAT ??_R1A@?0A@EA@?$_Func_impl@U?$_Callable_obj@V<lambda_3b020cec0f1508adac4c896f138918cf>@@$0A@@std@@V?$allocator@V?$_Func_class@X$$$V@std@@@2@X$$$V@std@@8
rdata$r	SEGMENT
??_R1A@?0A@EA@?$_Func_impl@U?$_Callable_obj@V<lambda_3b020cec0f1508adac4c896f138918cf>@@$0A@@std@@V?$allocator@V?$_Func_class@X$$$V@std@@@2@X$$$V@std@@8 DD FLAT:??_R0?AV?$_Func_impl@U?$_Callable_obj@V<lambda_3b020cec0f1508adac4c896f138918cf>@@$0A@@std@@V?$allocator@V?$_Func_class@X$$$V@std@@@2@X$$$V@std@@@8 ; std::_Func_impl<std::_Callable_obj<<lambda_3b020cec0f1508adac4c896f138918cf>,0>,std::allocator<std::_Func_class<void> >,void>::`RTTI Base Class Descriptor at (0,-1,0,64)'
	DD	01H
	DD	00H
	DD	0ffffffffH
	DD	00H
	DD	040H
	DD	FLAT:??_R3?$_Func_impl@U?$_Callable_obj@V<lambda_3b020cec0f1508adac4c896f138918cf>@@$0A@@std@@V?$allocator@V?$_Func_class@X$$$V@std@@@2@X$$$V@std@@8
rdata$r	ENDS
;	COMDAT ??_R2?$_Func_impl@U?$_Callable_obj@V<lambda_3648d362fc95221bbf9c4c4a922d1611>@@$0A@@std@@V?$allocator@V?$_Func_class@X$$$V@std@@@2@X$$$V@std@@8
rdata$r	SEGMENT
??_R2?$_Func_impl@U?$_Callable_obj@V<lambda_3648d362fc95221bbf9c4c4a922d1611>@@$0A@@std@@V?$allocator@V?$_Func_class@X$$$V@std@@@2@X$$$V@std@@8 DD FLAT:??_R1A@?0A@EA@?$_Func_impl@U?$_Callable_obj@V<lambda_3648d362fc95221bbf9c4c4a922d1611>@@$0A@@std@@V?$allocator@V?$_Func_class@X$$$V@std@@@2@X$$$V@std@@8 ; std::_Func_impl<std::_Callable_obj<<lambda_3648d362fc95221bbf9c4c4a922d1611>,0>,std::allocator<std::_Func_class<void> >,void>::`RTTI Base Class Array'
	DD	FLAT:??_R1A@?0A@EA@?$_Func_base@X$$$V@std@@8
rdata$r	ENDS
;	COMDAT ??_R0?AV<lambda_582637cdd8d6a2f689bc987be9ec55df>@@@8
data$r	SEGMENT
??_R0?AV<lambda_582637cdd8d6a2f689bc987be9ec55df>@@@8 DD FLAT:??_7type_info@@6B@ ; <lambda_582637cdd8d6a2f689bc987be9ec55df> `RTTI Type Descriptor'
	DD	00H
	DB	'.?AV<lambda_582637cdd8d6a2f689bc987be9ec55df>@@', 00H
data$r	ENDS
;	COMDAT ??_R3?$_Func_base@X$$$V@std@@8
rdata$r	SEGMENT
??_R3?$_Func_base@X$$$V@std@@8 DD 00H			; std::_Func_base<void>::`RTTI Class Hierarchy Descriptor'
	DD	00H
	DD	01H
	DD	FLAT:??_R2?$_Func_base@X$$$V@std@@8
rdata$r	ENDS
;	COMDAT ??_R4?$_Func_impl@U?$_Callable_obj@V<lambda_3648d362fc95221bbf9c4c4a922d1611>@@$0A@@std@@V?$allocator@V?$_Func_class@X$$$V@std@@@2@X$$$V@std@@6B@
rdata$r	SEGMENT
??_R4?$_Func_impl@U?$_Callable_obj@V<lambda_3648d362fc95221bbf9c4c4a922d1611>@@$0A@@std@@V?$allocator@V?$_Func_class@X$$$V@std@@@2@X$$$V@std@@6B@ DD 00H ; std::_Func_impl<std::_Callable_obj<<lambda_3648d362fc95221bbf9c4c4a922d1611>,0>,std::allocator<std::_Func_class<void> >,void>::`RTTI Complete Object Locator'
	DD	00H
	DD	00H
	DD	FLAT:??_R0?AV?$_Func_impl@U?$_Callable_obj@V<lambda_3648d362fc95221bbf9c4c4a922d1611>@@$0A@@std@@V?$allocator@V?$_Func_class@X$$$V@std@@@2@X$$$V@std@@@8
	DD	FLAT:??_R3?$_Func_impl@U?$_Callable_obj@V<lambda_3648d362fc95221bbf9c4c4a922d1611>@@$0A@@std@@V?$allocator@V?$_Func_class@X$$$V@std@@@2@X$$$V@std@@8
	ORG $+2
$SG4294795313 DB 'R', 00H, 'e', 00H, 'p', 00H, 'l', 00H, 'a', 00H, 'y', 00H
	DB	'B', 00H, 'u', 00H, 'f', 00H, 'f', 00H, 'e', 00H, 'r', 00H, 'L'
	DB	00H, 'e', 00H, 'n', 00H, 'g', 00H, 't', 00H, 'h', 00H, 00H, 00H
	ORG $+2
$SG4294795312 DB 'P', 00H, 'u', 00H, 'b', 00H, 'l', 00H, 'i', 00H, 's', 00H
	DB	'h', 00H, 00H, 00H
$SG4294795305 DB '%', 00H, '0', 00H, '2', 00H, 'u', 00H, 00H, 00H
	ORG $+2
$SG4294795314 DB 'C', 00H, 'a', 00H, 'p', 00H, 't', 00H, 'u', 00H, 'r', 00H
	DB	'e', 00H, '.', 00H, 'S', 00H, 't', 00H, 'a', 00H, 'r', 00H, 't'
	DB	00H, '.', 00H, 'R', 00H, 'e', 00H, 'p', 00H, 'l', 00H, 'a', 00H
	DB	'y', 00H, 'B', 00H, 'u', 00H, 'f', 00H, 'f', 00H, 'e', 00H, 'r'
	DB	00H, '.', 00H, 'N', 00H, 'o', 00H, 'H', 00H, 'o', 00H, 't', 00H
	DB	'k', 00H, 'e', 00H, 'y', 00H, 00H, 00H
$SG4294795309 DB 'C', 00H, 'a', 00H, 'p', 00H, 't', 00H, 'u', 00H, 'r', 00H
	DB	'e', 00H, '.', 00H, 'S', 00H, 't', 00H, 'a', 00H, 'r', 00H, 't'
	DB	00H, '.', 00H, 'F', 00H, 'i', 00H, 'l', 00H, 'e', 00H, 'S', 00H
	DB	't', 00H, 'r', 00H, 'e', 00H, 'a', 00H, 'm', 00H, '.', 00H, 'S'
	DB	00H, 'a', 00H, 'v', 00H, 'e', 00H, 'R', 00H, 'e', 00H, 'p', 00H
	DB	'l', 00H, 'a', 00H, 'y', 00H, 'B', 00H, 'u', 00H, 'f', 00H, 'f'
	DB	00H, 'e', 00H, 'r', 00H, 'W', 00H, 'a', 00H, 'r', 00H, 'n', 00H
	DB	'i', 00H, 'n', 00H, 'g', 00H, 00H, 00H
	ORG $+2
$SG4294795304 DB '$', 00H, '0', 00H, 'M', 00H, 00H, 00H
$SG4294795302 DB '%', 00H, '0', 00H, '2', 00H, 'u', 00H, 00H, 00H
	ORG $+2
$SG4294795308 DB 'U', 00H, 's', 00H, 'i', 00H, 'n', 00H, 'g', 00H, ' ', 00H
	DB	'R', 00H, 'e', 00H, 'p', 00H, 'l', 00H, 'a', 00H, 'y', 00H, 'B'
	DB	00H, 'u', 00H, 'f', 00H, 'f', 00H, 'e', 00H, 'r', 00H, ' ', 00H
	DB	'w', 00H, 'i', 00H, 't', 00H, 'h', 00H, ' ', 00H, 'a', 00H, ' '
	DB	00H, 'l', 00H, 'e', 00H, 'n', 00H, 'g', 00H, 't', 00H, 'h', 00H
	DB	' ', 00H, 'o', 00H, 'f', 00H, ' ', 00H, '%', 00H, 'd', 00H, ' '
	DB	00H, 's', 00H, 'e', 00H, 'c', 00H, 'o', 00H, 'n', 00H, 'd', 00H
	DB	's', 00H, 00H, 00H
	ORG $+2
$SG4294795311 DB 'I', 00H, 'n', 00H, 'v', 00H, 'a', 00H, 'l', 00H, 'i', 00H
	DB	'd', 00H, ' ', 00H, 'R', 00H, 'e', 00H, 'p', 00H, 'l', 00H, 'a'
	DB	00H, 'y', 00H, 'B', 00H, 'u', 00H, 'f', 00H, 'f', 00H, 'e', 00H
	DB	'r', 00H, ' ', 00H, 'l', 00H, 'e', 00H, 'n', 00H, 'g', 00H, 't'
	DB	00H, 'h', 00H, ' ', 00H, 's', 00H, 'e', 00H, 't', 00H, ':', 00H
	DB	' ', 00H, '%', 00H, 'd', 00H, 00H, 00H
$SG4294795310 DB 'C', 00H, 'a', 00H, 'p', 00H, 't', 00H, 'u', 00H, 'r', 00H
	DB	'e', 00H, '.', 00H, 'S', 00H, 't', 00H, 'a', 00H, 'r', 00H, 't'
	DB	00H, '.', 00H, 'F', 00H, 'i', 00H, 'l', 00H, 'e', 00H, 'S', 00H
	DB	't', 00H, 'r', 00H, 'e', 00H, 'a', 00H, 'm', 00H, '.', 00H, 'W'
	DB	00H, 'a', 00H, 'r', 00H, 'n', 00H, 'i', 00H, 'n', 00H, 'g', 00H
	DB	'C', 00H, 'a', 00H, 'p', 00H, 't', 00H, 'i', 00H, 'o', 00H, 'n'
	DB	00H, 00H, 00H
$SG4294795307 DB '$', 00H, 'Y', 00H, 00H, 00H
	ORG $+2
$SG4294795306 DB '$', 00H, 'M', 00H, 00H, 00H
	ORG $+2
$SG4294795301 DB '$', 00H, '0', 00H, 'D', 00H, 00H, 00H
$SG4294795300 DB '$', 00H, 'h', 00H, 00H, 00H
	ORG $+2
$SG4294795303 DB '$', 00H, 'D', 00H, 00H, 00H
	ORG $+2
$SG4294795297 DB '$', 00H, 'm', 00H, 00H, 00H
	ORG $+2
$SG4294795296 DB '%', 00H, '0', 00H, '2', 00H, 'u', 00H, 00H, 00H
	ORG $+2
$SG4294795299 DB '%', 00H, '0', 00H, '2', 00H, 'u', 00H, 00H, 00H
	ORG $+2
$SG4294795298 DB '$', 00H, '0', 00H, 'h', 00H, 00H, 00H
$SG4294795293 DB '%', 00H, '0', 00H, '2', 00H, 'u', 00H, 00H, 00H
	ORG $+2
$SG4294795292 DB '$', 00H, '0', 00H, 's', 00H, 00H, 00H
$SG4294795295 DB '$', 00H, '0', 00H, 'm', 00H, 00H, 00H
$SG4294795294 DB '$', 00H, 's', 00H, 00H, 00H
	ORG $+2
$SG4294795289 DB '\', 00H, 'R', 00H, 'e', 00H, 'p', 00H, 'l', 00H, 'a', 00H
	DB	'y', 00H, '-', 00H, '$', 00H, 'T', 00H, '.', 00H, 'f', 00H, 'l'
	DB	00H, 'v', 00H, 00H, 00H
	ORG $+2
$SG4294795288 DB '\', 00H, '.', 00H, 'f', 00H, 'l', 00H, 'v', 00H, 00H, 00H
$SG4294795291 DB '%', 00H, 'u', 00H, '-', 00H, '%', 00H, '0', 00H, '2', 00H
	DB	'u', 00H, '-', 00H, '%', 00H, '0', 00H, '2', 00H, 'u', 00H, '-'
	DB	00H, '%', 00H, '0', 00H, '2', 00H, 'u', 00H, '%', 00H, '0', 00H
	DB	'2', 00H, 'u', 00H, '-', 00H, '%', 00H, '0', 00H, '2', 00H, 'u'
	DB	00H, 00H, 00H
	ORG $+2
$SG4294795290 DB '$', 00H, 'T', 00H, 00H, 00H
	ORG $+2
$SG4294795285 DB 'P', 00H, 'u', 00H, 'b', 00H, 'l', 00H, 'i', 00H, 's', 00H
	DB	'h', 00H, 00H, 00H
$SG4294795284 DB '/', 00H, 00H, 00H
$SG4294795287 DB 'R', 00H, 'e', 00H, 'p', 00H, 'l', 00H, 'a', 00H, 'y', 00H
	DB	'B', 00H, 'u', 00H, 'f', 00H, 'f', 00H, 'e', 00H, 'r', 00H, 'S'
	DB	00H, 'a', 00H, 'v', 00H, 'e', 00H, 'P', 00H, 'a', 00H, 't', 00H
	DB	'h', 00H, 00H, 00H
	ORG $+2
$SG4294795286 DB 'S', 00H, 'a', 00H, 'v', 00H, 'e', 00H, 'P', 00H, 'a', 00H
	DB	't', 00H, 'h', 00H, 00H, 00H
	ORG $+2
$SG4294795281 DB 'G', 00H, 'e', 00H, 'n', 00H, 'e', 00H, 'r', 00H, 'a', 00H
	DB	'l', 00H, 00H, 00H
$SG4294795280 DB ' ', 00H, '(', 00H, 00H, 00H
	ORG $+2
$SG4294795283 DB '\', 00H, 00H, 00H
$SG4294795282 DB 'O', 00H, 'v', 00H, 'e', 00H, 'r', 00H, 'w', 00H, 'r', 00H
	DB	'i', 00H, 't', 00H, 'e', 00H, 'R', 00H, 'e', 00H, 'c', 00H, 'o'
	DB	00H, 'r', 00H, 'd', 00H, 'i', 00H, 'n', 00H, 'g', 00H, 's', 00H
	DB	00H, 00H
$SG4294795277 DB 'm', 00H, 'p', 00H, '4', 00H, 00H, 00H
$SG4294795276 DB '%', 00H, 's', 00H, '/', 00H, '%', 00H, 'u', 00H, '-', 00H
	DB	'%', 00H, '0', 00H, '2', 00H, 'u', 00H, '-', 00H, '%', 00H, '0'
	DB	00H, '2', 00H, 'u', 00H, '-', 00H, '%', 00H, '0', 00H, '2', 00H
	DB	'u', 00H, '%', 00H, '0', 00H, '2', 00H, 'u', 00H, '-', 00H, '%'
	DB	00H, '0', 00H, '2', 00H, 'u', 00H, '.', 00H, '%', 00H, 's', 00H
	DB	00H, 00H
	ORG $+2
$SG4294795279 DB '%', 00H, '0', 00H, '2', 00H, 'u', 00H, 00H, 00H
	ORG $+2
$SG4294795278 DB ')', 00H, '.', 00H, 00H, 00H
	ORG $+2
$SG4294795273 DB 'M', 00H, 'o', 00H, 'd', 00H, 'e', 00H, 00H, 00H
	ORG $+2
$SG4294795272 DB 'P', 00H, 'u', 00H, 'b', 00H, 'l', 00H, 'i', 00H, 's', 00H
	DB	'h', 00H, 00H, 00H
$SG4294795275 DB 'f', 00H, 'l', 00H, 'v', 00H, 00H, 00H
$SG4294795274 DB 'm', 00H, 'p', 00H, '4', 00H, 00H, 00H
$SG4294795264 DB 'D', 00H, 'e', 00H, 'l', 00H, 'a', 00H, 'y', 00H, 00H, 00H
$SG4294795269 DB 'W', 00H, 'a', 00H, 'r', 00H, 'n', 00H, 'i', 00H, 'n', 00H
	DB	'g', 00H, ' ', 00H, '-', 00H, ' ', 00H, 'O', 00H, 'B', 00H, 'S'
	DB	00H, 'C', 00H, 'a', 00H, 'p', 00H, 't', 00H, 'u', 00H, 'r', 00H
	DB	'e', 00H, ':', 00H, ':', 00H, 'S', 00H, 't', 00H, 'a', 00H, 'r'
	DB	00H, 't', 00H, ':', 00H, ' ', 00H, 'U', 00H, 'n', 00H, 'a', 00H
	DB	'b', 00H, 'l', 00H, 'e', 00H, ' ', 00H, 't', 00H, 'o', 00H, ' '
	DB	00H, 'c', 00H, 'r', 00H, 'e', 00H, 'a', 00H, 't', 00H, 'e', 00H
	DB	' ', 00H, 't', 00H, 'h', 00H, 'e', 00H, ' ', 00H, 'f', 00H, 'i'
	DB	00H, 'l', 00H, 'e', 00H, ' ', 00H, 's', 00H, 't', 00H, 'r', 00H
	DB	'e', 00H, 'a', 00H, 'm', 00H, '.', 00H, ' ', 00H, 'C', 00H, 'h'
	DB	00H, 'e', 00H, 'c', 00H, 'k', 00H, ' ', 00H, 't', 00H, 'h', 00H
	DB	'e', 00H, ' ', 00H, 'f', 00H, 'i', 00H, 'l', 00H, 'e', 00H, ' '
	DB	00H, 'p', 00H, 'a', 00H, 't', 00H, 'h', 00H, ' ', 00H, 'i', 00H
	DB	'n', 00H, ' ', 00H, 'B', 00H, 'r', 00H, 'o', 00H, 'a', 00H, 'd'
	DB	00H, 'c', 00H, 'a', 00H, 's', 00H, 't', 00H, ' ', 00H, 'S', 00H
	DB	'e', 00H, 't', 00H, 't', 00H, 'i', 00H, 'n', 00H, 'g', 00H, 's'
	DB	00H, '.', 00H, 00H, 00H
$SG4294795266 DB 'M', 00H, 'o', 00H, 'd', 00H, 'e', 00H, 00H, 00H
	ORG $+2
$SG4294795268 DB 'C', 00H, 'a', 00H, 'p', 00H, 't', 00H, 'u', 00H, 'r', 00H
	DB	'e', 00H, '.', 00H, 'S', 00H, 't', 00H, 'a', 00H, 'r', 00H, 't'
	DB	00H, '.', 00H, 'F', 00H, 'i', 00H, 'l', 00H, 'e', 00H, 'S', 00H
	DB	't', 00H, 'r', 00H, 'e', 00H, 'a', 00H, 'm', 00H, '.', 00H, 'W'
	DB	00H, 'a', 00H, 'r', 00H, 'n', 00H, 'i', 00H, 'n', 00H, 'g', 00H
	DB	'C', 00H, 'a', 00H, 'p', 00H, 't', 00H, 'i', 00H, 'o', 00H, 'n'
	DB	00H, 00H, 00H
$SG4294795271 DB 'S', 00H, 'a', 00H, 'v', 00H, 'e', 00H, 'T', 00H, 'o', 00H
	DB	'F', 00H, 'i', 00H, 'l', 00H, 'e', 00H, 00H, 00H
	ORG $+2
$SG4294795270 DB 'P', 00H, 'u', 00H, 'b', 00H, 'l', 00H, 'i', 00H, 's', 00H
	DB	'h', 00H, 00H, 00H
$SG4294795265 DB 'P', 00H, 'u', 00H, 'b', 00H, 'l', 00H, 'i', 00H, 's', 00H
	DB	'h', 00H, 00H, 00H
$SG4294795267 DB 'C', 00H, 'a', 00H, 'p', 00H, 't', 00H, 'u', 00H, 'r', 00H
	DB	'e', 00H, '.', 00H, 'S', 00H, 't', 00H, 'a', 00H, 'r', 00H, 't'
	DB	00H, '.', 00H, 'F', 00H, 'i', 00H, 'l', 00H, 'e', 00H, 'S', 00H
	DB	't', 00H, 'r', 00H, 'e', 00H, 'a', 00H, 'm', 00H, '.', 00H, 'W'
	DB	00H, 'a', 00H, 'r', 00H, 'n', 00H, 'i', 00H, 'n', 00H, 'g', 00H
	DB	00H, 00H
	ORG $+2
$SG4294795261 DB '\scenes.xconfig', 00H
$SG4294795260 DB 'F', 00H, 'P', 00H, 'S', 00H, 00H, 00H
$SG4294795263 DB 'P', 00H, 'u', 00H, 'b', 00H, 'l', 00H, 'i', 00H, 's', 00H
	DB	'h', 00H, 00H, 00H
$SG4294795259 DB 'V', 00H, 'i', 00H, 'd', 00H, 'e', 00H, 'o', 00H, 00H, 00H
$SG4294795262 DB '=', 00H, '=', 00H, '=', 00H, '=', 00H, '=', 00H, 'S', 00H
	DB	't', 00H, 'r', 00H, 'e', 00H, 'a', 00H, 'm', 00H, ' ', 00H, 'S'
	DB	00H, 't', 00H, 'a', 00H, 'r', 00H, 't', 00H, ' ', 00H, '(', 00H
	DB	'w', 00H, 'h', 00H, 'i', 00H, 'l', 00H, 'e', 00H, ' ', 00H, 'r'
	DB	00H, 'e', 00H, 'c', 00H, 'o', 00H, 'r', 00H, 'd', 00H, 'i', 00H
	DB	'n', 00H, 'g', 00H, ')', 00H, ':', 00H, ' ', 00H, '%', 00H, 's'
	DB	00H, '=', 00H, '=', 00H, '=', 00H, '=', 00H, '=', 00H, '=', 00H
	DB	'=', 00H, '=', 00H, '=', 00H, '=', 00H, '=', 00H, '=', 00H, '='
	DB	00H, '=', 00H, '=', 00H, '=', 00H, '=', 00H, '=', 00H, '=', 00H
	DB	'=', 00H, '=', 00H, '=', 00H, '=', 00H, '=', 00H, '=', 00H, '='
	DB	00H, '=', 00H, '=', 00H, '=', 00H, 00H, 00H
	ORG $+2
$SG4294795257 DB 'I', 00H, 'n', 00H, 'c', 00H, 'o', 00H, 'm', 00H, 'p', 00H
	DB	'a', 00H, 't', 00H, 'i', 00H, 'b', 00H, 'l', 00H, 'e', 00H, 'M'
	DB	00H, 'o', 00H, 'd', 00H, 'u', 00H, 'l', 00H, 'e', 00H, 's', 00H
	DB	00H, 00H
$SG4294795256 DB 'I', 00H, 'n', 00H, 'c', 00H, 'o', 00H, 'm', 00H, 'p', 00H
	DB	'a', 00H, 't', 00H, 'i', 00H, 'b', 00H, 'l', 00H, 'e', 00H, ' '
	DB	00H, 'p', 00H, 'a', 00H, 't', 00H, 'c', 00H, 'h', 00H, 'e', 00H
	DB	's', 00H, ' ', 00H, 'd', 00H, 'e', 00H, 't', 00H, 'e', 00H, 'c'
	DB	00H, 't', 00H, 'e', 00H, 'd', 00H, '.', 00H, 00H, 00H
	ORG $+2
$SG4294795254 DB 's', 00H, 'o', 00H, 'u', 00H, 'r', 00H, 'c', 00H, 'e', 00H
	DB	's', 00H, 00H, 00H
$SG4294795249 DB 'I', 00H, 'd', 00H, 'l', 00H, 'e', 00H, 00H, 00H
	ORG $+2
$SG4294795258 DB 'I', 00H, 'n', 00H, 'c', 00H, 'o', 00H, 'm', 00H, 'p', 00H
	DB	'a', 00H, 't', 00H, 'i', 00H, 'b', 00H, 'l', 00H, 'e', 00H, ' '
	DB	00H, 'm', 00H, 'o', 00H, 'd', 00H, 'u', 00H, 'l', 00H, 'e', 00H
	DB	's', 00H, ' ', 00H, '(', 00H, 'p', 00H, 'r', 00H, 'e', 00H, '-'
	DB	00H, 'D', 00H, '3', 00H, 'D', 00H, ')', 00H, ' ', 00H, 'd', 00H
	DB	'e', 00H, 't', 00H, 'e', 00H, 'c', 00H, 't', 00H, 'e', 00H, 'd'
	DB	00H, '.', 00H, 00H, 00H
	ORG $+2
$SG4294795253 DB 'N', 00H, 'o', 00H, 'S', 00H, 'o', 00H, 'u', 00H, 'r', 00H
	DB	'c', 00H, 'e', 00H, 's', 00H, 'F', 00H, 'o', 00H, 'u', 00H, 'n'
	DB	00H, 'd', 00H, 00H, 00H
	ORG $+2
$SG4294795252 DB 'N', 00H, 'o', 00H, 'r', 00H, 'm', 00H, 'a', 00H, 'l', 00H
	DB	00H, 00H
	ORG $+2
$SG4294795255 DB 's', 00H, 'c', 00H, 'e', 00H, 'n', 00H, 'e', 00H, 's', 00H
	DB	00H, 00H
	ORG $+2
$SG4294795248 DB 'A', 00H, 'b', 00H, 'o', 00H, 'v', 00H, 'e', 00H, ' ', 00H
	DB	'N', 00H, 'o', 00H, 'r', 00H, 'm', 00H, 'a', 00H, 'l', 00H, 00H
	DB	00H
	ORG $+2
$SG4294795251 DB 'P', 00H, 'r', 00H, 'i', 00H, 'o', 00H, 'r', 00H, 'i', 00H
	DB	't', 00H, 'y', 00H, 00H, 00H
	ORG $+2
$SG4294795250 DB 'G', 00H, 'e', 00H, 'n', 00H, 'e', 00H, 'r', 00H, 'a', 00H
	DB	'l', 00H, 00H, 00H
$SG4294795245 DB 'P', 00H, 'u', 00H, 'b', 00H, 'l', 00H, 'i', 00H, 's', 00H
	DB	'h', 00H, 00H, 00H
$SG4294795244 DB 'D', 00H, 'e', 00H, 'l', 00H, 'a', 00H, 'y', 00H, 00H, 00H
$SG4294795247 DB 'H', 00H, 'i', 00H, 'g', 00H, 'h', 00H, 00H, 00H
	ORG $+2
$SG4294795246 DB 'M', 00H, 'o', 00H, 'd', 00H, 'e', 00H, 00H, 00H
	ORG $+2
$SG4294795241 DB 'E', 00H, 'n', 00H, 'a', 00H, 'b', 00H, 'l', 00H, 'e', 00H
	DB	'P', 00H, 'r', 00H, 'o', 00H, 'j', 00H, 'e', 00H, 'c', 00H, 't'
	DB	00H, 'o', 00H, 'r', 00H, 'C', 00H, 'u', 00H, 'r', 00H, 's', 00H
	DB	'o', 00H, 'r', 00H, 00H, 00H
$SG4294795240 DB 'G', 00H, 'e', 00H, 'n', 00H, 'e', 00H, 'r', 00H, 'a', 00H
	DB	'l', 00H, 00H, 00H
$SG4294795243 DB 'P', 00H, 'u', 00H, 'b', 00H, 'l', 00H, 'i', 00H, 's', 00H
	DB	'h', 00H, 00H, 00H
$SG4294795236 DB 'V', 00H, 'i', 00H, 'd', 00H, 'e', 00H, 'o', 00H, 00H, 00H
$SG4294795242 DB '=', 00H, '=', 00H, '=', 00H, '=', 00H, '=', 00H, 'S', 00H
	DB	't', 00H, 'r', 00H, 'e', 00H, 'a', 00H, 'm', 00H, ' ', 00H, 'S'
	DB	00H, 't', 00H, 'a', 00H, 'r', 00H, 't', 00H, ':', 00H, ' ', 00H
	DB	'%', 00H, 's', 00H, '=', 00H, '=', 00H, '=', 00H, '=', 00H, '='
	DB	00H, '=', 00H, '=', 00H, '=', 00H, '=', 00H, '=', 00H, '=', 00H
	DB	'=', 00H, '=', 00H, '=', 00H, '=', 00H, '=', 00H, '=', 00H, '='
	DB	00H, '=', 00H, '=', 00H, '=', 00H, '=', 00H, '=', 00H, '=', 00H
	DB	'=', 00H, '=', 00H, '=', 00H, '=', 00H, '=', 00H, '=', 00H, '='
	DB	00H, '=', 00H, '=', 00H, '=', 00H, '=', 00H, '=', 00H, '=', 00H
	DB	'=', 00H, '=', 00H, '=', 00H, '=', 00H, '=', 00H, '=', 00H, '='
	DB	00H, '=', 00H, '=', 00H, '=', 00H, 00H, 00H
	ORG $+2
$SG4294795237 DB 'F', 00H, 'i', 00H, 'l', 00H, 't', 00H, 'e', 00H, 'r', 00H
	DB	00H, 00H
	ORG $+2
$SG4294795239 DB 'M', 00H, 'o', 00H, 'n', 00H, 'i', 00H, 't', 00H, 'o', 00H
	DB	'r', 00H, 00H, 00H
$SG4294795238 DB 'V', 00H, 'i', 00H, 'd', 00H, 'e', 00H, 'o', 00H, 00H, 00H
$SG4294795233 DB 'B', 00H, 'a', 00H, 's', 00H, 'e', 00H, 'W', 00H, 'i', 00H
	DB	'd', 00H, 't', 00H, 'h', 00H, 00H, 00H
$SG4294795232 DB 'V', 00H, 'i', 00H, 'd', 00H, 'e', 00H, 'o', 00H, 00H, 00H
$SG4294795235 DB 'D', 00H, 'o', 00H, 'w', 00H, 'n', 00H, 's', 00H, 'c', 00H
	DB	'a', 00H, 'l', 00H, 'e', 00H, 00H, 00H
$SG4294795234 DB 'V', 00H, 'i', 00H, 'd', 00H, 'e', 00H, 'o', 00H, 00H, 00H
$SG4294795229 DB 'U', 00H, 's', 00H, 'e', 00H, 'M', 00H, 'u', 00H, 'l', 00H
	DB	't', 00H, 'i', 00H, 't', 00H, 'h', 00H, 'r', 00H, 'e', 00H, 'a'
	DB	00H, 'd', 00H, 'e', 00H, 'd', 00H, 'O', 00H, 'p', 00H, 't', 00H
	DB	'i', 00H, 'm', 00H, 'i', 00H, 'z', 00H, 'a', 00H, 't', 00H, 'i'
	DB	00H, 'o', 00H, 'n', 00H, 's', 00H, 00H, 00H
$SG4294795228 DB 'G', 00H, 'e', 00H, 'n', 00H, 'e', 00H, 'r', 00H, 'a', 00H
	DB	'l', 00H, 00H, 00H
$SG4294795231 DB 'B', 00H, 'a', 00H, 's', 00H, 'e', 00H, 'H', 00H, 'e', 00H
	DB	'i', 00H, 'g', 00H, 'h', 00H, 't', 00H, 00H, 00H
	ORG $+2
$SG4294795230 DB 'V', 00H, 'i', 00H, 'd', 00H, 'e', 00H, 'o', 00H, 00H, 00H
$SG4294795225 DB ' ', 00H, ' ', 00H, 'M', 00H, 'u', 00H, 'l', 00H, 't', 00H
	DB	'i', 00H, 't', 00H, 'h', 00H, 'r', 00H, 'e', 00H, 'a', 00H, 'd'
	DB	00H, 'e', 00H, 'd', 00H, ' ', 00H, 'o', 00H, 'p', 00H, 't', 00H
	DB	'i', 00H, 'm', 00H, 'i', 00H, 'z', 00H, 'a', 00H, 't', 00H, 'i'
	DB	00H, 'o', 00H, 'n', 00H, 's', 00H, ':', 00H, ' ', 00H, '%', 00H
	DB	's', 00H, 00H, 00H
$SG4294795224 DB 'E', 00H, 'n', 00H, 'c', 00H, 'o', 00H, 'd', 00H, 'e', 00H
	DB	'r', 00H, 'S', 00H, 'k', 00H, 'i', 00H, 'p', 00H, 'T', 00H, 'h'
	DB	00H, 'r', 00H, 'e', 00H, 's', 00H, 'h', 00H, 'o', 00H, 'l', 00H
	DB	'd', 00H, 00H, 00H
	ORG $+2
$SG4294795227 DB 'O', 00H, 'n', 00H, 00H, 00H
	ORG $+2
$SG4294795226 DB 'O', 00H, 'f', 00H, 'f', 00H, 00H, 00H
$SG4294795221 DB ' ', 00H, ' ', 00H, 'O', 00H, 'u', 00H, 't', 00H, 'p', 00H
	DB	'u', 00H, 't', 00H, ' ', 00H, 'r', 00H, 'e', 00H, 's', 00H, 'o'
	DB	00H, 'l', 00H, 'u', 00H, 't', 00H, 'i', 00H, 'o', 00H, 'n', 00H
	DB	':', 00H, ' ', 00H, '%', 00H, 'u', 00H, 'x', 00H, '%', 00H, 'u'
	DB	00H, 00H, 00H
	ORG $+2
$SG4294795220 DB '-', 00H, '-', 00H, '-', 00H, '-', 00H, '-', 00H, '-', 00H
	DB	'-', 00H, '-', 00H, '-', 00H, '-', 00H, '-', 00H, '-', 00H, '-'
	DB	00H, '-', 00H, '-', 00H, '-', 00H, '-', 00H, '-', 00H, '-', 00H
	DB	'-', 00H, '-', 00H, '-', 00H, '-', 00H, '-', 00H, '-', 00H, '-'
	DB	00H, '-', 00H, '-', 00H, '-', 00H, '-', 00H, '-', 00H, '-', 00H
	DB	'-', 00H, '-', 00H, '-', 00H, '-', 00H, '-', 00H, '-', 00H, '-'
	DB	00H, '-', 00H, '-', 00H, '-', 00H, 00H, 00H
	ORG $+2
$SG4294795223 DB 'V', 00H, 'i', 00H, 'd', 00H, 'e', 00H, 'o', 00H, 00H, 00H
$SG4294795222 DB ' ', 00H, ' ', 00H, 'B', 00H, 'a', 00H, 's', 00H, 'e', 00H
	DB	' ', 00H, 'r', 00H, 'e', 00H, 's', 00H, 'o', 00H, 'l', 00H, 'u'
	DB	00H, 't', 00H, 'i', 00H, 'o', 00H, 'n', 00H, ':', 00H, ' ', 00H
	DB	'%', 00H, 'u', 00H, 'x', 00H, '%', 00H, 'u', 00H, 00H, 00H
	ORG $+2
$SG4294795217 DB 's', 00H, 'h', 00H, 'a', 00H, 'd', 00H, 'e', 00H, 'r', 00H
	DB	's', 00H, '/', 00H, 'D', 00H, 'r', 00H, 'a', 00H, 'w', 00H, 'T'
	DB	00H, 'e', 00H, 'x', 00H, 't', 00H, 'u', 00H, 'r', 00H, 'e', 00H
	DB	'.', 00H, 'v', 00H, 'S', 00H, 'h', 00H, 'a', 00H, 'd', 00H, 'e'
	DB	00H, 'r', 00H, 00H, 00H
$SG4294795216 DB 's', 00H, 'h', 00H, 'a', 00H, 'd', 00H, 'e', 00H, 'r', 00H
	DB	's', 00H, '/', 00H, 'D', 00H, 'r', 00H, 'a', 00H, 'w', 00H, 'T'
	DB	00H, 'e', 00H, 'x', 00H, 't', 00H, 'u', 00H, 'r', 00H, 'e', 00H
	DB	'.', 00H, 'p', 00H, 'S', 00H, 'h', 00H, 'a', 00H, 'd', 00H, 'e'
	DB	00H, 'r', 00H, 00H, 00H
$SG4294795219 DB 'I', 00H, 'n', 00H, 'c', 00H, 'o', 00H, 'm', 00H, 'p', 00H
	DB	'a', 00H, 't', 00H, 'i', 00H, 'b', 00H, 'l', 00H, 'e', 00H, ' '
	DB	00H, 'm', 00H, 'o', 00H, 'd', 00H, 'u', 00H, 'l', 00H, 'e', 00H
	DB	's', 00H, ' ', 00H, '(', 00H, 'p', 00H, 'o', 00H, 's', 00H, 't'
	DB	00H, '-', 00H, 'D', 00H, '3', 00H, 'D', 00H, ')', 00H, ' ', 00H
	DB	'd', 00H, 'e', 00H, 't', 00H, 'e', 00H, 'c', 00H, 't', 00H, 'e'
	DB	00H, 'd', 00H, '.', 00H, 00H, 00H
$SG4294795218 DB 'I', 00H, 'n', 00H, 'c', 00H, 'o', 00H, 'm', 00H, 'p', 00H
	DB	'a', 00H, 't', 00H, 'i', 00H, 'b', 00H, 'l', 00H, 'e', 00H, 'M'
	DB	00H, 'o', 00H, 'd', 00H, 'u', 00H, 'l', 00H, 'e', 00H, 's', 00H
	DB	00H, 00H
$SG4294795215 DB 's', 00H, 'h', 00H, 'a', 00H, 'd', 00H, 'e', 00H, 'r', 00H
	DB	's', 00H, '/', 00H, 'D', 00H, 'r', 00H, 'a', 00H, 'w', 00H, 'S'
	DB	00H, 'o', 00H, 'l', 00H, 'i', 00H, 'd', 00H, '.', 00H, 'v', 00H
	DB	'S', 00H, 'h', 00H, 'a', 00H, 'd', 00H, 'e', 00H, 'r', 00H, 00H
	DB	00H
$SG4294795213 DB 's', 00H, 'h', 00H, 'a', 00H, 'd', 00H, 'e', 00H, 'r', 00H
	DB	's', 00H, '/', 00H, 'S', 00H, 'c', 00H, 'e', 00H, 'n', 00H, 'e'
	DB	00H, 'T', 00H, 'r', 00H, 'a', 00H, 'n', 00H, 's', 00H, 'i', 00H
	DB	't', 00H, 'i', 00H, 'o', 00H, 'n', 00H, '.', 00H, 'p', 00H, 'S'
	DB	00H, 'h', 00H, 'a', 00H, 'd', 00H, 'e', 00H, 'r', 00H, 00H, 00H
$SG4294795212 DB 'U', 00H, 'n', 00H, 'a', 00H, 'b', 00H, 'l', 00H, 'e', 00H
	DB	' ', 00H, 't', 00H, 'o', 00H, ' ', 00H, 'l', 00H, 'o', 00H, 'a'
	DB	00H, 'd', 00H, ' ', 00H, 'D', 00H, 'r', 00H, 'a', 00H, 'w', 00H
	DB	'T', 00H, 'e', 00H, 'x', 00H, 't', 00H, 'u', 00H, 'r', 00H, 'e'
	DB	00H, ' ', 00H, 's', 00H, 'h', 00H, 'a', 00H, 'd', 00H, 'e', 00H
	DB	'r', 00H, 's', 00H, 00H, 00H
	ORG $+2
$SG4294795214 DB 's', 00H, 'h', 00H, 'a', 00H, 'd', 00H, 'e', 00H, 'r', 00H
	DB	's', 00H, '/', 00H, 'D', 00H, 'r', 00H, 'a', 00H, 'w', 00H, 'S'
	DB	00H, 'o', 00H, 'l', 00H, 'i', 00H, 'd', 00H, '.', 00H, 'p', 00H
	DB	'S', 00H, 'h', 00H, 'a', 00H, 'd', 00H, 'e', 00H, 'r', 00H, 00H
	DB	00H
$SG4294795209 DB 's', 00H, 'h', 00H, 'a', 00H, 'd', 00H, 'e', 00H, 'r', 00H
	DB	's', 00H, '/', 00H, 'D', 00H, 'r', 00H, 'a', 00H, 'w', 00H, 'Y'
	DB	00H, 'U', 00H, 'V', 00H, 'T', 00H, 'e', 00H, 'x', 00H, 't', 00H
	DB	'u', 00H, 'r', 00H, 'e', 00H, '.', 00H, 'p', 00H, 'S', 00H, 'h'
	DB	00H, 'a', 00H, 'd', 00H, 'e', 00H, 'r', 00H, 00H, 00H
	ORG $+2
$SG4294795201 DB 'A', 00H, 'A', 00H, 'C', 00H, 00H, 00H
$SG4294795200 DB 'C', 00H, 'o', 00H, 'd', 00H, 'e', 00H, 'c', 00H, 00H, 00H
$SG4294795208 DB 's', 00H, 'h', 00H, 'a', 00H, 'd', 00H, 'e', 00H, 'r', 00H
	DB	's', 00H, '/', 00H, 'D', 00H, 'o', 00H, 'w', 00H, 'n', 00H, 's'
	DB	00H, 'c', 00H, 'a', 00H, 'l', 00H, 'e', 00H, 'B', 00H, 'i', 00H
	DB	'l', 00H, 'i', 00H, 'n', 00H, 'e', 00H, 'a', 00H, 'r', 00H, '1'
	DB	00H, 'Y', 00H, 'U', 00H, 'V', 00H, '.', 00H, 'p', 00H, 'S', 00H
	DB	'h', 00H, 'a', 00H, 'd', 00H, 'e', 00H, 'r', 00H, 00H, 00H
$SG4294795202 DB 'U', 00H, 'n', 00H, 'a', 00H, 'b', 00H, 'l', 00H, 'e', 00H
	DB	' ', 00H, 't', 00H, 'o', 00H, ' ', 00H, 'c', 00H, 'r', 00H, 'e'
	DB	00H, 'a', 00H, 't', 00H, 'e', 00H, ' ', 00H, 'c', 00H, 'o', 00H
	DB	'p', 00H, 'y', 00H, ' ', 00H, 't', 00H, 'e', 00H, 'x', 00H, 't'
	DB	00H, 'u', 00H, 'r', 00H, 'e', 00H, 00H, 00H
$SG4294795211 DB 'U', 00H, 'n', 00H, 'a', 00H, 'b', 00H, 'l', 00H, 'e', 00H
	DB	' ', 00H, 't', 00H, 'o', 00H, ' ', 00H, 'l', 00H, 'o', 00H, 'a'
	DB	00H, 'd', 00H, ' ', 00H, 'D', 00H, 'r', 00H, 'a', 00H, 'w', 00H
	DB	'S', 00H, 'o', 00H, 'l', 00H, 'i', 00H, 'd', 00H, ' ', 00H, 's'
	DB	00H, 'h', 00H, 'a', 00H, 'd', 00H, 'e', 00H, 'r', 00H, 's', 00H
	DB	00H, 00H
	ORG $+2
$SG4294795198 DB 'A', 00H, 'A', 00H, 'C', 00H, 00H, 00H
$SG4294795193 DB 'i', 00H, 's', 00H, 'S', 00H, 't', 00H, 'e', 00H, 'r', 00H
	DB	'e', 00H, 'o', 00H, 00H, 00H
	ORG $+2
$SG4294795210 DB 'U', 00H, 'n', 00H, 'a', 00H, 'b', 00H, 'l', 00H, 'e', 00H
	DB	' ', 00H, 't', 00H, 'o', 00H, ' ', 00H, 'l', 00H, 'o', 00H, 'a'
	DB	00H, 'd', 00H, ' ', 00H, 'S', 00H, 'c', 00H, 'e', 00H, 'n', 00H
	DB	'e', 00H, 'T', 00H, 'r', 00H, 'a', 00H, 'n', 00H, 's', 00H, 'i'
	DB	00H, 't', 00H, 'i', 00H, 'o', 00H, 'n', 00H, ' ', 00H, 's', 00H
	DB	'h', 00H, 'a', 00H, 'd', 00H, 'e', 00H, 'r', 00H, 00H, 00H
$SG4294795188 DB 'A', 00H, 'u', 00H, 'd', 00H, 'i', 00H, 'o', 00H, 00H, 00H
$SG4294795205 DB 's', 00H, 'h', 00H, 'a', 00H, 'd', 00H, 'e', 00H, 'r', 00H
	DB	's', 00H, '/', 00H, 'D', 00H, 'o', 00H, 'w', 00H, 'n', 00H, 's'
	DB	00H, 'c', 00H, 'a', 00H, 'l', 00H, 'e', 00H, 'B', 00H, 'i', 00H
	DB	'l', 00H, 'i', 00H, 'n', 00H, 'e', 00H, 'a', 00H, 'r', 00H, '9'
	DB	00H, 'Y', 00H, 'U', 00H, 'V', 00H, '.', 00H, 'p', 00H, 'S', 00H
	DB	'h', 00H, 'a', 00H, 'd', 00H, 'e', 00H, 'r', 00H, 00H, 00H
$SG4294795190 DB 'A', 00H, 'u', 00H, 'd', 00H, 'i', 00H, 'o', 00H, ' ', 00H
	DB	'C', 00H, 'h', 00H, 'a', 00H, 'n', 00H, 'n', 00H, 'e', 00H, 'l'
	DB	00H, 's', 00H, ':', 00H, ' ', 00H, '%', 00H, 'u', 00H, ' ', 00H
	DB	'C', 00H, 'h', 00H, 00H, 00H
$SG4294795204 DB 'I', 00H, 'n', 00H, 'v', 00H, 'a', 00H, 'l', 00H, 'i', 00H
	DB	'd', 00H, ' ', 00H, 'd', 00H, 'o', 00H, 'w', 00H, 'n', 00H, 's'
	DB	00H, 'c', 00H, 'a', 00H, 'l', 00H, 'e', 00H, ' ', 00H, 'v', 00H
	DB	'a', 00H, 'l', 00H, 'u', 00H, 'e', 00H, ' ', 00H, '(', 00H, 'm'
	DB	00H, 'u', 00H, 's', 00H, 't', 00H, ' ', 00H, 'b', 00H, 'e', 00H
	DB	' ', 00H, 'e', 00H, 'i', 00H, 't', 00H, 'h', 00H, 'e', 00H, 'r'
	DB	00H, ' ', 00H, '1', 00H, '.', 00H, '0', 00H, ',', 00H, ' ', 00H
	DB	'1', 00H, '.', 00H, '5', 00H, ',', 00H, ' ', 00H, '2', 00H, '.'
	DB	00H, '0', 00H, ',', 00H, ' ', 00H, '2', 00H, '.', 00H, '2', 00H
	DB	'5', 00H, ',', 00H, ' ', 00H, 'o', 00H, 'r', 00H, ' ', 00H, '3'
	DB	00H, '.', 00H, '0', 00H, ')', 00H, 00H, 00H
	ORG $+2
$SG4294795194 DB 'A', 00H, 'u', 00H, 'd', 00H, 'i', 00H, 'o', 00H, ' ', 00H
	DB	'F', 00H, 'o', 00H, 'r', 00H, 'm', 00H, 'a', 00H, 't', 00H, ':'
	DB	00H, ' ', 00H, '%', 00H, 'u', 00H, ' ', 00H, 'H', 00H, 'z', 00H
	DB	00H, 00H
$SG4294795185 DB 'A', 00H, 'u', 00H, 'd', 00H, 'i', 00H, 'o', 00H, 00H, 00H
$SG4294795207 DB 's', 00H, 'h', 00H, 'a', 00H, 'd', 00H, 'e', 00H, 'r', 00H
	DB	's', 00H, '/', 00H, 'D', 00H, 'o', 00H, 'w', 00H, 'n', 00H, 's'
	DB	00H, 'c', 00H, 'a', 00H, 'l', 00H, 'e', 00H, 'B', 00H, 'i', 00H
	DB	'c', 00H, 'u', 00H, 'b', 00H, 'i', 00H, 'c', 00H, 'Y', 00H, 'U'
	DB	00H, 'V', 00H, '.', 00H, 'p', 00H, 'S', 00H, 'h', 00H, 'a', 00H
	DB	'd', 00H, 'e', 00H, 'r', 00H, 00H, 00H
$SG4294795206 DB 's', 00H, 'h', 00H, 'a', 00H, 'd', 00H, 'e', 00H, 'r', 00H
	DB	's', 00H, '/', 00H, 'D', 00H, 'o', 00H, 'w', 00H, 'n', 00H, 's'
	DB	00H, 'c', 00H, 'a', 00H, 'l', 00H, 'e', 00H, 'L', 00H, 'a', 00H
	DB	'n', 00H, 'c', 00H, 'z', 00H, 'o', 00H, 's', 00H, '6', 00H, 't'
	DB	00H, 'a', 00H, 'p', 00H, 'Y', 00H, 'U', 00H, 'V', 00H, '.', 00H
	DB	'p', 00H, 'S', 00H, 'h', 00H, 'a', 00H, 'd', 00H, 'e', 00H, 'r'
	DB	00H, 00H, 00H
$SG4294795203 DB 'U', 00H, 'n', 00H, 'a', 00H, 'b', 00H, 'l', 00H, 'e', 00H
	DB	' ', 00H, 't', 00H, 'o', 00H, ' ', 00H, 'c', 00H, 'r', 00H, 'e'
	DB	00H, 'a', 00H, 't', 00H, 'e', 00H, ' ', 00H, 's', 00H, 'h', 00H
	DB	'a', 00H, 'd', 00H, 'e', 00H, 'r', 00H, ' ', 00H, 'f', 00H, 'r'
	DB	00H, 'o', 00H, 'm', 00H, ' ', 00H, 'f', 00H, 'i', 00H, 'l', 00H
	DB	'e', 00H, ' ', 00H, '%', 00H, 's', 00H, 00H, 00H
	ORG $+2
$SG4294795197 DB 'F', 00H, 'o', 00H, 'r', 00H, 'm', 00H, 'a', 00H, 't', 00H
	DB	00H, 00H
	ORG $+2
$SG4294795196 DB 'A', 00H, 'u', 00H, 'd', 00H, 'i', 00H, 'o', 00H, ' ', 00H
	DB	'E', 00H, 'n', 00H, 'c', 00H, 'o', 00H, 'd', 00H, 'i', 00H, 'n'
	DB	00H, 'g', 00H, 00H, 00H
	ORG $+2
$SG4294795199 DB 'A', 00H, 'u', 00H, 'd', 00H, 'i', 00H, 'o', 00H, ' ', 00H
	DB	'E', 00H, 'n', 00H, 'c', 00H, 'o', 00H, 'd', 00H, 'i', 00H, 'n'
	DB	00H, 'g', 00H, 00H, 00H
	ORG $+2
$SG4294795192 DB 'A', 00H, 'u', 00H, 'd', 00H, 'i', 00H, 'o', 00H, ' ', 00H
	DB	'E', 00H, 'n', 00H, 'c', 00H, 'o', 00H, 'd', 00H, 'i', 00H, 'n'
	DB	00H, 'g', 00H, 00H, 00H
	ORG $+2
$SG4294795189 DB 'I', 00H, 'n', 00H, 'p', 00H, 'u', 00H, 't', 00H, 'D', 00H
	DB	'e', 00H, 'v', 00H, 'i', 00H, 'c', 00H, 'e', 00H, 's', 00H, 'F'
	DB	00H, 'o', 00H, 'r', 00H, 'D', 00H, 'e', 00H, 's', 00H, 'k', 00H
	DB	't', 00H, 'o', 00H, 'p', 00H, 'S', 00H, 'o', 00H, 'u', 00H, 'n'
	DB	00H, 'd', 00H, 00H, 00H
$SG4294795179 DB 'A', 00H, 'u', 00H, 'd', 00H, 'i', 00H, 'o', 00H, 00H, 00H
$SG4294795195 DB '-', 00H, '-', 00H, '-', 00H, '-', 00H, '-', 00H, '-', 00H
	DB	'-', 00H, '-', 00H, '-', 00H, '-', 00H, '-', 00H, '-', 00H, '-'
	DB	00H, '-', 00H, '-', 00H, '-', 00H, '-', 00H, '-', 00H, '-', 00H
	DB	'-', 00H, '-', 00H, '-', 00H, '-', 00H, '-', 00H, '-', 00H, '-'
	DB	00H, '-', 00H, '-', 00H, '-', 00H, '-', 00H, '-', 00H, '-', 00H
	DB	'-', 00H, '-', 00H, '-', 00H, '-', 00H, '-', 00H, '-', 00H, '-'
	DB	00H, '-', 00H, '-', 00H, '-', 00H, 00H, 00H
	ORG $+2
$SG4294795191 DB '-', 00H, '-', 00H, '-', 00H, '-', 00H, '-', 00H, '-', 00H
	DB	'-', 00H, '-', 00H, '-', 00H, '-', 00H, '-', 00H, '-', 00H, '-'
	DB	00H, '-', 00H, '-', 00H, '-', 00H, '-', 00H, '-', 00H, '-', 00H
	DB	'-', 00H, '-', 00H, '-', 00H, '-', 00H, '-', 00H, '-', 00H, '-'
	DB	00H, '-', 00H, '-', 00H, '-', 00H, '-', 00H, '-', 00H, '-', 00H
	DB	'-', 00H, '-', 00H, '-', 00H, '-', 00H, '-', 00H, '-', 00H, '-'
	DB	00H, '-', 00H, '-', 00H, '-', 00H, 00H, 00H
	ORG $+2
$SG4294795184 DB 'D', 00H, 'e', 00H, 'f', 00H, 'a', 00H, 'u', 00H, 'l', 00H
	DB	't', 00H, 00H, 00H
$SG4294795187 DB 'D', 00H, 'e', 00H, 'f', 00H, 'a', 00H, 'u', 00H, 'l', 00H
	DB	't', 00H, 00H, 00H
$SG4294795186 DB 'P', 00H, 'l', 00H, 'a', 00H, 'y', 00H, 'b', 00H, 'a', 00H
	DB	'c', 00H, 'k', 00H, 'D', 00H, 'e', 00H, 'v', 00H, 'i', 00H, 'c'
	DB	00H, 'e', 00H, 00H, 00H
	ORG $+2
$SG4294795181 DB 'U', 00H, 's', 00H, 'e', 00H, ' ', 00H, 'I', 00H, 'n', 00H
	DB	'p', 00H, 'u', 00H, 't', 00H, ' ', 00H, 'D', 00H, 'e', 00H, 'v'
	DB	00H, 'i', 00H, 'c', 00H, 'e', 00H, 's', 00H, ' ', 00H, 'e', 00H
	DB	'n', 00H, 'a', 00H, 'b', 00H, 'l', 00H, 'e', 00H, 'd', 00H, ','
	DB	00H, ' ', 00H, 'n', 00H, 'o', 00H, 't', 00H, ' ', 00H, 'r', 00H
	DB	'e', 00H, 'c', 00H, 'o', 00H, 'r', 00H, 'd', 00H, 'i', 00H, 'n'
	DB	00H, 'g', 00H, ' ', 00H, 's', 00H, 't', 00H, 'a', 00H, 'n', 00H
	DB	'd', 00H, 'a', 00H, 'r', 00H, 'd', 00H, ' ', 00H, 'd', 00H, 'e'
	DB	00H, 's', 00H, 'k', 00H, 't', 00H, 'o', 00H, 'p', 00H, ' ', 00H
	DB	'a', 00H, 'u', 00H, 'd', 00H, 'i', 00H, 'o', 00H, 00H, 00H
$SG4294795180 DB 'D', 00H, 'e', 00H, 'v', 00H, 'i', 00H, 'c', 00H, 'e', 00H
	DB	00H, 00H
	ORG $+2
$SG4294795183 DB 'P', 00H, 'l', 00H, 'a', 00H, 'y', 00H, 'b', 00H, 'a', 00H
	DB	'c', 00H, 'k', 00H, ' ', 00H, 'd', 00H, 'e', 00H, 'v', 00H, 'i'
	DB	00H, 'c', 00H, 'e', 00H, ' ', 00H, '%', 00H, 's', 00H, 00H, 00H
	ORG $+2
$SG4294795182 DB 'C', 00H, 'a', 00H, 'n', 00H, 'n', 00H, 'o', 00H, 't', 00H
	DB	' ', 00H, 'i', 00H, 'n', 00H, 'i', 00H, 't', 00H, 'i', 00H, 'a'
	DB	00H, 'l', 00H, 'i', 00H, 'z', 00H, 'e', 00H, ' ', 00H, 'd', 00H
	DB	'e', 00H, 's', 00H, 'k', 00H, 't', 00H, 'o', 00H, 'p', 00H, ' '
	DB	00H, 'a', 00H, 'u', 00H, 'd', 00H, 'i', 00H, 'o', 00H, ' ', 00H
	DB	's', 00H, 'o', 00H, 'u', 00H, 'n', 00H, 'd', 00H, ',', 00H, ' '
	DB	00H, 'm', 00H, 'o', 00H, 'r', 00H, 'e', 00H, ' ', 00H, 'i', 00H
	DB	'n', 00H, 'f', 00H, 'o', 00H, ' ', 00H, 'i', 00H, 'n', 00H, ' '
	DB	00H, 't', 00H, 'h', 00H, 'e', 00H, ' ', 00H, 'l', 00H, 'o', 00H
	DB	'g', 00H, ' ', 00H, 'f', 00H, 'i', 00H, 'l', 00H, 'e', 00H, '.'
	DB	00H, 00H, 00H
$SG4294795177 DB 'D', 00H, 'i', 00H, 's', 00H, 'a', 00H, 'b', 00H, 'l', 00H
	DB	'e', 00H, 00H, 00H
$SG4294795176 DB 'D', 00H, 'e', 00H, 'f', 00H, 'a', 00H, 'u', 00H, 'l', 00H
	DB	't', 00H, 00H, 00H
$SG4294795178 DB 'D', 00H, 'i', 00H, 's', 00H, 'a', 00H, 'b', 00H, 'l', 00H
	DB	'e', 00H, 00H, 00H
$SG4294795173 DB 'A', 00H, 'u', 00H, 'd', 00H, 'i', 00H, 'o', 00H, 00H, 00H
$SG4294795172 DB 'M', 00H, 'i', 00H, 'c', 00H, ' ', 00H, 't', 00H, 'i', 00H
	DB	'm', 00H, 'e', 00H, ' ', 00H, 'o', 00H, 'f', 00H, 'f', 00H, 's'
	DB	00H, 'e', 00H, 't', 00H, ':', 00H, ' ', 00H, '%', 00H, 'd', 00H
	DB	00H, 00H
$SG4294795175 DB 'M', 00H, 'i', 00H, 'c', 00H, 'r', 00H, 'o', 00H, 'p', 00H
	DB	'h', 00H, 'o', 00H, 'n', 00H, 'e', 00H, 'F', 00H, 'a', 00H, 'i'
	DB	00H, 'l', 00H, 'u', 00H, 'r', 00H, 'e', 00H, 00H, 00H
$SG4294795174 DB 'M', 00H, 'i', 00H, 'c', 00H, 'T', 00H, 'i', 00H, 'm', 00H
	DB	'e', 00H, 'O', 00H, 'f', 00H, 'f', 00H, 's', 00H, 'e', 00H, 't'
	DB	00H, 00H, 00H
$SG4294795169 DB 'B', 00H, 'i', 00H, 't', 00H, 'r', 00H, 'a', 00H, 't', 00H
	DB	'e', 00H, 00H, 00H
$SG4294795168 DB 'A', 00H, 'u', 00H, 'd', 00H, 'i', 00H, 'o', 00H, ' ', 00H
	DB	'E', 00H, 'n', 00H, 'c', 00H, 'o', 00H, 'd', 00H, 'i', 00H, 'n'
	DB	00H, 'g', 00H, 00H, 00H
	ORG $+2
$SG4294795171 DB 'D', 00H, 'i', 00H, 's', 00H, 'a', 00H, 'b', 00H, 'l', 00H
	DB	'e', 00H, 'P', 00H, 'r', 00H, 'e', 00H, 'v', 00H, 'i', 00H, 'e'
	DB	00H, 'w', 00H, 'E', 00H, 'n', 00H, 'c', 00H, 'o', 00H, 'd', 00H
	DB	'i', 00H, 'n', 00H, 'g', 00H, 00H, 00H
	ORG $+2
$SG4294795170 DB 'G', 00H, 'e', 00H, 'n', 00H, 'e', 00H, 'r', 00H, 'a', 00H
	DB	'l', 00H, 00H, 00H
$SG4294795165 DB 'M', 00H, 'i', 00H, 'c', 00H, 'V', 00H, 'o', 00H, 'l', 00H
	DB	'u', 00H, 'm', 00H, 'e', 00H, 00H, 00H
$SG4294795164 DB 'A', 00H, 'u', 00H, 'd', 00H, 'i', 00H, 'o', 00H, 00H, 00H
$SG4294795167 DB 'D', 00H, 'e', 00H, 's', 00H, 'k', 00H, 't', 00H, 'o', 00H
	DB	'p', 00H, 'V', 00H, 'o', 00H, 'l', 00H, 'u', 00H, 'm', 00H, 'e'
	DB	00H, 00H, 00H
$SG4294795166 DB 'A', 00H, 'u', 00H, 'd', 00H, 'i', 00H, 'o', 00H, 00H, 00H
$SG4294795161 DB 's', 00H, 'o', 00H, 'u', 00H, 'r', 00H, 'c', 00H, 'e', 00H
	DB	's', 00H, 00H, 00H
$SG4294795160 DB 'c', 00H, 'l', 00H, 'a', 00H, 's', 00H, 's', 00H, 00H, 00H
$SG4294795163 DB 'd', 00H, 'a', 00H, 't', 00H, 'a', 00H, 00H, 00H
	ORG $+2
$SG4294795162 DB 'c', 00H, 'l', 00H, 'a', 00H, 's', 00H, 's', 00H, 00H, 00H
$SG4294795157 DB 'n', 00H, 'a', 00H, 'm', 00H, 'e', 00H, 00H, 00H
	ORG $+2
$SG4294795156 DB 'S', 00H, 'c', 00H, 'e', 00H, 'n', 00H, 'e', 00H, '.', 00H
	DB	'M', 00H, 'i', 00H, 's', 00H, 's', 00H, 'i', 00H, 'n', 00H, 'g'
	DB	00H, 'S', 00H, 'o', 00H, 'u', 00H, 'r', 00H, 'c', 00H, 'e', 00H
	DB	's', 00H, 00H, 00H
	ORG $+2
$SG4294795159 DB 'GlobalSource', 00H
	ORG $+3
$SG4294795158 DB 'd', 00H, 'a', 00H, 't', 00H, 'a', 00H, 00H, 00H
	ORG $+2
$SG4294795153 DB 'U', 00H, 's', 00H, 'e', 00H, 'B', 00H, 'u', 00H, 'f', 00H
	DB	'f', 00H, 'e', 00H, 'r', 00H, 'S', 00H, 'i', 00H, 'z', 00H, 'e'
	DB	00H, 00H, 00H
$SG4294795152 DB 'V', 00H, 'i', 00H, 'd', 00H, 'e', 00H, 'o', 00H, ' ', 00H
	DB	'E', 00H, 'n', 00H, 'c', 00H, 'o', 00H, 'd', 00H, 'i', 00H, 'n'
	DB	00H, 'g', 00H, 00H, 00H
	ORG $+2
$SG4294795155 DB 'M', 00H, 'a', 00H, 'x', 00H, 'B', 00H, 'i', 00H, 't', 00H
	DB	'r', 00H, 'a', 00H, 't', 00H, 'e', 00H, 00H, 00H
	ORG $+2
$SG4294795154 DB 'V', 00H, 'i', 00H, 'd', 00H, 'e', 00H, 'o', 00H, ' ', 00H
	DB	'E', 00H, 'n', 00H, 'c', 00H, 'o', 00H, 'd', 00H, 'i', 00H, 'n'
	DB	00H, 'g', 00H, 00H, 00H
	ORG $+2
$SG4294795149 DB 'Q', 00H, 'u', 00H, 'a', 00H, 'l', 00H, 'i', 00H, 't', 00H
	DB	'y', 00H, 00H, 00H
$SG4294795148 DB 'V', 00H, 'i', 00H, 'd', 00H, 'e', 00H, 'o', 00H, ' ', 00H
	DB	'E', 00H, 'n', 00H, 'c', 00H, 'o', 00H, 'd', 00H, 'i', 00H, 'n'
	DB	00H, 'g', 00H, 00H, 00H
	ORG $+2
$SG4294795151 DB 'B', 00H, 'u', 00H, 'f', 00H, 'f', 00H, 'e', 00H, 'r', 00H
	DB	'S', 00H, 'i', 00H, 'z', 00H, 'e', 00H, 00H, 00H
	ORG $+2
$SG4294795150 DB 'V', 00H, 'i', 00H, 'd', 00H, 'e', 00H, 'o', 00H, ' ', 00H
	DB	'E', 00H, 'n', 00H, 'c', 00H, 'o', 00H, 'd', 00H, 'i', 00H, 'n'
	DB	00H, 'g', 00H, 00H, 00H
	ORG $+2
$SG4294795145 DB 'V', 00H, 'i', 00H, 'd', 00H, 'e', 00H, 'o', 00H, ' ', 00H
	DB	'E', 00H, 'n', 00H, 'c', 00H, 'o', 00H, 'd', 00H, 'i', 00H, 'n'
	DB	00H, 'g', 00H, 00H, 00H
	ORG $+2
$SG4294795144 DB 'U', 00H, 's', 00H, 'e', 00H, 'C', 00H, 'F', 00H, 'R', 00H
	DB	00H, 00H
	ORG $+2
$SG4294795147 DB 'v', 00H, 'e', 00H, 'r', 00H, 'y', 00H, 'f', 00H, 'a', 00H
	DB	's', 00H, 't', 00H, 00H, 00H
	ORG $+2
$SG4294795146 DB 'P', 00H, 'r', 00H, 'e', 00H, 's', 00H, 'e', 00H, 't', 00H
	DB	00H, 00H
	ORG $+2
$SG4294795141 DB 'G', 00H, 'e', 00H, 'n', 00H, 'e', 00H, 'r', 00H, 'a', 00H
	DB	'l', 00H, 00H, 00H
$SG4294795140 DB 'S', 00H, 'c', 00H, 'e', 00H, 'n', 00H, 'e', 00H, ' ', 00H
	DB	'b', 00H, 'u', 00H, 'f', 00H, 'f', 00H, 'e', 00H, 'r', 00H, 'i'
	DB	00H, 'n', 00H, 'g', 00H, ' ', 00H, 't', 00H, 'i', 00H, 'm', 00H
	DB	'e', 00H, ' ', 00H, 's', 00H, 'e', 00H, 't', 00H, ' ', 00H, 't'
	DB	00H, 'o', 00H, ' ', 00H, '%', 00H, 'u', 00H, 00H, 00H
	ORG $+2
$SG4294795143 DB 'V', 00H, 'i', 00H, 'd', 00H, 'e', 00H, 'o', 00H, ' ', 00H
	DB	'E', 00H, 'n', 00H, 'c', 00H, 'o', 00H, 'd', 00H, 'i', 00H, 'n'
	DB	00H, 'g', 00H, 00H, 00H
	ORG $+2
$SG4294795142 DB 'S', 00H, 'c', 00H, 'e', 00H, 'n', 00H, 'e', 00H, 'B', 00H
	DB	'u', 00H, 'f', 00H, 'f', 00H, 'e', 00H, 'r', 00H, 'i', 00H, 'n'
	DB	00H, 'g', 00H, 'T', 00H, 'i', 00H, 'm', 00H, 'e', 00H, 00H, 00H
	ORG $+2
$SG4294795137 DB 'F', 00H, 'u', 00H, 'l', 00H, 'l', 00H, 'R', 00H, 'a', 00H
	DB	'n', 00H, 'g', 00H, 'e', 00H, 00H, 00H
$SG4294795136 DB 'V', 00H, 'i', 00H, 'd', 00H, 'e', 00H, 'o', 00H, 00H, 00H
$SG4294795139 DB 'F', 00H, 'o', 00H, 'r', 00H, 'c', 00H, 'e', 00H, 'M', 00H
	DB	'i', 00H, 'c', 00H, 'M', 00H, 'o', 00H, 'n', 00H, 'o', 00H, 00H
	DB	00H
	ORG $+2
$SG4294795138 DB 'A', 00H, 'u', 00H, 'd', 00H, 'i', 00H, 'o', 00H, 00H, 00H
$SG4294795133 DB 'Q', 00H, 'S', 00H, 'V', 00H, 00H, 00H
$SG4294795132 DB 'N', 00H, 'V', 00H, 'E', 00H, 'N', 00H, 'C', 00H, 00H, 00H
$SG4294795135 DB 'E', 00H, 'n', 00H, 'c', 00H, 'o', 00H, 'd', 00H, 'e', 00H
	DB	'r', 00H, 00H, 00H
$SG4294795134 DB 'V', 00H, 'i', 00H, 'd', 00H, 'e', 00H, 'o', 00H, ' ', 00H
	DB	'E', 00H, 'n', 00H, 'c', 00H, 'o', 00H, 'd', 00H, 'i', 00H, 'n'
	DB	00H, 'g', 00H, 00H, 00H
	ORG $+2
$SG4294795129 DB 'E', 00H, 'n', 00H, 'c', 00H, 'o', 00H, 'd', 00H, 'e', 00H
	DB	'r', 00H, '.', 00H, 'I', 00H, 'n', 00H, 'i', 00H, 't', 00H, 'F'
	DB	00H, 'a', 00H, 'i', 00H, 'l', 00H, 'e', 00H, 'd', 00H, 'W', 00H
	DB	'i', 00H, 't', 00H, 'h', 00H, 'R', 00H, 'e', 00H, 'a', 00H, 's'
	DB	00H, 'o', 00H, 'n', 00H, 00H, 00H
	ORG $+2
$SG4294795128 DB 'M', 00H, 'o', 00H, 'd', 00H, 'e', 00H, 00H, 00H
	ORG $+2
$SG4294795131 DB 'C', 00H, 'o', 00H, 'u', 00H, 'l', 00H, 'd', 00H, 'n', 00H
	DB	'''', 00H, 't', 00H, ' ', 00H, 'i', 00H, 'n', 00H, 'i', 00H, 't'
	DB	00H, 'i', 00H, 'a', 00H, 'l', 00H, 'i', 00H, 'z', 00H, 'e', 00H
	DB	' ', 00H, 'e', 00H, 'n', 00H, 'c', 00H, 'o', 00H, 'd', 00H, 'e'
	DB	00H, 'r', 00H, 00H, 00H
$SG4294795130 DB 'E', 00H, 'n', 00H, 'c', 00H, 'o', 00H, 'd', 00H, 'e', 00H
	DB	'r', 00H, '.', 00H, 'I', 00H, 'n', 00H, 'i', 00H, 't', 00H, 'F'
	DB	00H, 'a', 00H, 'i', 00H, 'l', 00H, 'e', 00H, 'd', 00H, 00H, 00H
	ORG $+2
$SG4294795125 DB 'A', 00H, 'u', 00H, 'd', 00H, 'i', 00H, 'o', 00H, 00H, 00H
$SG4294795124 DB 'D', 00H, 'i', 00H, 's', 00H, 'a', 00H, 'b', 00H, 'l', 00H
	DB	'e', 00H, 00H, 00H
$SG4294795127 DB 'P', 00H, 'u', 00H, 'b', 00H, 'l', 00H, 'i', 00H, 's', 00H
	DB	'h', 00H, 00H, 00H
$SG4294795126 DB 'D', 00H, 'e', 00H, 'v', 00H, 'i', 00H, 'c', 00H, 'e', 00H
	DB	00H, 00H
	ORG $+2
$SG4294795121 DB 'D', 00H, 'i', 00H, 's', 00H, 'a', 00H, 'b', 00H, 'l', 00H
	DB	'e', 00H, 00H, 00H
$SG4294795120 DB 'D', 00H, 'i', 00H, 's', 00H, 'a', 00H, 'b', 00H, 'l', 00H
	DB	'e', 00H, 00H, 00H
$SG4294795123 DB 'D', 00H, 'e', 00H, 'v', 00H, 'i', 00H, 'c', 00H, 'e', 00H
	DB	00H, 00H
	ORG $+2
$SG4294795122 DB 'A', 00H, 'u', 00H, 'd', 00H, 'i', 00H, 'o', 00H, 00H, 00H
$SG4294795117 DB 'P', 00H, 'r', 00H, 'i', 00H, 'o', 00H, 'r', 00H, 'i', 00H
	DB	't', 00H, 'y', 00H, 00H, 00H
	ORG $+2
$SG4294795116 DB 'G', 00H, 'e', 00H, 'n', 00H, 'e', 00H, 'r', 00H, 'a', 00H
	DB	'l', 00H, 00H, 00H
$SG4294795119 DB '=', 00H, '=', 00H, '=', 00H, '=', 00H, '=', 00H, 'S', 00H
	DB	't', 00H, 'r', 00H, 'e', 00H, 'a', 00H, 'm', 00H, ' ', 00H, 'E'
	DB	00H, 'n', 00H, 'd', 00H, ':', 00H, ' ', 00H, '%', 00H, 's', 00H
	DB	'=', 00H, '=', 00H, '=', 00H, '=', 00H, '=', 00H, '=', 00H, '='
	DB	00H, '=', 00H, '=', 00H, '=', 00H, '=', 00H, '=', 00H, '=', 00H
	DB	'=', 00H, '=', 00H, '=', 00H, '=', 00H, '=', 00H, '=', 00H, '='
	DB	00H, '=', 00H, '=', 00H, '=', 00H, '=', 00H, '=', 00H, '=', 00H
	DB	'=', 00H, '=', 00H, '=', 00H, '=', 00H, '=', 00H, '=', 00H, '='
	DB	00H, '=', 00H, '=', 00H, '=', 00H, '=', 00H, '=', 00H, '=', 00H
	DB	'=', 00H, '=', 00H, '=', 00H, '=', 00H, '=', 00H, '=', 00H, '='
	DB	00H, '=', 00H, '=', 00H, '=', 00H, 00H, 00H
	ORG $+2
$SG4294795118 DB 'N', 00H, 'o', 00H, 'r', 00H, 'm', 00H, 'a', 00H, 'l', 00H
	DB	00H, 00H
	ORG $+2
$SG4294795112 DB 'P', 00H, 'r', 00H, 'o', 00H, ' ', 00H, 'A', 00H, 'u', 00H
	DB	'd', 00H, 'i', 00H, 'o', 00H, 00H, 00H
$SG4294795113 DB 'A', 00H, 'u', 00H, 'd', 00H, 'i', 00H, 'o', 00H, ' ', 00H
	DB	'i', 00H, 's', 00H, ' ', 00H, 'p', 00H, 'r', 00H, 'o', 00H, 'c'
	DB	00H, 'e', 00H, 's', 00H, 's', 00H, 'i', 00H, 'n', 00H, 'g', 00H
	DB	' ', 00H, 't', 00H, 'o', 00H, 'o', 00H, ' ', 00H, 's', 00H, 'l'
	DB	00H, 'o', 00H, 'w', 00H, '.', 00H, ' ', 00H, 'F', 00H, 'r', 00H
	DB	'e', 00H, 'e', 00H, ' ', 00H, 'u', 00H, 'p', 00H, ' ', 00H, 'C'
	DB	00H, 'P', 00H, 'U', 00H, ',', 00H, ' ', 00H, 'r', 00H, 'e', 00H
	DB	'd', 00H, 'u', 00H, 'c', 00H, 'e', 00H, ' ', 00H, 't', 00H, 'h'
	DB	00H, 'e', 00H, ' ', 00H, 'n', 00H, 'u', 00H, 'm', 00H, 'b', 00H
	DB	'e', 00H, 'r', 00H, ' ', 00H, 'o', 00H, 'f', 00H, ' ', 00H, 'a'
	DB	00H, 'u', 00H, 'd', 00H, 'i', 00H, 'o', 00H, ' ', 00H, 's', 00H
	DB	'o', 00H, 'u', 00H, 'r', 00H, 'c', 00H, 'e', 00H, 's', 00H, ' '
	DB	00H, 'o', 00H, 'r', 00H, ' ', 00H, 'a', 00H, 'v', 00H, 'o', 00H
	DB	'i', 00H, 'd', 00H, ' ', 00H, 'r', 00H, 'e', 00H, 's', 00H, 'a'
	DB	00H, 'm', 00H, 'p', 00H, 'l', 00H, 'i', 00H, 'n', 00H, 'g', 00H
	DB	'.', 00H, 00H, 00H
	ORG $+2
$SG4294795115 DB 'N', 00H, 'o', 00H, 'r', 00H, 'm', 00H, 'a', 00H, 'l', 00H
	DB	00H, 00H
	ORG $+2
$SG4294795114 DB '=', 00H, '=', 00H, '=', 00H, '=', 00H, '=', 00H, 'S', 00H
	DB	't', 00H, 'r', 00H, 'e', 00H, 'a', 00H, 'm', 00H, ' ', 00H, 'E'
	DB	00H, 'n', 00H, 'd', 00H, ' ', 00H, '(', 00H, 'r', 00H, 'e', 00H
	DB	'c', 00H, 'o', 00H, 'r', 00H, 'd', 00H, 'i', 00H, 'n', 00H, 'g'
	DB	00H, ' ', 00H, 'c', 00H, 'o', 00H, 'n', 00H, 't', 00H, 'i', 00H
	DB	'n', 00H, 'u', 00H, 'e', 00H, 's', 00H, ')', 00H, ':', 00H, ' '
	DB	00H, '%', 00H, 's', 00H, '=', 00H, '=', 00H, '=', 00H, '=', 00H
	DB	'=', 00H, '=', 00H, '=', 00H, '=', 00H, '=', 00H, '=', 00H, '='
	DB	00H, '=', 00H, '=', 00H, '=', 00H, '=', 00H, '=', 00H, '=', 00H
	DB	'=', 00H, '=', 00H, '=', 00H, '=', 00H, '=', 00H, '=', 00H, '='
	DB	00H, '=', 00H, 00H, 00H
	ORG $+2
$SG4294795111 DB 'S', 00H, 't', 00H, 'r', 00H, 'e', 00H, 'a', 00H, 'm', 00H
	DB	'C', 00H, 'l', 00H, 'o', 00H, 's', 00H, 'e', 00H, 'P', 00H, 'e'
	DB	00H, 'n', 00H, 'd', 00H, 'i', 00H, 'n', 00H, 'g', 00H, 00H, 00H
PUBLIC	??0?$_Unique_ptr_base@XU?$ThreadTerminator@$0A@@@$00@std@@QAE@PAX@Z ; std::_Unique_ptr_base<void,ThreadTerminator<0>,1>::_Unique_ptr_base<void,ThreadTerminator<0>,1>
PUBLIC	??0?$_Callable_base@V<lambda_e856d28dddb7588070dd099cfda6c634>@@$0A@@std@@QAE@ABV<lambda_e856d28dddb7588070dd099cfda6c634>@@@Z ; std::_Callable_base<<lambda_e856d28dddb7588070dd099cfda6c634>,0>::_Callable_base<<lambda_e856d28dddb7588070dd099cfda6c634>,0>
PUBLIC	??0?$_Callable_base@V<lambda_582637cdd8d6a2f689bc987be9ec55df>@@$0A@@std@@QAE@ABV<lambda_582637cdd8d6a2f689bc987be9ec55df>@@@Z ; std::_Callable_base<<lambda_582637cdd8d6a2f689bc987be9ec55df>,0>::_Callable_base<<lambda_582637cdd8d6a2f689bc987be9ec55df>,0>
PUBLIC	??0?$unique_ptr@XU?$ThreadTerminator@$0A@@@@std@@QAE@PAX@Z ; std::unique_ptr<void,ThreadTerminator<0> >::unique_ptr<void,ThreadTerminator<0> >
PUBLIC	??$forward@AAU?$_Callable_obj@V<lambda_3648d362fc95221bbf9c4c4a922d1611>@@$0A@@std@@@std@@YAAAU?$_Callable_obj@V<lambda_3648d362fc95221bbf9c4c4a922d1611>@@$0A@@0@AAU10@@Z ; std::forward<std::_Callable_obj<<lambda_3648d362fc95221bbf9c4c4a922d1611>,0> &>
PUBLIC	??$forward@AAU?$_Callable_obj@V<lambda_3b020cec0f1508adac4c896f138918cf>@@$0A@@std@@@std@@YAAAU?$_Callable_obj@V<lambda_3b020cec0f1508adac4c896f138918cf>@@$0A@@0@AAU10@@Z ; std::forward<std::_Callable_obj<<lambda_3b020cec0f1508adac4c896f138918cf>,0> &>
PUBLIC	??$forward@AAU?$_Callable_obj@V<lambda_7c9af1b141e25bc2e890d47a77a39da9>@@$0A@@std@@@std@@YAAAU?$_Callable_obj@V<lambda_7c9af1b141e25bc2e890d47a77a39da9>@@$0A@@0@AAU10@@Z ; std::forward<std::_Callable_obj<<lambda_7c9af1b141e25bc2e890d47a77a39da9>,0> &>
PUBLIC	??$forward@AAU?$_Callable_obj@V<lambda_e856d28dddb7588070dd099cfda6c634>@@$0A@@std@@@std@@YAAAU?$_Callable_obj@V<lambda_e856d28dddb7588070dd099cfda6c634>@@$0A@@0@AAU10@@Z ; std::forward<std::_Callable_obj<<lambda_e856d28dddb7588070dd099cfda6c634>,0> &>
PUBLIC	??$forward@AAU?$_Callable_obj@V<lambda_582637cdd8d6a2f689bc987be9ec55df>@@$0A@@std@@@std@@YAAAU?$_Callable_obj@V<lambda_582637cdd8d6a2f689bc987be9ec55df>@@$0A@@0@AAU10@@Z ; std::forward<std::_Callable_obj<<lambda_582637cdd8d6a2f689bc987be9ec55df>,0> &>
PUBLIC	??$construct@V?$unique_ptr@XU?$ThreadTerminator@$0A@@@@std@@AAPAX@?$allocator@U?$_List_node@V?$unique_ptr@XU?$ThreadTerminator@$0A@@@@std@@PAX@std@@@std@@QAEXPAV?$unique_ptr@XU?$ThreadTerminator@$0A@@@@1@AAPAX@Z ; std::allocator<std::_List_node<std::unique_ptr<void,ThreadTerminator<0> >,void *> >::construct<std::unique_ptr<void,ThreadTerminator<0> >,void * &>
PUBLIC	??$construct@V?$unique_ptr@XU?$ThreadTerminator@$0A@@@@std@@PAX@?$allocator@U?$_List_node@V?$unique_ptr@XU?$ThreadTerminator@$0A@@@@std@@PAX@std@@@std@@QAEXPAV?$unique_ptr@XU?$ThreadTerminator@$0A@@@@1@$$QAPAX@Z ; std::allocator<std::_List_node<std::unique_ptr<void,ThreadTerminator<0> >,void *> >::construct<std::unique_ptr<void,ThreadTerminator<0> >,void *>
PUBLIC	??$_Test_callable@V<lambda_3648d362fc95221bbf9c4c4a922d1611>@@@std@@YA_NAAV<lambda_3648d362fc95221bbf9c4c4a922d1611>@@U?$integral_constant@_N$0A@@0@@Z ; std::_Test_callable<<lambda_3648d362fc95221bbf9c4c4a922d1611> >
PUBLIC	??$_Test_callable@V<lambda_3b020cec0f1508adac4c896f138918cf>@@@std@@YA_NAAV<lambda_3b020cec0f1508adac4c896f138918cf>@@U?$integral_constant@_N$0A@@0@@Z ; std::_Test_callable<<lambda_3b020cec0f1508adac4c896f138918cf> >
PUBLIC	??$_Test_callable@V<lambda_7c9af1b141e25bc2e890d47a77a39da9>@@@std@@YA_NAAV<lambda_7c9af1b141e25bc2e890d47a77a39da9>@@U?$integral_constant@_N$0A@@0@@Z ; std::_Test_callable<<lambda_7c9af1b141e25bc2e890d47a77a39da9> >
PUBLIC	??$?0AAV<lambda_e856d28dddb7588070dd099cfda6c634>@@@?$_Callable_obj@V<lambda_e856d28dddb7588070dd099cfda6c634>@@$0A@@std@@QAE@AAV<lambda_e856d28dddb7588070dd099cfda6c634>@@@Z ; std::_Callable_obj<<lambda_e856d28dddb7588070dd099cfda6c634>,0>::_Callable_obj<<lambda_e856d28dddb7588070dd099cfda6c634>,0><<lambda_e856d28dddb7588070dd099cfda6c634> &>
PUBLIC	??$_Test_callable@V<lambda_e856d28dddb7588070dd099cfda6c634>@@@std@@YA_NAAV<lambda_e856d28dddb7588070dd099cfda6c634>@@U?$integral_constant@_N$0A@@0@@Z ; std::_Test_callable<<lambda_e856d28dddb7588070dd099cfda6c634> >
PUBLIC	??$?0AAV<lambda_582637cdd8d6a2f689bc987be9ec55df>@@@?$_Callable_obj@V<lambda_582637cdd8d6a2f689bc987be9ec55df>@@$0A@@std@@QAE@AAV<lambda_582637cdd8d6a2f689bc987be9ec55df>@@@Z ; std::_Callable_obj<<lambda_582637cdd8d6a2f689bc987be9ec55df>,0>::_Callable_obj<<lambda_582637cdd8d6a2f689bc987be9ec55df>,0><<lambda_582637cdd8d6a2f689bc987be9ec55df> &>
PUBLIC	??$_Test_callable@V<lambda_582637cdd8d6a2f689bc987be9ec55df>@@@std@@YA_NAAV<lambda_582637cdd8d6a2f689bc987be9ec55df>@@U?$integral_constant@_N$0A@@0@@Z ; std::_Test_callable<<lambda_582637cdd8d6a2f689bc987be9ec55df> >
PUBLIC	?_Get@?$_Callable_base@V<lambda_3648d362fc95221bbf9c4c4a922d1611>@@$0A@@std@@QAEAAV<lambda_3648d362fc95221bbf9c4c4a922d1611>@@XZ ; std::_Callable_base<<lambda_3648d362fc95221bbf9c4c4a922d1611>,0>::_Get
PUBLIC	??0?$_Callable_base@V<lambda_3648d362fc95221bbf9c4c4a922d1611>@@$0A@@std@@QAE@ABV<lambda_3648d362fc95221bbf9c4c4a922d1611>@@@Z ; std::_Callable_base<<lambda_3648d362fc95221bbf9c4c4a922d1611>,0>::_Callable_base<<lambda_3648d362fc95221bbf9c4c4a922d1611>,0>
PUBLIC	?_Get@?$_Callable_base@V<lambda_3b020cec0f1508adac4c896f138918cf>@@$0A@@std@@QAEAAV<lambda_3b020cec0f1508adac4c896f138918cf>@@XZ ; std::_Callable_base<<lambda_3b020cec0f1508adac4c896f138918cf>,0>::_Get
PUBLIC	??0?$_Callable_base@V<lambda_3b020cec0f1508adac4c896f138918cf>@@$0A@@std@@QAE@ABV<lambda_3b020cec0f1508adac4c896f138918cf>@@@Z ; std::_Callable_base<<lambda_3b020cec0f1508adac4c896f138918cf>,0>::_Callable_base<<lambda_3b020cec0f1508adac4c896f138918cf>,0>
PUBLIC	?_Get@?$_Callable_base@V<lambda_7c9af1b141e25bc2e890d47a77a39da9>@@$0A@@std@@QAEAAV<lambda_7c9af1b141e25bc2e890d47a77a39da9>@@XZ ; std::_Callable_base<<lambda_7c9af1b141e25bc2e890d47a77a39da9>,0>::_Get
PUBLIC	??0?$_Callable_base@V<lambda_7c9af1b141e25bc2e890d47a77a39da9>@@$0A@@std@@QAE@ABV<lambda_7c9af1b141e25bc2e890d47a77a39da9>@@@Z ; std::_Callable_base<<lambda_7c9af1b141e25bc2e890d47a77a39da9>,0>::_Callable_base<<lambda_7c9af1b141e25bc2e890d47a77a39da9>,0>
PUBLIC	?_Get@?$_Callable_base@V<lambda_e856d28dddb7588070dd099cfda6c634>@@$0A@@std@@QAEAAV<lambda_e856d28dddb7588070dd099cfda6c634>@@XZ ; std::_Callable_base<<lambda_e856d28dddb7588070dd099cfda6c634>,0>::_Get
PUBLIC	?_Get@?$_Callable_base@V<lambda_582637cdd8d6a2f689bc987be9ec55df>@@$0A@@std@@QAEAAV<lambda_582637cdd8d6a2f689bc987be9ec55df>@@XZ ; std::_Callable_base<<lambda_582637cdd8d6a2f689bc987be9ec55df>,0>::_Get
PUBLIC	??$?0U?$_Callable_obj@V<lambda_3648d362fc95221bbf9c4c4a922d1611>@@$0A@@std@@@?$_Callable_obj@V<lambda_3648d362fc95221bbf9c4c4a922d1611>@@$0A@@std@@QAE@$$QAU01@@Z ; std::_Callable_obj<<lambda_3648d362fc95221bbf9c4c4a922d1611>,0>::_Callable_obj<<lambda_3648d362fc95221bbf9c4c4a922d1611>,0><std::_Callable_obj<<lambda_3648d362fc95221bbf9c4c4a922d1611>,0> >
PUBLIC	??$forward@U?$_Callable_obj@V<lambda_3648d362fc95221bbf9c4c4a922d1611>@@$0A@@std@@@std@@YA$$QAU?$_Callable_obj@V<lambda_3648d362fc95221bbf9c4c4a922d1611>@@$0A@@0@AAU10@@Z ; std::forward<std::_Callable_obj<<lambda_3648d362fc95221bbf9c4c4a922d1611>,0> >
PUBLIC	??$?0AAU?$_Callable_obj@V<lambda_3648d362fc95221bbf9c4c4a922d1611>@@$0A@@std@@@?$_Callable_obj@V<lambda_3648d362fc95221bbf9c4c4a922d1611>@@$0A@@std@@QAE@AAU01@@Z ; std::_Callable_obj<<lambda_3648d362fc95221bbf9c4c4a922d1611>,0>::_Callable_obj<<lambda_3648d362fc95221bbf9c4c4a922d1611>,0><std::_Callable_obj<<lambda_3648d362fc95221bbf9c4c4a922d1611>,0> &>
PUBLIC	??$?0U?$_Callable_obj@V<lambda_3b020cec0f1508adac4c896f138918cf>@@$0A@@std@@@?$_Callable_obj@V<lambda_3b020cec0f1508adac4c896f138918cf>@@$0A@@std@@QAE@$$QAU01@@Z ; std::_Callable_obj<<lambda_3b020cec0f1508adac4c896f138918cf>,0>::_Callable_obj<<lambda_3b020cec0f1508adac4c896f138918cf>,0><std::_Callable_obj<<lambda_3b020cec0f1508adac4c896f138918cf>,0> >
PUBLIC	??$forward@U?$_Callable_obj@V<lambda_3b020cec0f1508adac4c896f138918cf>@@$0A@@std@@@std@@YA$$QAU?$_Callable_obj@V<lambda_3b020cec0f1508adac4c896f138918cf>@@$0A@@0@AAU10@@Z ; std::forward<std::_Callable_obj<<lambda_3b020cec0f1508adac4c896f138918cf>,0> >
PUBLIC	??$?0AAU?$_Callable_obj@V<lambda_3b020cec0f1508adac4c896f138918cf>@@$0A@@std@@@?$_Callable_obj@V<lambda_3b020cec0f1508adac4c896f138918cf>@@$0A@@std@@QAE@AAU01@@Z ; std::_Callable_obj<<lambda_3b020cec0f1508adac4c896f138918cf>,0>::_Callable_obj<<lambda_3b020cec0f1508adac4c896f138918cf>,0><std::_Callable_obj<<lambda_3b020cec0f1508adac4c896f138918cf>,0> &>
PUBLIC	??$?0U?$_Callable_obj@V<lambda_7c9af1b141e25bc2e890d47a77a39da9>@@$0A@@std@@@?$_Callable_obj@V<lambda_7c9af1b141e25bc2e890d47a77a39da9>@@$0A@@std@@QAE@$$QAU01@@Z ; std::_Callable_obj<<lambda_7c9af1b141e25bc2e890d47a77a39da9>,0>::_Callable_obj<<lambda_7c9af1b141e25bc2e890d47a77a39da9>,0><std::_Callable_obj<<lambda_7c9af1b141e25bc2e890d47a77a39da9>,0> >
PUBLIC	??$forward@U?$_Callable_obj@V<lambda_7c9af1b141e25bc2e890d47a77a39da9>@@$0A@@std@@@std@@YA$$QAU?$_Callable_obj@V<lambda_7c9af1b141e25bc2e890d47a77a39da9>@@$0A@@0@AAU10@@Z ; std::forward<std::_Callable_obj<<lambda_7c9af1b141e25bc2e890d47a77a39da9>,0> >
PUBLIC	??$?0AAU?$_Callable_obj@V<lambda_7c9af1b141e25bc2e890d47a77a39da9>@@$0A@@std@@@?$_Callable_obj@V<lambda_7c9af1b141e25bc2e890d47a77a39da9>@@$0A@@std@@QAE@AAU01@@Z ; std::_Callable_obj<<lambda_7c9af1b141e25bc2e890d47a77a39da9>,0>::_Callable_obj<<lambda_7c9af1b141e25bc2e890d47a77a39da9>,0><std::_Callable_obj<<lambda_7c9af1b141e25bc2e890d47a77a39da9>,0> &>
PUBLIC	??$?0U?$_Callable_obj@V<lambda_e856d28dddb7588070dd099cfda6c634>@@$0A@@std@@@?$_Callable_obj@V<lambda_e856d28dddb7588070dd099cfda6c634>@@$0A@@std@@QAE@$$QAU01@@Z ; std::_Callable_obj<<lambda_e856d28dddb7588070dd099cfda6c634>,0>::_Callable_obj<<lambda_e856d28dddb7588070dd099cfda6c634>,0><std::_Callable_obj<<lambda_e856d28dddb7588070dd099cfda6c634>,0> >
PUBLIC	??$forward@U?$_Callable_obj@V<lambda_e856d28dddb7588070dd099cfda6c634>@@$0A@@std@@@std@@YA$$QAU?$_Callable_obj@V<lambda_e856d28dddb7588070dd099cfda6c634>@@$0A@@0@AAU10@@Z ; std::forward<std::_Callable_obj<<lambda_e856d28dddb7588070dd099cfda6c634>,0> >
PUBLIC	??$?0AAU?$_Callable_obj@V<lambda_e856d28dddb7588070dd099cfda6c634>@@$0A@@std@@@?$_Callable_obj@V<lambda_e856d28dddb7588070dd099cfda6c634>@@$0A@@std@@QAE@AAU01@@Z ; std::_Callable_obj<<lambda_e856d28dddb7588070dd099cfda6c634>,0>::_Callable_obj<<lambda_e856d28dddb7588070dd099cfda6c634>,0><std::_Callable_obj<<lambda_e856d28dddb7588070dd099cfda6c634>,0> &>
PUBLIC	??$?0U?$_Callable_obj@V<lambda_582637cdd8d6a2f689bc987be9ec55df>@@$0A@@std@@@?$_Callable_obj@V<lambda_582637cdd8d6a2f689bc987be9ec55df>@@$0A@@std@@QAE@$$QAU01@@Z ; std::_Callable_obj<<lambda_582637cdd8d6a2f689bc987be9ec55df>,0>::_Callable_obj<<lambda_582637cdd8d6a2f689bc987be9ec55df>,0><std::_Callable_obj<<lambda_582637cdd8d6a2f689bc987be9ec55df>,0> >
PUBLIC	??$forward@U?$_Callable_obj@V<lambda_582637cdd8d6a2f689bc987be9ec55df>@@$0A@@std@@@std@@YA$$QAU?$_Callable_obj@V<lambda_582637cdd8d6a2f689bc987be9ec55df>@@$0A@@0@AAU10@@Z ; std::forward<std::_Callable_obj<<lambda_582637cdd8d6a2f689bc987be9ec55df>,0> >
PUBLIC	??$?0AAU?$_Callable_obj@V<lambda_582637cdd8d6a2f689bc987be9ec55df>@@$0A@@std@@@?$_Callable_obj@V<lambda_582637cdd8d6a2f689bc987be9ec55df>@@$0A@@std@@QAE@AAU01@@Z ; std::_Callable_obj<<lambda_582637cdd8d6a2f689bc987be9ec55df>,0>::_Callable_obj<<lambda_582637cdd8d6a2f689bc987be9ec55df>,0><std::_Callable_obj<<lambda_582637cdd8d6a2f689bc987be9ec55df>,0> &>
PUBLIC	??$_Allocate@V?$_Func_impl@U?$_Callable_obj@V<lambda_3648d362fc95221bbf9c4c4a922d1611>@@$0A@@std@@V?$allocator@V?$_Func_class@X$$$V@std@@@2@X$$$V@std@@@std@@YAPAV?$_Func_impl@U?$_Callable_obj@V<lambda_3648d362fc95221bbf9c4c4a922d1611>@@$0A@@std@@V?$allocator@V?$_Func_class@X$$$V@std@@@2@X$$$V@0@IPAV10@@Z ; std::_Allocate<std::_Func_impl<std::_Callable_obj<<lambda_3648d362fc95221bbf9c4c4a922d1611>,0>,std::allocator<std::_Func_class<void> >,void> >
PUBLIC	??$destroy@V?$_Func_impl@U?$_Callable_obj@V<lambda_3648d362fc95221bbf9c4c4a922d1611>@@$0A@@std@@V?$allocator@V?$_Func_class@X$$$V@std@@@2@X$$$V@std@@@?$allocator@V?$_Func_impl@U?$_Callable_obj@V<lambda_3648d362fc95221bbf9c4c4a922d1611>@@$0A@@std@@V?$allocator@V?$_Func_class@X$$$V@std@@@2@X$$$V@std@@@std@@QAEXPAV?$_Func_impl@U?$_Callable_obj@V<lambda_3648d362fc95221bbf9c4c4a922d1611>@@$0A@@std@@V?$allocator@V?$_Func_class@X$$$V@std@@@2@X$$$V@1@@Z ; std::allocator<std::_Func_impl<std::_Callable_obj<<lambda_3648d362fc95221bbf9c4c4a922d1611>,0>,std::allocator<std::_Func_class<void> >,void> >::destroy<std::_Func_impl<std::_Callable_obj<<lambda_3648d362fc95221bbf9c4c4a922d1611>,0>,std::allocator<std::_Func_class<void> >,void> >
PUBLIC	??$_ApplyX@X$$$V@?$_Callable_obj@V<lambda_3648d362fc95221bbf9c4c4a922d1611>@@$0A@@std@@QAEXXZ ; std::_Callable_obj<<lambda_3648d362fc95221bbf9c4c4a922d1611>,0>::_ApplyX<void>
PUBLIC	??$move@AAV?$_Func_impl@U?$_Callable_obj@V<lambda_3648d362fc95221bbf9c4c4a922d1611>@@$0A@@std@@V?$allocator@V?$_Func_class@X$$$V@std@@@2@X$$$V@std@@@std@@YA$$QAV?$_Func_impl@U?$_Callable_obj@V<lambda_3648d362fc95221bbf9c4c4a922d1611>@@$0A@@std@@V?$allocator@V?$_Func_class@X$$$V@std@@@2@X$$$V@0@AAV10@@Z ; std::move<std::_Func_impl<std::_Callable_obj<<lambda_3648d362fc95221bbf9c4c4a922d1611>,0>,std::allocator<std::_Func_class<void> >,void> &>
PUBLIC	??$?0V<lambda_3648d362fc95221bbf9c4c4a922d1611>@@@?$_Callable_obj@V<lambda_3648d362fc95221bbf9c4c4a922d1611>@@$0A@@std@@QAE@$$QAV<lambda_3648d362fc95221bbf9c4c4a922d1611>@@@Z ; std::_Callable_obj<<lambda_3648d362fc95221bbf9c4c4a922d1611>,0>::_Callable_obj<<lambda_3648d362fc95221bbf9c4c4a922d1611>,0><<lambda_3648d362fc95221bbf9c4c4a922d1611> >
PUBLIC	??$_Allocate@V?$_Func_impl@U?$_Callable_obj@V<lambda_3b020cec0f1508adac4c896f138918cf>@@$0A@@std@@V?$allocator@V?$_Func_class@X$$$V@std@@@2@X$$$V@std@@@std@@YAPAV?$_Func_impl@U?$_Callable_obj@V<lambda_3b020cec0f1508adac4c896f138918cf>@@$0A@@std@@V?$allocator@V?$_Func_class@X$$$V@std@@@2@X$$$V@0@IPAV10@@Z ; std::_Allocate<std::_Func_impl<std::_Callable_obj<<lambda_3b020cec0f1508adac4c896f138918cf>,0>,std::allocator<std::_Func_class<void> >,void> >
PUBLIC	??$destroy@V?$_Func_impl@U?$_Callable_obj@V<lambda_3b020cec0f1508adac4c896f138918cf>@@$0A@@std@@V?$allocator@V?$_Func_class@X$$$V@std@@@2@X$$$V@std@@@?$allocator@V?$_Func_impl@U?$_Callable_obj@V<lambda_3b020cec0f1508adac4c896f138918cf>@@$0A@@std@@V?$allocator@V?$_Func_class@X$$$V@std@@@2@X$$$V@std@@@std@@QAEXPAV?$_Func_impl@U?$_Callable_obj@V<lambda_3b020cec0f1508adac4c896f138918cf>@@$0A@@std@@V?$allocator@V?$_Func_class@X$$$V@std@@@2@X$$$V@1@@Z ; std::allocator<std::_Func_impl<std::_Callable_obj<<lambda_3b020cec0f1508adac4c896f138918cf>,0>,std::allocator<std::_Func_class<void> >,void> >::destroy<std::_Func_impl<std::_Callable_obj<<lambda_3b020cec0f1508adac4c896f138918cf>,0>,std::allocator<std::_Func_class<void> >,void> >
PUBLIC	??$_ApplyX@X$$$V@?$_Callable_obj@V<lambda_3b020cec0f1508adac4c896f138918cf>@@$0A@@std@@QAEXXZ ; std::_Callable_obj<<lambda_3b020cec0f1508adac4c896f138918cf>,0>::_ApplyX<void>
PUBLIC	??$move@AAV?$_Func_impl@U?$_Callable_obj@V<lambda_3b020cec0f1508adac4c896f138918cf>@@$0A@@std@@V?$allocator@V?$_Func_class@X$$$V@std@@@2@X$$$V@std@@@std@@YA$$QAV?$_Func_impl@U?$_Callable_obj@V<lambda_3b020cec0f1508adac4c896f138918cf>@@$0A@@std@@V?$allocator@V?$_Func_class@X$$$V@std@@@2@X$$$V@0@AAV10@@Z ; std::move<std::_Func_impl<std::_Callable_obj<<lambda_3b020cec0f1508adac4c896f138918cf>,0>,std::allocator<std::_Func_class<void> >,void> &>
PUBLIC	??$?0V<lambda_3b020cec0f1508adac4c896f138918cf>@@@?$_Callable_obj@V<lambda_3b020cec0f1508adac4c896f138918cf>@@$0A@@std@@QAE@$$QAV<lambda_3b020cec0f1508adac4c896f138918cf>@@@Z ; std::_Callable_obj<<lambda_3b020cec0f1508adac4c896f138918cf>,0>::_Callable_obj<<lambda_3b020cec0f1508adac4c896f138918cf>,0><<lambda_3b020cec0f1508adac4c896f138918cf> >
PUBLIC	??$_Allocate@V?$_Func_impl@U?$_Callable_obj@V<lambda_7c9af1b141e25bc2e890d47a77a39da9>@@$0A@@std@@V?$allocator@V?$_Func_class@X$$$V@std@@@2@X$$$V@std@@@std@@YAPAV?$_Func_impl@U?$_Callable_obj@V<lambda_7c9af1b141e25bc2e890d47a77a39da9>@@$0A@@std@@V?$allocator@V?$_Func_class@X$$$V@std@@@2@X$$$V@0@IPAV10@@Z ; std::_Allocate<std::_Func_impl<std::_Callable_obj<<lambda_7c9af1b141e25bc2e890d47a77a39da9>,0>,std::allocator<std::_Func_class<void> >,void> >
PUBLIC	??$destroy@V?$_Func_impl@U?$_Callable_obj@V<lambda_7c9af1b141e25bc2e890d47a77a39da9>@@$0A@@std@@V?$allocator@V?$_Func_class@X$$$V@std@@@2@X$$$V@std@@@?$allocator@V?$_Func_impl@U?$_Callable_obj@V<lambda_7c9af1b141e25bc2e890d47a77a39da9>@@$0A@@std@@V?$allocator@V?$_Func_class@X$$$V@std@@@2@X$$$V@std@@@std@@QAEXPAV?$_Func_impl@U?$_Callable_obj@V<lambda_7c9af1b141e25bc2e890d47a77a39da9>@@$0A@@std@@V?$allocator@V?$_Func_class@X$$$V@std@@@2@X$$$V@1@@Z ; std::allocator<std::_Func_impl<std::_Callable_obj<<lambda_7c9af1b141e25bc2e890d47a77a39da9>,0>,std::allocator<std::_Func_class<void> >,void> >::destroy<std::_Func_impl<std::_Callable_obj<<lambda_7c9af1b141e25bc2e890d47a77a39da9>,0>,std::allocator<std::_Func_class<void> >,void> >
PUBLIC	??$_ApplyX@X$$$V@?$_Callable_obj@V<lambda_7c9af1b141e25bc2e890d47a77a39da9>@@$0A@@std@@QAEXXZ ; std::_Callable_obj<<lambda_7c9af1b141e25bc2e890d47a77a39da9>,0>::_ApplyX<void>
PUBLIC	??$move@AAV?$_Func_impl@U?$_Callable_obj@V<lambda_7c9af1b141e25bc2e890d47a77a39da9>@@$0A@@std@@V?$allocator@V?$_Func_class@X$$$V@std@@@2@X$$$V@std@@@std@@YA$$QAV?$_Func_impl@U?$_Callable_obj@V<lambda_7c9af1b141e25bc2e890d47a77a39da9>@@$0A@@std@@V?$allocator@V?$_Func_class@X$$$V@std@@@2@X$$$V@0@AAV10@@Z ; std::move<std::_Func_impl<std::_Callable_obj<<lambda_7c9af1b141e25bc2e890d47a77a39da9>,0>,std::allocator<std::_Func_class<void> >,void> &>
PUBLIC	??$?0V<lambda_7c9af1b141e25bc2e890d47a77a39da9>@@@?$_Callable_obj@V<lambda_7c9af1b141e25bc2e890d47a77a39da9>@@$0A@@std@@QAE@$$QAV<lambda_7c9af1b141e25bc2e890d47a77a39da9>@@@Z ; std::_Callable_obj<<lambda_7c9af1b141e25bc2e890d47a77a39da9>,0>::_Callable_obj<<lambda_7c9af1b141e25bc2e890d47a77a39da9>,0><<lambda_7c9af1b141e25bc2e890d47a77a39da9> >
PUBLIC	??$_Allocate@V?$_Func_impl@U?$_Callable_obj@V<lambda_e856d28dddb7588070dd099cfda6c634>@@$0A@@std@@V?$allocator@V?$_Func_class@X$$$V@std@@@2@X$$$V@std@@@std@@YAPAV?$_Func_impl@U?$_Callable_obj@V<lambda_e856d28dddb7588070dd099cfda6c634>@@$0A@@std@@V?$allocator@V?$_Func_class@X$$$V@std@@@2@X$$$V@0@IPAV10@@Z ; std::_Allocate<std::_Func_impl<std::_Callable_obj<<lambda_e856d28dddb7588070dd099cfda6c634>,0>,std::allocator<std::_Func_class<void> >,void> >
PUBLIC	??$destroy@V?$_Func_impl@U?$_Callable_obj@V<lambda_e856d28dddb7588070dd099cfda6c634>@@$0A@@std@@V?$allocator@V?$_Func_class@X$$$V@std@@@2@X$$$V@std@@@?$allocator@V?$_Func_impl@U?$_Callable_obj@V<lambda_e856d28dddb7588070dd099cfda6c634>@@$0A@@std@@V?$allocator@V?$_Func_class@X$$$V@std@@@2@X$$$V@std@@@std@@QAEXPAV?$_Func_impl@U?$_Callable_obj@V<lambda_e856d28dddb7588070dd099cfda6c634>@@$0A@@std@@V?$allocator@V?$_Func_class@X$$$V@std@@@2@X$$$V@1@@Z ; std::allocator<std::_Func_impl<std::_Callable_obj<<lambda_e856d28dddb7588070dd099cfda6c634>,0>,std::allocator<std::_Func_class<void> >,void> >::destroy<std::_Func_impl<std::_Callable_obj<<lambda_e856d28dddb7588070dd099cfda6c634>,0>,std::allocator<std::_Func_class<void> >,void> >
PUBLIC	??$_ApplyX@X$$$V@?$_Callable_obj@V<lambda_e856d28dddb7588070dd099cfda6c634>@@$0A@@std@@QAEXXZ ; std::_Callable_obj<<lambda_e856d28dddb7588070dd099cfda6c634>,0>::_ApplyX<void>
PUBLIC	??$move@AAV?$_Func_impl@U?$_Callable_obj@V<lambda_e856d28dddb7588070dd099cfda6c634>@@$0A@@std@@V?$allocator@V?$_Func_class@X$$$V@std@@@2@X$$$V@std@@@std@@YA$$QAV?$_Func_impl@U?$_Callable_obj@V<lambda_e856d28dddb7588070dd099cfda6c634>@@$0A@@std@@V?$allocator@V?$_Func_class@X$$$V@std@@@2@X$$$V@0@AAV10@@Z ; std::move<std::_Func_impl<std::_Callable_obj<<lambda_e856d28dddb7588070dd099cfda6c634>,0>,std::allocator<std::_Func_class<void> >,void> &>
PUBLIC	??$_Allocate@V?$_Func_impl@U?$_Callable_obj@V<lambda_582637cdd8d6a2f689bc987be9ec55df>@@$0A@@std@@V?$allocator@V?$_Func_class@X$$$V@std@@@2@X$$$V@std@@@std@@YAPAV?$_Func_impl@U?$_Callable_obj@V<lambda_582637cdd8d6a2f689bc987be9ec55df>@@$0A@@std@@V?$allocator@V?$_Func_class@X$$$V@std@@@2@X$$$V@0@IPAV10@@Z ; std::_Allocate<std::_Func_impl<std::_Callable_obj<<lambda_582637cdd8d6a2f689bc987be9ec55df>,0>,std::allocator<std::_Func_class<void> >,void> >
PUBLIC	??$destroy@V?$_Func_impl@U?$_Callable_obj@V<lambda_582637cdd8d6a2f689bc987be9ec55df>@@$0A@@std@@V?$allocator@V?$_Func_class@X$$$V@std@@@2@X$$$V@std@@@?$allocator@V?$_Func_impl@U?$_Callable_obj@V<lambda_582637cdd8d6a2f689bc987be9ec55df>@@$0A@@std@@V?$allocator@V?$_Func_class@X$$$V@std@@@2@X$$$V@std@@@std@@QAEXPAV?$_Func_impl@U?$_Callable_obj@V<lambda_582637cdd8d6a2f689bc987be9ec55df>@@$0A@@std@@V?$allocator@V?$_Func_class@X$$$V@std@@@2@X$$$V@1@@Z ; std::allocator<std::_Func_impl<std::_Callable_obj<<lambda_582637cdd8d6a2f689bc987be9ec55df>,0>,std::allocator<std::_Func_class<void> >,void> >::destroy<std::_Func_impl<std::_Callable_obj<<lambda_582637cdd8d6a2f689bc987be9ec55df>,0>,std::allocator<std::_Func_class<void> >,void> >
PUBLIC	??$_ApplyX@X$$$V@?$_Callable_obj@V<lambda_582637cdd8d6a2f689bc987be9ec55df>@@$0A@@std@@QAEXXZ ; std::_Callable_obj<<lambda_582637cdd8d6a2f689bc987be9ec55df>,0>::_ApplyX<void>
PUBLIC	??$move@AAV?$_Func_impl@U?$_Callable_obj@V<lambda_582637cdd8d6a2f689bc987be9ec55df>@@$0A@@std@@V?$allocator@V?$_Func_class@X$$$V@std@@@2@X$$$V@std@@@std@@YA$$QAV?$_Func_impl@U?$_Callable_obj@V<lambda_582637cdd8d6a2f689bc987be9ec55df>@@$0A@@std@@V?$allocator@V?$_Func_class@X$$$V@std@@@2@X$$$V@0@AAV10@@Z ; std::move<std::_Func_impl<std::_Callable_obj<<lambda_582637cdd8d6a2f689bc987be9ec55df>,0>,std::allocator<std::_Func_class<void> >,void> &>
PUBLIC	??$construct@V?$unique_ptr@XU?$ThreadTerminator@$0A@@@@std@@AAPAX@?$allocator_traits@V?$allocator@U?$_List_node@V?$unique_ptr@XU?$ThreadTerminator@$0A@@@@std@@PAX@std@@@std@@@std@@SAXAAV?$allocator@U?$_List_node@V?$unique_ptr@XU?$ThreadTerminator@$0A@@@@std@@PAX@std@@@1@PAV?$unique_ptr@XU?$ThreadTerminator@$0A@@@@1@AAPAX@Z ; std::allocator_traits<std::allocator<std::_List_node<std::unique_ptr<void,ThreadTerminator<0> >,void *> > >::construct<std::unique_ptr<void,ThreadTerminator<0> >,void * &>
PUBLIC	??$construct@V?$unique_ptr@XU?$ThreadTerminator@$0A@@@@std@@PAX@?$allocator_traits@V?$allocator@U?$_List_node@V?$unique_ptr@XU?$ThreadTerminator@$0A@@@@std@@PAX@std@@@std@@@std@@SAXAAV?$allocator@U?$_List_node@V?$unique_ptr@XU?$ThreadTerminator@$0A@@@@std@@PAX@std@@@1@PAV?$unique_ptr@XU?$ThreadTerminator@$0A@@@@1@$$QAPAX@Z ; std::allocator_traits<std::allocator<std::_List_node<std::unique_ptr<void,ThreadTerminator<0> >,void *> > >::construct<std::unique_ptr<void,ThreadTerminator<0> >,void *>
PUBLIC	??$?0V?$_Func_class@X$$$V@std@@@?$allocator@V?$_Func_impl@U?$_Callable_obj@V<lambda_3648d362fc95221bbf9c4c4a922d1611>@@$0A@@std@@V?$allocator@V?$_Func_class@X$$$V@std@@@2@X$$$V@std@@@std@@QAE@ABV?$allocator@V?$_Func_class@X$$$V@std@@@1@@Z ; std::allocator<std::_Func_impl<std::_Callable_obj<<lambda_3648d362fc95221bbf9c4c4a922d1611>,0>,std::allocator<std::_Func_class<void> >,void> >::allocator<std::_Func_impl<std::_Callable_obj<<lambda_3648d362fc95221bbf9c4c4a922d1611>,0>,std::allocator<std::_Func_class<void> >,void> ><std::_Func_class<void> >
PUBLIC	??$_Test_callable@V<lambda_3648d362fc95221bbf9c4c4a922d1611>@@@std@@YA_NAAV<lambda_3648d362fc95221bbf9c4c4a922d1611>@@@Z ; std::_Test_callable<<lambda_3648d362fc95221bbf9c4c4a922d1611> >
PUBLIC	??$?0V?$_Func_class@X$$$V@std@@@?$allocator@V?$_Func_impl@U?$_Callable_obj@V<lambda_3b020cec0f1508adac4c896f138918cf>@@$0A@@std@@V?$allocator@V?$_Func_class@X$$$V@std@@@2@X$$$V@std@@@std@@QAE@ABV?$allocator@V?$_Func_class@X$$$V@std@@@1@@Z ; std::allocator<std::_Func_impl<std::_Callable_obj<<lambda_3b020cec0f1508adac4c896f138918cf>,0>,std::allocator<std::_Func_class<void> >,void> >::allocator<std::_Func_impl<std::_Callable_obj<<lambda_3b020cec0f1508adac4c896f138918cf>,0>,std::allocator<std::_Func_class<void> >,void> ><std::_Func_class<void> >
PUBLIC	??$_Test_callable@V<lambda_3b020cec0f1508adac4c896f138918cf>@@@std@@YA_NAAV<lambda_3b020cec0f1508adac4c896f138918cf>@@@Z ; std::_Test_callable<<lambda_3b020cec0f1508adac4c896f138918cf> >
PUBLIC	??$?0V?$_Func_class@X$$$V@std@@@?$allocator@V?$_Func_impl@U?$_Callable_obj@V<lambda_7c9af1b141e25bc2e890d47a77a39da9>@@$0A@@std@@V?$allocator@V?$_Func_class@X$$$V@std@@@2@X$$$V@std@@@std@@QAE@ABV?$allocator@V?$_Func_class@X$$$V@std@@@1@@Z ; std::allocator<std::_Func_impl<std::_Callable_obj<<lambda_7c9af1b141e25bc2e890d47a77a39da9>,0>,std::allocator<std::_Func_class<void> >,void> >::allocator<std::_Func_impl<std::_Callable_obj<<lambda_7c9af1b141e25bc2e890d47a77a39da9>,0>,std::allocator<std::_Func_class<void> >,void> ><std::_Func_class<void> >
PUBLIC	??$_Test_callable@V<lambda_7c9af1b141e25bc2e890d47a77a39da9>@@@std@@YA_NAAV<lambda_7c9af1b141e25bc2e890d47a77a39da9>@@@Z ; std::_Test_callable<<lambda_7c9af1b141e25bc2e890d47a77a39da9> >
PUBLIC	??$?0V?$_Func_class@X$$$V@std@@@?$allocator@V?$_Func_impl@U?$_Callable_obj@V<lambda_e856d28dddb7588070dd099cfda6c634>@@$0A@@std@@V?$allocator@V?$_Func_class@X$$$V@std@@@2@X$$$V@std@@@std@@QAE@ABV?$allocator@V?$_Func_class@X$$$V@std@@@1@@Z ; std::allocator<std::_Func_impl<std::_Callable_obj<<lambda_e856d28dddb7588070dd099cfda6c634>,0>,std::allocator<std::_Func_class<void> >,void> >::allocator<std::_Func_impl<std::_Callable_obj<<lambda_e856d28dddb7588070dd099cfda6c634>,0>,std::allocator<std::_Func_class<void> >,void> ><std::_Func_class<void> >
PUBLIC	??$?0AAV<lambda_e856d28dddb7588070dd099cfda6c634>@@@?$_Func_impl@U?$_Callable_obj@V<lambda_e856d28dddb7588070dd099cfda6c634>@@$0A@@std@@V?$allocator@V?$_Func_class@X$$$V@std@@@2@X$$$V@std@@QAE@AAV<lambda_e856d28dddb7588070dd099cfda6c634>@@ABV?$allocator@V?$_Func_impl@U?$_Callable_obj@V<lambda_e856d28dddb7588070dd099cfda6c634>@@$0A@@std@@V?$allocator@V?$_Func_class@X$$$V@std@@@2@X$$$V@std@@@1@@Z ; std::_Func_impl<std::_Callable_obj<<lambda_e856d28dddb7588070dd099cfda6c634>,0>,std::allocator<std::_Func_class<void> >,void>::_Func_impl<std::_Callable_obj<<lambda_e856d28dddb7588070dd099cfda6c634>,0>,std::allocator<std::_Func_class<void> >,void><<lambda_e856d28dddb7588070dd099cfda6c634> &>
PUBLIC	??$_Test_callable@V<lambda_e856d28dddb7588070dd099cfda6c634>@@@std@@YA_NAAV<lambda_e856d28dddb7588070dd099cfda6c634>@@@Z ; std::_Test_callable<<lambda_e856d28dddb7588070dd099cfda6c634> >
PUBLIC	??$?0V?$_Func_class@X$$$V@std@@@?$allocator@V?$_Func_impl@U?$_Callable_obj@V<lambda_582637cdd8d6a2f689bc987be9ec55df>@@$0A@@std@@V?$allocator@V?$_Func_class@X$$$V@std@@@2@X$$$V@std@@@std@@QAE@ABV?$allocator@V?$_Func_class@X$$$V@std@@@1@@Z ; std::allocator<std::_Func_impl<std::_Callable_obj<<lambda_582637cdd8d6a2f689bc987be9ec55df>,0>,std::allocator<std::_Func_class<void> >,void> >::allocator<std::_Func_impl<std::_Callable_obj<<lambda_582637cdd8d6a2f689bc987be9ec55df>,0>,std::allocator<std::_Func_class<void> >,void> ><std::_Func_class<void> >
PUBLIC	??$?0AAV<lambda_582637cdd8d6a2f689bc987be9ec55df>@@@?$_Func_impl@U?$_Callable_obj@V<lambda_582637cdd8d6a2f689bc987be9ec55df>@@$0A@@std@@V?$allocator@V?$_Func_class@X$$$V@std@@@2@X$$$V@std@@QAE@AAV<lambda_582637cdd8d6a2f689bc987be9ec55df>@@ABV?$allocator@V?$_Func_impl@U?$_Callable_obj@V<lambda_582637cdd8d6a2f689bc987be9ec55df>@@$0A@@std@@V?$allocator@V?$_Func_class@X$$$V@std@@@2@X$$$V@std@@@1@@Z ; std::_Func_impl<std::_Callable_obj<<lambda_582637cdd8d6a2f689bc987be9ec55df>,0>,std::allocator<std::_Func_class<void> >,void>::_Func_impl<std::_Callable_obj<<lambda_582637cdd8d6a2f689bc987be9ec55df>,0>,std::allocator<std::_Func_class<void> >,void><<lambda_582637cdd8d6a2f689bc987be9ec55df> &>
PUBLIC	??$_Test_callable@V<lambda_582637cdd8d6a2f689bc987be9ec55df>@@@std@@YA_NAAV<lambda_582637cdd8d6a2f689bc987be9ec55df>@@@Z ; std::_Test_callable<<lambda_582637cdd8d6a2f689bc987be9ec55df> >
PUBLIC	?deallocate@?$allocator@V?$_Func_impl@U?$_Callable_obj@V<lambda_3648d362fc95221bbf9c4c4a922d1611>@@$0A@@std@@V?$allocator@V?$_Func_class@X$$$V@std@@@2@X$$$V@std@@@std@@QAEXPAV?$_Func_impl@U?$_Callable_obj@V<lambda_3648d362fc95221bbf9c4c4a922d1611>@@$0A@@std@@V?$allocator@V?$_Func_class@X$$$V@std@@@2@X$$$V@2@I@Z ; std::allocator<std::_Func_impl<std::_Callable_obj<<lambda_3648d362fc95221bbf9c4c4a922d1611>,0>,std::allocator<std::_Func_class<void> >,void> >::deallocate
PUBLIC	??0?$allocator@V?$_Func_impl@U?$_Callable_obj@V<lambda_3648d362fc95221bbf9c4c4a922d1611>@@$0A@@std@@V?$allocator@V?$_Func_class@X$$$V@std@@@2@X$$$V@std@@@std@@QAE@ABV01@@Z ; std::allocator<std::_Func_impl<std::_Callable_obj<<lambda_3648d362fc95221bbf9c4c4a922d1611>,0>,std::allocator<std::_Func_class<void> >,void> >::allocator<std::_Func_impl<std::_Callable_obj<<lambda_3648d362fc95221bbf9c4c4a922d1611>,0>,std::allocator<std::_Func_class<void> >,void> >
PUBLIC	?_Get@?$_Callable_base@V<lambda_3648d362fc95221bbf9c4c4a922d1611>@@$0A@@std@@QBEABV<lambda_3648d362fc95221bbf9c4c4a922d1611>@@XZ ; std::_Callable_base<<lambda_3648d362fc95221bbf9c4c4a922d1611>,0>::_Get
PUBLIC	??0?$_Func_impl@U?$_Callable_obj@V<lambda_3648d362fc95221bbf9c4c4a922d1611>@@$0A@@std@@V?$allocator@V?$_Func_class@X$$$V@std@@@2@X$$$V@std@@QAE@$$QAV01@@Z ; std::_Func_impl<std::_Callable_obj<<lambda_3648d362fc95221bbf9c4c4a922d1611>,0>,std::allocator<std::_Func_class<void> >,void>::_Func_impl<std::_Callable_obj<<lambda_3648d362fc95221bbf9c4c4a922d1611>,0>,std::allocator<std::_Func_class<void> >,void>
PUBLIC	??0?$_Func_impl@U?$_Callable_obj@V<lambda_3648d362fc95221bbf9c4c4a922d1611>@@$0A@@std@@V?$allocator@V?$_Func_class@X$$$V@std@@@2@X$$$V@std@@QAE@AAV01@@Z ; std::_Func_impl<std::_Callable_obj<<lambda_3648d362fc95221bbf9c4c4a922d1611>,0>,std::allocator<std::_Func_class<void> >,void>::_Func_impl<std::_Callable_obj<<lambda_3648d362fc95221bbf9c4c4a922d1611>,0>,std::allocator<std::_Func_class<void> >,void>
PUBLIC	?deallocate@?$allocator@V?$_Func_impl@U?$_Callable_obj@V<lambda_3b020cec0f1508adac4c896f138918cf>@@$0A@@std@@V?$allocator@V?$_Func_class@X$$$V@std@@@2@X$$$V@std@@@std@@QAEXPAV?$_Func_impl@U?$_Callable_obj@V<lambda_3b020cec0f1508adac4c896f138918cf>@@$0A@@std@@V?$allocator@V?$_Func_class@X$$$V@std@@@2@X$$$V@2@I@Z ; std::allocator<std::_Func_impl<std::_Callable_obj<<lambda_3b020cec0f1508adac4c896f138918cf>,0>,std::allocator<std::_Func_class<void> >,void> >::deallocate
PUBLIC	??0?$allocator@V?$_Func_impl@U?$_Callable_obj@V<lambda_3b020cec0f1508adac4c896f138918cf>@@$0A@@std@@V?$allocator@V?$_Func_class@X$$$V@std@@@2@X$$$V@std@@@std@@QAE@ABV01@@Z ; std::allocator<std::_Func_impl<std::_Callable_obj<<lambda_3b020cec0f1508adac4c896f138918cf>,0>,std::allocator<std::_Func_class<void> >,void> >::allocator<std::_Func_impl<std::_Callable_obj<<lambda_3b020cec0f1508adac4c896f138918cf>,0>,std::allocator<std::_Func_class<void> >,void> >
PUBLIC	?_Get@?$_Callable_base@V<lambda_3b020cec0f1508adac4c896f138918cf>@@$0A@@std@@QBEABV<lambda_3b020cec0f1508adac4c896f138918cf>@@XZ ; std::_Callable_base<<lambda_3b020cec0f1508adac4c896f138918cf>,0>::_Get
PUBLIC	??0?$_Func_impl@U?$_Callable_obj@V<lambda_3b020cec0f1508adac4c896f138918cf>@@$0A@@std@@V?$allocator@V?$_Func_class@X$$$V@std@@@2@X$$$V@std@@QAE@$$QAV01@@Z ; std::_Func_impl<std::_Callable_obj<<lambda_3b020cec0f1508adac4c896f138918cf>,0>,std::allocator<std::_Func_class<void> >,void>::_Func_impl<std::_Callable_obj<<lambda_3b020cec0f1508adac4c896f138918cf>,0>,std::allocator<std::_Func_class<void> >,void>
PUBLIC	??0?$_Func_impl@U?$_Callable_obj@V<lambda_3b020cec0f1508adac4c896f138918cf>@@$0A@@std@@V?$allocator@V?$_Func_class@X$$$V@std@@@2@X$$$V@std@@QAE@AAV01@@Z ; std::_Func_impl<std::_Callable_obj<<lambda_3b020cec0f1508adac4c896f138918cf>,0>,std::allocator<std::_Func_class<void> >,void>::_Func_impl<std::_Callable_obj<<lambda_3b020cec0f1508adac4c896f138918cf>,0>,std::allocator<std::_Func_class<void> >,void>
PUBLIC	?deallocate@?$allocator@V?$_Func_impl@U?$_Callable_obj@V<lambda_7c9af1b141e25bc2e890d47a77a39da9>@@$0A@@std@@V?$allocator@V?$_Func_class@X$$$V@std@@@2@X$$$V@std@@@std@@QAEXPAV?$_Func_impl@U?$_Callable_obj@V<lambda_7c9af1b141e25bc2e890d47a77a39da9>@@$0A@@std@@V?$allocator@V?$_Func_class@X$$$V@std@@@2@X$$$V@2@I@Z ; std::allocator<std::_Func_impl<std::_Callable_obj<<lambda_7c9af1b141e25bc2e890d47a77a39da9>,0>,std::allocator<std::_Func_class<void> >,void> >::deallocate
PUBLIC	??0?$allocator@V?$_Func_impl@U?$_Callable_obj@V<lambda_7c9af1b141e25bc2e890d47a77a39da9>@@$0A@@std@@V?$allocator@V?$_Func_class@X$$$V@std@@@2@X$$$V@std@@@std@@QAE@ABV01@@Z ; std::allocator<std::_Func_impl<std::_Callable_obj<<lambda_7c9af1b141e25bc2e890d47a77a39da9>,0>,std::allocator<std::_Func_class<void> >,void> >::allocator<std::_Func_impl<std::_Callable_obj<<lambda_7c9af1b141e25bc2e890d47a77a39da9>,0>,std::allocator<std::_Func_class<void> >,void> >
PUBLIC	?_Get@?$_Callable_base@V<lambda_7c9af1b141e25bc2e890d47a77a39da9>@@$0A@@std@@QBEABV<lambda_7c9af1b141e25bc2e890d47a77a39da9>@@XZ ; std::_Callable_base<<lambda_7c9af1b141e25bc2e890d47a77a39da9>,0>::_Get
PUBLIC	??0?$_Func_impl@U?$_Callable_obj@V<lambda_7c9af1b141e25bc2e890d47a77a39da9>@@$0A@@std@@V?$allocator@V?$_Func_class@X$$$V@std@@@2@X$$$V@std@@QAE@$$QAV01@@Z ; std::_Func_impl<std::_Callable_obj<<lambda_7c9af1b141e25bc2e890d47a77a39da9>,0>,std::allocator<std::_Func_class<void> >,void>::_Func_impl<std::_Callable_obj<<lambda_7c9af1b141e25bc2e890d47a77a39da9>,0>,std::allocator<std::_Func_class<void> >,void>
PUBLIC	??0?$_Func_impl@U?$_Callable_obj@V<lambda_7c9af1b141e25bc2e890d47a77a39da9>@@$0A@@std@@V?$allocator@V?$_Func_class@X$$$V@std@@@2@X$$$V@std@@QAE@AAV01@@Z ; std::_Func_impl<std::_Callable_obj<<lambda_7c9af1b141e25bc2e890d47a77a39da9>,0>,std::allocator<std::_Func_class<void> >,void>::_Func_impl<std::_Callable_obj<<lambda_7c9af1b141e25bc2e890d47a77a39da9>,0>,std::allocator<std::_Func_class<void> >,void>
PUBLIC	?deallocate@?$allocator@V?$_Func_impl@U?$_Callable_obj@V<lambda_e856d28dddb7588070dd099cfda6c634>@@$0A@@std@@V?$allocator@V?$_Func_class@X$$$V@std@@@2@X$$$V@std@@@std@@QAEXPAV?$_Func_impl@U?$_Callable_obj@V<lambda_e856d28dddb7588070dd099cfda6c634>@@$0A@@std@@V?$allocator@V?$_Func_class@X$$$V@std@@@2@X$$$V@2@I@Z ; std::allocator<std::_Func_impl<std::_Callable_obj<<lambda_e856d28dddb7588070dd099cfda6c634>,0>,std::allocator<std::_Func_class<void> >,void> >::deallocate
PUBLIC	??0?$allocator@V?$_Func_impl@U?$_Callable_obj@V<lambda_e856d28dddb7588070dd099cfda6c634>@@$0A@@std@@V?$allocator@V?$_Func_class@X$$$V@std@@@2@X$$$V@std@@@std@@QAE@ABV01@@Z ; std::allocator<std::_Func_impl<std::_Callable_obj<<lambda_e856d28dddb7588070dd099cfda6c634>,0>,std::allocator<std::_Func_class<void> >,void> >::allocator<std::_Func_impl<std::_Callable_obj<<lambda_e856d28dddb7588070dd099cfda6c634>,0>,std::allocator<std::_Func_class<void> >,void> >
PUBLIC	?_Get@?$_Callable_base@V<lambda_e856d28dddb7588070dd099cfda6c634>@@$0A@@std@@QBEABV<lambda_e856d28dddb7588070dd099cfda6c634>@@XZ ; std::_Callable_base<<lambda_e856d28dddb7588070dd099cfda6c634>,0>::_Get
PUBLIC	??0?$_Func_impl@U?$_Callable_obj@V<lambda_e856d28dddb7588070dd099cfda6c634>@@$0A@@std@@V?$allocator@V?$_Func_class@X$$$V@std@@@2@X$$$V@std@@QAE@$$QAV01@@Z ; std::_Func_impl<std::_Callable_obj<<lambda_e856d28dddb7588070dd099cfda6c634>,0>,std::allocator<std::_Func_class<void> >,void>::_Func_impl<std::_Callable_obj<<lambda_e856d28dddb7588070dd099cfda6c634>,0>,std::allocator<std::_Func_class<void> >,void>
PUBLIC	??0?$_Func_impl@U?$_Callable_obj@V<lambda_e856d28dddb7588070dd099cfda6c634>@@$0A@@std@@V?$allocator@V?$_Func_class@X$$$V@std@@@2@X$$$V@std@@QAE@AAV01@@Z ; std::_Func_impl<std::_Callable_obj<<lambda_e856d28dddb7588070dd099cfda6c634>,0>,std::allocator<std::_Func_class<void> >,void>::_Func_impl<std::_Callable_obj<<lambda_e856d28dddb7588070dd099cfda6c634>,0>,std::allocator<std::_Func_class<void> >,void>
PUBLIC	?deallocate@?$allocator@V?$_Func_impl@U?$_Callable_obj@V<lambda_582637cdd8d6a2f689bc987be9ec55df>@@$0A@@std@@V?$allocator@V?$_Func_class@X$$$V@std@@@2@X$$$V@std@@@std@@QAEXPAV?$_Func_impl@U?$_Callable_obj@V<lambda_582637cdd8d6a2f689bc987be9ec55df>@@$0A@@std@@V?$allocator@V?$_Func_class@X$$$V@std@@@2@X$$$V@2@I@Z ; std::allocator<std::_Func_impl<std::_Callable_obj<<lambda_582637cdd8d6a2f689bc987be9ec55df>,0>,std::allocator<std::_Func_class<void> >,void> >::deallocate
PUBLIC	??0?$allocator@V?$_Func_impl@U?$_Callable_obj@V<lambda_582637cdd8d6a2f689bc987be9ec55df>@@$0A@@std@@V?$allocator@V?$_Func_class@X$$$V@std@@@2@X$$$V@std@@@std@@QAE@ABV01@@Z ; std::allocator<std::_Func_impl<std::_Callable_obj<<lambda_582637cdd8d6a2f689bc987be9ec55df>,0>,std::allocator<std::_Func_class<void> >,void> >::allocator<std::_Func_impl<std::_Callable_obj<<lambda_582637cdd8d6a2f689bc987be9ec55df>,0>,std::allocator<std::_Func_class<void> >,void> >
PUBLIC	?_Get@?$_Callable_base@V<lambda_582637cdd8d6a2f689bc987be9ec55df>@@$0A@@std@@QBEABV<lambda_582637cdd8d6a2f689bc987be9ec55df>@@XZ ; std::_Callable_base<<lambda_582637cdd8d6a2f689bc987be9ec55df>,0>::_Get
PUBLIC	??0?$_Func_impl@U?$_Callable_obj@V<lambda_582637cdd8d6a2f689bc987be9ec55df>@@$0A@@std@@V?$allocator@V?$_Func_class@X$$$V@std@@@2@X$$$V@std@@QAE@$$QAV01@@Z ; std::_Func_impl<std::_Callable_obj<<lambda_582637cdd8d6a2f689bc987be9ec55df>,0>,std::allocator<std::_Func_class<void> >,void>::_Func_impl<std::_Callable_obj<<lambda_582637cdd8d6a2f689bc987be9ec55df>,0>,std::allocator<std::_Func_class<void> >,void>
PUBLIC	??0?$_Func_impl@U?$_Callable_obj@V<lambda_582637cdd8d6a2f689bc987be9ec55df>@@$0A@@std@@V?$allocator@V?$_Func_class@X$$$V@std@@@2@X$$$V@std@@QAE@AAV01@@Z ; std::_Func_impl<std::_Callable_obj<<lambda_582637cdd8d6a2f689bc987be9ec55df>,0>,std::allocator<std::_Func_class<void> >,void>::_Func_impl<std::_Callable_obj<<lambda_582637cdd8d6a2f689bc987be9ec55df>,0>,std::allocator<std::_Func_class<void> >,void>
PUBLIC	??_G?$_Func_impl@U?$_Callable_obj@V<lambda_3648d362fc95221bbf9c4c4a922d1611>@@$0A@@std@@V?$allocator@V?$_Func_class@X$$$V@std@@@2@X$$$V@std@@UAEPAXI@Z ; std::_Func_impl<std::_Callable_obj<<lambda_3648d362fc95221bbf9c4c4a922d1611>,0>,std::allocator<std::_Func_class<void> >,void>::`scalar deleting destructor'
PUBLIC	??_G?$_Func_impl@U?$_Callable_obj@V<lambda_3b020cec0f1508adac4c896f138918cf>@@$0A@@std@@V?$allocator@V?$_Func_class@X$$$V@std@@@2@X$$$V@std@@UAEPAXI@Z ; std::_Func_impl<std::_Callable_obj<<lambda_3b020cec0f1508adac4c896f138918cf>,0>,std::allocator<std::_Func_class<void> >,void>::`scalar deleting destructor'
PUBLIC	??0?$_Func_base@X$$$V@std@@QAE@XZ		; std::_Func_base<void>::_Func_base<void>
PUBLIC	??_G?$_Func_impl@U?$_Callable_obj@V<lambda_7c9af1b141e25bc2e890d47a77a39da9>@@$0A@@std@@V?$allocator@V?$_Func_class@X$$$V@std@@@2@X$$$V@std@@UAEPAXI@Z ; std::_Func_impl<std::_Callable_obj<<lambda_7c9af1b141e25bc2e890d47a77a39da9>,0>,std::allocator<std::_Func_class<void> >,void>::`scalar deleting destructor'
PUBLIC	??_G?$_Func_impl@U?$_Callable_obj@V<lambda_e856d28dddb7588070dd099cfda6c634>@@$0A@@std@@V?$allocator@V?$_Func_class@X$$$V@std@@@2@X$$$V@std@@UAEPAXI@Z ; std::_Func_impl<std::_Callable_obj<<lambda_e856d28dddb7588070dd099cfda6c634>,0>,std::allocator<std::_Func_class<void> >,void>::`scalar deleting destructor'
PUBLIC	??_G?$_Func_impl@U?$_Callable_obj@V<lambda_582637cdd8d6a2f689bc987be9ec55df>@@$0A@@std@@V?$allocator@V?$_Func_class@X$$$V@std@@@2@X$$$V@std@@UAEPAXI@Z ; std::_Func_impl<std::_Callable_obj<<lambda_582637cdd8d6a2f689bc987be9ec55df>,0>,std::allocator<std::_Func_class<void> >,void>::`scalar deleting destructor'
PUBLIC	?allocate@?$allocator@V?$_Func_impl@U?$_Callable_obj@V<lambda_3648d362fc95221bbf9c4c4a922d1611>@@$0A@@std@@V?$allocator@V?$_Func_class@X$$$V@std@@@2@X$$$V@std@@@std@@QAEPAV?$_Func_impl@U?$_Callable_obj@V<lambda_3648d362fc95221bbf9c4c4a922d1611>@@$0A@@std@@V?$allocator@V?$_Func_class@X$$$V@std@@@2@X$$$V@2@I@Z ; std::allocator<std::_Func_impl<std::_Callable_obj<<lambda_3648d362fc95221bbf9c4c4a922d1611>,0>,std::allocator<std::_Func_class<void> >,void> >::allocate
PUBLIC	??0?$allocator@V?$_Func_impl@U?$_Callable_obj@V<lambda_3648d362fc95221bbf9c4c4a922d1611>@@$0A@@std@@V?$allocator@V?$_Func_class@X$$$V@std@@@2@X$$$V@std@@@std@@QAE@XZ ; std::allocator<std::_Func_impl<std::_Callable_obj<<lambda_3648d362fc95221bbf9c4c4a922d1611>,0>,std::allocator<std::_Func_class<void> >,void> >::allocator<std::_Func_impl<std::_Callable_obj<<lambda_3648d362fc95221bbf9c4c4a922d1611>,0>,std::allocator<std::_Func_class<void> >,void> >
PUBLIC	?_Delete_this@?$_Func_impl@U?$_Callable_obj@V<lambda_3648d362fc95221bbf9c4c4a922d1611>@@$0A@@std@@V?$allocator@V?$_Func_class@X$$$V@std@@@2@X$$$V@std@@EAEX_N@Z ; std::_Func_impl<std::_Callable_obj<<lambda_3648d362fc95221bbf9c4c4a922d1611>,0>,std::allocator<std::_Func_class<void> >,void>::_Delete_this
PUBLIC	?_Get@?$_Func_impl@U?$_Callable_obj@V<lambda_3648d362fc95221bbf9c4c4a922d1611>@@$0A@@std@@V?$allocator@V?$_Func_class@X$$$V@std@@@2@X$$$V@std@@EBEPBXXZ ; std::_Func_impl<std::_Callable_obj<<lambda_3648d362fc95221bbf9c4c4a922d1611>,0>,std::allocator<std::_Func_class<void> >,void>::_Get
PUBLIC	?_Target_type@?$_Func_impl@U?$_Callable_obj@V<lambda_3648d362fc95221bbf9c4c4a922d1611>@@$0A@@std@@V?$allocator@V?$_Func_class@X$$$V@std@@@2@X$$$V@std@@UBEABVtype_info@@XZ ; std::_Func_impl<std::_Callable_obj<<lambda_3648d362fc95221bbf9c4c4a922d1611>,0>,std::allocator<std::_Func_class<void> >,void>::_Target_type
PUBLIC	?_Do_call@?$_Func_impl@U?$_Callable_obj@V<lambda_3648d362fc95221bbf9c4c4a922d1611>@@$0A@@std@@V?$allocator@V?$_Func_class@X$$$V@std@@@2@X$$$V@std@@UAEXXZ ; std::_Func_impl<std::_Callable_obj<<lambda_3648d362fc95221bbf9c4c4a922d1611>,0>,std::allocator<std::_Func_class<void> >,void>::_Do_call
PUBLIC	??1?$_Func_impl@U?$_Callable_obj@V<lambda_3648d362fc95221bbf9c4c4a922d1611>@@$0A@@std@@V?$allocator@V?$_Func_class@X$$$V@std@@@2@X$$$V@std@@UAE@XZ ; std::_Func_impl<std::_Callable_obj<<lambda_3648d362fc95221bbf9c4c4a922d1611>,0>,std::allocator<std::_Func_class<void> >,void>::~_Func_impl<std::_Callable_obj<<lambda_3648d362fc95221bbf9c4c4a922d1611>,0>,std::allocator<std::_Func_class<void> >,void>
PUBLIC	?_Move@?$_Func_impl@U?$_Callable_obj@V<lambda_3648d362fc95221bbf9c4c4a922d1611>@@$0A@@std@@V?$allocator@V?$_Func_class@X$$$V@std@@@2@X$$$V@std@@UAEPAV?$_Func_base@X$$$V@2@PAX@Z ; std::_Func_impl<std::_Callable_obj<<lambda_3648d362fc95221bbf9c4c4a922d1611>,0>,std::allocator<std::_Func_class<void> >,void>::_Move
PUBLIC	?_Copy@?$_Func_impl@U?$_Callable_obj@V<lambda_3648d362fc95221bbf9c4c4a922d1611>@@$0A@@std@@V?$allocator@V?$_Func_class@X$$$V@std@@@2@X$$$V@std@@UAEPAV?$_Func_base@X$$$V@2@PAX@Z ; std::_Func_impl<std::_Callable_obj<<lambda_3648d362fc95221bbf9c4c4a922d1611>,0>,std::allocator<std::_Func_class<void> >,void>::_Copy
PUBLIC	??0?$_Func_impl@U?$_Callable_obj@V<lambda_3648d362fc95221bbf9c4c4a922d1611>@@$0A@@std@@V?$allocator@V?$_Func_class@X$$$V@std@@@2@X$$$V@std@@QAE@$$QAV<lambda_3648d362fc95221bbf9c4c4a922d1611>@@ABV?$allocator@V?$_Func_impl@U?$_Callable_obj@V<lambda_3648d362fc95221bbf9c4c4a922d1611>@@$0A@@std@@V?$allocator@V?$_Func_class@X$$$V@std@@@2@X$$$V@std@@@1@@Z ; std::_Func_impl<std::_Callable_obj<<lambda_3648d362fc95221bbf9c4c4a922d1611>,0>,std::allocator<std::_Func_class<void> >,void>::_Func_impl<std::_Callable_obj<<lambda_3648d362fc95221bbf9c4c4a922d1611>,0>,std::allocator<std::_Func_class<void> >,void>
PUBLIC	?allocate@?$allocator@V?$_Func_impl@U?$_Callable_obj@V<lambda_3b020cec0f1508adac4c896f138918cf>@@$0A@@std@@V?$allocator@V?$_Func_class@X$$$V@std@@@2@X$$$V@std@@@std@@QAEPAV?$_Func_impl@U?$_Callable_obj@V<lambda_3b020cec0f1508adac4c896f138918cf>@@$0A@@std@@V?$allocator@V?$_Func_class@X$$$V@std@@@2@X$$$V@2@I@Z ; std::allocator<std::_Func_impl<std::_Callable_obj<<lambda_3b020cec0f1508adac4c896f138918cf>,0>,std::allocator<std::_Func_class<void> >,void> >::allocate
PUBLIC	??0?$allocator@V?$_Func_impl@U?$_Callable_obj@V<lambda_3b020cec0f1508adac4c896f138918cf>@@$0A@@std@@V?$allocator@V?$_Func_class@X$$$V@std@@@2@X$$$V@std@@@std@@QAE@XZ ; std::allocator<std::_Func_impl<std::_Callable_obj<<lambda_3b020cec0f1508adac4c896f138918cf>,0>,std::allocator<std::_Func_class<void> >,void> >::allocator<std::_Func_impl<std::_Callable_obj<<lambda_3b020cec0f1508adac4c896f138918cf>,0>,std::allocator<std::_Func_class<void> >,void> >
PUBLIC	?_Delete_this@?$_Func_impl@U?$_Callable_obj@V<lambda_3b020cec0f1508adac4c896f138918cf>@@$0A@@std@@V?$allocator@V?$_Func_class@X$$$V@std@@@2@X$$$V@std@@EAEX_N@Z ; std::_Func_impl<std::_Callable_obj<<lambda_3b020cec0f1508adac4c896f138918cf>,0>,std::allocator<std::_Func_class<void> >,void>::_Delete_this
PUBLIC	?_Get@?$_Func_impl@U?$_Callable_obj@V<lambda_3b020cec0f1508adac4c896f138918cf>@@$0A@@std@@V?$allocator@V?$_Func_class@X$$$V@std@@@2@X$$$V@std@@EBEPBXXZ ; std::_Func_impl<std::_Callable_obj<<lambda_3b020cec0f1508adac4c896f138918cf>,0>,std::allocator<std::_Func_class<void> >,void>::_Get
PUBLIC	?_Target_type@?$_Func_impl@U?$_Callable_obj@V<lambda_3b020cec0f1508adac4c896f138918cf>@@$0A@@std@@V?$allocator@V?$_Func_class@X$$$V@std@@@2@X$$$V@std@@UBEABVtype_info@@XZ ; std::_Func_impl<std::_Callable_obj<<lambda_3b020cec0f1508adac4c896f138918cf>,0>,std::allocator<std::_Func_class<void> >,void>::_Target_type
PUBLIC	?_Do_call@?$_Func_impl@U?$_Callable_obj@V<lambda_3b020cec0f1508adac4c896f138918cf>@@$0A@@std@@V?$allocator@V?$_Func_class@X$$$V@std@@@2@X$$$V@std@@UAEXXZ ; std::_Func_impl<std::_Callable_obj<<lambda_3b020cec0f1508adac4c896f138918cf>,0>,std::allocator<std::_Func_class<void> >,void>::_Do_call
PUBLIC	??1?$_Func_impl@U?$_Callable_obj@V<lambda_3b020cec0f1508adac4c896f138918cf>@@$0A@@std@@V?$allocator@V?$_Func_class@X$$$V@std@@@2@X$$$V@std@@UAE@XZ ; std::_Func_impl<std::_Callable_obj<<lambda_3b020cec0f1508adac4c896f138918cf>,0>,std::allocator<std::_Func_class<void> >,void>::~_Func_impl<std::_Callable_obj<<lambda_3b020cec0f1508adac4c896f138918cf>,0>,std::allocator<std::_Func_class<void> >,void>
PUBLIC	?_Move@?$_Func_impl@U?$_Callable_obj@V<lambda_3b020cec0f1508adac4c896f138918cf>@@$0A@@std@@V?$allocator@V?$_Func_class@X$$$V@std@@@2@X$$$V@std@@UAEPAV?$_Func_base@X$$$V@2@PAX@Z ; std::_Func_impl<std::_Callable_obj<<lambda_3b020cec0f1508adac4c896f138918cf>,0>,std::allocator<std::_Func_class<void> >,void>::_Move
PUBLIC	?_Copy@?$_Func_impl@U?$_Callable_obj@V<lambda_3b020cec0f1508adac4c896f138918cf>@@$0A@@std@@V?$allocator@V?$_Func_class@X$$$V@std@@@2@X$$$V@std@@UAEPAV?$_Func_base@X$$$V@2@PAX@Z ; std::_Func_impl<std::_Callable_obj<<lambda_3b020cec0f1508adac4c896f138918cf>,0>,std::allocator<std::_Func_class<void> >,void>::_Copy
PUBLIC	??0?$_Func_impl@U?$_Callable_obj@V<lambda_3b020cec0f1508adac4c896f138918cf>@@$0A@@std@@V?$allocator@V?$_Func_class@X$$$V@std@@@2@X$$$V@std@@QAE@$$QAV<lambda_3b020cec0f1508adac4c896f138918cf>@@ABV?$allocator@V?$_Func_impl@U?$_Callable_obj@V<lambda_3b020cec0f1508adac4c896f138918cf>@@$0A@@std@@V?$allocator@V?$_Func_class@X$$$V@std@@@2@X$$$V@std@@@1@@Z ; std::_Func_impl<std::_Callable_obj<<lambda_3b020cec0f1508adac4c896f138918cf>,0>,std::allocator<std::_Func_class<void> >,void>::_Func_impl<std::_Callable_obj<<lambda_3b020cec0f1508adac4c896f138918cf>,0>,std::allocator<std::_Func_class<void> >,void>
PUBLIC	?allocate@?$allocator@V?$_Func_impl@U?$_Callable_obj@V<lambda_7c9af1b141e25bc2e890d47a77a39da9>@@$0A@@std@@V?$allocator@V?$_Func_class@X$$$V@std@@@2@X$$$V@std@@@std@@QAEPAV?$_Func_impl@U?$_Callable_obj@V<lambda_7c9af1b141e25bc2e890d47a77a39da9>@@$0A@@std@@V?$allocator@V?$_Func_class@X$$$V@std@@@2@X$$$V@2@I@Z ; std::allocator<std::_Func_impl<std::_Callable_obj<<lambda_7c9af1b141e25bc2e890d47a77a39da9>,0>,std::allocator<std::_Func_class<void> >,void> >::allocate
PUBLIC	??0?$allocator@V?$_Func_impl@U?$_Callable_obj@V<lambda_7c9af1b141e25bc2e890d47a77a39da9>@@$0A@@std@@V?$allocator@V?$_Func_class@X$$$V@std@@@2@X$$$V@std@@@std@@QAE@XZ ; std::allocator<std::_Func_impl<std::_Callable_obj<<lambda_7c9af1b141e25bc2e890d47a77a39da9>,0>,std::allocator<std::_Func_class<void> >,void> >::allocator<std::_Func_impl<std::_Callable_obj<<lambda_7c9af1b141e25bc2e890d47a77a39da9>,0>,std::allocator<std::_Func_class<void> >,void> >
PUBLIC	?_Delete_this@?$_Func_impl@U?$_Callable_obj@V<lambda_7c9af1b141e25bc2e890d47a77a39da9>@@$0A@@std@@V?$allocator@V?$_Func_class@X$$$V@std@@@2@X$$$V@std@@EAEX_N@Z ; std::_Func_impl<std::_Callable_obj<<lambda_7c9af1b141e25bc2e890d47a77a39da9>,0>,std::allocator<std::_Func_class<void> >,void>::_Delete_this
PUBLIC	?_Get@?$_Func_impl@U?$_Callable_obj@V<lambda_7c9af1b141e25bc2e890d47a77a39da9>@@$0A@@std@@V?$allocator@V?$_Func_class@X$$$V@std@@@2@X$$$V@std@@EBEPBXXZ ; std::_Func_impl<std::_Callable_obj<<lambda_7c9af1b141e25bc2e890d47a77a39da9>,0>,std::allocator<std::_Func_class<void> >,void>::_Get
PUBLIC	?_Target_type@?$_Func_impl@U?$_Callable_obj@V<lambda_7c9af1b141e25bc2e890d47a77a39da9>@@$0A@@std@@V?$allocator@V?$_Func_class@X$$$V@std@@@2@X$$$V@std@@UBEABVtype_info@@XZ ; std::_Func_impl<std::_Callable_obj<<lambda_7c9af1b141e25bc2e890d47a77a39da9>,0>,std::allocator<std::_Func_class<void> >,void>::_Target_type
PUBLIC	?_Do_call@?$_Func_impl@U?$_Callable_obj@V<lambda_7c9af1b141e25bc2e890d47a77a39da9>@@$0A@@std@@V?$allocator@V?$_Func_class@X$$$V@std@@@2@X$$$V@std@@UAEXXZ ; std::_Func_impl<std::_Callable_obj<<lambda_7c9af1b141e25bc2e890d47a77a39da9>,0>,std::allocator<std::_Func_class<void> >,void>::_Do_call
PUBLIC	??1?$_Func_impl@U?$_Callable_obj@V<lambda_7c9af1b141e25bc2e890d47a77a39da9>@@$0A@@std@@V?$allocator@V?$_Func_class@X$$$V@std@@@2@X$$$V@std@@UAE@XZ ; std::_Func_impl<std::_Callable_obj<<lambda_7c9af1b141e25bc2e890d47a77a39da9>,0>,std::allocator<std::_Func_class<void> >,void>::~_Func_impl<std::_Callable_obj<<lambda_7c9af1b141e25bc2e890d47a77a39da9>,0>,std::allocator<std::_Func_class<void> >,void>
PUBLIC	?_Move@?$_Func_impl@U?$_Callable_obj@V<lambda_7c9af1b141e25bc2e890d47a77a39da9>@@$0A@@std@@V?$allocator@V?$_Func_class@X$$$V@std@@@2@X$$$V@std@@UAEPAV?$_Func_base@X$$$V@2@PAX@Z ; std::_Func_impl<std::_Callable_obj<<lambda_7c9af1b141e25bc2e890d47a77a39da9>,0>,std::allocator<std::_Func_class<void> >,void>::_Move
PUBLIC	?_Copy@?$_Func_impl@U?$_Callable_obj@V<lambda_7c9af1b141e25bc2e890d47a77a39da9>@@$0A@@std@@V?$allocator@V?$_Func_class@X$$$V@std@@@2@X$$$V@std@@UAEPAV?$_Func_base@X$$$V@2@PAX@Z ; std::_Func_impl<std::_Callable_obj<<lambda_7c9af1b141e25bc2e890d47a77a39da9>,0>,std::allocator<std::_Func_class<void> >,void>::_Copy
PUBLIC	??0?$_Func_impl@U?$_Callable_obj@V<lambda_7c9af1b141e25bc2e890d47a77a39da9>@@$0A@@std@@V?$allocator@V?$_Func_class@X$$$V@std@@@2@X$$$V@std@@QAE@$$QAV<lambda_7c9af1b141e25bc2e890d47a77a39da9>@@ABV?$allocator@V?$_Func_impl@U?$_Callable_obj@V<lambda_7c9af1b141e25bc2e890d47a77a39da9>@@$0A@@std@@V?$allocator@V?$_Func_class@X$$$V@std@@@2@X$$$V@std@@@1@@Z ; std::_Func_impl<std::_Callable_obj<<lambda_7c9af1b141e25bc2e890d47a77a39da9>,0>,std::allocator<std::_Func_class<void> >,void>::_Func_impl<std::_Callable_obj<<lambda_7c9af1b141e25bc2e890d47a77a39da9>,0>,std::allocator<std::_Func_class<void> >,void>
PUBLIC	?allocate@?$allocator@V?$_Func_impl@U?$_Callable_obj@V<lambda_e856d28dddb7588070dd099cfda6c634>@@$0A@@std@@V?$allocator@V?$_Func_class@X$$$V@std@@@2@X$$$V@std@@@std@@QAEPAV?$_Func_impl@U?$_Callable_obj@V<lambda_e856d28dddb7588070dd099cfda6c634>@@$0A@@std@@V?$allocator@V?$_Func_class@X$$$V@std@@@2@X$$$V@2@I@Z ; std::allocator<std::_Func_impl<std::_Callable_obj<<lambda_e856d28dddb7588070dd099cfda6c634>,0>,std::allocator<std::_Func_class<void> >,void> >::allocate
PUBLIC	??0?$allocator@V?$_Func_impl@U?$_Callable_obj@V<lambda_e856d28dddb7588070dd099cfda6c634>@@$0A@@std@@V?$allocator@V?$_Func_class@X$$$V@std@@@2@X$$$V@std@@@std@@QAE@XZ ; std::allocator<std::_Func_impl<std::_Callable_obj<<lambda_e856d28dddb7588070dd099cfda6c634>,0>,std::allocator<std::_Func_class<void> >,void> >::allocator<std::_Func_impl<std::_Callable_obj<<lambda_e856d28dddb7588070dd099cfda6c634>,0>,std::allocator<std::_Func_class<void> >,void> >
PUBLIC	?_Delete_this@?$_Func_impl@U?$_Callable_obj@V<lambda_e856d28dddb7588070dd099cfda6c634>@@$0A@@std@@V?$allocator@V?$_Func_class@X$$$V@std@@@2@X$$$V@std@@EAEX_N@Z ; std::_Func_impl<std::_Callable_obj<<lambda_e856d28dddb7588070dd099cfda6c634>,0>,std::allocator<std::_Func_class<void> >,void>::_Delete_this
PUBLIC	?_Get@?$_Func_impl@U?$_Callable_obj@V<lambda_e856d28dddb7588070dd099cfda6c634>@@$0A@@std@@V?$allocator@V?$_Func_class@X$$$V@std@@@2@X$$$V@std@@EBEPBXXZ ; std::_Func_impl<std::_Callable_obj<<lambda_e856d28dddb7588070dd099cfda6c634>,0>,std::allocator<std::_Func_class<void> >,void>::_Get
PUBLIC	?_Target_type@?$_Func_impl@U?$_Callable_obj@V<lambda_e856d28dddb7588070dd099cfda6c634>@@$0A@@std@@V?$allocator@V?$_Func_class@X$$$V@std@@@2@X$$$V@std@@UBEABVtype_info@@XZ ; std::_Func_impl<std::_Callable_obj<<lambda_e856d28dddb7588070dd099cfda6c634>,0>,std::allocator<std::_Func_class<void> >,void>::_Target_type
PUBLIC	?_Do_call@?$_Func_impl@U?$_Callable_obj@V<lambda_e856d28dddb7588070dd099cfda6c634>@@$0A@@std@@V?$allocator@V?$_Func_class@X$$$V@std@@@2@X$$$V@std@@UAEXXZ ; std::_Func_impl<std::_Callable_obj<<lambda_e856d28dddb7588070dd099cfda6c634>,0>,std::allocator<std::_Func_class<void> >,void>::_Do_call
PUBLIC	??1?$_Func_impl@U?$_Callable_obj@V<lambda_e856d28dddb7588070dd099cfda6c634>@@$0A@@std@@V?$allocator@V?$_Func_class@X$$$V@std@@@2@X$$$V@std@@UAE@XZ ; std::_Func_impl<std::_Callable_obj<<lambda_e856d28dddb7588070dd099cfda6c634>,0>,std::allocator<std::_Func_class<void> >,void>::~_Func_impl<std::_Callable_obj<<lambda_e856d28dddb7588070dd099cfda6c634>,0>,std::allocator<std::_Func_class<void> >,void>
PUBLIC	?_Move@?$_Func_impl@U?$_Callable_obj@V<lambda_e856d28dddb7588070dd099cfda6c634>@@$0A@@std@@V?$allocator@V?$_Func_class@X$$$V@std@@@2@X$$$V@std@@UAEPAV?$_Func_base@X$$$V@2@PAX@Z ; std::_Func_impl<std::_Callable_obj<<lambda_e856d28dddb7588070dd099cfda6c634>,0>,std::allocator<std::_Func_class<void> >,void>::_Move
PUBLIC	?_Copy@?$_Func_impl@U?$_Callable_obj@V<lambda_e856d28dddb7588070dd099cfda6c634>@@$0A@@std@@V?$allocator@V?$_Func_class@X$$$V@std@@@2@X$$$V@std@@UAEPAV?$_Func_base@X$$$V@2@PAX@Z ; std::_Func_impl<std::_Callable_obj<<lambda_e856d28dddb7588070dd099cfda6c634>,0>,std::allocator<std::_Func_class<void> >,void>::_Copy
PUBLIC	?allocate@?$allocator@V?$_Func_impl@U?$_Callable_obj@V<lambda_582637cdd8d6a2f689bc987be9ec55df>@@$0A@@std@@V?$allocator@V?$_Func_class@X$$$V@std@@@2@X$$$V@std@@@std@@QAEPAV?$_Func_impl@U?$_Callable_obj@V<lambda_582637cdd8d6a2f689bc987be9ec55df>@@$0A@@std@@V?$allocator@V?$_Func_class@X$$$V@std@@@2@X$$$V@2@I@Z ; std::allocator<std::_Func_impl<std::_Callable_obj<<lambda_582637cdd8d6a2f689bc987be9ec55df>,0>,std::allocator<std::_Func_class<void> >,void> >::allocate
PUBLIC	??0?$allocator@V?$_Func_impl@U?$_Callable_obj@V<lambda_582637cdd8d6a2f689bc987be9ec55df>@@$0A@@std@@V?$allocator@V?$_Func_class@X$$$V@std@@@2@X$$$V@std@@@std@@QAE@XZ ; std::allocator<std::_Func_impl<std::_Callable_obj<<lambda_582637cdd8d6a2f689bc987be9ec55df>,0>,std::allocator<std::_Func_class<void> >,void> >::allocator<std::_Func_impl<std::_Callable_obj<<lambda_582637cdd8d6a2f689bc987be9ec55df>,0>,std::allocator<std::_Func_class<void> >,void> >
PUBLIC	?_Delete_this@?$_Func_impl@U?$_Callable_obj@V<lambda_582637cdd8d6a2f689bc987be9ec55df>@@$0A@@std@@V?$allocator@V?$_Func_class@X$$$V@std@@@2@X$$$V@std@@EAEX_N@Z ; std::_Func_impl<std::_Callable_obj<<lambda_582637cdd8d6a2f689bc987be9ec55df>,0>,std::allocator<std::_Func_class<void> >,void>::_Delete_this
PUBLIC	?_Get@?$_Func_impl@U?$_Callable_obj@V<lambda_582637cdd8d6a2f689bc987be9ec55df>@@$0A@@std@@V?$allocator@V?$_Func_class@X$$$V@std@@@2@X$$$V@std@@EBEPBXXZ ; std::_Func_impl<std::_Callable_obj<<lambda_582637cdd8d6a2f689bc987be9ec55df>,0>,std::allocator<std::_Func_class<void> >,void>::_Get
PUBLIC	?_Target_type@?$_Func_impl@U?$_Callable_obj@V<lambda_582637cdd8d6a2f689bc987be9ec55df>@@$0A@@std@@V?$allocator@V?$_Func_class@X$$$V@std@@@2@X$$$V@std@@UBEABVtype_info@@XZ ; std::_Func_impl<std::_Callable_obj<<lambda_582637cdd8d6a2f689bc987be9ec55df>,0>,std::allocator<std::_Func_class<void> >,void>::_Target_type
PUBLIC	?_Do_call@?$_Func_impl@U?$_Callable_obj@V<lambda_582637cdd8d6a2f689bc987be9ec55df>@@$0A@@std@@V?$allocator@V?$_Func_class@X$$$V@std@@@2@X$$$V@std@@UAEXXZ ; std::_Func_impl<std::_Callable_obj<<lambda_582637cdd8d6a2f689bc987be9ec55df>,0>,std::allocator<std::_Func_class<void> >,void>::_Do_call
PUBLIC	??1?$_Func_impl@U?$_Callable_obj@V<lambda_582637cdd8d6a2f689bc987be9ec55df>@@$0A@@std@@V?$allocator@V?$_Func_class@X$$$V@std@@@2@X$$$V@std@@UAE@XZ ; std::_Func_impl<std::_Callable_obj<<lambda_582637cdd8d6a2f689bc987be9ec55df>,0>,std::allocator<std::_Func_class<void> >,void>::~_Func_impl<std::_Callable_obj<<lambda_582637cdd8d6a2f689bc987be9ec55df>,0>,std::allocator<std::_Func_class<void> >,void>
PUBLIC	?_Move@?$_Func_impl@U?$_Callable_obj@V<lambda_582637cdd8d6a2f689bc987be9ec55df>@@$0A@@std@@V?$allocator@V?$_Func_class@X$$$V@std@@@2@X$$$V@std@@UAEPAV?$_Func_base@X$$$V@2@PAX@Z ; std::_Func_impl<std::_Callable_obj<<lambda_582637cdd8d6a2f689bc987be9ec55df>,0>,std::allocator<std::_Func_class<void> >,void>::_Move
PUBLIC	?_Copy@?$_Func_impl@U?$_Callable_obj@V<lambda_582637cdd8d6a2f689bc987be9ec55df>@@$0A@@std@@V?$allocator@V?$_Func_class@X$$$V@std@@@2@X$$$V@std@@UAEPAV?$_Func_base@X$$$V@2@PAX@Z ; std::_Func_impl<std::_Callable_obj<<lambda_582637cdd8d6a2f689bc987be9ec55df>,0>,std::allocator<std::_Func_class<void> >,void>::_Copy
PUBLIC	??$construct@V?$unique_ptr@XU?$ThreadTerminator@$0A@@@@std@@AAPAX@?$_Wrap_alloc@V?$allocator@U?$_List_node@V?$unique_ptr@XU?$ThreadTerminator@$0A@@@@std@@PAX@std@@@std@@@std@@QAEXPAV?$unique_ptr@XU?$ThreadTerminator@$0A@@@@1@AAPAX@Z ; std::_Wrap_alloc<std::allocator<std::_List_node<std::unique_ptr<void,ThreadTerminator<0> >,void *> > >::construct<std::unique_ptr<void,ThreadTerminator<0> >,void * &>
PUBLIC	??$construct@V?$unique_ptr@XU?$ThreadTerminator@$0A@@@@std@@PAX@?$_Wrap_alloc@V?$allocator@U?$_List_node@V?$unique_ptr@XU?$ThreadTerminator@$0A@@@@std@@PAX@std@@@std@@@std@@QAEXPAV?$unique_ptr@XU?$ThreadTerminator@$0A@@@@1@$$QAPAX@Z ; std::_Wrap_alloc<std::allocator<std::_List_node<std::unique_ptr<void,ThreadTerminator<0> >,void *> > >::construct<std::unique_ptr<void,ThreadTerminator<0> >,void *>
PUBLIC	??$_Do_alloc@V?$_Func_impl@U?$_Callable_obj@V<lambda_3648d362fc95221bbf9c4c4a922d1611>@@$0A@@std@@V?$allocator@V?$_Func_class@X$$$V@std@@@2@X$$$V@std@@V<lambda_3648d362fc95221bbf9c4c4a922d1611>@@V?$allocator@V?$_Func_class@X$$$V@std@@@2@@?$_Func_class@X$$$V@std@@AAEX$$QAV<lambda_3648d362fc95221bbf9c4c4a922d1611>@@V?$allocator@V?$_Func_class@X$$$V@std@@@1@@Z ; std::_Func_class<void>::_Do_alloc<std::_Func_impl<std::_Callable_obj<<lambda_3648d362fc95221bbf9c4c4a922d1611>,0>,std::allocator<std::_Func_class<void> >,void>,<lambda_3648d362fc95221bbf9c4c4a922d1611>,std::allocator<std::_Func_class<void> > >
PUBLIC	??$_Do_alloc@V?$_Func_impl@U?$_Callable_obj@V<lambda_3b020cec0f1508adac4c896f138918cf>@@$0A@@std@@V?$allocator@V?$_Func_class@X$$$V@std@@@2@X$$$V@std@@V<lambda_3b020cec0f1508adac4c896f138918cf>@@V?$allocator@V?$_Func_class@X$$$V@std@@@2@@?$_Func_class@X$$$V@std@@AAEX$$QAV<lambda_3b020cec0f1508adac4c896f138918cf>@@V?$allocator@V?$_Func_class@X$$$V@std@@@1@@Z ; std::_Func_class<void>::_Do_alloc<std::_Func_impl<std::_Callable_obj<<lambda_3b020cec0f1508adac4c896f138918cf>,0>,std::allocator<std::_Func_class<void> >,void>,<lambda_3b020cec0f1508adac4c896f138918cf>,std::allocator<std::_Func_class<void> > >
PUBLIC	??$_Do_alloc@V?$_Func_impl@U?$_Callable_obj@V<lambda_7c9af1b141e25bc2e890d47a77a39da9>@@$0A@@std@@V?$allocator@V?$_Func_class@X$$$V@std@@@2@X$$$V@std@@V<lambda_7c9af1b141e25bc2e890d47a77a39da9>@@V?$allocator@V?$_Func_class@X$$$V@std@@@2@@?$_Func_class@X$$$V@std@@AAEX$$QAV<lambda_7c9af1b141e25bc2e890d47a77a39da9>@@V?$allocator@V?$_Func_class@X$$$V@std@@@1@@Z ; std::_Func_class<void>::_Do_alloc<std::_Func_impl<std::_Callable_obj<<lambda_7c9af1b141e25bc2e890d47a77a39da9>,0>,std::allocator<std::_Func_class<void> >,void>,<lambda_7c9af1b141e25bc2e890d47a77a39da9>,std::allocator<std::_Func_class<void> > >
PUBLIC	??$_Do_alloc@V?$_Func_impl@U?$_Callable_obj@V<lambda_e856d28dddb7588070dd099cfda6c634>@@$0A@@std@@V?$allocator@V?$_Func_class@X$$$V@std@@@2@X$$$V@std@@AAV<lambda_e856d28dddb7588070dd099cfda6c634>@@V?$allocator@V?$_Func_class@X$$$V@std@@@2@@?$_Func_class@X$$$V@std@@AAEXAAV<lambda_e856d28dddb7588070dd099cfda6c634>@@V?$allocator@V?$_Func_class@X$$$V@std@@@1@@Z ; std::_Func_class<void>::_Do_alloc<std::_Func_impl<std::_Callable_obj<<lambda_e856d28dddb7588070dd099cfda6c634>,0>,std::allocator<std::_Func_class<void> >,void>,<lambda_e856d28dddb7588070dd099cfda6c634> &,std::allocator<std::_Func_class<void> > >
PUBLIC	??$_Do_alloc@V?$_Func_impl@U?$_Callable_obj@V<lambda_582637cdd8d6a2f689bc987be9ec55df>@@$0A@@std@@V?$allocator@V?$_Func_class@X$$$V@std@@@2@X$$$V@std@@AAV<lambda_582637cdd8d6a2f689bc987be9ec55df>@@V?$allocator@V?$_Func_class@X$$$V@std@@@2@@?$_Func_class@X$$$V@std@@AAEXAAV<lambda_582637cdd8d6a2f689bc987be9ec55df>@@V?$allocator@V?$_Func_class@X$$$V@std@@@1@@Z ; std::_Func_class<void>::_Do_alloc<std::_Func_impl<std::_Callable_obj<<lambda_582637cdd8d6a2f689bc987be9ec55df>,0>,std::allocator<std::_Func_class<void> >,void>,<lambda_582637cdd8d6a2f689bc987be9ec55df> &,std::allocator<std::_Func_class<void> > >
PUBLIC	??0?$allocator@V?$_Func_class@X$$$V@std@@@std@@QAE@ABV01@@Z ; std::allocator<std::_Func_class<void> >::allocator<std::_Func_class<void> >
PUBLIC	??$forward@AAV?$unique_ptr@VVideoFileStream@@U?$default_delete@VVideoFileStream@@@std@@@std@@@std@@YAAAV?$unique_ptr@VVideoFileStream@@U?$default_delete@VVideoFileStream@@@std@@@0@AAV10@@Z ; std::forward<std::unique_ptr<VideoFileStream,std::default_delete<VideoFileStream> > &>
PUBLIC	??$forward@AAPAUReplayBuffer@@@std@@YAAAPAUReplayBuffer@@AAPAU1@@Z ; std::forward<ReplayBuffer * &>
PUBLIC	??$construct@PAXPAX@?$allocator@PAX@std@@QAEXPAPAX$$QAPAX@Z ; std::allocator<void *>::construct<void *,void *>
PUBLIC	??$_Buynode@AAPAX@?$_List_buy@V?$unique_ptr@XU?$ThreadTerminator@$0A@@@@std@@V?$allocator@V?$unique_ptr@XU?$ThreadTerminator@$0A@@@@std@@@2@@std@@QAEPAU?$_List_node@V?$unique_ptr@XU?$ThreadTerminator@$0A@@@@std@@PAX@1@PAU21@0AAPAX@Z ; std::_List_buy<std::unique_ptr<void,ThreadTerminator<0> >,std::allocator<std::unique_ptr<void,ThreadTerminator<0> > > >::_Buynode<void * &>
PUBLIC	??$_Buynode@PAX@?$_List_buy@V?$unique_ptr@XU?$ThreadTerminator@$0A@@@@std@@V?$allocator@V?$unique_ptr@XU?$ThreadTerminator@$0A@@@@std@@@2@@std@@QAEPAU?$_List_node@V?$unique_ptr@XU?$ThreadTerminator@$0A@@@@std@@PAX@1@PAU21@0$$QAPAX@Z ; std::_List_buy<std::unique_ptr<void,ThreadTerminator<0> >,std::allocator<std::unique_ptr<void,ThreadTerminator<0> > > >::_Buynode<void *>
PUBLIC	??$_Reset_alloc@V<lambda_3648d362fc95221bbf9c4c4a922d1611>@@V?$allocator@V?$_Func_class@X$$$V@std@@@std@@@?$_Func_class@X$$$V@std@@IAEX$$QAV<lambda_3648d362fc95221bbf9c4c4a922d1611>@@V?$allocator@V?$_Func_class@X$$$V@std@@@1@@Z ; std::_Func_class<void>::_Reset_alloc<<lambda_3648d362fc95221bbf9c4c4a922d1611>,std::allocator<std::_Func_class<void> > >
PUBLIC	??$_Reset_alloc@V<lambda_3b020cec0f1508adac4c896f138918cf>@@V?$allocator@V?$_Func_class@X$$$V@std@@@std@@@?$_Func_class@X$$$V@std@@IAEX$$QAV<lambda_3b020cec0f1508adac4c896f138918cf>@@V?$allocator@V?$_Func_class@X$$$V@std@@@1@@Z ; std::_Func_class<void>::_Reset_alloc<<lambda_3b020cec0f1508adac4c896f138918cf>,std::allocator<std::_Func_class<void> > >
PUBLIC	??$_Reset_alloc@V<lambda_7c9af1b141e25bc2e890d47a77a39da9>@@V?$allocator@V?$_Func_class@X$$$V@std@@@std@@@?$_Func_class@X$$$V@std@@IAEX$$QAV<lambda_7c9af1b141e25bc2e890d47a77a39da9>@@V?$allocator@V?$_Func_class@X$$$V@std@@@1@@Z ; std::_Func_class<void>::_Reset_alloc<<lambda_7c9af1b141e25bc2e890d47a77a39da9>,std::allocator<std::_Func_class<void> > >
PUBLIC	??$_Reset_alloc@AAV<lambda_e856d28dddb7588070dd099cfda6c634>@@V?$allocator@V?$_Func_class@X$$$V@std@@@std@@@?$_Func_class@X$$$V@std@@IAEXAAV<lambda_e856d28dddb7588070dd099cfda6c634>@@V?$allocator@V?$_Func_class@X$$$V@std@@@1@@Z ; std::_Func_class<void>::_Reset_alloc<<lambda_e856d28dddb7588070dd099cfda6c634> &,std::allocator<std::_Func_class<void> > >
PUBLIC	??$_Reset_alloc@AAV<lambda_582637cdd8d6a2f689bc987be9ec55df>@@V?$allocator@V?$_Func_class@X$$$V@std@@@std@@@?$_Func_class@X$$$V@std@@IAEXAAV<lambda_582637cdd8d6a2f689bc987be9ec55df>@@V?$allocator@V?$_Func_class@X$$$V@std@@@1@@Z ; std::_Func_class<void>::_Reset_alloc<<lambda_582637cdd8d6a2f689bc987be9ec55df> &,std::allocator<std::_Func_class<void> > >
PUBLIC	??$forward@V?$tuple@$$$V@std@@@std@@YA$$QAV?$tuple@$$$V@0@AAV10@@Z ; std::forward<std::tuple<> >
PUBLIC	??$?0V?$unique_ptr@VVideoFileStream@@U?$default_delete@VVideoFileStream@@@std@@@std@@@?$_Tuple_val@V?$unique_ptr@VVideoFileStream@@U?$default_delete@VVideoFileStream@@@std@@@std@@@std@@QAE@$$QAV?$unique_ptr@VVideoFileStream@@U?$default_delete@VVideoFileStream@@@std@@@1@@Z ; std::_Tuple_val<std::unique_ptr<VideoFileStream,std::default_delete<VideoFileStream> > >::_Tuple_val<std::unique_ptr<VideoFileStream,std::default_delete<VideoFileStream> > ><std::unique_ptr<VideoFileStream,std::default_delete<VideoFileStream> > >
PUBLIC	?max_size@?$allocator@U?$_List_node@V?$unique_ptr@XU?$ThreadTerminator@$0A@@@@std@@PAX@std@@@std@@QBEIXZ ; std::allocator<std::_List_node<std::unique_ptr<void,ThreadTerminator<0> >,void *> >::max_size
PUBLIC	?max_size@?$allocator_traits@V?$allocator@U?$_List_node@V?$unique_ptr@XU?$ThreadTerminator@$0A@@@@std@@PAX@std@@@std@@@std@@SAIABV?$allocator@U?$_List_node@V?$unique_ptr@XU?$ThreadTerminator@$0A@@@@std@@PAX@std@@@2@@Z ; std::allocator_traits<std::allocator<std::_List_node<std::unique_ptr<void,ThreadTerminator<0> >,void *> > >::max_size
PUBLIC	?max_size@?$_Wrap_alloc@V?$allocator@U?$_List_node@V?$unique_ptr@XU?$ThreadTerminator@$0A@@@@std@@PAX@std@@@std@@@std@@QBEIXZ ; std::_Wrap_alloc<std::allocator<std::_List_node<std::unique_ptr<void,ThreadTerminator<0> >,void *> > >::max_size
PUBLIC	?max_size@?$list@V?$unique_ptr@XU?$ThreadTerminator@$0A@@@@std@@V?$allocator@V?$unique_ptr@XU?$ThreadTerminator@$0A@@@@std@@@2@@std@@QBEIXZ ; std::list<std::unique_ptr<void,ThreadTerminator<0> >,std::allocator<std::unique_ptr<void,ThreadTerminator<0> > > >::max_size
PUBLIC	??0?$allocator@V?$_Func_class@X$$$V@std@@@std@@QAE@XZ ; std::allocator<std::_Func_class<void> >::allocator<std::_Func_class<void> >
PUBLIC	?_Get_rest@?$tuple@V?$unique_ptr@VVideoFileStream@@U?$default_delete@VVideoFileStream@@@std@@@std@@@std@@QAEAAV?$tuple@$$$V@2@XZ ; std::tuple<std::unique_ptr<VideoFileStream,std::default_delete<VideoFileStream> > >::_Get_rest
PUBLIC	?_Mynode@?$_List_unchecked_const_iterator@V?$_List_val@U?$_List_simple_types@V?$unique_ptr@XU?$ThreadTerminator@$0A@@@@std@@@std@@@std@@U_Iterator_base0@2@@std@@QBEPAU?$_List_node@V?$unique_ptr@XU?$ThreadTerminator@$0A@@@@std@@PAX@2@XZ ; std::_List_unchecked_const_iterator<std::_List_val<std::_List_simple_types<std::unique_ptr<void,ThreadTerminator<0> > > >,std::_Iterator_base0>::_Mynode
PUBLIC	?_Incsize@?$list@V?$unique_ptr@XU?$ThreadTerminator@$0A@@@@std@@V?$allocator@V?$unique_ptr@XU?$ThreadTerminator@$0A@@@@std@@@2@@std@@QAEXI@Z ; std::list<std::unique_ptr<void,ThreadTerminator<0> >,std::allocator<std::unique_ptr<void,ThreadTerminator<0> > > >::_Incsize
PUBLIC	??4?$unique_ptr@VVideoFileStream@@U?$default_delete@VVideoFileStream@@@std@@@std@@QAEAAV01@$$QAV01@@Z ; std::unique_ptr<VideoFileStream,std::default_delete<VideoFileStream> >::operator=
PUBLIC	??$?0AAV?$unique_ptr@VVideoFileStream@@U?$default_delete@VVideoFileStream@@@std@@@std@@@?$_Tuple_val@AAV?$unique_ptr@VVideoFileStream@@U?$default_delete@VVideoFileStream@@@std@@@std@@@std@@QAE@AAV?$unique_ptr@VVideoFileStream@@U?$default_delete@VVideoFileStream@@@std@@@1@@Z ; std::_Tuple_val<std::unique_ptr<VideoFileStream,std::default_delete<VideoFileStream> > &>::_Tuple_val<std::unique_ptr<VideoFileStream,std::default_delete<VideoFileStream> > &><std::unique_ptr<VideoFileStream,std::default_delete<VideoFileStream> > &>
PUBLIC	??$?0AAPAUReplayBuffer@@@?$_Tuple_val@AAPAUReplayBuffer@@@std@@QAE@AAPAUReplayBuffer@@@Z ; std::_Tuple_val<ReplayBuffer * &>::_Tuple_val<ReplayBuffer * &><ReplayBuffer * &>
PUBLIC	??$construct@PAXPAX@?$allocator_traits@V?$allocator@PAX@std@@@std@@SAXAAV?$allocator@PAX@1@PAPAX$$QAPAX@Z ; std::allocator_traits<std::allocator<void *> >::construct<void *,void *>
PUBLIC	??$_Insert@AAPAX@?$list@V?$unique_ptr@XU?$ThreadTerminator@$0A@@@@std@@V?$allocator@V?$unique_ptr@XU?$ThreadTerminator@$0A@@@@std@@@2@@std@@QAEXV?$_List_unchecked_const_iterator@V?$_List_val@U?$_List_simple_types@V?$unique_ptr@XU?$ThreadTerminator@$0A@@@@std@@@std@@@std@@U_Iterator_base0@2@@1@AAPAX@Z ; std::list<std::unique_ptr<void,ThreadTerminator<0> >,std::allocator<std::unique_ptr<void,ThreadTerminator<0> > > >::_Insert<void * &>
PUBLIC	??$_Insert@PAX@?$list@V?$unique_ptr@XU?$ThreadTerminator@$0A@@@@std@@V?$allocator@V?$unique_ptr@XU?$ThreadTerminator@$0A@@@@std@@@2@@std@@QAEXV?$_List_unchecked_const_iterator@V?$_List_val@U?$_List_simple_types@V?$unique_ptr@XU?$ThreadTerminator@$0A@@@@std@@@std@@@std@@U_Iterator_base0@2@@1@$$QAPAX@Z ; std::list<std::unique_ptr<void,ThreadTerminator<0> >,std::allocator<std::unique_ptr<void,ThreadTerminator<0> > > >::_Insert<void *>
PUBLIC	??$forward@AAPAUClosableStream@@@std@@YAAAPAUClosableStream@@AAPAU1@@Z ; std::forward<ClosableStream * &>
PUBLIC	??$_Reset@V<lambda_3648d362fc95221bbf9c4c4a922d1611>@@@?$_Func_class@X$$$V@std@@IAEX$$QAV<lambda_3648d362fc95221bbf9c4c4a922d1611>@@@Z ; std::_Func_class<void>::_Reset<<lambda_3648d362fc95221bbf9c4c4a922d1611> >
PUBLIC	??$forward@V<lambda_3648d362fc95221bbf9c4c4a922d1611>@@@std@@YA$$QAV<lambda_3648d362fc95221bbf9c4c4a922d1611>@@AAV1@@Z ; std::forward<<lambda_3648d362fc95221bbf9c4c4a922d1611> >
PUBLIC	??$_Reset@V<lambda_3b020cec0f1508adac4c896f138918cf>@@@?$_Func_class@X$$$V@std@@IAEX$$QAV<lambda_3b020cec0f1508adac4c896f138918cf>@@@Z ; std::_Func_class<void>::_Reset<<lambda_3b020cec0f1508adac4c896f138918cf> >
PUBLIC	??$forward@V<lambda_3b020cec0f1508adac4c896f138918cf>@@@std@@YA$$QAV<lambda_3b020cec0f1508adac4c896f138918cf>@@AAV1@@Z ; std::forward<<lambda_3b020cec0f1508adac4c896f138918cf> >
PUBLIC	??$_Reset@V<lambda_7c9af1b141e25bc2e890d47a77a39da9>@@@?$_Func_class@X$$$V@std@@IAEX$$QAV<lambda_7c9af1b141e25bc2e890d47a77a39da9>@@@Z ; std::_Func_class<void>::_Reset<<lambda_7c9af1b141e25bc2e890d47a77a39da9> >
PUBLIC	??$forward@V<lambda_7c9af1b141e25bc2e890d47a77a39da9>@@@std@@YA$$QAV<lambda_7c9af1b141e25bc2e890d47a77a39da9>@@AAV1@@Z ; std::forward<<lambda_7c9af1b141e25bc2e890d47a77a39da9> >
PUBLIC	??$_Reset@AAV<lambda_e856d28dddb7588070dd099cfda6c634>@@@?$_Func_class@X$$$V@std@@IAEXAAV<lambda_e856d28dddb7588070dd099cfda6c634>@@@Z ; std::_Func_class<void>::_Reset<<lambda_e856d28dddb7588070dd099cfda6c634> &>
PUBLIC	??$forward@AAV<lambda_e856d28dddb7588070dd099cfda6c634>@@@std@@YAAAV<lambda_e856d28dddb7588070dd099cfda6c634>@@AAV1@@Z ; std::forward<<lambda_e856d28dddb7588070dd099cfda6c634> &>
PUBLIC	??$_Reset@AAV<lambda_582637cdd8d6a2f689bc987be9ec55df>@@@?$_Func_class@X$$$V@std@@IAEXAAV<lambda_582637cdd8d6a2f689bc987be9ec55df>@@@Z ; std::_Func_class<void>::_Reset<<lambda_582637cdd8d6a2f689bc987be9ec55df> &>
PUBLIC	??$forward@AAV<lambda_582637cdd8d6a2f689bc987be9ec55df>@@@std@@YAAAV<lambda_582637cdd8d6a2f689bc987be9ec55df>@@AAV1@@Z ; std::forward<<lambda_582637cdd8d6a2f689bc987be9ec55df> &>
PUBLIC	??$?4V?$unique_ptr@VVideoFileStream@@U?$default_delete@VVideoFileStream@@@std@@@std@@@?$tuple@AAV?$unique_ptr@VVideoFileStream@@U?$default_delete@VVideoFileStream@@@std@@@std@@@std@@QAEAAV01@$$QAV?$tuple@V?$unique_ptr@VVideoFileStream@@U?$default_delete@VVideoFileStream@@@std@@@std@@@1@@Z ; std::tuple<std::unique_ptr<VideoFileStream,std::default_delete<VideoFileStream> > &>::operator=<std::unique_ptr<VideoFileStream,std::default_delete<VideoFileStream> > >
PUBLIC	??$?0V?$unique_ptr@VVideoFileStream@@U?$default_delete@VVideoFileStream@@@std@@@std@@$$$VPAPAX@?$tuple@V?$unique_ptr@VVideoFileStream@@U?$default_delete@VVideoFileStream@@@std@@@std@@@std@@QAE@$$QAV?$unique_ptr@VVideoFileStream@@U?$default_delete@VVideoFileStream@@@std@@@1@@Z ; std::tuple<std::unique_ptr<VideoFileStream,std::default_delete<VideoFileStream> > >::tuple<std::unique_ptr<VideoFileStream,std::default_delete<VideoFileStream> > ><std::unique_ptr<VideoFileStream,std::default_delete<VideoFileStream> >,void * *>
PUBLIC	??$forward@V?$unique_ptr@VVideoFileStream@@U?$default_delete@VVideoFileStream@@@std@@@std@@@std@@YA$$QAV?$unique_ptr@VVideoFileStream@@U?$default_delete@VVideoFileStream@@@std@@@0@AAV10@@Z ; std::forward<std::unique_ptr<VideoFileStream,std::default_delete<VideoFileStream> > >
PUBLIC	??0?$_List_unchecked_iterator@V?$_List_val@U?$_List_simple_types@V?$unique_ptr@XU?$ThreadTerminator@$0A@@@@std@@@std@@@std@@@std@@QAE@PAU?$_List_node@V?$unique_ptr@XU?$ThreadTerminator@$0A@@@@std@@PAX@1@PBV?$_List_val@U?$_List_simple_types@V?$unique_ptr@XU?$ThreadTerminator@$0A@@@@std@@@std@@@1@@Z ; std::_List_unchecked_iterator<std::_List_val<std::_List_simple_types<std::unique_ptr<void,ThreadTerminator<0> > > > >::_List_unchecked_iterator<std::_List_val<std::_List_simple_types<std::unique_ptr<void,ThreadTerminator<0> > > > >
PUBLIC	??0?$tuple@AAV?$unique_ptr@VVideoFileStream@@U?$default_delete@VVideoFileStream@@@std@@@std@@@std@@QAE@AAV?$unique_ptr@VVideoFileStream@@U?$default_delete@VVideoFileStream@@@std@@@1@@Z ; std::tuple<std::unique_ptr<VideoFileStream,std::default_delete<VideoFileStream> > &>::tuple<std::unique_ptr<VideoFileStream,std::default_delete<VideoFileStream> > &>
PUBLIC	??0?$tuple@AAPAUReplayBuffer@@AAV?$unique_ptr@VVideoFileStream@@U?$default_delete@VVideoFileStream@@@std@@@std@@@std@@QAE@AAPAUReplayBuffer@@AAV?$unique_ptr@VVideoFileStream@@U?$default_delete@VVideoFileStream@@@std@@@1@@Z ; std::tuple<ReplayBuffer * &,std::unique_ptr<VideoFileStream,std::default_delete<VideoFileStream> > &>::tuple<ReplayBuffer * &,std::unique_ptr<VideoFileStream,std::default_delete<VideoFileStream> > &>
PUBLIC	?_Unchecked_end@?$list@V?$unique_ptr@XU?$ThreadTerminator@$0A@@@@std@@V?$allocator@V?$unique_ptr@XU?$ThreadTerminator@$0A@@@@std@@@2@@std@@QAE?AV?$_List_unchecked_iterator@V?$_List_val@U?$_List_simple_types@V?$unique_ptr@XU?$ThreadTerminator@$0A@@@@std@@@std@@@std@@@2@XZ ; std::list<std::unique_ptr<void,ThreadTerminator<0> >,std::allocator<std::unique_ptr<void,ThreadTerminator<0> > > >::_Unchecked_end
PUBLIC	??1?$_Tuple_val@V?$unique_ptr@VVideoFileStream@@U?$default_delete@VVideoFileStream@@@std@@@std@@@std@@QAE@XZ ; std::_Tuple_val<std::unique_ptr<VideoFileStream,std::default_delete<VideoFileStream> > >::~_Tuple_val<std::unique_ptr<VideoFileStream,std::default_delete<VideoFileStream> > >
PUBLIC	??1?$tuple@V?$unique_ptr@VVideoFileStream@@U?$default_delete@VVideoFileStream@@@std@@@std@@@std@@QAE@XZ ; std::tuple<std::unique_ptr<VideoFileStream,std::default_delete<VideoFileStream> > >::~tuple<std::unique_ptr<VideoFileStream,std::default_delete<VideoFileStream> > >
PUBLIC	??$addressof@Uargs_t@?1??AddPendingStream@OBS@@QAEXPAUClosableStream@@V?$function@$$A6AXXZ@std@@@Z@@std@@YAPAUargs_t@?1??AddPendingStream@OBS@@QAEXPAUClosableStream@@V?$function@$$A6AXXZ@0@@Z@AAU1?1??23@QAEX01@Z@@Z ; std::addressof<`OBS::AddPendingStream'::`2'::args_t>
PUBLIC	??$construct@PAXPAX@?$_Wrap_alloc@V?$allocator@PAX@std@@@std@@QAEXPAPAX$$QAPAX@Z ; std::_Wrap_alloc<std::allocator<void *> >::construct<void *,void *>
PUBLIC	??$forward@PAX@std@@YA$$QAPAXAAPAX@Z		; std::forward<void *>
PUBLIC	??$addressof@PAX@std@@YAPAPAXAAPAX@Z		; std::addressof<void *>
PUBLIC	??$forward@U?$default_delete@VVideoFileStream@@@std@@@std@@YA$$QAU?$default_delete@VVideoFileStream@@@0@AAU10@@Z ; std::forward<std::default_delete<VideoFileStream> >
PUBLIC	??$forward@U?$default_delete@VNetworkStream@@@std@@@std@@YA$$QAU?$default_delete@VNetworkStream@@@0@AAU10@@Z ; std::forward<std::default_delete<NetworkStream> >
PUBLIC	??$forward@V?$function@$$A6AXXZ@std@@@std@@YA$$QAV?$function@$$A6AXXZ@0@AAV10@@Z ; std::forward<std::function<void __cdecl(void)> >
PUBLIC	??$emplace_back@AAPAX@?$list@V?$unique_ptr@XU?$ThreadTerminator@$0A@@@@std@@V?$allocator@V?$unique_ptr@XU?$ThreadTerminator@$0A@@@@std@@@2@@std@@QAEXAAPAX@Z ; std::list<std::unique_ptr<void,ThreadTerminator<0> >,std::allocator<std::unique_ptr<void,ThreadTerminator<0> > > >::emplace_back<void * &>
PUBLIC	??$emplace_back@PAX@?$list@V?$unique_ptr@XU?$ThreadTerminator@$0A@@@@std@@V?$allocator@V?$unique_ptr@XU?$ThreadTerminator@$0A@@@@std@@@2@@std@@QAEX$$QAPAX@Z ; std::list<std::unique_ptr<void,ThreadTerminator<0> >,std::allocator<std::unique_ptr<void,ThreadTerminator<0> > > >::emplace_back<void *>
PUBLIC	??$make_unique@Uargs_t@?1??AddPendingStream@OBS@@QAEXPAUClosableStream@@V?$function@$$A6AXXZ@std@@@Z@AAPAU4@V56@@std@@YA?AV?$unique_ptr@Uargs_t@?1??AddPendingStream@OBS@@QAEXPAUClosableStream@@V?$function@$$A6AXXZ@std@@@Z@U?$default_delete@Uargs_t@?1??AddPendingStream@OBS@@QAEXPAUClosableStream@@V?$function@$$A6AXXZ@std@@@Z@@6@@0@AAPAUClosableStream@@$$QAV?$function@$$A6AXXZ@0@@Z ; std::make_unique<`OBS::AddPendingStream'::`2'::args_t,ClosableStream * &,std::function<void __cdecl(void)> >
PUBLIC	??$move@AAV?$function@$$A6AXXZ@std@@@std@@YA$$QAV?$function@$$A6AXXZ@0@AAV10@@Z ; std::move<std::function<void __cdecl(void)> &>
PUBLIC	??$?0V<lambda_3648d362fc95221bbf9c4c4a922d1611>@@@?$function@$$A6AXXZ@std@@QAE@$$QAV<lambda_3648d362fc95221bbf9c4c4a922d1611>@@@Z ; std::function<void __cdecl(void)>::function<void __cdecl(void)><<lambda_3648d362fc95221bbf9c4c4a922d1611> >
PUBLIC	??$?0V<lambda_3b020cec0f1508adac4c896f138918cf>@@@?$function@$$A6AXXZ@std@@QAE@$$QAV<lambda_3b020cec0f1508adac4c896f138918cf>@@@Z ; std::function<void __cdecl(void)>::function<void __cdecl(void)><<lambda_3b020cec0f1508adac4c896f138918cf> >
PUBLIC	??$?4V<lambda_7c9af1b141e25bc2e890d47a77a39da9>@@@?$function@$$A6AXXZ@std@@QAEAAV01@$$QAV<lambda_7c9af1b141e25bc2e890d47a77a39da9>@@@Z ; std::function<void __cdecl(void)>::operator=<<lambda_7c9af1b141e25bc2e890d47a77a39da9> >
PUBLIC	??$move@AAV?$unique_ptr@VNetworkStream@@U?$default_delete@VNetworkStream@@@std@@@std@@@std@@YA$$QAV?$unique_ptr@VNetworkStream@@U?$default_delete@VNetworkStream@@@std@@@0@AAV10@@Z ; std::move<std::unique_ptr<NetworkStream,std::default_delete<NetworkStream> > &>
PUBLIC	??$?4AAV<lambda_e856d28dddb7588070dd099cfda6c634>@@@?$function@$$A6AXXZ@std@@QAEAAV01@AAV<lambda_e856d28dddb7588070dd099cfda6c634>@@@Z ; std::function<void __cdecl(void)>::operator=<<lambda_e856d28dddb7588070dd099cfda6c634> &>
PUBLIC	??$?4AAV<lambda_582637cdd8d6a2f689bc987be9ec55df>@@@?$function@$$A6AXXZ@std@@QAEAAV01@AAV<lambda_582637cdd8d6a2f689bc987be9ec55df>@@@Z ; std::function<void __cdecl(void)>::operator=<<lambda_582637cdd8d6a2f689bc987be9ec55df> &>
PUBLIC	??$move@AAV?$unique_ptr@VVideoFileStream@@U?$default_delete@VVideoFileStream@@@std@@@std@@@std@@YA$$QAV?$unique_ptr@VVideoFileStream@@U?$default_delete@VVideoFileStream@@@std@@@0@AAV10@@Z ; std::move<std::unique_ptr<VideoFileStream,std::default_delete<VideoFileStream> > &>
PUBLIC	??$?4PAUReplayBuffer@@V?$unique_ptr@VVideoFileStream@@U?$default_delete@VVideoFileStream@@@std@@@std@@@?$tuple@AAPAUReplayBuffer@@AAV?$unique_ptr@VVideoFileStream@@U?$default_delete@VVideoFileStream@@@std@@@std@@@std@@QAEAAV01@$$QAU?$pair@PAUReplayBuffer@@V?$unique_ptr@VVideoFileStream@@U?$default_delete@VVideoFileStream@@@std@@@std@@@1@@Z ; std::tuple<ReplayBuffer * &,std::unique_ptr<VideoFileStream,std::default_delete<VideoFileStream> > &>::operator=<ReplayBuffer *,std::unique_ptr<VideoFileStream,std::default_delete<VideoFileStream> > >
PUBLIC	??$tie@PAUReplayBuffer@@V?$unique_ptr@VVideoFileStream@@U?$default_delete@VVideoFileStream@@@std@@@std@@@std@@YA?AV?$tuple@AAPAUReplayBuffer@@AAV?$unique_ptr@VVideoFileStream@@U?$default_delete@VVideoFileStream@@@std@@@std@@@0@AAPAUReplayBuffer@@AAV?$unique_ptr@VVideoFileStream@@U?$default_delete@VVideoFileStream@@@std@@@0@@Z ; std::tie<ReplayBuffer *,std::unique_ptr<VideoFileStream,std::default_delete<VideoFileStream> > >
PUBLIC	??0?$_List_unchecked_const_iterator@V?$_List_val@U?$_List_simple_types@V?$unique_ptr@XU?$ThreadTerminator@$0A@@@@std@@@std@@@std@@U_Iterator_base0@2@@std@@QAE@PAU?$_List_node@V?$unique_ptr@XU?$ThreadTerminator@$0A@@@@std@@PAX@1@PBV?$_List_val@U?$_List_simple_types@V?$unique_ptr@XU?$ThreadTerminator@$0A@@@@std@@@std@@@1@@Z ; std::_List_unchecked_const_iterator<std::_List_val<std::_List_simple_types<std::unique_ptr<void,ThreadTerminator<0> > > >,std::_Iterator_base0>::_List_unchecked_const_iterator<std::_List_val<std::_List_simple_types<std::unique_ptr<void,ThreadTerminator<0> > > >,std::_Iterator_base0>
PUBLIC	??0?$_List_const_iterator@V?$_List_val@U?$_List_simple_types@V?$unique_ptr@XU?$ThreadTerminator@$0A@@@@std@@@std@@@std@@@std@@QAE@PAU?$_List_node@V?$unique_ptr@XU?$ThreadTerminator@$0A@@@@std@@PAX@1@PBV?$_List_val@U?$_List_simple_types@V?$unique_ptr@XU?$ThreadTerminator@$0A@@@@std@@@std@@@1@@Z ; std::_List_const_iterator<std::_List_val<std::_List_simple_types<std::unique_ptr<void,ThreadTerminator<0> > > > >::_List_const_iterator<std::_List_val<std::_List_simple_types<std::unique_ptr<void,ThreadTerminator<0> > > > >
PUBLIC	??0?$default_delete@Uargs_t@?1??AddPendingStream@OBS@@QAEXPAUClosableStream@@V?$function@$$A6AXXZ@std@@@Z@@std@@QAE@XZ ; std::default_delete<`OBS::AddPendingStream'::`2'::args_t>::default_delete<`OBS::AddPendingStream'::`2'::args_t>
PUBLIC	??0?$default_delete@UClosableStream@@@std@@QAE@XZ ; std::default_delete<ClosableStream>::default_delete<ClosableStream>
PUBLIC	?SetSize@?$List@_K@@QAEHI@Z			; List<unsigned __int64>::SetSize
PUBLIC	??1args_t@?1??AddPendingStream@OBS@@QAEXPAUClosableStream@@V?$function@$$A6AXXZ@std@@@Z@QAE@XZ ; `OBS::AddPendingStream'::`2'::args_t::~args_t
PUBLIC	??_G?$_Func_base@X$$$V@std@@UAEPAXI@Z		; std::_Func_base<void>::`scalar deleting destructor'
PUBLIC	??_Gargs_t@?1??AddPendingStream@OBS@@QAEXPAUClosableStream@@V?$function@$$A6AXXZ@std@@@Z@QAEPAXI@Z ; `OBS::AddPendingStream'::`2'::args_t::`scalar deleting destructor'
PUBLIC	?pointer_to@?$pointer_traits@PAUargs_t@?1??AddPendingStream@OBS@@QAEXPAUClosableStream@@V?$function@$$A6AXXZ@std@@@Z@@std@@SAPAUargs_t@?1??AddPendingStream@OBS@@QAEXPAUClosableStream@@V?$function@$$A6AXXZ@2@@Z@AAU3?1??45@QAEX01@Z@@Z ; std::pointer_traits<`OBS::AddPendingStream'::`2'::args_t *>::pointer_to
PUBLIC	??1?$_Func_base@X$$$V@std@@UAE@XZ		; std::_Func_base<void>::~_Func_base<void>
PUBLIC	??8?$_List_const_iterator@V?$_List_val@U?$_List_simple_types@V?$unique_ptr@XU?$ThreadTerminator@$0A@@@@std@@@std@@@std@@@std@@QBE_NABV01@@Z ; std::_List_const_iterator<std::_List_val<std::_List_simple_types<std::unique_ptr<void,ThreadTerminator<0> > > > >::operator==
PUBLIC	??E?$_List_const_iterator@V?$_List_val@U?$_List_simple_types@V?$unique_ptr@XU?$ThreadTerminator@$0A@@@@std@@@std@@@std@@@std@@QAEAAV01@XZ ; std::_List_const_iterator<std::_List_val<std::_List_simple_types<std::unique_ptr<void,ThreadTerminator<0> > > > >::operator++
PUBLIC	??D?$_List_const_iterator@V?$_List_val@U?$_List_simple_types@V?$unique_ptr@XU?$ThreadTerminator@$0A@@@@std@@@std@@@std@@@std@@QBEABV?$unique_ptr@XU?$ThreadTerminator@$0A@@@@1@XZ ; std::_List_const_iterator<std::_List_val<std::_List_simple_types<std::unique_ptr<void,ThreadTerminator<0> > > > >::operator*
PUBLIC	??0?$_List_iterator@V?$_List_val@U?$_List_simple_types@V?$unique_ptr@XU?$ThreadTerminator@$0A@@@@std@@@std@@@std@@@std@@QAE@PAU?$_List_node@V?$unique_ptr@XU?$ThreadTerminator@$0A@@@@std@@PAX@1@PBV?$_List_val@U?$_List_simple_types@V?$unique_ptr@XU?$ThreadTerminator@$0A@@@@std@@@std@@@1@@Z ; std::_List_iterator<std::_List_val<std::_List_simple_types<std::unique_ptr<void,ThreadTerminator<0> > > > >::_List_iterator<std::_List_val<std::_List_simple_types<std::unique_ptr<void,ThreadTerminator<0> > > > >
PUBLIC	?get_deleter@?$_Unique_ptr_base@Uargs_t@?1??AddPendingStream@OBS@@QAEXPAUClosableStream@@V?$function@$$A6AXXZ@std@@@Z@U?$default_delete@Uargs_t@?1??AddPendingStream@OBS@@QAEXPAUClosableStream@@V?$function@$$A6AXXZ@std@@@Z@@6@$00@std@@QAEAAU?$default_delete@Uargs_t@?1??AddPendingStream@OBS@@QAEXPAUClosableStream@@V?$function@$$A6AXXZ@std@@@Z@@2@XZ ; std::_Unique_ptr_base<`OBS::AddPendingStream'::`2'::args_t,std::default_delete<`OBS::AddPendingStream'::`2'::args_t>,1>::get_deleter
PUBLIC	??0?$_Unique_ptr_base@Uargs_t@?1??AddPendingStream@OBS@@QAEXPAUClosableStream@@V?$function@$$A6AXXZ@std@@@Z@U?$default_delete@Uargs_t@?1??AddPendingStream@OBS@@QAEXPAUClosableStream@@V?$function@$$A6AXXZ@std@@@Z@@6@$00@std@@QAE@PAUargs_t@?1??AddPendingStream@OBS@@QAEXPAUClosableStream@@V?$function@$$A6AXXZ@1@@Z@@Z ; std::_Unique_ptr_base<`OBS::AddPendingStream'::`2'::args_t,std::default_delete<`OBS::AddPendingStream'::`2'::args_t>,1>::_Unique_ptr_base<`OBS::AddPendingStream'::`2'::args_t,std::default_delete<`OBS::AddPendingStream'::`2'::args_t>,1>
PUBLIC	??R?$default_delete@Uargs_t@?1??AddPendingStream@OBS@@QAEXPAUClosableStream@@V?$function@$$A6AXXZ@std@@@Z@@std@@QBEXPAUargs_t@?1??AddPendingStream@OBS@@QAEXPAUClosableStream@@V?$function@$$A6AXXZ@1@@Z@@Z ; std::default_delete<`OBS::AddPendingStream'::`2'::args_t>::operator()
PUBLIC	??D?$unique_ptr@Uargs_t@?1??AddPendingStream@OBS@@QAEXPAUClosableStream@@V?$function@$$A6AXXZ@std@@@Z@U?$default_delete@Uargs_t@?1??AddPendingStream@OBS@@QAEXPAUClosableStream@@V?$function@$$A6AXXZ@std@@@Z@@6@@std@@QBEAAUargs_t@?1??AddPendingStream@OBS@@QAEXPAUClosableStream@@V?$function@$$A6AXXZ@1@@Z@XZ ; std::unique_ptr<`OBS::AddPendingStream'::`2'::args_t,std::default_delete<`OBS::AddPendingStream'::`2'::args_t> >::operator*
PUBLIC	?get_deleter@?$_Unique_ptr_base@UClosableStream@@U?$default_delete@UClosableStream@@@std@@$00@std@@QAEAAU?$default_delete@UClosableStream@@@2@XZ ; std::_Unique_ptr_base<ClosableStream,std::default_delete<ClosableStream>,1>::get_deleter
PUBLIC	??0?$_Unique_ptr_base@UClosableStream@@U?$default_delete@UClosableStream@@@std@@$00@std@@QAE@PAUClosableStream@@@Z ; std::_Unique_ptr_base<ClosableStream,std::default_delete<ClosableStream>,1>::_Unique_ptr_base<ClosableStream,std::default_delete<ClosableStream>,1>
PUBLIC	??R?$default_delete@UClosableStream@@@std@@QBEXPAUClosableStream@@@Z ; std::default_delete<ClosableStream>::operator()
PUBLIC	?SetSize@?$List@UFrameAudio@@@@QAEHI@Z		; List<FrameAudio>::SetSize
PUBLIC	?Add@?$CircularList@_K@@QAEIAB_K@Z		; CircularList<unsigned __int64>::Add
PUBLIC	?GetRealIndex@?$CircularList@_K@@AAEII@Z	; CircularList<unsigned __int64>::GetRealIndex
PUBLIC	??0?$_Unique_ptr_base@VVideoFileStream@@U?$default_delete@VVideoFileStream@@@std@@$00@std@@QAE@PAVVideoFileStream@@U?$default_delete@VVideoFileStream@@@1@@Z ; std::_Unique_ptr_base<VideoFileStream,std::default_delete<VideoFileStream>,1>::_Unique_ptr_base<VideoFileStream,std::default_delete<VideoFileStream>,1>
PUBLIC	??0?$_Unique_ptr_base@VNetworkStream@@U?$default_delete@VNetworkStream@@@std@@$00@std@@QAE@PAVNetworkStream@@U?$default_delete@VNetworkStream@@@1@@Z ; std::_Unique_ptr_base<NetworkStream,std::default_delete<NetworkStream>,1>::_Unique_ptr_base<NetworkStream,std::default_delete<NetworkStream>,1>
PUBLIC	?_Resetm@?$_Func_class@X$$$V@std@@IAEX$$QAV12@@Z ; std::_Func_class<void>::_Resetm
PUBLIC	?_Empty@?$_Func_class@X$$$V@std@@QBE_NXZ	; std::_Func_class<void>::_Empty
PUBLIC	?get@?$unique_ptr@XU?$ThreadTerminator@$0A@@@@std@@QBEPAXXZ ; std::unique_ptr<void,ThreadTerminator<0> >::get
PUBLIC	??9?$_List_const_iterator@V?$_List_val@U?$_List_simple_types@V?$unique_ptr@XU?$ThreadTerminator@$0A@@@@std@@@std@@@std@@@std@@QBE_NABV01@@Z ; std::_List_const_iterator<std::_List_val<std::_List_simple_types<std::unique_ptr<void,ThreadTerminator<0> > > > >::operator!=
PUBLIC	??E?$_List_iterator@V?$_List_val@U?$_List_simple_types@V?$unique_ptr@XU?$ThreadTerminator@$0A@@@@std@@@std@@@std@@@std@@QAEAAV01@XZ ; std::_List_iterator<std::_List_val<std::_List_simple_types<std::unique_ptr<void,ThreadTerminator<0> > > > >::operator++
PUBLIC	??D?$_List_iterator@V?$_List_val@U?$_List_simple_types@V?$unique_ptr@XU?$ThreadTerminator@$0A@@@@std@@@std@@@std@@@std@@QBEAAV?$unique_ptr@XU?$ThreadTerminator@$0A@@@@1@XZ ; std::_List_iterator<std::_List_val<std::_List_simple_types<std::unique_ptr<void,ThreadTerminator<0> > > > >::operator*
PUBLIC	?data@?$vector@PAXV?$allocator@PAX@std@@@std@@QAEPAPAXXZ ; std::vector<void *,std::allocator<void *> >::data
PUBLIC	?push_back@?$vector@PAXV?$allocator@PAX@std@@@std@@QAEX$$QAPAX@Z ; std::vector<void *,std::allocator<void *> >::push_back
PUBLIC	?release@?$unique_ptr@Uargs_t@?1??AddPendingStream@OBS@@QAEXPAUClosableStream@@V?$function@$$A6AXXZ@std@@@Z@U?$default_delete@Uargs_t@?1??AddPendingStream@OBS@@QAEXPAUClosableStream@@V?$function@$$A6AXXZ@std@@@Z@@6@@std@@QAEPAUargs_t@?1??AddPendingStream@OBS@@QAEXPAUClosableStream@@V?$function@$$A6AXXZ@2@@Z@XZ ; std::unique_ptr<`OBS::AddPendingStream'::`2'::args_t,std::default_delete<`OBS::AddPendingStream'::`2'::args_t> >::release
PUBLIC	??C?$unique_ptr@Uargs_t@?1??AddPendingStream@OBS@@QAEXPAUClosableStream@@V?$function@$$A6AXXZ@std@@@Z@U?$default_delete@Uargs_t@?1??AddPendingStream@OBS@@QAEXPAUClosableStream@@V?$function@$$A6AXXZ@std@@@Z@@6@@std@@QBEPAUargs_t@?1??AddPendingStream@OBS@@QAEXPAUClosableStream@@V?$function@$$A6AXXZ@1@@Z@XZ ; std::unique_ptr<`OBS::AddPendingStream'::`2'::args_t,std::default_delete<`OBS::AddPendingStream'::`2'::args_t> >::operator->
PUBLIC	??1?$unique_ptr@Uargs_t@?1??AddPendingStream@OBS@@QAEXPAUClosableStream@@V?$function@$$A6AXXZ@std@@@Z@U?$default_delete@Uargs_t@?1??AddPendingStream@OBS@@QAEXPAUClosableStream@@V?$function@$$A6AXXZ@std@@@Z@@6@@std@@QAE@XZ ; std::unique_ptr<`OBS::AddPendingStream'::`2'::args_t,std::default_delete<`OBS::AddPendingStream'::`2'::args_t> >::~unique_ptr<`OBS::AddPendingStream'::`2'::args_t,std::default_delete<`OBS::AddPendingStream'::`2'::args_t> >
PUBLIC	??0?$unique_ptr@Uargs_t@?1??AddPendingStream@OBS@@QAEXPAUClosableStream@@V?$function@$$A6AXXZ@std@@@Z@U?$default_delete@Uargs_t@?1??AddPendingStream@OBS@@QAEXPAUClosableStream@@V?$function@$$A6AXXZ@std@@@Z@@6@@std@@QAE@PAUargs_t@?1??AddPendingStream@OBS@@QAEXPAUClosableStream@@V?$function@$$A6AXXZ@1@@Z@@Z ; std::unique_ptr<`OBS::AddPendingStream'::`2'::args_t,std::default_delete<`OBS::AddPendingStream'::`2'::args_t> >::unique_ptr<`OBS::AddPendingStream'::`2'::args_t,std::default_delete<`OBS::AddPendingStream'::`2'::args_t> >
PUBLIC	?reset@?$unique_ptr@UClosableStream@@U?$default_delete@UClosableStream@@@std@@@std@@QAEXPAUClosableStream@@@Z ; std::unique_ptr<ClosableStream,std::default_delete<ClosableStream> >::reset
PUBLIC	??1?$unique_ptr@UClosableStream@@U?$default_delete@UClosableStream@@@std@@@std@@QAE@XZ ; std::unique_ptr<ClosableStream,std::default_delete<ClosableStream> >::~unique_ptr<ClosableStream,std::default_delete<ClosableStream> >
PUBLIC	??0?$unique_ptr@UClosableStream@@U?$default_delete@UClosableStream@@@std@@@std@@QAE@PAUClosableStream@@@Z ; std::unique_ptr<ClosableStream,std::default_delete<ClosableStream> >::unique_ptr<ClosableStream,std::default_delete<ClosableStream> >
PUBLIC	?empty@?$list@V?$unique_ptr@XU?$ThreadTerminator@$0A@@@@std@@V?$allocator@V?$unique_ptr@XU?$ThreadTerminator@$0A@@@@std@@@2@@std@@QBE_NXZ ; std::list<std::unique_ptr<void,ThreadTerminator<0> >,std::allocator<std::unique_ptr<void,ThreadTerminator<0> > > >::empty
PUBLIC	?end@?$list@V?$unique_ptr@XU?$ThreadTerminator@$0A@@@@std@@V?$allocator@V?$unique_ptr@XU?$ThreadTerminator@$0A@@@@std@@@2@@std@@QAE?AV?$_List_iterator@V?$_List_val@U?$_List_simple_types@V?$unique_ptr@XU?$ThreadTerminator@$0A@@@@std@@@std@@@std@@@2@XZ ; std::list<std::unique_ptr<void,ThreadTerminator<0> >,std::allocator<std::unique_ptr<void,ThreadTerminator<0> > > >::end
PUBLIC	?begin@?$list@V?$unique_ptr@XU?$ThreadTerminator@$0A@@@@std@@V?$allocator@V?$unique_ptr@XU?$ThreadTerminator@$0A@@@@std@@@2@@std@@QAE?AV?$_List_iterator@V?$_List_val@U?$_List_simple_types@V?$unique_ptr@XU?$ThreadTerminator@$0A@@@@std@@@std@@@std@@@2@XZ ; std::list<std::unique_ptr<void,ThreadTerminator<0> >,std::allocator<std::unique_ptr<void,ThreadTerminator<0> > > >::begin
PUBLIC	??A?$List@UFrameAudio@@@@QAEAAUFrameAudio@@I@Z	; List<FrameAudio>::operator[]
PUBLIC	?CreateNew@?$List@UFrameAudio@@@@QAEPAUFrameAudio@@XZ ; List<FrameAudio>::CreateNew
PUBLIC	?Num@?$List@UFrameAudio@@@@QBEIXZ		; List<FrameAudio>::Num
PUBLIC	??A?$CircularList@_K@@QAEAA_KI@Z		; CircularList<unsigned __int64>::operator[]
PUBLIC	??6?$CircularList@_K@@QAEAAV0@AB_K@Z		; CircularList<unsigned __int64>::operator<<
PUBLIC	?Clear@?$CircularList@_K@@QAEXXZ		; CircularList<unsigned __int64>::Clear
PUBLIC	?Remove@?$CircularList@_K@@QAEXI@Z		; CircularList<unsigned __int64>::Remove
PUBLIC	?release@?$unique_ptr@VVideoFileStream@@U?$default_delete@VVideoFileStream@@@std@@@std@@QAEPAVVideoFileStream@@XZ ; std::unique_ptr<VideoFileStream,std::default_delete<VideoFileStream> >::release
PUBLIC	??0?$unique_ptr@VVideoFileStream@@U?$default_delete@VVideoFileStream@@@std@@@std@@QAE@$$QAV01@@Z ; std::unique_ptr<VideoFileStream,std::default_delete<VideoFileStream> >::unique_ptr<VideoFileStream,std::default_delete<VideoFileStream> >
PUBLIC	?release@?$unique_ptr@VNetworkStream@@U?$default_delete@VNetworkStream@@@std@@@std@@QAEPAVNetworkStream@@XZ ; std::unique_ptr<NetworkStream,std::default_delete<NetworkStream> >::release
PUBLIC	??0?$unique_ptr@VNetworkStream@@U?$default_delete@VNetworkStream@@@std@@@std@@QAE@$$QAV01@@Z ; std::unique_ptr<NetworkStream,std::default_delete<NetworkStream> >::unique_ptr<NetworkStream,std::default_delete<NetworkStream> >
PUBLIC	??R?$_Func_class@X$$$V@std@@QBEXXZ		; std::_Func_class<void>::operator()
PUBLIC	??B?$function@$$A6AXXZ@std@@QBE_NXZ		; std::function<void __cdecl(void)>::operator bool
PUBLIC	??0?$function@$$A6AXXZ@std@@QAE@$$QAV01@@Z	; std::function<void __cdecl(void)>::function<void __cdecl(void)>
PUBLIC	??0?$function@$$A6AXXZ@std@@QAE@$$T@Z		; std::function<void __cdecl(void)>::function<void __cdecl(void)>
PUBLIC	?AddPendingStream@OBS@@QAEXPAUClosableStream@@V?$function@$$A6AXXZ@std@@@Z ; OBS::AddPendingStream
PUBLIC	?RequestKeyframe@OBS@@QAEXH@Z			; OBS::RequestKeyframe
PUBLIC	?MainAudioLoop@OBS@@AAEXXZ			; OBS::MainAudioLoop
PUBLIC	?EncodeAudioSegment@OBS@@AAEXPAMI_K@Z		; OBS::EncodeAudioSegment
PUBLIC	?QueryNewAudio@OBS@@AAE_NXZ			; OBS::QueryNewAudio
PUBLIC	?QueryAudioBuffers@OBS@@AAE_N_N@Z		; OBS::QueryAudioBuffers
PUBLIC	?toDB@@YAMM@Z					; toDB
PUBLIC	?CalculateVolumeLevels@@YAXPAMHMAAM1@Z		; CalculateVolumeLevels
PUBLIC	?MainAudioThread@OBS@@CGKPAX@Z			; OBS::MainAudioThread
PUBLIC	?Start@OBS@@AAEX_N0@Z				; OBS::Start
PUBLIC	?StopRecording@OBS@@AAEX_N@Z			; OBS::StopRecording
PUBLIC	?StartRecording@OBS@@AAE_N_N@Z			; OBS::StartRecording
PUBLIC	?GetExpandedRecordingDirectoryBase@@YA?AVString@@V1@@Z ; GetExpandedRecordingDirectoryBase
PUBLIC	?ExpandRecordingFilename@@YA?AVString@@V1@@Z	; ExpandRecordingFilename
PUBLIC	?StopReplayBuffer@OBS@@AAEX_N@Z			; OBS::StopReplayBuffer
PUBLIC	?StartReplayBuffer@OBS@@AAEXXZ			; OBS::StartReplayBuffer
PUBLIC	?ToggleReplayBuffer@OBS@@AAEXXZ			; OBS::ToggleReplayBuffer
PUBLIC	?ToggleCapturing@OBS@@AAEXXZ			; OBS::ToggleCapturing
PUBLIC	?ToggleRecording@OBS@@AAEXXZ			; OBS::ToggleRecording
PUBLIC	?PostStopMessage@OBS@@QAEX_N@Z			; OBS::PostStopMessage
PUBLIC	?ClearStreamInfo@OBS@@AAEXXZ			; OBS::ClearStreamInfo
PUBLIC	?FreeData@GlobalSourceInfo@@QAEXXZ		; GlobalSourceInfo::FreeData
PUBLIC	?CreateVertexShaderFromFile@@YAPAVShader@@PB_W@Z ; CreateVertexShaderFromFile
PUBLIC	?CreateRenderTarget@@YAPAVTexture@@IIW4GSColorFormat@@H@Z ; CreateRenderTarget
PUBLIC	?sqrt@@YAMM@Z					; sqrt
PUBLIC	?log10@@YAMM@Z					; log10
PUBLIC	_sqrtf
PUBLIC	_log10f
PUBLIC	?ClosePendingStreams@OBS@@QAEXXZ		; OBS::ClosePendingStreams
PUBLIC	?Stop@OBS@@AAEX_N0@Z				; OBS::Stop
PUBLIC	?AddPendingStreamThread@OBS@@QAEXPAX@Z		; OBS::AddPendingStreamThread
PUBLIC	?GetOutputFilename@@YA?AVString@@_N@Z		; GetOutputFilename
PUBLIC	?CreateFileStream@@YAPAVVideoFileStream@@VString@@@Z ; CreateFileStream
EXTRN	??_E?$_Func_impl@U?$_Callable_obj@V<lambda_3b020cec0f1508adac4c896f138918cf>@@$0A@@std@@V?$allocator@V?$_Func_class@X$$$V@std@@@2@X$$$V@std@@UAEPAXI@Z:PROC ; std::_Func_impl<std::_Callable_obj<<lambda_3b020cec0f1508adac4c896f138918cf>,0>,std::allocator<std::_Func_class<void> >,void>::`vector deleting destructor'
EXTRN	??_E?$_Func_impl@U?$_Callable_obj@V<lambda_3648d362fc95221bbf9c4c4a922d1611>@@$0A@@std@@V?$allocator@V?$_Func_class@X$$$V@std@@@2@X$$$V@std@@UAEPAXI@Z:PROC ; std::_Func_impl<std::_Callable_obj<<lambda_3648d362fc95221bbf9c4c4a922d1611>,0>,std::allocator<std::_Func_class<void> >,void>::`vector deleting destructor'
EXTRN	??_E?$_Func_impl@U?$_Callable_obj@V<lambda_e856d28dddb7588070dd099cfda6c634>@@$0A@@std@@V?$allocator@V?$_Func_class@X$$$V@std@@@2@X$$$V@std@@UAEPAXI@Z:PROC ; std::_Func_impl<std::_Callable_obj<<lambda_e856d28dddb7588070dd099cfda6c634>,0>,std::allocator<std::_Func_class<void> >,void>::`vector deleting destructor'
EXTRN	??_E?$_Func_impl@U?$_Callable_obj@V<lambda_582637cdd8d6a2f689bc987be9ec55df>@@$0A@@std@@V?$allocator@V?$_Func_class@X$$$V@std@@@2@X$$$V@std@@UAEPAXI@Z:PROC ; std::_Func_impl<std::_Callable_obj<<lambda_582637cdd8d6a2f689bc987be9ec55df>,0>,std::allocator<std::_Func_class<void> >,void>::`vector deleting destructor'
EXTRN	??_E?$_Func_impl@U?$_Callable_obj@V<lambda_7c9af1b141e25bc2e890d47a77a39da9>@@$0A@@std@@V?$allocator@V?$_Func_class@X$$$V@std@@@2@X$$$V@std@@UAEPAXI@Z:PROC ; std::_Func_impl<std::_Callable_obj<<lambda_7c9af1b141e25bc2e890d47a77a39da9>,0>,std::allocator<std::_Func_class<void> >,void>::`vector deleting destructor'
EXTRN	??_E?$_Func_base@X$$$V@std@@UAEPAXI@Z:PROC	; std::_Func_base<void>::`vector deleting destructor'
	ALIGN	4

__Tuple_alloc DB 01H DUP (?)
	ALIGN	4

_ignore	DB	01H DUP (?)
	ALIGN	4

_allocator_arg DB 01H DUP (?)
	ALIGN	4

_piecewise_construct DB 01H DUP (?)
_BSS	ENDS
;	COMDAT xdata$x
xdata$x	SEGMENT
__ehfuncinfo$??$_Buynode@PAX@?$_List_buy@V?$unique_ptr@XU?$ThreadTerminator@$0A@@@@std@@V?$allocator@V?$unique_ptr@XU?$ThreadTerminator@$0A@@@@std@@@2@@std@@QAEPAU?$_List_node@V?$unique_ptr@XU?$ThreadTerminator@$0A@@@@std@@PAX@1@PAU21@0$$QAPAX@Z DD 019930522H
	DD	02H
	DD	FLAT:__unwindtable$??$_Buynode@PAX@?$_List_buy@V?$unique_ptr@XU?$ThreadTerminator@$0A@@@@std@@V?$allocator@V?$unique_ptr@XU?$ThreadTerminator@$0A@@@@std@@@2@@std@@QAEPAU?$_List_node@V?$unique_ptr@XU?$ThreadTerminator@$0A@@@@std@@PAX@1@PAU21@0$$QAPAX@Z
	DD	01H
	DD	FLAT:__tryblocktable$??$_Buynode@PAX@?$_List_buy@V?$unique_ptr@XU?$ThreadTerminator@$0A@@@@std@@V?$allocator@V?$unique_ptr@XU?$ThreadTerminator@$0A@@@@std@@@2@@std@@QAEPAU?$_List_node@V?$unique_ptr@XU?$ThreadTerminator@$0A@@@@std@@PAX@1@PAU21@0$$QAPAX@Z
	DD	2 DUP(00H)
	DD	00H
	DD	00H
__unwindtable$??$_Buynode@PAX@?$_List_buy@V?$unique_ptr@XU?$ThreadTerminator@$0A@@@@std@@V?$allocator@V?$unique_ptr@XU?$ThreadTerminator@$0A@@@@std@@@2@@std@@QAEPAU?$_List_node@V?$unique_ptr@XU?$ThreadTerminator@$0A@@@@std@@PAX@1@PAU21@0$$QAPAX@Z DD 0ffffffffH
	DD	00H
	DD	0ffffffffH
	DD	00H
__tryblocktable$??$_Buynode@PAX@?$_List_buy@V?$unique_ptr@XU?$ThreadTerminator@$0A@@@@std@@V?$allocator@V?$unique_ptr@XU?$ThreadTerminator@$0A@@@@std@@@2@@std@@QAEPAU?$_List_node@V?$unique_ptr@XU?$ThreadTerminator@$0A@@@@std@@PAX@1@PAU21@0$$QAPAX@Z DD 00H
	DD	00H
	DD	01H
	DD	01H
	DD	FLAT:__catchsym$??$_Buynode@PAX@?$_List_buy@V?$unique_ptr@XU?$ThreadTerminator@$0A@@@@std@@V?$allocator@V?$unique_ptr@XU?$ThreadTerminator@$0A@@@@std@@@2@@std@@QAEPAU?$_List_node@V?$unique_ptr@XU?$ThreadTerminator@$0A@@@@std@@PAX@1@PAU21@0$$QAPAX@Z$2
__catchsym$??$_Buynode@PAX@?$_List_buy@V?$unique_ptr@XU?$ThreadTerminator@$0A@@@@std@@V?$allocator@V?$unique_ptr@XU?$ThreadTerminator@$0A@@@@std@@@2@@std@@QAEPAU?$_List_node@V?$unique_ptr@XU?$ThreadTerminator@$0A@@@@std@@PAX@1@PAU21@0$$QAPAX@Z$2 DD 00H
	DD	00H
	DD	00H
	DD	FLAT:__catch$??$_Buynode@PAX@?$_List_buy@V?$unique_ptr@XU?$ThreadTerminator@$0A@@@@std@@V?$allocator@V?$unique_ptr@XU?$ThreadTerminator@$0A@@@@std@@@2@@std@@QAEPAU?$_List_node@V?$unique_ptr@XU?$ThreadTerminator@$0A@@@@std@@PAX@1@PAU21@0$$QAPAX@Z$0
xdata$x	ENDS
;	COMDAT xdata$x
xdata$x	SEGMENT
__ehfuncinfo$??$_Buynode@AAPAX@?$_List_buy@V?$unique_ptr@XU?$ThreadTerminator@$0A@@@@std@@V?$allocator@V?$unique_ptr@XU?$ThreadTerminator@$0A@@@@std@@@2@@std@@QAEPAU?$_List_node@V?$unique_ptr@XU?$ThreadTerminator@$0A@@@@std@@PAX@1@PAU21@0AAPAX@Z DD 019930522H
	DD	02H
	DD	FLAT:__unwindtable$??$_Buynode@AAPAX@?$_List_buy@V?$unique_ptr@XU?$ThreadTerminator@$0A@@@@std@@V?$allocator@V?$unique_ptr@XU?$ThreadTerminator@$0A@@@@std@@@2@@std@@QAEPAU?$_List_node@V?$unique_ptr@XU?$ThreadTerminator@$0A@@@@std@@PAX@1@PAU21@0AAPAX@Z
	DD	01H
	DD	FLAT:__tryblocktable$??$_Buynode@AAPAX@?$_List_buy@V?$unique_ptr@XU?$ThreadTerminator@$0A@@@@std@@V?$allocator@V?$unique_ptr@XU?$ThreadTerminator@$0A@@@@std@@@2@@std@@QAEPAU?$_List_node@V?$unique_ptr@XU?$ThreadTerminator@$0A@@@@std@@PAX@1@PAU21@0AAPAX@Z
	DD	2 DUP(00H)
	DD	00H
	DD	00H
__unwindtable$??$_Buynode@AAPAX@?$_List_buy@V?$unique_ptr@XU?$ThreadTerminator@$0A@@@@std@@V?$allocator@V?$unique_ptr@XU?$ThreadTerminator@$0A@@@@std@@@2@@std@@QAEPAU?$_List_node@V?$unique_ptr@XU?$ThreadTerminator@$0A@@@@std@@PAX@1@PAU21@0AAPAX@Z DD 0ffffffffH
	DD	00H
	DD	0ffffffffH
	DD	00H
__tryblocktable$??$_Buynode@AAPAX@?$_List_buy@V?$unique_ptr@XU?$ThreadTerminator@$0A@@@@std@@V?$allocator@V?$unique_ptr@XU?$ThreadTerminator@$0A@@@@std@@@2@@std@@QAEPAU?$_List_node@V?$unique_ptr@XU?$ThreadTerminator@$0A@@@@std@@PAX@1@PAU21@0AAPAX@Z DD 00H
	DD	00H
	DD	01H
	DD	01H
	DD	FLAT:__catchsym$??$_Buynode@AAPAX@?$_List_buy@V?$unique_ptr@XU?$ThreadTerminator@$0A@@@@std@@V?$allocator@V?$unique_ptr@XU?$ThreadTerminator@$0A@@@@std@@@2@@std@@QAEPAU?$_List_node@V?$unique_ptr@XU?$ThreadTerminator@$0A@@@@std@@PAX@1@PAU21@0AAPAX@Z$2
__catchsym$??$_Buynode@AAPAX@?$_List_buy@V?$unique_ptr@XU?$ThreadTerminator@$0A@@@@std@@V?$allocator@V?$unique_ptr@XU?$ThreadTerminator@$0A@@@@std@@@2@@std@@QAEPAU?$_List_node@V?$unique_ptr@XU?$ThreadTerminator@$0A@@@@std@@PAX@1@PAU21@0AAPAX@Z$2 DD 00H
	DD	00H
	DD	00H
	DD	FLAT:__catch$??$_Buynode@AAPAX@?$_List_buy@V?$unique_ptr@XU?$ThreadTerminator@$0A@@@@std@@V?$allocator@V?$unique_ptr@XU?$ThreadTerminator@$0A@@@@std@@@2@@std@@QAEPAU?$_List_node@V?$unique_ptr@XU?$ThreadTerminator@$0A@@@@std@@PAX@1@PAU21@0AAPAX@Z$0
_piecewise_construct$initializer$ DD FLAT:??__Epiecewise_construct@std@@YAXXZ
_allocator_arg$initializer$ DD FLAT:??__Eallocator_arg@std@@YAXXZ
_ignore$initializer$ DD FLAT:??__Eignore@std@@YAXXZ
__Tuple_alloc$initializer$ DD FLAT:??__E_Tuple_alloc@std@@YAXXZ
; Function compile flags: /Odtp
; File f:\songmm_moon_stone_obs\obs\source\obscapture.cpp
;	COMDAT ?CreateFileStream@@YAPAVVideoFileStream@@VString@@@Z
_TEXT	SEGMENT
_strFileExtension$ = -20				; size = 8
$T1 = -12						; size = 4
$T2 = -8						; size = 4
$T3 = -4						; size = 4
_strOutputFile$ = 8					; size = 8
?CreateFileStream@@YAPAVVideoFileStream@@VString@@@Z PROC ; CreateFileStream, COMDAT

; 258  : {

	push	ebp
	mov	ebp, esp
	sub	esp, 20					; 00000014H

; 259  :     String strFileExtension = GetPathExtension(strOutputFile);

	lea	ecx, DWORD PTR _strOutputFile$[ebp]
	call	DWORD PTR __imp_??BString@@QBEPA_WXZ
	push	eax
	lea	eax, DWORD PTR _strFileExtension$[ebp]
	push	eax
	call	DWORD PTR __imp_?GetPathExtension@@YA?AVString@@PB_W@Z
	add	esp, 8

; 260  : 
; 261  :     if (strFileExtension.CompareI(TEXT("flv")))

	push	OFFSET $SG4294795275
	lea	ecx, DWORD PTR _strFileExtension$[ebp]
	call	DWORD PTR __imp_?CompareI@String@@QBEHPB_W@Z
	test	eax, eax
	je	SHORT $LN3@CreateFile

; 262  :         return CreateFLVFileStream(strOutputFile);

	lea	ecx, DWORD PTR _strOutputFile$[ebp]
	call	DWORD PTR __imp_??BString@@QBEPA_WXZ
	push	eax
	call	?CreateFLVFileStream@@YAPAVVideoFileStream@@PB_W@Z ; CreateFLVFileStream
	add	esp, 4
	mov	DWORD PTR $T3[ebp], eax
	lea	ecx, DWORD PTR _strFileExtension$[ebp]
	call	DWORD PTR __imp_??1String@@QAE@XZ
	lea	ecx, DWORD PTR _strOutputFile$[ebp]
	call	DWORD PTR __imp_??1String@@QAE@XZ
	mov	eax, DWORD PTR $T3[ebp]
	jmp	SHORT $LN4@CreateFile
	jmp	SHORT $LN2@CreateFile
$LN3@CreateFile:

; 263  :     else if (strFileExtension.CompareI(TEXT("mp4")))

	push	OFFSET $SG4294795274
	lea	ecx, DWORD PTR _strFileExtension$[ebp]
	call	DWORD PTR __imp_?CompareI@String@@QBEHPB_W@Z
	test	eax, eax
	je	SHORT $LN2@CreateFile

; 264  :         return CreateMP4FileStream(strOutputFile);

	lea	ecx, DWORD PTR _strOutputFile$[ebp]
	call	DWORD PTR __imp_??BString@@QBEPA_WXZ
	push	eax
	call	?CreateMP4FileStream@@YAPAVVideoFileStream@@PB_W@Z ; CreateMP4FileStream
	add	esp, 4
	mov	DWORD PTR $T2[ebp], eax
	lea	ecx, DWORD PTR _strFileExtension$[ebp]
	call	DWORD PTR __imp_??1String@@QAE@XZ
	lea	ecx, DWORD PTR _strOutputFile$[ebp]
	call	DWORD PTR __imp_??1String@@QAE@XZ
	mov	eax, DWORD PTR $T2[ebp]
	jmp	SHORT $LN4@CreateFile
$LN2@CreateFile:

; 265  : 
; 266  :     return nullptr;

	mov	DWORD PTR $T1[ebp], 0
	lea	ecx, DWORD PTR _strFileExtension$[ebp]
	call	DWORD PTR __imp_??1String@@QAE@XZ
	lea	ecx, DWORD PTR _strOutputFile$[ebp]
	call	DWORD PTR __imp_??1String@@QAE@XZ
	mov	eax, DWORD PTR $T1[ebp]
$LN4@CreateFile:

; 267  : }

	mov	esp, ebp
	pop	ebp
	ret	0
?CreateFileStream@@YAPAVVideoFileStream@@VString@@@Z ENDP ; CreateFileStream
_TEXT	ENDS
; Function compile flags: /Odtp
; File f:\songmm_moon_stone_obs\obs\source\obscapture.cpp
;	COMDAT ?GetOutputFilename@@YA?AVString@@_N@Z
_TEXT	SEGMENT
$T1 = -692						; size = 8
$T2 = -684						; size = 8
$T3 = -676						; size = 8
$T4 = -668						; size = 8
$T5 = -660						; size = 8
_strFileWithoutExtension$6 = -652			; size = 8
_strFileName$7 = -644					; size = 8
_file$8 = -636						; size = 8
_strDirectory$9 = -628					; size = 8
_path$ = -620						; size = 8
_strFileExtension$10 = -612				; size = 8
_strNewFilePath$11 = -604				; size = 8
tv67 = -596						; size = 4
tv128 = -592						; size = 4
tv78 = -588						; size = 4
_extension$12 = -584					; size = 8
tv82 = -576						; size = 4
_curFile$13 = -572					; size = 4
_hFind$ = -568						; size = 4
_bOverwrite$ = -561					; size = 1
_strOutputFile$ = -560					; size = 8
_bUseDateTimeName$ = -549				; size = 1
_st$14 = -548						; size = 16
_ofd$ = -532						; size = 528
__$ArrayPad$ = -4					; size = 4
___$ReturnUdt$ = 8					; size = 4
_replayBuffer$ = 12					; size = 1
?GetOutputFilename@@YA?AVString@@_N@Z PROC		; GetOutputFilename, COMDAT

; 192  : {

	push	ebp
	mov	ebp, esp
	sub	esp, 692				; 000002b4H
	mov	eax, DWORD PTR ___security_cookie
	xor	eax, ebp
	mov	DWORD PTR __$ArrayPad$[ebp], eax
	push	esi

; 193  :     String path = OSGetDefaultVideoSavePath(replayBuffer ? L"\\Replay-$T.flv" : L"\\.flv");

	movzx	eax, BYTE PTR _replayBuffer$[ebp]
	test	eax, eax
	je	SHORT $LN14@GetOutputF
	mov	DWORD PTR tv67[ebp], OFFSET $SG4294795289
	jmp	SHORT $LN15@GetOutputF
$LN14@GetOutputF:
	mov	DWORD PTR tv67[ebp], OFFSET $SG4294795288
$LN15@GetOutputF:
	mov	ecx, DWORD PTR tv67[ebp]
	push	ecx
	lea	edx, DWORD PTR _path$[ebp]
	push	edx
	call	DWORD PTR __imp_?OSGetDefaultVideoSavePath@@YG?AVString@@PB_W@Z

; 194  :     String strOutputFile = AppConfig->GetString(TEXT("Publish"), replayBuffer ? L"ReplayBufferSavePath" : L"SavePath", path.IsValid() ? path.Array() : nullptr);

	lea	ecx, DWORD PTR _path$[ebp]
	call	DWORD PTR __imp_?IsValid@String@@QBEHXZ
	test	eax, eax
	je	SHORT $LN16@GetOutputF
	lea	ecx, DWORD PTR _path$[ebp]
	call	DWORD PTR __imp_?Array@String@@QBEPA_WXZ
	mov	DWORD PTR tv78[ebp], eax
	jmp	SHORT $LN17@GetOutputF
$LN16@GetOutputF:
	mov	DWORD PTR tv78[ebp], 0
$LN17@GetOutputF:
	movzx	eax, BYTE PTR _replayBuffer$[ebp]
	test	eax, eax
	je	SHORT $LN18@GetOutputF
	mov	DWORD PTR tv82[ebp], OFFSET $SG4294795287
	jmp	SHORT $LN19@GetOutputF
$LN18@GetOutputF:
	mov	DWORD PTR tv82[ebp], OFFSET $SG4294795286
$LN19@GetOutputF:
	mov	ecx, DWORD PTR tv78[ebp]
	push	ecx
	mov	edx, DWORD PTR tv82[ebp]
	push	edx
	push	OFFSET $SG4294795285
	lea	eax, DWORD PTR _strOutputFile$[ebp]
	push	eax
	mov	ecx, DWORD PTR ?AppConfig@@3PAVConfigFile@@A ; AppConfig
	call	DWORD PTR __imp_?GetString@ConfigFile@@QAE?AVString@@PB_W00@Z

; 195  :     strOutputFile.FindReplace(TEXT("\\"), TEXT("/"));

	push	OFFSET $SG4294795284
	push	OFFSET $SG4294795283
	lea	ecx, DWORD PTR _strOutputFile$[ebp]
	call	DWORD PTR __imp_?FindReplace@String@@QAEAAV1@PB_W0@Z

; 196  : 
; 197  :     OSFindData ofd;
; 198  :     HANDLE hFind = NULL;

	mov	DWORD PTR _hFind$[ebp], 0

; 199  :     bool bUseDateTimeName = true;

	mov	BYTE PTR _bUseDateTimeName$[ebp], 1

; 200  :     bool bOverwrite = GlobalConfig->GetInt(L"General", L"OverwriteRecordings", false) != 0;

	push	0
	push	OFFSET $SG4294795282
	push	OFFSET $SG4294795281
	mov	ecx, DWORD PTR ?GlobalConfig@@3PAVConfigFile@@A ; GlobalConfig
	call	DWORD PTR __imp_?GetInt@ConfigFile@@QAEHPB_W0H@Z
	test	eax, eax
	je	SHORT $LN20@GetOutputF
	mov	DWORD PTR tv128[ebp], 1
	jmp	SHORT $LN21@GetOutputF
$LN20@GetOutputF:
	mov	DWORD PTR tv128[ebp], 0
$LN21@GetOutputF:
	mov	cl, BYTE PTR tv128[ebp]
	mov	BYTE PTR _bOverwrite$[ebp], cl

; 201  :     
; 202  :     strOutputFile = ExpandRecordingFilename(strOutputFile);

	sub	esp, 8
	mov	ecx, esp
	lea	edx, DWORD PTR _strOutputFile$[ebp]
	push	edx
	call	DWORD PTR __imp_??0String@@QAE@ABV0@@Z
	lea	eax, DWORD PTR $T3[ebp]
	push	eax
	call	?ExpandRecordingFilename@@YA?AVString@@V1@@Z ; ExpandRecordingFilename
	add	esp, 12					; 0000000cH
	push	eax
	lea	ecx, DWORD PTR _strOutputFile$[ebp]
	call	DWORD PTR __imp_??4String@@QAEAAV0@ABV0@@Z
	lea	ecx, DWORD PTR $T3[ebp]
	call	DWORD PTR __imp_??1String@@QAE@XZ

; 203  : 
; 204  :     CreatePath(GetPathDirectory(strOutputFile));

	lea	ecx, DWORD PTR _strOutputFile$[ebp]
	call	DWORD PTR __imp_??BString@@QBEPA_WXZ
	push	eax
	lea	ecx, DWORD PTR $T5[ebp]
	push	ecx
	call	DWORD PTR __imp_?GetPathDirectory@@YA?AVString@@PB_W@Z
	add	esp, 8
	mov	ecx, eax
	call	DWORD PTR __imp_??BString@@QBEPA_WXZ
	push	eax
	call	DWORD PTR __imp_?CreatePath@@YAHPB_W@Z
	add	esp, 4
	lea	ecx, DWORD PTR $T5[ebp]
	call	DWORD PTR __imp_??1String@@QAE@XZ

; 205  : 
; 206  :     if (!bOverwrite && (hFind = OSFindFirstFile(strOutputFile, ofd)))

	movzx	edx, BYTE PTR _bOverwrite$[ebp]
	test	edx, edx
	jne	$LN11@GetOutputF
	lea	eax, DWORD PTR _ofd$[ebp]
	push	eax
	lea	ecx, DWORD PTR _strOutputFile$[ebp]
	call	DWORD PTR __imp_??BString@@QBEPA_WXZ
	push	eax
	call	DWORD PTR __imp_?OSFindFirstFile@@YGPAXPB_WAAUOSFindData@@@Z
	mov	DWORD PTR _hFind$[ebp], eax
	cmp	DWORD PTR _hFind$[ebp], 0
	je	$LN11@GetOutputF

; 207  :     {
; 208  :         String strFileExtension = GetPathExtension(strOutputFile);

	lea	ecx, DWORD PTR _strOutputFile$[ebp]
	call	DWORD PTR __imp_??BString@@QBEPA_WXZ
	push	eax
	lea	ecx, DWORD PTR _strFileExtension$10[ebp]
	push	ecx
	call	DWORD PTR __imp_?GetPathExtension@@YA?AVString@@PB_W@Z
	add	esp, 8

; 209  :         String strFileWithoutExtension = GetPathWithoutExtension(strOutputFile);

	lea	ecx, DWORD PTR _strOutputFile$[ebp]
	call	DWORD PTR __imp_??BString@@QBEPA_WXZ
	push	eax
	lea	edx, DWORD PTR _strFileWithoutExtension$6[ebp]
	push	edx
	call	DWORD PTR __imp_?GetPathWithoutExtension@@YA?AVString@@PB_W@Z
	add	esp, 8

; 210  : 
; 211  :         if (strFileExtension.IsValid() && !ofd.bDirectory)

	lea	ecx, DWORD PTR _strFileExtension$10[ebp]
	call	DWORD PTR __imp_?IsValid@String@@QBEHXZ
	test	eax, eax
	je	$LN10@GetOutputF
	cmp	DWORD PTR _ofd$[ebp+520], 0
	jne	$LN10@GetOutputF

; 212  :         {
; 213  :             String strNewFilePath;

	lea	ecx, DWORD PTR _strNewFilePath$11[ebp]
	call	DWORD PTR __imp_??0String@@QAE@XZ

; 214  :             UINT curFile = 0;

	mov	DWORD PTR _curFile$13[ebp], 0
$LN9@GetOutputF:

; 215  : 
; 216  :             do
; 217  :             {
; 218  :                 strNewFilePath.Clear() << strFileWithoutExtension << TEXT(" (") << FormattedString(TEXT("%02u"), ++curFile) << TEXT(").") << strFileExtension;

	mov	eax, DWORD PTR _curFile$13[ebp]
	add	eax, 1
	mov	DWORD PTR _curFile$13[ebp], eax
	lea	ecx, DWORD PTR _strFileExtension$10[ebp]
	push	ecx
	push	OFFSET $SG4294795278
	mov	edx, DWORD PTR _curFile$13[ebp]
	push	edx
	push	OFFSET $SG4294795279
	lea	eax, DWORD PTR $T1[ebp]
	push	eax
	call	DWORD PTR __imp_?FormattedString@@YA?AVString@@PB_WZZ
	add	esp, 12					; 0000000cH
	push	eax
	push	OFFSET $SG4294795280
	lea	ecx, DWORD PTR _strFileWithoutExtension$6[ebp]
	push	ecx
	lea	ecx, DWORD PTR _strNewFilePath$11[ebp]
	call	DWORD PTR __imp_?Clear@String@@QAEAAV1@XZ
	mov	ecx, eax
	call	DWORD PTR __imp_??6String@@QAEAAV0@ABV0@@Z
	mov	ecx, eax
	call	DWORD PTR __imp_??6String@@QAEAAV0@PB_W@Z
	mov	ecx, eax
	call	DWORD PTR __imp_??6String@@QAEAAV0@ABV0@@Z
	mov	ecx, eax
	call	DWORD PTR __imp_??6String@@QAEAAV0@PB_W@Z
	mov	ecx, eax
	call	DWORD PTR __imp_??6String@@QAEAAV0@ABV0@@Z
	lea	ecx, DWORD PTR $T1[ebp]
	call	DWORD PTR __imp_??1String@@QAE@XZ

; 219  :             } while (OSFileExists(strNewFilePath));

	lea	ecx, DWORD PTR _strNewFilePath$11[ebp]
	call	DWORD PTR __imp_??BString@@QBEPA_WXZ
	push	eax
	call	DWORD PTR __imp_?OSFileExists@@YGHPB_W@Z
	test	eax, eax
	jne	$LN9@GetOutputF

; 220  : 
; 221  :             strOutputFile = strNewFilePath;

	lea	edx, DWORD PTR _strNewFilePath$11[ebp]
	push	edx
	lea	ecx, DWORD PTR _strOutputFile$[ebp]
	call	DWORD PTR __imp_??4String@@QAEAAV0@ABV0@@Z

; 222  : 
; 223  :             bUseDateTimeName = false;

	mov	BYTE PTR _bUseDateTimeName$[ebp], 0

; 224  :         }

	lea	ecx, DWORD PTR _strNewFilePath$11[ebp]
	call	DWORD PTR __imp_??1String@@QAE@XZ
$LN10@GetOutputF:

; 225  : 
; 226  :         if (ofd.bDirectory)

	cmp	DWORD PTR _ofd$[ebp+520], 0
	je	SHORT $LN6@GetOutputF

; 227  :             strOutputFile.AppendChar('/');

	push	47					; 0000002fH
	lea	ecx, DWORD PTR _strOutputFile$[ebp]
	call	DWORD PTR __imp_?AppendChar@String@@QAEAAV1@_W@Z
$LN6@GetOutputF:

; 228  : 
; 229  :         OSFindClose(hFind);

	mov	eax, DWORD PTR _hFind$[ebp]
	push	eax
	call	DWORD PTR __imp_?OSFindClose@@YGXPAX@Z

; 230  :     }

	lea	ecx, DWORD PTR _strFileWithoutExtension$6[ebp]
	call	DWORD PTR __imp_??1String@@QAE@XZ
	lea	ecx, DWORD PTR _strFileExtension$10[ebp]
	call	DWORD PTR __imp_??1String@@QAE@XZ
$LN11@GetOutputF:

; 231  : 
; 232  :     if (bUseDateTimeName)

	movzx	ecx, BYTE PTR _bUseDateTimeName$[ebp]
	test	ecx, ecx
	je	$LN5@GetOutputF

; 233  :     {
; 234  :         String strFileName = GetPathFileName(strOutputFile);

	push	0
	lea	ecx, DWORD PTR _strOutputFile$[ebp]
	call	DWORD PTR __imp_??BString@@QBEPA_WXZ
	push	eax
	lea	edx, DWORD PTR _strFileName$7[ebp]
	push	edx
	call	DWORD PTR __imp_?GetPathFileName@@YA?AVString@@PB_WH@Z
	add	esp, 12					; 0000000cH

; 235  : 
; 236  :         if (!strFileName.IsValid() || !IsSafeFilename(strFileName))

	lea	ecx, DWORD PTR _strFileName$7[ebp]
	call	DWORD PTR __imp_?IsValid@String@@QBEHXZ
	test	eax, eax
	je	SHORT $LN3@GetOutputF
	lea	ecx, DWORD PTR _strFileName$7[ebp]
	call	DWORD PTR __imp_??BString@@QBEPA_WXZ
	push	eax
	call	DWORD PTR __imp_?IsSafeFilename@@YAHPB_W@Z
	add	esp, 4
	test	eax, eax
	jne	$LN4@GetOutputF
$LN3@GetOutputF:

; 237  :         {
; 238  :             SYSTEMTIME st;
; 239  :             GetLocalTime(&st);

	lea	eax, DWORD PTR _st$14[ebp]
	push	eax
	call	DWORD PTR __imp__GetLocalTime@4

; 240  : 
; 241  :             String strDirectory = GetPathDirectory(strOutputFile);

	lea	ecx, DWORD PTR _strOutputFile$[ebp]
	call	DWORD PTR __imp_??BString@@QBEPA_WXZ
	push	eax
	lea	ecx, DWORD PTR _strDirectory$9[ebp]
	push	ecx
	call	DWORD PTR __imp_?GetPathDirectory@@YA?AVString@@PB_W@Z
	add	esp, 8

; 242  :             String file = strOutputFile.Right(strOutputFile.Length() - strDirectory.Length());

	lea	ecx, DWORD PTR _strOutputFile$[ebp]
	call	DWORD PTR __imp_?Length@String@@QBEIXZ
	mov	esi, eax
	lea	ecx, DWORD PTR _strDirectory$9[ebp]
	call	DWORD PTR __imp_?Length@String@@QBEIXZ
	sub	esi, eax
	push	esi
	lea	edx, DWORD PTR _file$8[ebp]
	push	edx
	lea	ecx, DWORD PTR _strOutputFile$[ebp]
	call	DWORD PTR __imp_?Right@String@@QAE?AV1@I@Z

; 243  :             String extension;

	lea	ecx, DWORD PTR _extension$12[ebp]
	call	DWORD PTR __imp_??0String@@QAE@XZ

; 244  : 
; 245  :             if (!file.IsEmpty())

	lea	ecx, DWORD PTR _file$8[ebp]
	call	DWORD PTR __imp_?IsEmpty@String@@QBEHXZ
	test	eax, eax
	jne	SHORT $LN2@GetOutputF

; 246  :                 extension = GetPathExtension(file.Array());

	lea	ecx, DWORD PTR _file$8[ebp]
	call	DWORD PTR __imp_?Array@String@@QBEPA_WXZ
	push	eax
	lea	eax, DWORD PTR $T2[ebp]
	push	eax
	call	DWORD PTR __imp_?GetPathExtension@@YA?AVString@@PB_W@Z
	add	esp, 8
	push	eax
	lea	ecx, DWORD PTR _extension$12[ebp]
	call	DWORD PTR __imp_??4String@@QAEAAV0@ABV0@@Z
	lea	ecx, DWORD PTR $T2[ebp]
	call	DWORD PTR __imp_??1String@@QAE@XZ
$LN2@GetOutputF:

; 247  : 
; 248  :             if (extension.IsEmpty())

	lea	ecx, DWORD PTR _extension$12[ebp]
	call	DWORD PTR __imp_?IsEmpty@String@@QBEHXZ
	test	eax, eax
	je	SHORT $LN1@GetOutputF

; 249  :                 extension = TEXT("mp4");

	push	OFFSET $SG4294795277
	lea	ecx, DWORD PTR _extension$12[ebp]
	call	DWORD PTR __imp_??4String@@QAEAAV0@PB_W@Z
$LN1@GetOutputF:

; 250  :             strOutputFile = FormattedString(TEXT("%s/%u-%02u-%02u-%02u%02u-%02u.%s"), strDirectory.Array(), st.wYear, st.wMonth, st.wDay, st.wHour, st.wMinute, st.wSecond, extension.Array());

	lea	ecx, DWORD PTR _extension$12[ebp]
	call	DWORD PTR __imp_?Array@String@@QBEPA_WXZ
	push	eax
	movzx	ecx, WORD PTR _st$14[ebp+12]
	push	ecx
	movzx	edx, WORD PTR _st$14[ebp+10]
	push	edx
	movzx	eax, WORD PTR _st$14[ebp+8]
	push	eax
	movzx	ecx, WORD PTR _st$14[ebp+6]
	push	ecx
	movzx	edx, WORD PTR _st$14[ebp+2]
	push	edx
	movzx	eax, WORD PTR _st$14[ebp]
	push	eax
	lea	ecx, DWORD PTR _strDirectory$9[ebp]
	call	DWORD PTR __imp_?Array@String@@QBEPA_WXZ
	push	eax
	push	OFFSET $SG4294795276
	lea	ecx, DWORD PTR $T4[ebp]
	push	ecx
	call	DWORD PTR __imp_?FormattedString@@YA?AVString@@PB_WZZ
	add	esp, 40					; 00000028H
	push	eax
	lea	ecx, DWORD PTR _strOutputFile$[ebp]
	call	DWORD PTR __imp_??4String@@QAEAAV0@ABV0@@Z
	lea	ecx, DWORD PTR $T4[ebp]
	call	DWORD PTR __imp_??1String@@QAE@XZ

; 251  :         }

	lea	ecx, DWORD PTR _extension$12[ebp]
	call	DWORD PTR __imp_??1String@@QAE@XZ
	lea	ecx, DWORD PTR _file$8[ebp]
	call	DWORD PTR __imp_??1String@@QAE@XZ
	lea	ecx, DWORD PTR _strDirectory$9[ebp]
	call	DWORD PTR __imp_??1String@@QAE@XZ
$LN4@GetOutputF:

; 252  :     }

	lea	ecx, DWORD PTR _strFileName$7[ebp]
	call	DWORD PTR __imp_??1String@@QAE@XZ
$LN5@GetOutputF:

; 253  : 
; 254  :     return strOutputFile;

	lea	edx, DWORD PTR _strOutputFile$[ebp]
	push	edx
	mov	ecx, DWORD PTR ___$ReturnUdt$[ebp]
	call	DWORD PTR __imp_??0String@@QAE@ABV0@@Z
	lea	ecx, DWORD PTR _strOutputFile$[ebp]
	call	DWORD PTR __imp_??1String@@QAE@XZ
	lea	ecx, DWORD PTR _path$[ebp]
	call	DWORD PTR __imp_??1String@@QAE@XZ
	mov	eax, DWORD PTR ___$ReturnUdt$[ebp]

; 255  : }

	pop	esi
	mov	ecx, DWORD PTR __$ArrayPad$[ebp]
	xor	ecx, ebp
	call	@__security_check_cookie@4
	mov	esp, ebp
	pop	ebp
	ret	0
?GetOutputFilename@@YA?AVString@@_N@Z ENDP		; GetOutputFilename
_TEXT	ENDS
; Function compile flags: /Odtp
; File f:\songmm_moon_stone_obs\obs\source\obscapture.cpp
;	COMDAT ?AddPendingStreamThread@OBS@@QAEXPAX@Z
_TEXT	SEGMENT
_l$ = -12						; size = 8
_this$ = -4						; size = 4
_thread$ = 8						; size = 4
?AddPendingStreamThread@OBS@@QAEXPAX@Z PROC		; OBS::AddPendingStreamThread, COMDAT
; _this$ = ecx

; 1625 : {

	push	ebp
	mov	ebp, esp
	sub	esp, 12					; 0000000cH
	mov	DWORD PTR _this$[ebp], ecx

; 1626 :     ScopedLock l(pendingStreams.mutex);

	push	1
	push	0
	mov	eax, DWORD PTR _this$[ebp]
	add	eax, 1424				; 00000590H
	push	eax
	lea	ecx, DWORD PTR _l$[ebp]
	call	??0ScopedLock@@QAE@ABV?$unique_ptr@XUMutexDeleter@@@std@@_N1@Z ; ScopedLock::ScopedLock

; 1627 :     pendingStreams.streams.emplace_back(thread);

	lea	ecx, DWORD PTR _thread$[ebp]
	push	ecx
	mov	ecx, DWORD PTR _this$[ebp]
	add	ecx, 1416				; 00000588H
	call	??$emplace_back@AAPAX@?$list@V?$unique_ptr@XU?$ThreadTerminator@$0A@@@@std@@V?$allocator@V?$unique_ptr@XU?$ThreadTerminator@$0A@@@@std@@@2@@std@@QAEXAAPAX@Z ; std::list<std::unique_ptr<void,ThreadTerminator<0> >,std::allocator<std::unique_ptr<void,ThreadTerminator<0> > > >::emplace_back<void * &>

; 1628 : }

	lea	ecx, DWORD PTR _l$[ebp]
	call	??1ScopedLock@@QAE@XZ			; ScopedLock::~ScopedLock
	mov	esp, ebp
	pop	ebp
	ret	4
?AddPendingStreamThread@OBS@@QAEXPAX@Z ENDP		; OBS::AddPendingStreamThread
_TEXT	ENDS
; Function compile flags: /Odtp
; File f:\songmm_moon_stone_obs\obs\source\obscapture.cpp
;	COMDAT ?Stop@OBS@@AAEX_N0@Z
_TEXT	SEGMENT
$T1 = -284						; size = 8
$T2 = -276						; size = 4
$T3 = -272						; size = 4
_processPriority$ = -268				; size = 8
$T4 = -260						; size = 4
tv289 = -256						; size = 4
$T5 = -252						; size = 4
$T6 = -248						; size = 4
_networkMode$ = -244					; size = 4
$T7 = -240						; size = 4
$T8 = -236						; size = 4
$T9 = -232						; size = 4
tv554 = -228						; size = 4
$T10 = -224						; size = 4
$T11 = -220						; size = 4
$T12 = -216						; size = 4
tv541 = -212						; size = 4
$T13 = -208						; size = 4
$T14 = -204						; size = 4
tv460 = -200						; size = 4
tv533 = -196						; size = 4
tv447 = -192						; size = 4
$T15 = -188						; size = 4
tv405 = -184						; size = 4
tv525 = -180						; size = 4
tv391 = -176						; size = 4
$T16 = -172						; size = 4
tv373 = -168						; size = 4
tv517 = -164						; size = 4
tv344 = -160						; size = 4
$T17 = -156						; size = 4
tv316 = -152						; size = 4
tv477 = -148						; size = 4
tv307 = -144						; size = 4
$T18 = -140						; size = 4
tv298 = -136						; size = 4
tv469 = -132						; size = 4
$T19 = -128						; size = 4
$T20 = -124						; size = 4
_audioDevices$ = -120					; size = 8
tv216 = -112						; size = 4
tv597 = -108						; size = 4
_strDevice$ = -104					; size = 8
$T21 = -96						; size = 4
$T22 = -92						; size = 4
$T23 = -88						; size = 4
$T24 = -84						; size = 4
$T25 = -80						; size = 4
$T26 = -76						; size = 4
$T27 = -72						; size = 4
$T28 = -68						; size = 4
$T29 = -64						; size = 4
$T30 = -60						; size = 4
$T31 = -56						; size = 4
$T32 = -52						; size = 4
$T33 = -48						; size = 4
$T34 = -44						; size = 4
$T35 = -40						; size = 4
$T36 = -36						; size = 4
$T37 = -32						; size = 4
_i$38 = -28						; size = 4
_i$39 = -24						; size = 4
_i$40 = -20						; size = 4
_i$41 = -16						; size = 4
_i$42 = -12						; size = 4
_i$43 = -8						; size = 4
_this$ = -4						; size = 4
_overrideKeepRecording$ = 8				; size = 1
_stopReplayBuffer$ = 12					; size = 1
?Stop@OBS@@AAEX_N0@Z PROC				; OBS::Stop, COMDAT
; _this$ = ecx

; 929  : {

	push	ebp
	mov	ebp, esp
	sub	esp, 284				; 0000011cH
	mov	DWORD PTR _this$[ebp], ecx

; 930  :     if((!bStreaming && !bRecording && !bRunning && !bRecordingReplayBuffer) && (!bTestStream)) return;

	mov	eax, DWORD PTR _this$[ebp]
	movzx	ecx, BYTE PTR [eax+627]
	test	ecx, ecx
	jne	SHORT $LN39@Stop
	mov	edx, DWORD PTR _this$[ebp]
	movzx	eax, BYTE PTR [edx+623]
	test	eax, eax
	jne	SHORT $LN39@Stop
	mov	ecx, DWORD PTR _this$[ebp]
	movzx	edx, BYTE PTR [ecx+622]
	test	edx, edx
	jne	SHORT $LN39@Stop
	mov	eax, DWORD PTR _this$[ebp]
	movzx	ecx, BYTE PTR [eax+624]
	test	ecx, ecx
	jne	SHORT $LN39@Stop
	mov	edx, DWORD PTR _this$[ebp]
	movzx	eax, BYTE PTR [edx+620]
	test	eax, eax
	jne	SHORT $LN39@Stop
	jmp	$LN40@Stop
$LN39@Stop:

; 931  : 
; 932  :     //ugly hack to prevent hotkeys from being processed while we're stopping otherwise we end up
; 933  :     //with callbacks from the ProcessEvents call in DelayedPublisher which causes havoc.
; 934  :     OSEnterMutex(hHotkeyMutex);

	mov	ecx, DWORD PTR _this$[ebp]
	mov	edx, DWORD PTR [ecx+1232]
	push	edx
	call	DWORD PTR __imp_?OSEnterMutex@@YGXPAX@Z

; 935  : 
; 936  :     int networkMode = AppConfig->GetInt(TEXT("Publish"), TEXT("Mode"), 2);

	push	2
	push	OFFSET $SG4294795128
	push	OFFSET $SG4294795127
	mov	ecx, DWORD PTR ?AppConfig@@3PAVConfigFile@@A ; AppConfig
	call	DWORD PTR __imp_?GetInt@ConfigFile@@QAEHPB_W0H@Z
	mov	DWORD PTR _networkMode$[ebp], eax

; 937  : 
; 938  :     if((!overrideKeepRecording && ((bRecording && bKeepRecording) || (!stopReplayBuffer && bRecordingReplayBuffer))) && networkMode == 0) {

	movzx	eax, BYTE PTR _overrideKeepRecording$[ebp]
	test	eax, eax
	jne	$LN38@Stop
	mov	ecx, DWORD PTR _this$[ebp]
	movzx	edx, BYTE PTR [ecx+623]
	test	edx, edx
	je	SHORT $LN36@Stop
	mov	eax, DWORD PTR _this$[ebp]
	movzx	ecx, BYTE PTR [eax+629]
	test	ecx, ecx
	jne	SHORT $LN37@Stop
$LN36@Stop:
	movzx	edx, BYTE PTR _stopReplayBuffer$[ebp]
	test	edx, edx
	jne	$LN38@Stop
	mov	eax, DWORD PTR _this$[ebp]
	movzx	ecx, BYTE PTR [eax+624]
	test	ecx, ecx
	je	$LN38@Stop
$LN37@Stop:
	cmp	DWORD PTR _networkMode$[ebp], 0
	jne	$LN38@Stop

; 939  :         videoEncoder->RequestKeyframe();

	mov	edx, DWORD PTR _this$[ebp]
	mov	eax, DWORD PTR [edx+148]
	mov	ecx, DWORD PTR _this$[ebp]
	mov	edx, DWORD PTR [eax]
	mov	ecx, DWORD PTR [ecx+148]
	mov	eax, DWORD PTR [edx+32]
	call	eax

; 940  : 
; 941  :         if (!networkStop.func && network)

	mov	ecx, DWORD PTR _this$[ebp]
	add	ecx, 88					; 00000058H
	call	??B?$function@$$A6AXXZ@std@@QBE_NXZ	; std::function<void __cdecl(void)>::operator bool
	movzx	ecx, al
	test	ecx, ecx
	jne	SHORT $LN35@Stop
	mov	ecx, DWORD PTR _this$[ebp]
	add	ecx, 76					; 0000004cH
	call	??B?$unique_ptr@VNetworkStream@@U?$default_delete@VNetworkStream@@@std@@@std@@QBE_NXZ ; std::unique_ptr<NetworkStream,std::default_delete<NetworkStream> >::operator bool
	movzx	edx, al
	test	edx, edx
	je	SHORT $LN35@Stop

; 942  :         {
; 943  :             networkStop.func = [this]()
; 944  :             {
; 945  :                 videoEncoder->RequestKeyframe();
; 946  : 
; 947  :                 auto stream = move(network);
; 948  : 
; 949  :                 Log(TEXT("=====Stream End (recording continues): %s========================="), CurrentDateTimeString().Array());
; 950  : 
; 951  :                 bStreamFlushed = false;
; 952  : 
; 953  :                 ConfigureStreamButtons();
; 954  : 
; 955  :                 AddPendingStream(stream.release(), [this]()
; 956  :                 {
; 957  :                     bStreaming = false;
; 958  :                     bSentHeaders = false;
; 959  : 
; 960  :                     ReportStopStreamingTrigger();
; 961  : 
; 962  :                     bStreamFlushed = true;
; 963  : 
; 964  :                     ConfigureStreamButtons();
; 965  : 
; 966  :                     if (!bStreaming && !bRecordingReplayBuffer && bRunning && !bRecording) PostStopMessage(true);
; 967  :                 });
; 968  :             };

	mov	eax, DWORD PTR _this$[ebp]
	push	eax
	lea	ecx, DWORD PTR $T3[ebp]
	call	??0<lambda_7c9af1b141e25bc2e890d47a77a39da9>@@QAE@PAVOBS@@@Z ; <lambda_7c9af1b141e25bc2e890d47a77a39da9>::<lambda_7c9af1b141e25bc2e890d47a77a39da9>
	push	eax
	mov	ecx, DWORD PTR _this$[ebp]
	add	ecx, 88					; 00000058H
	call	??$?4V<lambda_7c9af1b141e25bc2e890d47a77a39da9>@@@?$function@$$A6AXXZ@std@@QAEAAV01@$$QAV<lambda_7c9af1b141e25bc2e890d47a77a39da9>@@@Z ; std::function<void __cdecl(void)>::operator=<<lambda_7c9af1b141e25bc2e890d47a77a39da9> >

; 969  :             networkStop.time = (DWORD)(GetVideoTime() - firstFrameTimestamp);

	mov	ecx, DWORD PTR _this$[ebp]
	call	?GetVideoTime@OBS@@QBE_KXZ		; OBS::GetVideoTime
	mov	ecx, DWORD PTR _this$[ebp]
	sub	eax, DWORD PTR [ecx+1112]
	sbb	edx, DWORD PTR [ecx+1116]
	mov	edx, DWORD PTR _this$[ebp]
	mov	DWORD PTR [edx+80], eax
$LN35@Stop:

; 970  :         }
; 971  : 
; 972  :         OSLeaveMutex(hHotkeyMutex);

	mov	eax, DWORD PTR _this$[ebp]
	mov	ecx, DWORD PTR [eax+1232]
	push	ecx
	call	DWORD PTR __imp_?OSLeaveMutex@@YGXPAX@Z

; 973  : 
; 974  :         if (bRecordingReplayBuffer && (bRecording && (overrideKeepRecording || !bKeepRecording)))

	mov	edx, DWORD PTR _this$[ebp]
	movzx	eax, BYTE PTR [edx+624]
	test	eax, eax
	je	SHORT $LN34@Stop
	mov	ecx, DWORD PTR _this$[ebp]
	movzx	edx, BYTE PTR [ecx+623]
	test	edx, edx
	je	SHORT $LN34@Stop
	movzx	eax, BYTE PTR _overrideKeepRecording$[ebp]
	test	eax, eax
	jne	SHORT $LN33@Stop
	mov	ecx, DWORD PTR _this$[ebp]
	movzx	edx, BYTE PTR [ecx+629]
	test	edx, edx
	jne	SHORT $LN34@Stop
$LN33@Stop:

; 975  :             StopRecording();

	push	0
	mov	ecx, DWORD PTR _this$[ebp]
	call	?StopRecording@OBS@@AAEX_N@Z		; OBS::StopRecording
$LN34@Stop:

; 976  : 
; 977  :         return;

	jmp	$LN40@Stop
$LN38@Stop:

; 978  :     }
; 979  : 
; 980  :     OSEnterMutex(hStartupShutdownMutex);

	mov	eax, DWORD PTR _this$[ebp]
	mov	ecx, DWORD PTR [eax+1400]
	push	ecx
	call	DWORD PTR __imp_?OSEnterMutex@@YGXPAX@Z

; 981  : 
; 982  :     //we only want the capture thread to stop first, so we can ensure all packets are flushed
; 983  :     bShutdownEncodeThread = true;

	mov	edx, DWORD PTR _this$[ebp]
	mov	BYTE PTR [edx+632], 1

; 984  :     ShowWindow(hwndProjector, SW_HIDE);

	push	0
	mov	eax, DWORD PTR _this$[ebp]
	mov	ecx, DWORD PTR [eax+732]
	push	ecx
	call	DWORD PTR __imp__ShowWindow@8

; 985  : 
; 986  :     if(hEncodeThread)

	mov	edx, DWORD PTR _this$[ebp]
	cmp	DWORD PTR [edx+948], 0
	je	SHORT $LN32@Stop

; 987  :     {
; 988  :         OSTerminateThread(hEncodeThread, 30001);

	push	30001					; 00007531H
	mov	eax, DWORD PTR _this$[ebp]
	mov	ecx, DWORD PTR [eax+948]
	push	ecx
	call	DWORD PTR __imp_?OSTerminateThread@@YGHPAXK@Z

; 989  :         hEncodeThread = NULL;

	mov	edx, DWORD PTR _this$[ebp]
	mov	DWORD PTR [edx+948], 0
$LN32@Stop:

; 990  :     }
; 991  : 
; 992  :     bShutdownVideoThread = true;

	mov	eax, DWORD PTR _this$[ebp]
	mov	BYTE PTR [eax+631], 1

; 993  :     SetEvent(hVideoEvent);

	mov	ecx, DWORD PTR _this$[ebp]
	mov	edx, DWORD PTR [ecx+1124]
	push	edx
	call	DWORD PTR __imp__SetEvent@4

; 994  : 
; 995  :     if(hVideoThread)

	mov	eax, DWORD PTR _this$[ebp]
	cmp	DWORD PTR [eax+952], 0
	je	SHORT $LN31@Stop

; 996  :     {
; 997  :         OSTerminateThread(hVideoThread, 30002);

	push	30002					; 00007532H
	mov	ecx, DWORD PTR _this$[ebp]
	mov	edx, DWORD PTR [ecx+952]
	push	edx
	call	DWORD PTR __imp_?OSTerminateThread@@YGHPAXK@Z

; 998  :         hVideoThread = NULL;

	mov	eax, DWORD PTR _this$[ebp]
	mov	DWORD PTR [eax+952], 0
$LN31@Stop:

; 999  :     }
; 1000 : 
; 1001 :     bRunning = false;

	mov	ecx, DWORD PTR _this$[ebp]
	mov	BYTE PTR [ecx+622], 0

; 1002 : 
; 1003 :     ReportStopStreamTrigger();

	mov	edx, DWORD PTR _this$[ebp]
	mov	eax, DWORD PTR [edx]
	mov	ecx, DWORD PTR _this$[ebp]
	mov	edx, DWORD PTR [eax+72]
	call	edx

; 1004 : 
; 1005 :     for(UINT i=0; i<globalSources.Num(); i++)

	mov	DWORD PTR _i$41[ebp], 0
	jmp	SHORT $LN30@Stop
$LN29@Stop:
	mov	eax, DWORD PTR _i$41[ebp]
	add	eax, 1
	mov	DWORD PTR _i$41[ebp], eax
$LN30@Stop:
	mov	ecx, DWORD PTR _this$[ebp]
	add	ecx, 1376				; 00000560H
	call	?Num@?$List@UGlobalSourceInfo@@@@QBEIXZ	; List<GlobalSourceInfo>::Num
	cmp	DWORD PTR _i$41[ebp], eax
	jae	SHORT $LN28@Stop

; 1006 :         globalSources[i].source->EndScene();

	mov	ecx, DWORD PTR _i$41[ebp]
	push	ecx
	mov	ecx, DWORD PTR _this$[ebp]
	add	ecx, 1376				; 00000560H
	call	??A?$List@UGlobalSourceInfo@@@@QAEAAUGlobalSourceInfo@@I@Z ; List<GlobalSourceInfo>::operator[]
	mov	edx, DWORD PTR [eax+12]
	mov	DWORD PTR tv216[ebp], edx
	mov	eax, DWORD PTR tv216[ebp]
	mov	edx, DWORD PTR [eax]
	mov	ecx, DWORD PTR tv216[ebp]
	mov	eax, DWORD PTR [edx+28]
	call	eax
	jmp	SHORT $LN29@Stop
$LN28@Stop:

; 1007 : 
; 1008 :     if(scene)

	mov	ecx, DWORD PTR _this$[ebp]
	cmp	DWORD PTR [ecx+144], 0
	je	SHORT $LN27@Stop

; 1009 :         scene->EndScene();

	mov	edx, DWORD PTR _this$[ebp]
	mov	eax, DWORD PTR [edx+144]
	mov	ecx, DWORD PTR _this$[ebp]
	mov	edx, DWORD PTR [eax]
	mov	ecx, DWORD PTR [ecx+144]
	mov	eax, DWORD PTR [edx+40]
	call	eax
$LN27@Stop:

; 1010 : 
; 1011 :     //-------------------------------------------------------------
; 1012 : 
; 1013 :     if(hSoundThread)

	mov	ecx, DWORD PTR _this$[ebp]
	cmp	DWORD PTR [ecx+1148], 0
	je	SHORT $LN26@Stop

; 1014 :     {
; 1015 :         //ReleaseSemaphore(hRequestAudioEvent, 1, NULL);
; 1016 :         OSTerminateThread(hSoundThread, 20000);

	push	20000					; 00004e20H
	mov	edx, DWORD PTR _this$[ebp]
	mov	eax, DWORD PTR [edx+1148]
	push	eax
	call	DWORD PTR __imp_?OSTerminateThread@@YGHPAXK@Z
$LN26@Stop:

; 1017 :     }
; 1018 : 
; 1019 :     //if(hRequestAudioEvent)
; 1020 :     //    CloseHandle(hRequestAudioEvent);
; 1021 :     if(hSoundDataMutex)

	mov	ecx, DWORD PTR _this$[ebp]
	cmp	DWORD PTR [ecx+1152], 0
	je	SHORT $LN25@Stop

; 1022 :         OSCloseMutex(hSoundDataMutex);

	mov	edx, DWORD PTR _this$[ebp]
	mov	eax, DWORD PTR [edx+1152]
	push	eax
	call	DWORD PTR __imp_?OSCloseMutex@@YGXPAX@Z
$LN25@Stop:

; 1023 : 
; 1024 :     hSoundThread = NULL;

	mov	ecx, DWORD PTR _this$[ebp]
	mov	DWORD PTR [ecx+1148], 0

; 1025 :     //hRequestAudioEvent = NULL;
; 1026 :     hSoundDataMutex = NULL;

	mov	edx, DWORD PTR _this$[ebp]
	mov	DWORD PTR [edx+1152], 0

; 1027 : 
; 1028 :     //-------------------------------------------------------------
; 1029 : 
; 1030 :     StopBlankSoundPlayback();

	call	?StopBlankSoundPlayback@@YAXXZ		; StopBlankSoundPlayback

; 1031 : 
; 1032 :     //-------------------------------------------------------------
; 1033 : 
; 1034 :     if (bStreaming)

	mov	eax, DWORD PTR _this$[ebp]
	movzx	ecx, BYTE PTR [eax+627]
	test	ecx, ecx
	je	SHORT $LN24@Stop

; 1035 :     {
; 1036 :         bStreamFlushed = false;

	mov	edx, DWORD PTR _this$[ebp]
	mov	BYTE PTR [edx+628], 0

; 1037 :         AddPendingStream(network.release(), [this]()
; 1038 :         {
; 1039 :             ReportStopStreamingTrigger();
; 1040 :             bStreaming = false;
; 1041 :             bStreamFlushed = true;
; 1042 :             bTestStream = false;
; 1043 :             ConfigureStreamButtons();
; 1044 :         });

	mov	eax, DWORD PTR _this$[ebp]
	push	eax
	lea	ecx, DWORD PTR $T2[ebp]
	call	??0<lambda_3b020cec0f1508adac4c896f138918cf>@@QAE@PAVOBS@@@Z ; <lambda_3b020cec0f1508adac4c896f138918cf>::<lambda_3b020cec0f1508adac4c896f138918cf>
	sub	esp, 24					; 00000018H
	mov	ecx, esp
	push	eax
	call	??$?0V<lambda_3b020cec0f1508adac4c896f138918cf>@@@?$function@$$A6AXXZ@std@@QAE@$$QAV<lambda_3b020cec0f1508adac4c896f138918cf>@@@Z ; std::function<void __cdecl(void)>::function<void __cdecl(void)><<lambda_3b020cec0f1508adac4c896f138918cf> >
	mov	ecx, DWORD PTR _this$[ebp]
	add	ecx, 76					; 0000004cH
	call	?release@?$unique_ptr@VNetworkStream@@U?$default_delete@VNetworkStream@@@std@@@std@@QAEPAVNetworkStream@@XZ ; std::unique_ptr<NetworkStream,std::default_delete<NetworkStream> >::release
	push	eax
	mov	ecx, DWORD PTR _this$[ebp]
	call	?AddPendingStream@OBS@@QAEXPAUClosableStream@@V?$function@$$A6AXXZ@std@@@Z ; OBS::AddPendingStream

; 1045 :     }
; 1046 :     else

	jmp	SHORT $LN23@Stop
$LN24@Stop:

; 1047 :     {
; 1048 :         network.reset();

	push	0
	mov	ecx, DWORD PTR _this$[ebp]
	add	ecx, 76					; 0000004cH
	call	?reset@?$unique_ptr@VNetworkStream@@U?$default_delete@VNetworkStream@@@std@@@std@@QAEXPAVNetworkStream@@@Z ; std::unique_ptr<NetworkStream,std::default_delete<NetworkStream> >::reset

; 1049 :         bStreaming = false;

	mov	ecx, DWORD PTR _this$[ebp]
	mov	BYTE PTR [ecx+627], 0

; 1050 :         bTestStream = false;

	mov	edx, DWORD PTR _this$[ebp]
	mov	BYTE PTR [edx+620], 0
$LN23@Stop:

; 1051 :     }
; 1052 :     
; 1053 :     if (bRecording) StopRecording(true);

	mov	eax, DWORD PTR _this$[ebp]
	movzx	ecx, BYTE PTR [eax+623]
	test	ecx, ecx
	je	SHORT $LN22@Stop
	push	1
	mov	ecx, DWORD PTR _this$[ebp]
	call	?StopRecording@OBS@@AAEX_N@Z		; OBS::StopRecording
$LN22@Stop:

; 1054 :     if (bRecordingReplayBuffer) StopReplayBuffer(true);

	mov	edx, DWORD PTR _this$[ebp]
	movzx	eax, BYTE PTR [edx+624]
	test	eax, eax
	je	SHORT $LN21@Stop
	push	1
	mov	ecx, DWORD PTR _this$[ebp]
	call	?StopReplayBuffer@OBS@@AAEX_N@Z		; OBS::StopReplayBuffer
$LN21@Stop:

; 1055 : 
; 1056 :     delete micAudio;

	mov	ecx, DWORD PTR _this$[ebp]
	mov	edx, DWORD PTR [ecx+116]
	mov	DWORD PTR $T4[ebp], edx
	mov	eax, DWORD PTR $T4[ebp]
	mov	DWORD PTR $T28[ebp], eax
	cmp	DWORD PTR $T28[ebp], 0
	je	SHORT $LN42@Stop
	push	1
	mov	ecx, DWORD PTR $T28[ebp]
	mov	edx, DWORD PTR [ecx]
	mov	ecx, DWORD PTR $T28[ebp]
	mov	eax, DWORD PTR [edx+12]
	call	eax
	mov	DWORD PTR tv289[ebp], eax
	jmp	SHORT $LN43@Stop
$LN42@Stop:
	mov	DWORD PTR tv289[ebp], 0
$LN43@Stop:

; 1057 :     micAudio = NULL;

	mov	ecx, DWORD PTR _this$[ebp]
	mov	DWORD PTR [ecx+116], 0

; 1058 : 
; 1059 :     delete desktopAudio;

	mov	edx, DWORD PTR _this$[ebp]
	mov	eax, DWORD PTR [edx+112]
	mov	DWORD PTR $T6[ebp], eax
	mov	ecx, DWORD PTR $T6[ebp]
	mov	DWORD PTR $T26[ebp], ecx
	cmp	DWORD PTR $T26[ebp], 0
	je	SHORT $LN44@Stop
	push	1
	mov	edx, DWORD PTR $T26[ebp]
	mov	eax, DWORD PTR [edx]
	mov	ecx, DWORD PTR $T26[ebp]
	mov	edx, DWORD PTR [eax+12]
	call	edx
	mov	DWORD PTR tv298[ebp], eax
	jmp	SHORT $LN45@Stop
$LN44@Stop:
	mov	DWORD PTR tv298[ebp], 0
$LN45@Stop:

; 1060 :     desktopAudio = NULL;

	mov	eax, DWORD PTR _this$[ebp]
	mov	DWORD PTR [eax+112], 0

; 1061 : 
; 1062 :     delete audioEncoder;

	mov	ecx, DWORD PTR _this$[ebp]
	mov	edx, DWORD PTR [ecx+140]
	mov	DWORD PTR $T13[ebp], edx
	mov	eax, DWORD PTR $T13[ebp]
	mov	DWORD PTR $T34[ebp], eax
	cmp	DWORD PTR $T34[ebp], 0
	je	SHORT $LN46@Stop
	push	1
	mov	ecx, DWORD PTR $T34[ebp]
	mov	edx, DWORD PTR [ecx]
	mov	ecx, DWORD PTR $T34[ebp]
	mov	eax, DWORD PTR [edx+8]
	call	eax
	mov	DWORD PTR tv307[ebp], eax
	jmp	SHORT $LN47@Stop
$LN46@Stop:
	mov	DWORD PTR tv307[ebp], 0
$LN47@Stop:

; 1063 :     audioEncoder = NULL;

	mov	ecx, DWORD PTR _this$[ebp]
	mov	DWORD PTR [ecx+140], 0

; 1064 : 
; 1065 :     delete videoEncoder;

	mov	edx, DWORD PTR _this$[ebp]
	mov	eax, DWORD PTR [edx+148]
	mov	DWORD PTR $T20[ebp], eax
	mov	ecx, DWORD PTR $T20[ebp]
	mov	DWORD PTR $T22[ebp], ecx
	cmp	DWORD PTR $T22[ebp], 0
	je	SHORT $LN48@Stop
	push	1
	mov	edx, DWORD PTR $T22[ebp]
	mov	eax, DWORD PTR [edx]
	mov	ecx, DWORD PTR $T22[ebp]
	mov	edx, DWORD PTR [eax+8]
	call	edx
	mov	DWORD PTR tv316[ebp], eax
	jmp	SHORT $LN49@Stop
$LN48@Stop:
	mov	DWORD PTR tv316[ebp], 0
$LN49@Stop:

; 1066 :     videoEncoder = NULL;

	mov	eax, DWORD PTR _this$[ebp]
	mov	DWORD PTR [eax+148], 0

; 1067 : 
; 1068 :     //-------------------------------------------------------------
; 1069 : 
; 1070 :     for(UINT i=0; i<pendingAudioFrames.Num(); i++)

	mov	DWORD PTR _i$39[ebp], 0
	jmp	SHORT $LN20@Stop
$LN19@Stop:
	mov	ecx, DWORD PTR _i$39[ebp]
	add	ecx, 1
	mov	DWORD PTR _i$39[ebp], ecx
$LN20@Stop:
	mov	ecx, DWORD PTR _this$[ebp]
	add	ecx, 1208				; 000004b8H
	call	?Num@?$List@UFrameAudio@@@@QBEIXZ	; List<FrameAudio>::Num
	cmp	DWORD PTR _i$39[ebp], eax
	jae	SHORT $LN18@Stop

; 1071 :         pendingAudioFrames[i].audioData.Clear();

	mov	edx, DWORD PTR _i$39[ebp]
	push	edx
	mov	ecx, DWORD PTR _this$[ebp]
	add	ecx, 1208				; 000004b8H
	call	??A?$List@UFrameAudio@@@@QAEAAUFrameAudio@@I@Z ; List<FrameAudio>::operator[]
	mov	ecx, eax
	call	?Clear@?$List@E@@QAEXXZ			; List<unsigned char>::Clear
	jmp	SHORT $LN19@Stop
$LN18@Stop:

; 1072 :     pendingAudioFrames.Clear();

	mov	ecx, DWORD PTR _this$[ebp]
	add	ecx, 1208				; 000004b8H
	call	?Clear@?$List@UFrameAudio@@@@QAEXXZ	; List<FrameAudio>::Clear

; 1073 : 
; 1074 :     //-------------------------------------------------------------
; 1075 : 
; 1076 :     if(GS)

	mov	eax, DWORD PTR __imp_?GS@@3PAVGraphicsSystem@@A
	cmp	DWORD PTR [eax], 0
	je	SHORT $LN17@Stop

; 1077 :         GS->UnloadAllData();

	mov	ecx, DWORD PTR __imp_?GS@@3PAVGraphicsSystem@@A
	mov	edx, DWORD PTR [ecx]
	mov	eax, DWORD PTR __imp_?GS@@3PAVGraphicsSystem@@A
	mov	edx, DWORD PTR [edx]
	mov	ecx, DWORD PTR [eax]
	mov	eax, DWORD PTR [edx+4]
	call	eax
$LN17@Stop:

; 1078 : 
; 1079 :     //-------------------------------------------------------------
; 1080 : 
; 1081 :     delete scene;

	mov	ecx, DWORD PTR _this$[ebp]
	mov	edx, DWORD PTR [ecx+144]
	mov	DWORD PTR $T12[ebp], edx
	mov	eax, DWORD PTR $T12[ebp]
	mov	DWORD PTR $T32[ebp], eax
	cmp	DWORD PTR $T32[ebp], 0
	je	SHORT $LN50@Stop
	push	1
	mov	ecx, DWORD PTR $T32[ebp]
	mov	edx, DWORD PTR [ecx]
	mov	ecx, DWORD PTR $T32[ebp]
	mov	eax, DWORD PTR [edx]
	call	eax
	mov	DWORD PTR tv344[ebp], eax
	jmp	SHORT $LN51@Stop
$LN50@Stop:
	mov	DWORD PTR tv344[ebp], 0
$LN51@Stop:

; 1082 :     scene = NULL;

	mov	ecx, DWORD PTR _this$[ebp]
	mov	DWORD PTR [ecx+144], 0

; 1083 : 
; 1084 :     for(UINT i=0; i<globalSources.Num(); i++)

	mov	DWORD PTR _i$40[ebp], 0
	jmp	SHORT $LN16@Stop
$LN15@Stop:
	mov	edx, DWORD PTR _i$40[ebp]
	add	edx, 1
	mov	DWORD PTR _i$40[ebp], edx
$LN16@Stop:
	mov	ecx, DWORD PTR _this$[ebp]
	add	ecx, 1376				; 00000560H
	call	?Num@?$List@UGlobalSourceInfo@@@@QBEIXZ	; List<GlobalSourceInfo>::Num
	cmp	DWORD PTR _i$40[ebp], eax
	jae	SHORT $LN14@Stop

; 1085 :         globalSources[i].FreeData();

	mov	eax, DWORD PTR _i$40[ebp]
	push	eax
	mov	ecx, DWORD PTR _this$[ebp]
	add	ecx, 1376				; 00000560H
	call	??A?$List@UGlobalSourceInfo@@@@QAEAAUGlobalSourceInfo@@I@Z ; List<GlobalSourceInfo>::operator[]
	mov	ecx, eax
	call	?FreeData@GlobalSourceInfo@@QAEXXZ	; GlobalSourceInfo::FreeData
	jmp	SHORT $LN15@Stop
$LN14@Stop:

; 1086 :     globalSources.Clear();

	mov	ecx, DWORD PTR _this$[ebp]
	add	ecx, 1376				; 00000560H
	call	?Clear@?$List@UGlobalSourceInfo@@@@QAEXXZ ; List<GlobalSourceInfo>::Clear

; 1087 : 
; 1088 :     //-------------------------------------------------------------
; 1089 : 
; 1090 :     for(UINT i=0; i<auxAudioSources.Num(); i++)

	mov	DWORD PTR _i$38[ebp], 0
	jmp	SHORT $LN13@Stop
$LN12@Stop:
	mov	ecx, DWORD PTR _i$38[ebp]
	add	ecx, 1
	mov	DWORD PTR _i$38[ebp], ecx
$LN13@Stop:
	mov	ecx, DWORD PTR _this$[ebp]
	add	ecx, 120				; 00000078H
	call	?Num@?$List@PAVAudioSource@@@@QBEIXZ	; List<AudioSource *>::Num
	cmp	DWORD PTR _i$38[ebp], eax
	jae	SHORT $LN11@Stop

; 1091 :         delete auxAudioSources[i];

	mov	edx, DWORD PTR _i$38[ebp]
	push	edx
	mov	ecx, DWORD PTR _this$[ebp]
	add	ecx, 120				; 00000078H
	call	??A?$List@PAVAudioSource@@@@QAEAAPAVAudioSource@@I@Z ; List<AudioSource *>::operator[]
	mov	eax, DWORD PTR [eax]
	mov	DWORD PTR $T5[ebp], eax
	mov	ecx, DWORD PTR $T5[ebp]
	mov	DWORD PTR $T29[ebp], ecx
	cmp	DWORD PTR $T29[ebp], 0
	je	SHORT $LN52@Stop
	push	1
	mov	edx, DWORD PTR $T29[ebp]
	mov	eax, DWORD PTR [edx]
	mov	ecx, DWORD PTR $T29[ebp]
	mov	edx, DWORD PTR [eax+12]
	call	edx
	mov	DWORD PTR tv373[ebp], eax
	jmp	SHORT $LN53@Stop
$LN52@Stop:
	mov	DWORD PTR tv373[ebp], 0
$LN53@Stop:
	jmp	SHORT $LN12@Stop
$LN11@Stop:

; 1092 :     auxAudioSources.Clear();

	mov	ecx, DWORD PTR _this$[ebp]
	add	ecx, 120				; 00000078H
	call	?Clear@?$List@PAVAudioSource@@@@QAEXXZ	; List<AudioSource *>::Clear

; 1093 : 
; 1094 :     //-------------------------------------------------------------
; 1095 : 
; 1096 :     for(UINT i=0; i<NUM_RENDER_BUFFERS; i++)

	mov	DWORD PTR _i$43[ebp], 0
	jmp	SHORT $LN10@Stop
$LN9@Stop:
	mov	eax, DWORD PTR _i$43[ebp]
	add	eax, 1
	mov	DWORD PTR _i$43[ebp], eax
$LN10@Stop:
	cmp	DWORD PTR _i$43[ebp], 2
	jae	$LN8@Stop

; 1097 :     {
; 1098 :         delete mainRenderTextures[i];

	mov	ecx, DWORD PTR _i$43[ebp]
	mov	edx, DWORD PTR _this$[ebp]
	mov	eax, DWORD PTR [edx+ecx*4+20]
	mov	DWORD PTR $T10[ebp], eax
	mov	ecx, DWORD PTR $T10[ebp]
	mov	DWORD PTR $T37[ebp], ecx
	cmp	DWORD PTR $T37[ebp], 0
	je	SHORT $LN54@Stop
	push	1
	mov	edx, DWORD PTR $T37[ebp]
	mov	eax, DWORD PTR [edx]
	mov	ecx, DWORD PTR $T37[ebp]
	mov	edx, DWORD PTR [eax]
	call	edx
	mov	DWORD PTR tv391[ebp], eax
	jmp	SHORT $LN55@Stop
$LN54@Stop:
	mov	DWORD PTR tv391[ebp], 0
$LN55@Stop:

; 1099 :         delete yuvRenderTextures[i];

	mov	eax, DWORD PTR _i$43[ebp]
	mov	ecx, DWORD PTR _this$[ebp]
	mov	edx, DWORD PTR [ecx+eax*4+28]
	mov	DWORD PTR $T8[ebp], edx
	mov	eax, DWORD PTR $T8[ebp]
	mov	DWORD PTR $T30[ebp], eax
	cmp	DWORD PTR $T30[ebp], 0
	je	SHORT $LN56@Stop
	push	1
	mov	ecx, DWORD PTR $T30[ebp]
	mov	edx, DWORD PTR [ecx]
	mov	ecx, DWORD PTR $T30[ebp]
	mov	eax, DWORD PTR [edx]
	call	eax
	mov	DWORD PTR tv405[ebp], eax
	jmp	SHORT $LN57@Stop
$LN56@Stop:
	mov	DWORD PTR tv405[ebp], 0
$LN57@Stop:

; 1100 : 
; 1101 :         mainRenderTextures[i] = NULL;

	mov	ecx, DWORD PTR _i$43[ebp]
	mov	edx, DWORD PTR _this$[ebp]
	mov	DWORD PTR [edx+ecx*4+20], 0

; 1102 :         yuvRenderTextures[i] = NULL;

	mov	eax, DWORD PTR _i$43[ebp]
	mov	ecx, DWORD PTR _this$[ebp]
	mov	DWORD PTR [ecx+eax*4+28], 0

; 1103 :     }

	jmp	$LN9@Stop
$LN8@Stop:

; 1104 : 
; 1105 :     for(UINT i=0; i<NUM_RENDER_BUFFERS; i++)

	mov	DWORD PTR _i$42[ebp], 0
	jmp	SHORT $LN7@Stop
$LN6@Stop:
	mov	edx, DWORD PTR _i$42[ebp]
	add	edx, 1
	mov	DWORD PTR _i$42[ebp], edx
$LN7@Stop:
	cmp	DWORD PTR _i$42[ebp], 2
	jae	SHORT $LN5@Stop

; 1106 :     {
; 1107 :         SafeRelease(copyTextures[i]);

	mov	eax, DWORD PTR _i$42[ebp]
	mov	ecx, DWORD PTR _this$[ebp]
	cmp	DWORD PTR [ecx+eax*4+12], 0
	je	SHORT $LN4@Stop
	mov	edx, DWORD PTR _i$42[ebp]
	mov	eax, DWORD PTR _this$[ebp]
	mov	ecx, DWORD PTR [eax+edx*4+12]
	mov	edx, DWORD PTR _i$42[ebp]
	mov	eax, DWORD PTR _this$[ebp]
	mov	edx, DWORD PTR [eax+edx*4+12]
	mov	eax, DWORD PTR [ecx]
	push	edx
	mov	ecx, DWORD PTR [eax+8]
	call	ecx
	mov	edx, DWORD PTR _i$42[ebp]
	mov	eax, DWORD PTR _this$[ebp]
	mov	DWORD PTR [eax+edx*4+12], 0
$LN4@Stop:

; 1108 :     }

	jmp	SHORT $LN6@Stop
$LN5@Stop:

; 1109 : 
; 1110 :     delete transitionTexture;

	mov	ecx, DWORD PTR _this$[ebp]
	mov	edx, DWORD PTR [ecx+40]
	mov	DWORD PTR $T9[ebp], edx
	mov	eax, DWORD PTR $T9[ebp]
	mov	DWORD PTR $T27[ebp], eax
	cmp	DWORD PTR $T27[ebp], 0
	je	SHORT $LN58@Stop
	push	1
	mov	ecx, DWORD PTR $T27[ebp]
	mov	edx, DWORD PTR [ecx]
	mov	ecx, DWORD PTR $T27[ebp]
	mov	eax, DWORD PTR [edx]
	call	eax
	mov	DWORD PTR tv447[ebp], eax
	jmp	SHORT $LN59@Stop
$LN58@Stop:
	mov	DWORD PTR tv447[ebp], 0
$LN59@Stop:

; 1111 :     transitionTexture = NULL;

	mov	ecx, DWORD PTR _this$[ebp]
	mov	DWORD PTR [ecx+40], 0

; 1112 : 
; 1113 :     delete lastRenderTexture;

	mov	edx, DWORD PTR _this$[ebp]
	mov	eax, DWORD PTR [edx+36]
	mov	DWORD PTR $T7[ebp], eax
	mov	ecx, DWORD PTR $T7[ebp]
	mov	DWORD PTR $T24[ebp], ecx
	cmp	DWORD PTR $T24[ebp], 0
	je	SHORT $LN60@Stop
	push	1
	mov	edx, DWORD PTR $T24[ebp]
	mov	eax, DWORD PTR [edx]
	mov	ecx, DWORD PTR $T24[ebp]
	mov	edx, DWORD PTR [eax]
	call	edx
	mov	DWORD PTR tv460[ebp], eax
	jmp	SHORT $LN61@Stop
$LN60@Stop:
	mov	DWORD PTR tv460[ebp], 0
$LN61@Stop:

; 1114 :     lastRenderTexture = NULL;

	mov	eax, DWORD PTR _this$[ebp]
	mov	DWORD PTR [eax+36], 0

; 1115 : 
; 1116 :     //-------------------------------------------------------------
; 1117 : 
; 1118 :     delete mainVertexShader;

	mov	ecx, DWORD PTR _this$[ebp]
	mov	edx, DWORD PTR [ecx+52]
	mov	DWORD PTR $T19[ebp], edx
	mov	eax, DWORD PTR $T19[ebp]
	mov	DWORD PTR $T36[ebp], eax
	cmp	DWORD PTR $T36[ebp], 0
	je	SHORT $LN62@Stop
	push	1
	mov	ecx, DWORD PTR $T36[ebp]
	mov	edx, DWORD PTR [ecx]
	mov	ecx, DWORD PTR $T36[ebp]
	mov	eax, DWORD PTR [edx]
	call	eax
	mov	DWORD PTR tv469[ebp], eax
	jmp	SHORT $LN63@Stop
$LN62@Stop:
	mov	DWORD PTR tv469[ebp], 0
$LN63@Stop:

; 1119 :     delete mainPixelShader;

	mov	ecx, DWORD PTR _this$[ebp]
	mov	edx, DWORD PTR [ecx+56]
	mov	DWORD PTR $T18[ebp], edx
	mov	eax, DWORD PTR $T18[ebp]
	mov	DWORD PTR $T35[ebp], eax
	cmp	DWORD PTR $T35[ebp], 0
	je	SHORT $LN64@Stop
	push	1
	mov	ecx, DWORD PTR $T35[ebp]
	mov	edx, DWORD PTR [ecx]
	mov	ecx, DWORD PTR $T35[ebp]
	mov	eax, DWORD PTR [edx]
	call	eax
	mov	DWORD PTR tv477[ebp], eax
	jmp	SHORT $LN65@Stop
$LN64@Stop:
	mov	DWORD PTR tv477[ebp], 0
$LN65@Stop:

; 1120 :     delete yuvScalePixelShader;

	mov	ecx, DWORD PTR _this$[ebp]
	mov	edx, DWORD PTR [ecx+60]
	mov	DWORD PTR $T17[ebp], edx
	mov	eax, DWORD PTR $T17[ebp]
	mov	DWORD PTR $T33[ebp], eax
	cmp	DWORD PTR $T33[ebp], 0
	je	SHORT $LN66@Stop
	push	1
	mov	ecx, DWORD PTR $T33[ebp]
	mov	edx, DWORD PTR [ecx]
	mov	ecx, DWORD PTR $T33[ebp]
	mov	eax, DWORD PTR [edx]
	call	eax
	mov	DWORD PTR tv517[ebp], eax
	jmp	SHORT $LN67@Stop
$LN66@Stop:
	mov	DWORD PTR tv517[ebp], 0
$LN67@Stop:

; 1121 :     delete transitionPixelShader;

	mov	ecx, DWORD PTR _this$[ebp]
	mov	edx, DWORD PTR [ecx+64]
	mov	DWORD PTR $T16[ebp], edx
	mov	eax, DWORD PTR $T16[ebp]
	mov	DWORD PTR $T31[ebp], eax
	cmp	DWORD PTR $T31[ebp], 0
	je	SHORT $LN68@Stop
	push	1
	mov	ecx, DWORD PTR $T31[ebp]
	mov	edx, DWORD PTR [ecx]
	mov	ecx, DWORD PTR $T31[ebp]
	mov	eax, DWORD PTR [edx]
	call	eax
	mov	DWORD PTR tv525[ebp], eax
	jmp	SHORT $LN69@Stop
$LN68@Stop:
	mov	DWORD PTR tv525[ebp], 0
$LN69@Stop:

; 1122 : 
; 1123 :     delete solidVertexShader;

	mov	ecx, DWORD PTR _this$[ebp]
	mov	edx, DWORD PTR [ecx+68]
	mov	DWORD PTR $T15[ebp], edx
	mov	eax, DWORD PTR $T15[ebp]
	mov	DWORD PTR $T25[ebp], eax
	cmp	DWORD PTR $T25[ebp], 0
	je	SHORT $LN70@Stop
	push	1
	mov	ecx, DWORD PTR $T25[ebp]
	mov	edx, DWORD PTR [ecx]
	mov	ecx, DWORD PTR $T25[ebp]
	mov	eax, DWORD PTR [edx]
	call	eax
	mov	DWORD PTR tv533[ebp], eax
	jmp	SHORT $LN71@Stop
$LN70@Stop:
	mov	DWORD PTR tv533[ebp], 0
$LN71@Stop:

; 1124 :     delete solidPixelShader;

	mov	ecx, DWORD PTR _this$[ebp]
	mov	edx, DWORD PTR [ecx+72]
	mov	DWORD PTR $T14[ebp], edx
	mov	eax, DWORD PTR $T14[ebp]
	mov	DWORD PTR $T23[ebp], eax
	cmp	DWORD PTR $T23[ebp], 0
	je	SHORT $LN72@Stop
	push	1
	mov	ecx, DWORD PTR $T23[ebp]
	mov	edx, DWORD PTR [ecx]
	mov	ecx, DWORD PTR $T23[ebp]
	mov	eax, DWORD PTR [edx]
	call	eax
	mov	DWORD PTR tv541[ebp], eax
	jmp	SHORT $LN73@Stop
$LN72@Stop:
	mov	DWORD PTR tv541[ebp], 0
$LN73@Stop:

; 1125 : 
; 1126 :     mainVertexShader = NULL;

	mov	ecx, DWORD PTR _this$[ebp]
	mov	DWORD PTR [ecx+52], 0

; 1127 :     mainPixelShader = NULL;

	mov	edx, DWORD PTR _this$[ebp]
	mov	DWORD PTR [edx+56], 0

; 1128 :     yuvScalePixelShader = NULL;

	mov	eax, DWORD PTR _this$[ebp]
	mov	DWORD PTR [eax+60], 0

; 1129 :     transitionPixelShader = NULL;

	mov	ecx, DWORD PTR _this$[ebp]
	mov	DWORD PTR [ecx+64], 0

; 1130 : 
; 1131 :     solidVertexShader = NULL;

	mov	edx, DWORD PTR _this$[ebp]
	mov	DWORD PTR [edx+68], 0

; 1132 :     solidPixelShader = NULL;

	mov	eax, DWORD PTR _this$[ebp]
	mov	DWORD PTR [eax+72], 0

; 1133 : 
; 1134 :     //-------------------------------------------------------------
; 1135 : 
; 1136 :     delete GS;

	mov	ecx, DWORD PTR __imp_?GS@@3PAVGraphicsSystem@@A
	mov	edx, DWORD PTR [ecx]
	mov	DWORD PTR $T11[ebp], edx
	mov	eax, DWORD PTR $T11[ebp]
	mov	DWORD PTR $T21[ebp], eax
	cmp	DWORD PTR $T21[ebp], 0
	je	SHORT $LN74@Stop
	push	1
	mov	ecx, DWORD PTR $T21[ebp]
	mov	edx, DWORD PTR [ecx]
	mov	ecx, DWORD PTR $T21[ebp]
	mov	eax, DWORD PTR [edx+8]
	call	eax
	mov	DWORD PTR tv554[ebp], eax
	jmp	SHORT $LN75@Stop
$LN74@Stop:
	mov	DWORD PTR tv554[ebp], 0
$LN75@Stop:

; 1137 :     GS = NULL;

	mov	ecx, DWORD PTR __imp_?GS@@3PAVGraphicsSystem@@A
	mov	DWORD PTR [ecx], 0

; 1138 : 
; 1139 :     //-------------------------------------------------------------
; 1140 : 
; 1141 :     ResizeRenderFrame(false);

	push	0
	mov	ecx, DWORD PTR _this$[ebp]
	call	?ResizeRenderFrame@OBS@@AAEX_N@Z	; OBS::ResizeRenderFrame

; 1142 :     RedrawWindow(hwndRenderFrame, NULL, NULL, RDW_INVALIDATE|RDW_UPDATENOW);

	push	257					; 00000101H
	push	0
	push	0
	mov	edx, DWORD PTR ?hwndRenderFrame@@3PAUHWND__@@A ; hwndRenderFrame
	push	edx
	call	DWORD PTR __imp__RedrawWindow@16

; 1143 : 
; 1144 :     //-------------------------------------------------------------
; 1145 : 
; 1146 :     AudioDeviceList audioDevices;

	lea	ecx, DWORD PTR _audioDevices$[ebp]
	call	??0AudioDeviceList@@QAE@XZ

; 1147 :     GetAudioDevices(audioDevices, ADT_RECORDING, false, true);

	push	1
	push	0
	push	1
	lea	eax, DWORD PTR _audioDevices$[ebp]
	push	eax
	call	?GetAudioDevices@@YAXAAUAudioDeviceList@@W4AudioDeviceType@@_N2@Z ; GetAudioDevices
	add	esp, 16					; 00000010H

; 1148 : 
; 1149 :     String strDevice = AppConfig->GetString(TEXT("Audio"), TEXT("Device"), NULL);

	push	0
	push	OFFSET $SG4294795126
	push	OFFSET $SG4294795125
	lea	ecx, DWORD PTR _strDevice$[ebp]
	push	ecx
	mov	ecx, DWORD PTR ?AppConfig@@3PAVConfigFile@@A ; AppConfig
	call	DWORD PTR __imp_?GetString@ConfigFile@@QAE?AVString@@PB_W00@Z

; 1150 :     if(strDevice.IsEmpty() || !audioDevices.HasID(strDevice))

	lea	ecx, DWORD PTR _strDevice$[ebp]
	call	DWORD PTR __imp_?IsEmpty@String@@QBEHXZ
	test	eax, eax
	jne	SHORT $LN2@Stop
	lea	ecx, DWORD PTR _strDevice$[ebp]
	call	DWORD PTR __imp_??BString@@QBEPA_WXZ
	push	eax
	lea	ecx, DWORD PTR _audioDevices$[ebp]
	call	?HasID@AudioDeviceList@@QBE_NPB_W@Z	; AudioDeviceList::HasID
	movzx	edx, al
	test	edx, edx
	jne	SHORT $LN3@Stop
$LN2@Stop:

; 1151 :     {
; 1152 :         AppConfig->SetString(TEXT("Audio"), TEXT("Device"), TEXT("Disable"));

	push	OFFSET $SG4294795124
	push	OFFSET $SG4294795123
	push	OFFSET $SG4294795122
	mov	ecx, DWORD PTR ?AppConfig@@3PAVConfigFile@@A ; AppConfig
	call	DWORD PTR __imp_?SetString@ConfigFile@@QAEXPB_W00@Z

; 1153 :         strDevice = TEXT("Disable");

	push	OFFSET $SG4294795121
	lea	ecx, DWORD PTR _strDevice$[ebp]
	call	DWORD PTR __imp_??4String@@QAEAAV0@PB_W@Z
$LN3@Stop:

; 1154 :     }
; 1155 : 
; 1156 :     audioDevices.FreeData();

	lea	ecx, DWORD PTR _audioDevices$[ebp]
	call	?FreeData@AudioDeviceList@@QAEXXZ	; AudioDeviceList::FreeData

; 1157 :     EnableWindow(GetDlgItem(hwndMain, ID_MICVOLUME), !strDevice.CompareI(TEXT("Disable")));

	push	OFFSET $SG4294795120
	lea	ecx, DWORD PTR _strDevice$[ebp]
	call	DWORD PTR __imp_?CompareI@String@@QBEHPB_W@Z
	test	eax, eax
	jne	SHORT $LN76@Stop
	mov	DWORD PTR tv597[ebp], 1
	jmp	SHORT $LN77@Stop
$LN76@Stop:
	mov	DWORD PTR tv597[ebp], 0
$LN77@Stop:
	mov	eax, DWORD PTR tv597[ebp]
	push	eax
	push	5007					; 0000138fH
	mov	ecx, DWORD PTR ?hwndMain@@3PAUHWND__@@A	; hwndMain
	push	ecx
	call	DWORD PTR __imp__GetDlgItem@8
	push	eax
	call	DWORD PTR __imp__EnableWindow@8

; 1158 : 
; 1159 :     //-------------------------------------------------------------
; 1160 : 
; 1161 :     ClearStreamInfo();

	mov	ecx, DWORD PTR _this$[ebp]
	call	?ClearStreamInfo@OBS@@AAEXXZ		; OBS::ClearStreamInfo

; 1162 : 
; 1163 :     audioWarningId = 0;

	mov	edx, DWORD PTR _this$[ebp]
	mov	DWORD PTR [edx+996], 0

; 1164 : 
; 1165 :     DumpProfileData();

	call	DWORD PTR __imp_?DumpProfileData@@YGXXZ

; 1166 :     FreeProfileData();

	call	DWORD PTR __imp_?FreeProfileData@@YGXXZ

; 1167 :     Log(TEXT("=====Stream End: %s================================================="), CurrentDateTimeString().Array());

	lea	eax, DWORD PTR $T1[ebp]
	push	eax
	call	DWORD PTR __imp_?CurrentDateTimeString@@YA?AVString@@XZ
	add	esp, 4
	mov	ecx, eax
	call	DWORD PTR __imp_?Array@String@@QBEPA_WXZ
	push	eax
	push	OFFSET $SG4294795119
	call	DWORD PTR __imp_?Log@@YAXPB_WZZ
	add	esp, 8
	lea	ecx, DWORD PTR $T1[ebp]
	call	DWORD PTR __imp_??1String@@QAE@XZ

; 1168 : 
; 1169 :     //update notification icon to reflect current status
; 1170 :     UpdateNotificationAreaIcon();

	mov	ecx, DWORD PTR _this$[ebp]
	call	?UpdateNotificationAreaIcon@OBS@@QAEHXZ	; OBS::UpdateNotificationAreaIcon

; 1171 : 
; 1172 :     bEditMode = false;

	mov	ecx, DWORD PTR _this$[ebp]
	mov	BYTE PTR [ecx+741], 0

; 1173 :  //   SendMessage(GetDlgItem(hwndMain, ID_SCENEEDITOR), BM_SETCHECK, BST_UNCHECKED, 0);
; 1174 :  //   EnableWindow(GetDlgItem(hwndMain, ID_SCENEEDITOR), FALSE);
; 1175 :   //  ClearStatusBar();
; 1176 : 
; 1177 :     InvalidateRect(hwndRenderFrame, NULL, TRUE);

	push	1
	push	0
	mov	edx, DWORD PTR ?hwndRenderFrame@@3PAUHWND__@@A ; hwndRenderFrame
	push	edx
	call	DWORD PTR __imp__InvalidateRect@12

; 1178 : 
; 1179 :     SystemParametersInfo(SPI_SETSCREENSAVEACTIVE, 1, 0, 0);

	push	0
	push	0
	push	1
	push	17					; 00000011H
	call	DWORD PTR __imp__SystemParametersInfoW@16

; 1180 :     SetThreadExecutionState(ES_CONTINUOUS);

	push	-2147483648				; 80000000H
	call	DWORD PTR __imp__SetThreadExecutionState@4

; 1181 : 
; 1182 :     String processPriority = AppConfig->GetString(TEXT("General"), TEXT("Priority"), TEXT("Normal"));

	push	OFFSET $SG4294795118
	push	OFFSET $SG4294795117
	push	OFFSET $SG4294795116
	lea	eax, DWORD PTR _processPriority$[ebp]
	push	eax
	mov	ecx, DWORD PTR ?AppConfig@@3PAVConfigFile@@A ; AppConfig
	call	DWORD PTR __imp_?GetString@ConfigFile@@QAE?AVString@@PB_W00@Z

; 1183 :     if (scmp(processPriority, TEXT("Normal")))

	push	OFFSET $SG4294795115
	lea	ecx, DWORD PTR _processPriority$[ebp]
	call	DWORD PTR __imp_??BString@@QBEPA_WXZ
	push	eax
	call	DWORD PTR __imp_?scmp@@YGHPB_W0@Z
	test	eax, eax
	je	SHORT $LN1@Stop

; 1184 :         SetPriorityClass(GetCurrentProcess(), NORMAL_PRIORITY_CLASS);

	push	32					; 00000020H
	call	DWORD PTR __imp__GetCurrentProcess@0
	push	eax
	call	DWORD PTR __imp__SetPriorityClass@8
$LN1@Stop:

; 1185 : 
; 1186 :     ConfigureStreamButtons();

	mov	ecx, DWORD PTR _this$[ebp]
	call	?ConfigureStreamButtons@OBS@@AAEXXZ	; OBS::ConfigureStreamButtons

; 1187 : 
; 1188 :     UpdateRenderViewMessage();

	mov	ecx, DWORD PTR _this$[ebp]
	call	?UpdateRenderViewMessage@OBS@@AAEXXZ	; OBS::UpdateRenderViewMessage

; 1189 : 
; 1190 :    // DisableMenusWhileStreaming(false);
; 1191 : 
; 1192 :     OSLeaveMutex(hStartupShutdownMutex);

	mov	ecx, DWORD PTR _this$[ebp]
	mov	edx, DWORD PTR [ecx+1400]
	push	edx
	call	DWORD PTR __imp_?OSLeaveMutex@@YGXPAX@Z

; 1193 : 
; 1194 :     OSLeaveMutex(hHotkeyMutex);

	mov	eax, DWORD PTR _this$[ebp]
	mov	ecx, DWORD PTR [eax+1232]
	push	ecx
	call	DWORD PTR __imp_?OSLeaveMutex@@YGXPAX@Z

; 1195 : }

	lea	ecx, DWORD PTR _processPriority$[ebp]
	call	DWORD PTR __imp_??1String@@QAE@XZ
	lea	ecx, DWORD PTR _strDevice$[ebp]
	call	DWORD PTR __imp_??1String@@QAE@XZ
	lea	ecx, DWORD PTR _audioDevices$[ebp]
	call	??1AudioDeviceList@@QAE@XZ		; AudioDeviceList::~AudioDeviceList
$LN40@Stop:
	mov	esp, ebp
	pop	ebp
	ret	8
?Stop@OBS@@AAEX_N0@Z ENDP				; OBS::Stop
_TEXT	ENDS
; Function compile flags: /Odtp
; File f:\songmm_moon_stone_obs\obs\source\obscapture.cpp
;	COMDAT ?ClosePendingStreams@OBS@@QAEXXZ
_TEXT	SEGMENT
_handles$ = -52						; size = 12
_l$ = -40						; size = 8
_res$1 = -32						; size = 4
_res$2 = -28						; size = 4
$T3 = -24						; size = 4
_pendingStream$4 = -20					; size = 4
_$S3$5 = -16						; size = 4
_$S1$6 = -12						; size = 4
_$S2$7 = -8						; size = 4
_this$ = -4						; size = 4
?ClosePendingStreams@OBS@@QAEXXZ PROC			; OBS::ClosePendingStreams, COMDAT
; _this$ = ecx

; 1631 : {

	push	ebp
	mov	ebp, esp
	sub	esp, 52					; 00000034H
	mov	DWORD PTR _this$[ebp], ecx

; 1632 :     ScopedLock l(pendingStreams.mutex);

	push	1
	push	0
	mov	eax, DWORD PTR _this$[ebp]
	add	eax, 1424				; 00000590H
	push	eax
	lea	ecx, DWORD PTR _l$[ebp]
	call	??0ScopedLock@@QAE@ABV?$unique_ptr@XUMutexDeleter@@@std@@_N1@Z ; ScopedLock::ScopedLock

; 1633 :     if (pendingStreams.streams.empty())

	mov	ecx, DWORD PTR _this$[ebp]
	add	ecx, 1416				; 00000588H
	call	?empty@?$list@V?$unique_ptr@XU?$ThreadTerminator@$0A@@@@std@@V?$allocator@V?$unique_ptr@XU?$ThreadTerminator@$0A@@@@std@@@2@@std@@QBE_NXZ ; std::list<std::unique_ptr<void,ThreadTerminator<0> >,std::allocator<std::unique_ptr<void,ThreadTerminator<0> > > >::empty
	movzx	ecx, al
	test	ecx, ecx
	je	SHORT $LN10@ClosePendi

; 1634 :         return;

	lea	ecx, DWORD PTR _l$[ebp]
	call	??1ScopedLock@@QAE@XZ			; ScopedLock::~ScopedLock
	jmp	$LN11@ClosePendi
$LN10@ClosePendi:

; 1635 : 
; 1636 :     using namespace std;
; 1637 :     vector<HANDLE> handles;

	lea	ecx, DWORD PTR _handles$[ebp]
	call	??0?$vector@PAXV?$allocator@PAX@std@@@std@@QAE@XZ ; std::vector<void *,std::allocator<void *> >::vector<void *,std::allocator<void *> >

; 1638 :     for (auto &pendingStream : pendingStreams.streams)

	mov	edx, DWORD PTR _this$[ebp]
	add	edx, 1416				; 00000588H
	mov	DWORD PTR _$S1$6[ebp], edx
	lea	eax, DWORD PTR _$S2$7[ebp]
	push	eax
	mov	ecx, DWORD PTR _$S1$6[ebp]
	call	?begin@?$list@V?$unique_ptr@XU?$ThreadTerminator@$0A@@@@std@@V?$allocator@V?$unique_ptr@XU?$ThreadTerminator@$0A@@@@std@@@2@@std@@QAE?AV?$_List_iterator@V?$_List_val@U?$_List_simple_types@V?$unique_ptr@XU?$ThreadTerminator@$0A@@@@std@@@std@@@std@@@2@XZ ; std::list<std::unique_ptr<void,ThreadTerminator<0> >,std::allocator<std::unique_ptr<void,ThreadTerminator<0> > > >::begin
	lea	ecx, DWORD PTR _$S3$5[ebp]
	push	ecx
	mov	ecx, DWORD PTR _$S1$6[ebp]
	call	?end@?$list@V?$unique_ptr@XU?$ThreadTerminator@$0A@@@@std@@V?$allocator@V?$unique_ptr@XU?$ThreadTerminator@$0A@@@@std@@@2@@std@@QAE?AV?$_List_iterator@V?$_List_val@U?$_List_simple_types@V?$unique_ptr@XU?$ThreadTerminator@$0A@@@@std@@@std@@@std@@@2@XZ ; std::list<std::unique_ptr<void,ThreadTerminator<0> >,std::allocator<std::unique_ptr<void,ThreadTerminator<0> > > >::end
	jmp	SHORT $LN9@ClosePendi
$LN8@ClosePendi:
	lea	ecx, DWORD PTR _$S2$7[ebp]
	call	??E?$_List_iterator@V?$_List_val@U?$_List_simple_types@V?$unique_ptr@XU?$ThreadTerminator@$0A@@@@std@@@std@@@std@@@std@@QAEAAV01@XZ ; std::_List_iterator<std::_List_val<std::_List_simple_types<std::unique_ptr<void,ThreadTerminator<0> > > > >::operator++
$LN9@ClosePendi:
	lea	edx, DWORD PTR _$S3$5[ebp]
	push	edx
	lea	ecx, DWORD PTR _$S2$7[ebp]
	call	??9?$_List_const_iterator@V?$_List_val@U?$_List_simple_types@V?$unique_ptr@XU?$ThreadTerminator@$0A@@@@std@@@std@@@std@@@std@@QBE_NABV01@@Z ; std::_List_const_iterator<std::_List_val<std::_List_simple_types<std::unique_ptr<void,ThreadTerminator<0> > > > >::operator!=
	movzx	eax, al
	test	eax, eax
	je	SHORT $LN7@ClosePendi
	lea	ecx, DWORD PTR _$S2$7[ebp]
	call	??D?$_List_iterator@V?$_List_val@U?$_List_simple_types@V?$unique_ptr@XU?$ThreadTerminator@$0A@@@@std@@@std@@@std@@@std@@QBEAAV?$unique_ptr@XU?$ThreadTerminator@$0A@@@@1@XZ ; std::_List_iterator<std::_List_val<std::_List_simple_types<std::unique_ptr<void,ThreadTerminator<0> > > > >::operator*
	mov	DWORD PTR _pendingStream$4[ebp], eax

; 1639 :         handles.push_back(pendingStream.get());

	mov	ecx, DWORD PTR _pendingStream$4[ebp]
	call	?get@?$unique_ptr@XU?$ThreadTerminator@$0A@@@@std@@QBEPAXXZ ; std::unique_ptr<void,ThreadTerminator<0> >::get
	mov	DWORD PTR $T3[ebp], eax
	lea	ecx, DWORD PTR $T3[ebp]
	push	ecx
	lea	ecx, DWORD PTR _handles$[ebp]
	call	?push_back@?$vector@PAXV?$allocator@PAX@std@@@std@@QAEX$$QAPAX@Z ; std::vector<void *,std::allocator<void *> >::push_back
	jmp	SHORT $LN8@ClosePendi
$LN7@ClosePendi:

; 1640 : 
; 1641 :     if (WaitForMultipleObjects(handles.size(), handles.data(), true, 5) != WAIT_OBJECT_0)

	push	5
	push	1
	lea	ecx, DWORD PTR _handles$[ebp]
	call	?data@?$vector@PAXV?$allocator@PAX@std@@@std@@QAEPAPAXXZ ; std::vector<void *,std::allocator<void *> >::data
	push	eax
	lea	ecx, DWORD PTR _handles$[ebp]
	call	?size@?$vector@PAXV?$allocator@PAX@std@@@std@@QBEIXZ ; std::vector<void *,std::allocator<void *> >::size
	push	eax
	call	DWORD PTR __imp__WaitForMultipleObjects@16
	test	eax, eax
	je	$LN6@ClosePendi

; 1642 :     {
; 1643 :         using ::locale;
; 1644 :         int res = IDNO;

	mov	DWORD PTR _res$1[ebp], 7
$LN5@ClosePendi:

; 1645 :         do
; 1646 :         {
; 1647 :             auto res = OBSMessageBox(hwndMain, Str("StreamClosePending"), nullptr, MB_YESNO | MB_ICONEXCLAMATION);

	push	52					; 00000034H
	push	0
	push	OFFSET $SG4294795111
	mov	edx, DWORD PTR __imp_?locale@@3PAVLocaleStringLookup@@A
	mov	ecx, DWORD PTR [edx]
	call	DWORD PTR __imp_?LookupString@LocaleStringLookup@@QAEPB_WPB_W@Z
	push	eax
	mov	eax, DWORD PTR ?hwndMain@@3PAUHWND__@@A	; hwndMain
	push	eax
	call	DWORD PTR __imp_?OBSMessageBox@@YAHPAUHWND__@@PB_W1I@Z
	add	esp, 16					; 00000010H
	mov	DWORD PTR _res$2[ebp], eax

; 1648 : 
; 1649 :             if (res != IDYES)

	cmp	DWORD PTR _res$2[ebp], 6
	je	SHORT $LN2@ClosePendi

; 1650 :                 return;

	lea	ecx, DWORD PTR _handles$[ebp]
	call	??1?$vector@PAXV?$allocator@PAX@std@@@std@@QAE@XZ ; std::vector<void *,std::allocator<void *> >::~vector<void *,std::allocator<void *> >
	lea	ecx, DWORD PTR _l$[ebp]
	call	??1ScopedLock@@QAE@XZ			; ScopedLock::~ScopedLock
	jmp	SHORT $LN11@ClosePendi
$LN2@ClosePendi:

; 1651 : 
; 1652 :             if (WaitForMultipleObjects(handles.size(), handles.data(), true, 15 * 1000) == WAIT_OBJECT_0)

	push	15000					; 00003a98H
	push	1
	lea	ecx, DWORD PTR _handles$[ebp]
	call	?data@?$vector@PAXV?$allocator@PAX@std@@@std@@QAEPAPAXXZ ; std::vector<void *,std::allocator<void *> >::data
	push	eax
	lea	ecx, DWORD PTR _handles$[ebp]
	call	?size@?$vector@PAXV?$allocator@PAX@std@@@std@@QBEIXZ ; std::vector<void *,std::allocator<void *> >::size
	push	eax
	call	DWORD PTR __imp__WaitForMultipleObjects@16
	test	eax, eax
	jne	SHORT $LN4@ClosePendi

