; Listing generated by Microsoft (R) Optimizing Compiler Version 18.00.21005.1 

	TITLE	F:\songmm_moon_stone_obs\OBS\Source\ReplayBuffer.cpp
	.686P
	.XMM
	include listing.inc
	.model	flat

INCLUDELIB OLDNAMES

PUBLIC	??_C@_1FA@KMFJNEIK@?$AAC?$AAa?$AAp?$AAt?$AAu?$AAr?$AAe?$AA?4?$AAS?$AAt?$AAa?$AAr?$AAt?$AA?4?$AAF?$AAi?$AAl?$AAe?$AAS?$AAt?$AAr?$AAe?$AAa?$AAm?$AA?4?$AAW?$AAa?$AAr?$AAn?$AAi?$AAn?$AAg@ ; `string'
PUBLIC	??_C@_1NE@FJOGMPEN@?$AAR?$AAe?$AAc?$AAo?$AAr?$AAd?$AAi?$AAn?$AAg?$AAH?$AAe?$AAl?$AAp?$AAe?$AAr?$AA?3?$AA?3?$AAS?$AAa?$AAv?$AAe?$AAT?$AAh?$AAr?$AAe?$AAa?$AAd?$AA?3?$AA?5?$AAU?$AAn?$AAa@ ; `string'
PUBLIC	??_C@_1JI@JCMGAMJO@?$AAR?$AAe?$AAc?$AAo?$AAr?$AAd?$AAi?$AAn?$AAg?$AAH?$AAe?$AAl?$AAp?$AAe?$AAr?$AA?3?$AA?3?$AAS?$AAa?$AAv?$AAe?$AAT?$AAh?$AAr?$AAe?$AAa?$AAd?$AA?3?$AA?5?$AAs?$AAt?$AAo@ ; `string'
PUBLIC	??_C@_1EC@NILNDINM@?$AAC?$AAa?$AAp?$AAt?$AAu?$AAr?$AAe?$AA?4?$AAS?$AAt?$AAa?$AAr?$AAt?$AA?4?$AAF?$AAi?$AAl?$AAe?$AAS?$AAt?$AAr?$AAe?$AAa?$AAm?$AA?4?$AAW?$AAa?$AAr?$AAn?$AAi?$AAn?$AAg@ ; `string'
PUBLIC	??_C@_1HO@LCDLOHIB@?$AAR?$AAe?$AAc?$AAo?$AAr?$AAd?$AAi?$AAn?$AAg?$AAH?$AAe?$AAl?$AAp?$AAe?$AAr?$AA?5?$AAt?$AAh?$AAr?$AAe?$AAa?$AAd?$AA?5?$AAe?$AAx?$AAi?$AAt?$AAe?$AAd?$AA?5?$AAw?$AAh@ ; `string'
PUBLIC	??_C@_1HG@DBFIJJCM@?$AAR?$AAe?$AAc?$AAo?$AAr?$AAd?$AAi?$AAn?$AAg?$AAH?$AAe?$AAl?$AAp?$AAe?$AAr?$AA?3?$AA?3?$AAS?$AAa?$AAv?$AAe?$AAT?$AAh?$AAr?$AAe?$AAa?$AAd?$AA?3?$AA?5?$AAd?$AAo?$AAn@ ; `string'
PUBLIC	??_C@_1FE@OOKDDFFL@?$AAR?$AAe?$AAp?$AAl?$AAa?$AAy?$AAB?$AAu?$AAf?$AAf?$AAe?$AAr?$AA?4?$AAR?$AAe?$AAc?$AAo?$AAr?$AAd?$AAi?$AAn?$AAg?$AAH?$AAe?$AAl?$AAp?$AAe?$AAr?$AA?4?$AAB?$AAu?$AAf@ ; `string'
PUBLIC	??_C@_0BC@KBDMBKEH@deque?$DMT?$DO?5too?5long?$AA@ ; `string'
PUBLIC	??_C@_0BB@MOGOBHAF@list?$DMT?$DO?5too?5long?$AA@ ; `string'
PUBLIC	??_R1A@?0A@EA@?$_Ref_count_obj@$$CBV?$tuple@W4PacketType@@KKV?$shared_ptr@$$CBV?$vector@EV?$allocator@E@std@@@std@@@std@@@std@@@std@@8 ; std::_Ref_count_obj<std::tuple<enum PacketType,unsigned long,unsigned long,std::shared_ptr<std::vector<unsigned char,std::allocator<unsigned char> > const > > const >::`RTTI Base Class Descriptor at (0,-1,0,64)'
PUBLIC	??_R3?$_Ref_count_obj@$$CBV?$vector@EV?$allocator@E@std@@@std@@@std@@8 ; std::_Ref_count_obj<std::vector<unsigned char,std::allocator<unsigned char> > const >::`RTTI Class Hierarchy Descriptor'
PUBLIC	??_R3RecordingHelper@@8				; RecordingHelper::`RTTI Class Hierarchy Descriptor'
PUBLIC	??_R2?$_Ref_count_obj@$$CBV?$vector@EV?$allocator@E@std@@@std@@@std@@8 ; std::_Ref_count_obj<std::vector<unsigned char,std::allocator<unsigned char> > const >::`RTTI Base Class Array'
PUBLIC	??_R3ReplayBuffer@@8				; ReplayBuffer::`RTTI Class Hierarchy Descriptor'
PUBLIC	??_7?$_Ref_count_obj@$$CBV?$vector@EV?$allocator@E@std@@@std@@@std@@6B@ ; std::_Ref_count_obj<std::vector<unsigned char,std::allocator<unsigned char> > const >::`vftable'
PUBLIC	??_R0?AURecordingHelper@@@8			; RecordingHelper `RTTI Type Descriptor'
PUBLIC	??_R0?AV?$_Ref_count_obj@$$CBV?$tuple@W4PacketType@@KKV?$shared_ptr@$$CBV?$vector@EV?$allocator@E@std@@@std@@@std@@@std@@@std@@@8 ; std::_Ref_count_obj<std::tuple<enum PacketType,unsigned long,unsigned long,std::shared_ptr<std::vector<unsigned char,std::allocator<unsigned char> > const > > const > `RTTI Type Descriptor'
PUBLIC	??_R1A@?0A@EA@RecordingHelper@@8		; RecordingHelper::`RTTI Base Class Descriptor at (0,-1,0,64)'
PUBLIC	??_R2RecordingHelper@@8				; RecordingHelper::`RTTI Base Class Array'
PUBLIC	??_R0?AV_Ref_count_base@std@@@8			; std::_Ref_count_base `RTTI Type Descriptor'
PUBLIC	??_R3?$_Ref_count_del@XP6AXPAX@Z@std@@8		; std::_Ref_count_del<void,void (__cdecl*)(void *)>::`RTTI Class Hierarchy Descriptor'
PUBLIC	??_R0?AUReplayBuffer@@@8			; ReplayBuffer `RTTI Type Descriptor'
PUBLIC	??_R4?$_Ref_count_obj@$$CBV?$tuple@W4PacketType@@KKV?$shared_ptr@$$CBV?$vector@EV?$allocator@E@std@@@std@@@std@@@std@@@std@@6B@ ; std::_Ref_count_obj<std::tuple<enum PacketType,unsigned long,unsigned long,std::shared_ptr<std::vector<unsigned char,std::allocator<unsigned char> > const > > const >::`RTTI Complete Object Locator'
PUBLIC	??_R4_Ref_count_base@std@@6B@			; std::_Ref_count_base::`RTTI Complete Object Locator'
PUBLIC	??_7_Ref_count_base@std@@6B@			; std::_Ref_count_base::`vftable'
PUBLIC	??_R2_Ref_count_base@std@@8			; std::_Ref_count_base::`RTTI Base Class Array'
PUBLIC	??_R1A@?0A@EA@ReplayBuffer@@8			; ReplayBuffer::`RTTI Base Class Descriptor at (0,-1,0,64)'
PUBLIC	??_R0P6AXPAX@Z@8				; void (__cdecl*)(void *) `RTTI Type Descriptor'
PUBLIC	??_R2?$_Ref_count_del@XP6AXPAX@Z@std@@8		; std::_Ref_count_del<void,void (__cdecl*)(void *)>::`RTTI Base Class Array'
PUBLIC	??_R2ReplayBuffer@@8				; ReplayBuffer::`RTTI Base Class Array'
PUBLIC	??_R4RecordingHelper@@6B@			; RecordingHelper::`RTTI Complete Object Locator'
PUBLIC	??_R3_Ref_count_base@std@@8			; std::_Ref_count_base::`RTTI Class Hierarchy Descriptor'
PUBLIC	??_R3?$_Ref_count_obj@$$CBV?$tuple@W4PacketType@@KKV?$shared_ptr@$$CBV?$vector@EV?$allocator@E@std@@@std@@@std@@@std@@@std@@8 ; std::_Ref_count_obj<std::tuple<enum PacketType,unsigned long,unsigned long,std::shared_ptr<std::vector<unsigned char,std::allocator<unsigned char> > const > > const >::`RTTI Class Hierarchy Descriptor'
PUBLIC	??_7?$_Ref_count_obj@$$CBV?$tuple@W4PacketType@@KKV?$shared_ptr@$$CBV?$vector@EV?$allocator@E@std@@@std@@@std@@@std@@@std@@6B@ ; std::_Ref_count_obj<std::tuple<enum PacketType,unsigned long,unsigned long,std::shared_ptr<std::vector<unsigned char,std::allocator<unsigned char> > const > > const >::`vftable'
PUBLIC	??_R1A@?0A@EA@_Ref_count_base@std@@8		; std::_Ref_count_base::`RTTI Base Class Descriptor at (0,-1,0,64)'
PUBLIC	??_R2?$_Ref_count_obj@$$CBV?$tuple@W4PacketType@@KKV?$shared_ptr@$$CBV?$vector@EV?$allocator@E@std@@@std@@@std@@@std@@@std@@8 ; std::_Ref_count_obj<std::tuple<enum PacketType,unsigned long,unsigned long,std::shared_ptr<std::vector<unsigned char,std::allocator<unsigned char> > const > > const >::`RTTI Base Class Array'
PUBLIC	??_R4?$_Ref_count_del@XP6AXPAX@Z@std@@6B@	; std::_Ref_count_del<void,void (__cdecl*)(void *)>::`RTTI Complete Object Locator'
PUBLIC	??_7RecordingHelper@@6B@			; RecordingHelper::`vftable'
PUBLIC	??_R4?$_Ref_count_obj@$$CBV?$vector@EV?$allocator@E@std@@@std@@@std@@6B@ ; std::_Ref_count_obj<std::vector<unsigned char,std::allocator<unsigned char> > const >::`RTTI Complete Object Locator'
PUBLIC	??_7ReplayBuffer@@6B@				; ReplayBuffer::`vftable'
PUBLIC	??_R0?AV?$_Ref_count_del@XP6AXPAX@Z@std@@@8	; std::_Ref_count_del<void,void (__cdecl*)(void *)> `RTTI Type Descriptor'
PUBLIC	??_R4ReplayBuffer@@6B@				; ReplayBuffer::`RTTI Complete Object Locator'
PUBLIC	??_R1A@?0A@EA@?$_Ref_count_obj@$$CBV?$vector@EV?$allocator@E@std@@@std@@@std@@8 ; std::_Ref_count_obj<std::vector<unsigned char,std::allocator<unsigned char> > const >::`RTTI Base Class Descriptor at (0,-1,0,64)'
PUBLIC	??_7?$_Ref_count_del@XP6AXPAX@Z@std@@6B@	; std::_Ref_count_del<void,void (__cdecl*)(void *)>::`vftable'
PUBLIC	??_R0?AV?$_Ref_count_obj@$$CBV?$vector@EV?$allocator@E@std@@@std@@@std@@@8 ; std::_Ref_count_obj<std::vector<unsigned char,std::allocator<unsigned char> > const > `RTTI Type Descriptor'
PUBLIC	??_R1A@?0A@EA@?$_Ref_count_del@XP6AXPAX@Z@std@@8 ; std::_Ref_count_del<void,void (__cdecl*)(void *)>::`RTTI Base Class Descriptor at (0,-1,0,64)'
EXTRN	__imp_?OSTryEnterMutex@@YGHPAX@Z:PROC
EXTRN	?terminate@@YAXXZ:PROC				; terminate
EXTRN	__imp_?OSTerminateThread@@YGHPAXK@Z:PROC
EXTRN	__imp_?OSCloseEvent@@YAXPAX@Z:PROC
EXTRN	__imp_?OSCloseThread@@YGHPAX@Z:PROC
EXTRN	__imp_?OSCloseMutex@@YGXPAX@Z:PROC
EXTRN	__imp_?OSCreateMutex@@YGPAXXZ:PROC
EXTRN	__imp_?GetQPCTimeMS@@YA_KXZ:PROC
EXTRN	??8type_info@@QBE_NABV0@@Z:PROC			; type_info::operator==
;	COMDAT ??_R1A@?0A@EA@?$_Ref_count_del@XP6AXPAX@Z@std@@8
rdata$r	SEGMENT
??_R1A@?0A@EA@?$_Ref_count_del@XP6AXPAX@Z@std@@8 DD FLAT:??_R0?AV?$_Ref_count_del@XP6AXPAX@Z@std@@@8 ; std::_Ref_count_del<void,void (__cdecl*)(void *)>::`RTTI Base Class Descriptor at (0,-1,0,64)'
	DD	01H
	DD	00H
	DD	0ffffffffH
	DD	00H
	DD	040H
	DD	FLAT:??_R3?$_Ref_count_del@XP6AXPAX@Z@std@@8
rdata$r	ENDS
;	COMDAT ??_R0?AV?$_Ref_count_obj@$$CBV?$vector@EV?$allocator@E@std@@@std@@@std@@@8
data$r	SEGMENT
??_R0?AV?$_Ref_count_obj@$$CBV?$vector@EV?$allocator@E@std@@@std@@@std@@@8 DD FLAT:??_7type_info@@6B@ ; std::_Ref_count_obj<std::vector<unsigned char,std::allocator<unsigned char> > const > `RTTI Type Descriptor'
	DD	00H
	DB	'.?AV?$_Ref_count_obj@$$CBV?$vector@EV?$allocator@E@std@@'
	DB	'@std@@@std@@', 00H
data$r	ENDS
;	COMDAT ??_7?$_Ref_count_del@XP6AXPAX@Z@std@@6B@
CONST	SEGMENT
??_7?$_Ref_count_del@XP6AXPAX@Z@std@@6B@ DD FLAT:??_R4?$_Ref_count_del@XP6AXPAX@Z@std@@6B@ ; std::_Ref_count_del<void,void (__cdecl*)(void *)>::`vftable'
	DD	FLAT:?_Destroy@?$_Ref_count_del@XP6AXPAX@Z@std@@EAEXXZ
	DD	FLAT:?_Delete_this@?$_Ref_count_del@XP6AXPAX@Z@std@@EAEXXZ
	DD	FLAT:??_E?$_Ref_count_del@XP6AXPAX@Z@std@@UAEPAXI@Z
	DD	FLAT:?_Get_deleter@?$_Ref_count_del@XP6AXPAX@Z@std@@UBEPAXABVtype_info@@@Z
CONST	ENDS
;	COMDAT ??_R1A@?0A@EA@?$_Ref_count_obj@$$CBV?$vector@EV?$allocator@E@std@@@std@@@std@@8
rdata$r	SEGMENT
??_R1A@?0A@EA@?$_Ref_count_obj@$$CBV?$vector@EV?$allocator@E@std@@@std@@@std@@8 DD FLAT:??_R0?AV?$_Ref_count_obj@$$CBV?$vector@EV?$allocator@E@std@@@std@@@std@@@8 ; std::_Ref_count_obj<std::vector<unsigned char,std::allocator<unsigned char> > const >::`RTTI Base Class Descriptor at (0,-1,0,64)'
	DD	01H
	DD	00H
	DD	0ffffffffH
	DD	00H
	DD	040H
	DD	FLAT:??_R3?$_Ref_count_obj@$$CBV?$vector@EV?$allocator@E@std@@@std@@@std@@8
rdata$r	ENDS
;	COMDAT ??_R4ReplayBuffer@@6B@
rdata$r	SEGMENT
??_R4ReplayBuffer@@6B@ DD 00H				; ReplayBuffer::`RTTI Complete Object Locator'
	DD	00H
	DD	00H
	DD	FLAT:??_R0?AUReplayBuffer@@@8
	DD	FLAT:??_R3ReplayBuffer@@8
rdata$r	ENDS
;	COMDAT ??_R0?AV?$_Ref_count_del@XP6AXPAX@Z@std@@@8
data$r	SEGMENT
??_R0?AV?$_Ref_count_del@XP6AXPAX@Z@std@@@8 DD FLAT:??_7type_info@@6B@ ; std::_Ref_count_del<void,void (__cdecl*)(void *)> `RTTI Type Descriptor'
	DD	00H
	DB	'.?AV?$_Ref_count_del@XP6AXPAX@Z@std@@', 00H
data$r	ENDS
;	COMDAT ??_7ReplayBuffer@@6B@
CONST	SEGMENT
??_7ReplayBuffer@@6B@ DD FLAT:??_R4ReplayBuffer@@6B@	; ReplayBuffer::`vftable'
	DD	FLAT:??_EReplayBuffer@@UAEPAXI@Z
	DD	FLAT:?AddPacket@ReplayBuffer@@UAEXV?$shared_ptr@$$CBV?$vector@EV?$allocator@E@std@@@std@@@std@@KKW4PacketType@@@Z
	DD	FLAT:?AddPacket@ReplayBuffer@@UAEXPBEIKKW4PacketType@@@Z
CONST	ENDS
;	COMDAT ??_R4?$_Ref_count_obj@$$CBV?$vector@EV?$allocator@E@std@@@std@@@std@@6B@
rdata$r	SEGMENT
??_R4?$_Ref_count_obj@$$CBV?$vector@EV?$allocator@E@std@@@std@@@std@@6B@ DD 00H ; std::_Ref_count_obj<std::vector<unsigned char,std::allocator<unsigned char> > const >::`RTTI Complete Object Locator'
	DD	00H
	DD	00H
	DD	FLAT:??_R0?AV?$_Ref_count_obj@$$CBV?$vector@EV?$allocator@E@std@@@std@@@std@@@8
	DD	FLAT:??_R3?$_Ref_count_obj@$$CBV?$vector@EV?$allocator@E@std@@@std@@@std@@8
rdata$r	ENDS
;	COMDAT ??_7RecordingHelper@@6B@
CONST	SEGMENT
??_7RecordingHelper@@6B@ DD FLAT:??_R4RecordingHelper@@6B@ ; RecordingHelper::`vftable'
	DD	FLAT:??_ERecordingHelper@@UAEPAXI@Z
	DD	FLAT:?AddPacket@RecordingHelper@@UAEXV?$shared_ptr@$$CBV?$vector@EV?$allocator@E@std@@@std@@@std@@KKW4PacketType@@@Z
	DD	FLAT:?AddPacket@RecordingHelper@@UAEXPBEIKKW4PacketType@@@Z
CONST	ENDS
;	COMDAT ??_R4?$_Ref_count_del@XP6AXPAX@Z@std@@6B@
rdata$r	SEGMENT
??_R4?$_Ref_count_del@XP6AXPAX@Z@std@@6B@ DD 00H	; std::_Ref_count_del<void,void (__cdecl*)(void *)>::`RTTI Complete Object Locator'
	DD	00H
	DD	00H
	DD	FLAT:??_R0?AV?$_Ref_count_del@XP6AXPAX@Z@std@@@8
	DD	FLAT:??_R3?$_Ref_count_del@XP6AXPAX@Z@std@@8
rdata$r	ENDS
;	COMDAT ??_R2?$_Ref_count_obj@$$CBV?$tuple@W4PacketType@@KKV?$shared_ptr@$$CBV?$vector@EV?$allocator@E@std@@@std@@@std@@@std@@@std@@8
rdata$r	SEGMENT
??_R2?$_Ref_count_obj@$$CBV?$tuple@W4PacketType@@KKV?$shared_ptr@$$CBV?$vector@EV?$allocator@E@std@@@std@@@std@@@std@@@std@@8 DD FLAT:??_R1A@?0A@EA@?$_Ref_count_obj@$$CBV?$tuple@W4PacketType@@KKV?$shared_ptr@$$CBV?$vector@EV?$allocator@E@std@@@std@@@std@@@std@@@std@@8 ; std::_Ref_count_obj<std::tuple<enum PacketType,unsigned long,unsigned long,std::shared_ptr<std::vector<unsigned char,std::allocator<unsigned char> > const > > const >::`RTTI Base Class Array'
	DD	FLAT:??_R1A@?0A@EA@_Ref_count_base@std@@8
rdata$r	ENDS
;	COMDAT ??_R1A@?0A@EA@_Ref_count_base@std@@8
rdata$r	SEGMENT
??_R1A@?0A@EA@_Ref_count_base@std@@8 DD FLAT:??_R0?AV_Ref_count_base@std@@@8 ; std::_Ref_count_base::`RTTI Base Class Descriptor at (0,-1,0,64)'
	DD	00H
	DD	00H
	DD	0ffffffffH
	DD	00H
	DD	040H
	DD	FLAT:??_R3_Ref_count_base@std@@8
rdata$r	ENDS
;	COMDAT ??_7?$_Ref_count_obj@$$CBV?$tuple@W4PacketType@@KKV?$shared_ptr@$$CBV?$vector@EV?$allocator@E@std@@@std@@@std@@@std@@@std@@6B@
CONST	SEGMENT
??_7?$_Ref_count_obj@$$CBV?$tuple@W4PacketType@@KKV?$shared_ptr@$$CBV?$vector@EV?$allocator@E@std@@@std@@@std@@@std@@@std@@6B@ DD FLAT:??_R4?$_Ref_count_obj@$$CBV?$tuple@W4PacketType@@KKV?$shared_ptr@$$CBV?$vector@EV?$allocator@E@std@@@std@@@std@@@std@@@std@@6B@ ; std::_Ref_count_obj<std::tuple<enum PacketType,unsigned long,unsigned long,std::shared_ptr<std::vector<unsigned char,std::allocator<unsigned char> > const > > const >::`vftable'
	DD	FLAT:?_Destroy@?$_Ref_count_obj@$$CBV?$tuple@W4PacketType@@KKV?$shared_ptr@$$CBV?$vector@EV?$allocator@E@std@@@std@@@std@@@std@@@std@@EAEXXZ
	DD	FLAT:?_Delete_this@?$_Ref_count_obj@$$CBV?$tuple@W4PacketType@@KKV?$shared_ptr@$$CBV?$vector@EV?$allocator@E@std@@@std@@@std@@@std@@@std@@EAEXXZ
	DD	FLAT:??_E?$_Ref_count_obj@$$CBV?$tuple@W4PacketType@@KKV?$shared_ptr@$$CBV?$vector@EV?$allocator@E@std@@@std@@@std@@@std@@@std@@UAEPAXI@Z
	DD	FLAT:?_Get_deleter@_Ref_count_base@std@@UBEPAXABVtype_info@@@Z
CONST	ENDS
;	COMDAT ??_R3?$_Ref_count_obj@$$CBV?$tuple@W4PacketType@@KKV?$shared_ptr@$$CBV?$vector@EV?$allocator@E@std@@@std@@@std@@@std@@@std@@8
rdata$r	SEGMENT
??_R3?$_Ref_count_obj@$$CBV?$tuple@W4PacketType@@KKV?$shared_ptr@$$CBV?$vector@EV?$allocator@E@std@@@std@@@std@@@std@@@std@@8 DD 00H ; std::_Ref_count_obj<std::tuple<enum PacketType,unsigned long,unsigned long,std::shared_ptr<std::vector<unsigned char,std::allocator<unsigned char> > const > > const >::`RTTI Class Hierarchy Descriptor'
	DD	00H
	DD	02H
	DD	FLAT:??_R2?$_Ref_count_obj@$$CBV?$tuple@W4PacketType@@KKV?$shared_ptr@$$CBV?$vector@EV?$allocator@E@std@@@std@@@std@@@std@@@std@@8
rdata$r	ENDS
;	COMDAT ??_R3_Ref_count_base@std@@8
rdata$r	SEGMENT
??_R3_Ref_count_base@std@@8 DD 00H			; std::_Ref_count_base::`RTTI Class Hierarchy Descriptor'
	DD	00H
	DD	01H
	DD	FLAT:??_R2_Ref_count_base@std@@8
rdata$r	ENDS
;	COMDAT ??_R4RecordingHelper@@6B@
rdata$r	SEGMENT
??_R4RecordingHelper@@6B@ DD 00H			; RecordingHelper::`RTTI Complete Object Locator'
	DD	00H
	DD	00H
	DD	FLAT:??_R0?AURecordingHelper@@@8
	DD	FLAT:??_R3RecordingHelper@@8
rdata$r	ENDS
;	COMDAT ??_R2ReplayBuffer@@8
rdata$r	SEGMENT
??_R2ReplayBuffer@@8 DD FLAT:??_R1A@?0A@EA@ReplayBuffer@@8 ; ReplayBuffer::`RTTI Base Class Array'
	DD	FLAT:??_R1A@?0A@EA@VideoFileStream@@8
	DD	FLAT:??_R1A@?0A@EA@ClosableStream@@8
rdata$r	ENDS
;	COMDAT ??_R2?$_Ref_count_del@XP6AXPAX@Z@std@@8
rdata$r	SEGMENT
??_R2?$_Ref_count_del@XP6AXPAX@Z@std@@8 DD FLAT:??_R1A@?0A@EA@?$_Ref_count_del@XP6AXPAX@Z@std@@8 ; std::_Ref_count_del<void,void (__cdecl*)(void *)>::`RTTI Base Class Array'
	DD	FLAT:??_R1A@?0A@EA@_Ref_count_base@std@@8
rdata$r	ENDS
;	COMDAT ??_R0P6AXPAX@Z@8
data$r	SEGMENT
??_R0P6AXPAX@Z@8 DD FLAT:??_7type_info@@6B@		; void (__cdecl*)(void *) `RTTI Type Descriptor'
	DD	00H
	DB	'.P6AXPAX@Z', 00H
data$r	ENDS
;	COMDAT ??_R1A@?0A@EA@ReplayBuffer@@8
rdata$r	SEGMENT
??_R1A@?0A@EA@ReplayBuffer@@8 DD FLAT:??_R0?AUReplayBuffer@@@8 ; ReplayBuffer::`RTTI Base Class Descriptor at (0,-1,0,64)'
	DD	02H
	DD	00H
	DD	0ffffffffH
	DD	00H
	DD	040H
	DD	FLAT:??_R3ReplayBuffer@@8
rdata$r	ENDS
;	COMDAT ??_R2_Ref_count_base@std@@8
rdata$r	SEGMENT
??_R2_Ref_count_base@std@@8 DD FLAT:??_R1A@?0A@EA@_Ref_count_base@std@@8 ; std::_Ref_count_base::`RTTI Base Class Array'
rdata$r	ENDS
;	COMDAT ??_7_Ref_count_base@std@@6B@
CONST	SEGMENT
??_7_Ref_count_base@std@@6B@ DD FLAT:??_R4_Ref_count_base@std@@6B@ ; std::_Ref_count_base::`vftable'
	DD	FLAT:__purecall
	DD	FLAT:__purecall
	DD	FLAT:??_E_Ref_count_base@std@@UAEPAXI@Z
	DD	FLAT:?_Get_deleter@_Ref_count_base@std@@UBEPAXABVtype_info@@@Z
CONST	ENDS
;	COMDAT ??_R4_Ref_count_base@std@@6B@
rdata$r	SEGMENT
??_R4_Ref_count_base@std@@6B@ DD 00H			; std::_Ref_count_base::`RTTI Complete Object Locator'
	DD	00H
	DD	00H
	DD	FLAT:??_R0?AV_Ref_count_base@std@@@8
	DD	FLAT:??_R3_Ref_count_base@std@@8
rdata$r	ENDS
;	COMDAT ??_R4?$_Ref_count_obj@$$CBV?$tuple@W4PacketType@@KKV?$shared_ptr@$$CBV?$vector@EV?$allocator@E@std@@@std@@@std@@@std@@@std@@6B@
rdata$r	SEGMENT
??_R4?$_Ref_count_obj@$$CBV?$tuple@W4PacketType@@KKV?$shared_ptr@$$CBV?$vector@EV?$allocator@E@std@@@std@@@std@@@std@@@std@@6B@ DD 00H ; std::_Ref_count_obj<std::tuple<enum PacketType,unsigned long,unsigned long,std::shared_ptr<std::vector<unsigned char,std::allocator<unsigned char> > const > > const >::`RTTI Complete Object Locator'
	DD	00H
	DD	00H
	DD	FLAT:??_R0?AV?$_Ref_count_obj@$$CBV?$tuple@W4PacketType@@KKV?$shared_ptr@$$CBV?$vector@EV?$allocator@E@std@@@std@@@std@@@std@@@std@@@8
	DD	FLAT:??_R3?$_Ref_count_obj@$$CBV?$tuple@W4PacketType@@KKV?$shared_ptr@$$CBV?$vector@EV?$allocator@E@std@@@std@@@std@@@std@@@std@@8
rdata$r	ENDS
;	COMDAT ??_R0?AUReplayBuffer@@@8
data$r	SEGMENT
??_R0?AUReplayBuffer@@@8 DD FLAT:??_7type_info@@6B@	; ReplayBuffer `RTTI Type Descriptor'
	DD	00H
	DB	'.?AUReplayBuffer@@', 00H
data$r	ENDS
;	COMDAT ??_R3?$_Ref_count_del@XP6AXPAX@Z@std@@8
rdata$r	SEGMENT
??_R3?$_Ref_count_del@XP6AXPAX@Z@std@@8 DD 00H		; std::_Ref_count_del<void,void (__cdecl*)(void *)>::`RTTI Class Hierarchy Descriptor'
	DD	00H
	DD	02H
	DD	FLAT:??_R2?$_Ref_count_del@XP6AXPAX@Z@std@@8
rdata$r	ENDS
;	COMDAT ??_R0?AV_Ref_count_base@std@@@8
data$r	SEGMENT
??_R0?AV_Ref_count_base@std@@@8 DD FLAT:??_7type_info@@6B@ ; std::_Ref_count_base `RTTI Type Descriptor'
	DD	00H
	DB	'.?AV_Ref_count_base@std@@', 00H
data$r	ENDS
;	COMDAT ??_R2RecordingHelper@@8
rdata$r	SEGMENT
??_R2RecordingHelper@@8 DD FLAT:??_R1A@?0A@EA@RecordingHelper@@8 ; RecordingHelper::`RTTI Base Class Array'
	DD	FLAT:??_R1A@?0A@EA@VideoFileStream@@8
	DD	FLAT:??_R1A@?0A@EA@ClosableStream@@8
rdata$r	ENDS
;	COMDAT ??_R1A@?0A@EA@RecordingHelper@@8
rdata$r	SEGMENT
??_R1A@?0A@EA@RecordingHelper@@8 DD FLAT:??_R0?AURecordingHelper@@@8 ; RecordingHelper::`RTTI Base Class Descriptor at (0,-1,0,64)'
	DD	02H
	DD	00H
	DD	0ffffffffH
	DD	00H
	DD	040H
	DD	FLAT:??_R3RecordingHelper@@8
rdata$r	ENDS
;	COMDAT ??_R0?AV?$_Ref_count_obj@$$CBV?$tuple@W4PacketType@@KKV?$shared_ptr@$$CBV?$vector@EV?$allocator@E@std@@@std@@@std@@@std@@@std@@@8
data$r	SEGMENT
??_R0?AV?$_Ref_count_obj@$$CBV?$tuple@W4PacketType@@KKV?$shared_ptr@$$CBV?$vector@EV?$allocator@E@std@@@std@@@std@@@std@@@std@@@8 DD FLAT:??_7type_info@@6B@ ; std::_Ref_count_obj<std::tuple<enum PacketType,unsigned long,unsigned long,std::shared_ptr<std::vector<unsigned char,std::allocator<unsigned char> > const > > const > `RTTI Type Descriptor'
	DD	00H
	DB	'.?AV?$_Ref_count_obj@$$CBV?$tuple@W4PacketType@@KKV?$sha'
	DB	'red_ptr@$$CBV?$vector@EV?$allocator@E@std@@@std@@@std@@@std@@'
	DB	'@std@@', 00H
data$r	ENDS
;	COMDAT ??_R0?AURecordingHelper@@@8
data$r	SEGMENT
??_R0?AURecordingHelper@@@8 DD FLAT:??_7type_info@@6B@	; RecordingHelper `RTTI Type Descriptor'
	DD	00H
	DB	'.?AURecordingHelper@@', 00H
data$r	ENDS
;	COMDAT ??_7?$_Ref_count_obj@$$CBV?$vector@EV?$allocator@E@std@@@std@@@std@@6B@
CONST	SEGMENT
??_7?$_Ref_count_obj@$$CBV?$vector@EV?$allocator@E@std@@@std@@@std@@6B@ DD FLAT:??_R4?$_Ref_count_obj@$$CBV?$vector@EV?$allocator@E@std@@@std@@@std@@6B@ ; std::_Ref_count_obj<std::vector<unsigned char,std::allocator<unsigned char> > const >::`vftable'
	DD	FLAT:?_Destroy@?$_Ref_count_obj@$$CBV?$vector@EV?$allocator@E@std@@@std@@@std@@EAEXXZ
	DD	FLAT:?_Delete_this@?$_Ref_count_obj@$$CBV?$vector@EV?$allocator@E@std@@@std@@@std@@EAEXXZ
	DD	FLAT:??_E?$_Ref_count_obj@$$CBV?$vector@EV?$allocator@E@std@@@std@@@std@@UAEPAXI@Z
	DD	FLAT:?_Get_deleter@_Ref_count_base@std@@UBEPAXABVtype_info@@@Z
CONST	ENDS
;	COMDAT ??_R3ReplayBuffer@@8
rdata$r	SEGMENT
??_R3ReplayBuffer@@8 DD 00H				; ReplayBuffer::`RTTI Class Hierarchy Descriptor'
	DD	00H
	DD	03H
	DD	FLAT:??_R2ReplayBuffer@@8
rdata$r	ENDS
;	COMDAT ??_R2?$_Ref_count_obj@$$CBV?$vector@EV?$allocator@E@std@@@std@@@std@@8
rdata$r	SEGMENT
??_R2?$_Ref_count_obj@$$CBV?$vector@EV?$allocator@E@std@@@std@@@std@@8 DD FLAT:??_R1A@?0A@EA@?$_Ref_count_obj@$$CBV?$vector@EV?$allocator@E@std@@@std@@@std@@8 ; std::_Ref_count_obj<std::vector<unsigned char,std::allocator<unsigned char> > const >::`RTTI Base Class Array'
	DD	FLAT:??_R1A@?0A@EA@_Ref_count_base@std@@8
rdata$r	ENDS
;	COMDAT ??_R3RecordingHelper@@8
rdata$r	SEGMENT
??_R3RecordingHelper@@8 DD 00H				; RecordingHelper::`RTTI Class Hierarchy Descriptor'
	DD	00H
	DD	03H
	DD	FLAT:??_R2RecordingHelper@@8
rdata$r	ENDS
;	COMDAT ??_R3?$_Ref_count_obj@$$CBV?$vector@EV?$allocator@E@std@@@std@@@std@@8
rdata$r	SEGMENT
??_R3?$_Ref_count_obj@$$CBV?$vector@EV?$allocator@E@std@@@std@@@std@@8 DD 00H ; std::_Ref_count_obj<std::vector<unsigned char,std::allocator<unsigned char> > const >::`RTTI Class Hierarchy Descriptor'
	DD	00H
	DD	02H
	DD	FLAT:??_R2?$_Ref_count_obj@$$CBV?$vector@EV?$allocator@E@std@@@std@@@std@@8
rdata$r	ENDS
;	COMDAT ??_R1A@?0A@EA@?$_Ref_count_obj@$$CBV?$tuple@W4PacketType@@KKV?$shared_ptr@$$CBV?$vector@EV?$allocator@E@std@@@std@@@std@@@std@@@std@@8
rdata$r	SEGMENT
??_R1A@?0A@EA@?$_Ref_count_obj@$$CBV?$tuple@W4PacketType@@KKV?$shared_ptr@$$CBV?$vector@EV?$allocator@E@std@@@std@@@std@@@std@@@std@@8 DD FLAT:??_R0?AV?$_Ref_count_obj@$$CBV?$tuple@W4PacketType@@KKV?$shared_ptr@$$CBV?$vector@EV?$allocator@E@std@@@std@@@std@@@std@@@std@@@8 ; std::_Ref_count_obj<std::tuple<enum PacketType,unsigned long,unsigned long,std::shared_ptr<std::vector<unsigned char,std::allocator<unsigned char> > const > > const >::`RTTI Base Class Descriptor at (0,-1,0,64)'
	DD	01H
	DD	00H
	DD	0ffffffffH
	DD	00H
	DD	040H
	DD	FLAT:??_R3?$_Ref_count_obj@$$CBV?$tuple@W4PacketType@@KKV?$shared_ptr@$$CBV?$vector@EV?$allocator@E@std@@@std@@@std@@@std@@@std@@8
rdata$r	ENDS
;	COMDAT ??_C@_0BB@MOGOBHAF@list?$DMT?$DO?5too?5long?$AA@
CONST	SEGMENT
??_C@_0BB@MOGOBHAF@list?$DMT?$DO?5too?5long?$AA@ DB 'list<T> too long', 00H ; `string'
CONST	ENDS
;	COMDAT ??_C@_0BC@KBDMBKEH@deque?$DMT?$DO?5too?5long?$AA@
CONST	SEGMENT
??_C@_0BC@KBDMBKEH@deque?$DMT?$DO?5too?5long?$AA@ DB 'deque<T> too long', 00H ; `string'
CONST	ENDS
;	COMDAT ??_C@_1FE@OOKDDFFL@?$AAR?$AAe?$AAp?$AAl?$AAa?$AAy?$AAB?$AAu?$AAf?$AAf?$AAe?$AAr?$AA?4?$AAR?$AAe?$AAc?$AAo?$AAr?$AAd?$AAi?$AAn?$AAg?$AAH?$AAe?$AAl?$AAp?$AAe?$AAr?$AA?4?$AAB?$AAu?$AAf@
CONST	SEGMENT
??_C@_1FE@OOKDDFFL@?$AAR?$AAe?$AAp?$AAl?$AAa?$AAy?$AAB?$AAu?$AAf?$AAf?$AAe?$AAr?$AA?4?$AAR?$AAe?$AAc?$AAo?$AAr?$AAd?$AAi?$AAn?$AAg?$AAH?$AAe?$AAl?$AAp?$AAe?$AAr?$AA?4?$AAB?$AAu?$AAf@ DB 'R'
	DB	00H, 'e', 00H, 'p', 00H, 'l', 00H, 'a', 00H, 'y', 00H, 'B', 00H
	DB	'u', 00H, 'f', 00H, 'f', 00H, 'e', 00H, 'r', 00H, '.', 00H, 'R'
	DB	00H, 'e', 00H, 'c', 00H, 'o', 00H, 'r', 00H, 'd', 00H, 'i', 00H
	DB	'n', 00H, 'g', 00H, 'H', 00H, 'e', 00H, 'l', 00H, 'p', 00H, 'e'
	DB	00H, 'r', 00H, '.', 00H, 'B', 00H, 'u', 00H, 'f', 00H, 'f', 00H
	DB	'e', 00H, 'r', 00H, 'S', 00H, 't', 00H, 'a', 00H, 't', 00H, 'u'
	DB	00H, 's', 00H, 00H, 00H			; `string'
CONST	ENDS
;	COMDAT ??_C@_1HG@DBFIJJCM@?$AAR?$AAe?$AAc?$AAo?$AAr?$AAd?$AAi?$AAn?$AAg?$AAH?$AAe?$AAl?$AAp?$AAe?$AAr?$AA?3?$AA?3?$AAS?$AAa?$AAv?$AAe?$AAT?$AAh?$AAr?$AAe?$AAa?$AAd?$AA?3?$AA?5?$AAd?$AAo?$AAn@
CONST	SEGMENT
??_C@_1HG@DBFIJJCM@?$AAR?$AAe?$AAc?$AAo?$AAr?$AAd?$AAi?$AAn?$AAg?$AAH?$AAe?$AAl?$AAp?$AAe?$AAr?$AA?3?$AA?3?$AAS?$AAa?$AAv?$AAe?$AAT?$AAh?$AAr?$AAe?$AAa?$AAd?$AA?3?$AA?5?$AAd?$AAo?$AAn@ DB 'R'
	DB	00H, 'e', 00H, 'c', 00H, 'o', 00H, 'r', 00H, 'd', 00H, 'i', 00H
	DB	'n', 00H, 'g', 00H, 'H', 00H, 'e', 00H, 'l', 00H, 'p', 00H, 'e'
	DB	00H, 'r', 00H, ':', 00H, ':', 00H, 'S', 00H, 'a', 00H, 'v', 00H
	DB	'e', 00H, 'T', 00H, 'h', 00H, 'r', 00H, 'e', 00H, 'a', 00H, 'd'
	DB	00H, ':', 00H, ' ', 00H, 'd', 00H, 'o', 00H, 'n', 00H, 'e', 00H
	DB	' ', 00H, 'w', 00H, 'r', 00H, 'i', 00H, 't', 00H, 'i', 00H, 'n'
	DB	00H, 'g', 00H, ' ', 00H, 'b', 00H, 'u', 00H, 'f', 00H, 'f', 00H
	DB	'e', 00H, 'r', 00H, 'e', 00H, 'd', 00H, ' ', 00H, 'p', 00H, 'a'
	DB	00H, 'c', 00H, 'k', 00H, 'e', 00H, 't', 00H, 's', 00H, 00H, 00H ; `string'
CONST	ENDS
;	COMDAT ??_C@_1HO@LCDLOHIB@?$AAR?$AAe?$AAc?$AAo?$AAr?$AAd?$AAi?$AAn?$AAg?$AAH?$AAe?$AAl?$AAp?$AAe?$AAr?$AA?5?$AAt?$AAh?$AAr?$AAe?$AAa?$AAd?$AA?5?$AAe?$AAx?$AAi?$AAt?$AAe?$AAd?$AA?5?$AAw?$AAh@
CONST	SEGMENT
??_C@_1HO@LCDLOHIB@?$AAR?$AAe?$AAc?$AAo?$AAr?$AAd?$AAi?$AAn?$AAg?$AAH?$AAe?$AAl?$AAp?$AAe?$AAr?$AA?5?$AAt?$AAh?$AAr?$AAe?$AAa?$AAd?$AA?5?$AAe?$AAx?$AAi?$AAt?$AAe?$AAd?$AA?5?$AAw?$AAh@ DB 'R'
	DB	00H, 'e', 00H, 'c', 00H, 'o', 00H, 'r', 00H, 'd', 00H, 'i', 00H
	DB	'n', 00H, 'g', 00H, 'H', 00H, 'e', 00H, 'l', 00H, 'p', 00H, 'e'
	DB	00H, 'r', 00H, ' ', 00H, 't', 00H, 'h', 00H, 'r', 00H, 'e', 00H
	DB	'a', 00H, 'd', 00H, ' ', 00H, 'e', 00H, 'x', 00H, 'i', 00H, 't'
	DB	00H, 'e', 00H, 'd', 00H, ' ', 00H, 'w', 00H, 'h', 00H, 'i', 00H
	DB	'l', 00H, 'e', 00H, ' ', 00H, '%', 00H, 'd', 00H, ' ', 00H, 'b'
	DB	00H, 'u', 00H, 'f', 00H, 'f', 00H, 'e', 00H, 'r', 00H, 'e', 00H
	DB	'd', 00H, ' ', 00H, 'p', 00H, 'a', 00H, 'c', 00H, 'k', 00H, 'e'
	DB	00H, 't', 00H, 's', 00H, ' ', 00H, 'r', 00H, 'e', 00H, 'm', 00H
	DB	'a', 00H, 'i', 00H, 'n', 00H, 00H, 00H	; `string'
CONST	ENDS
;	COMDAT ??_C@_1EC@NILNDINM@?$AAC?$AAa?$AAp?$AAt?$AAu?$AAr?$AAe?$AA?4?$AAS?$AAt?$AAa?$AAr?$AAt?$AA?4?$AAF?$AAi?$AAl?$AAe?$AAS?$AAt?$AAr?$AAe?$AAa?$AAm?$AA?4?$AAW?$AAa?$AAr?$AAn?$AAi?$AAn?$AAg@
CONST	SEGMENT
??_C@_1EC@NILNDINM@?$AAC?$AAa?$AAp?$AAt?$AAu?$AAr?$AAe?$AA?4?$AAS?$AAt?$AAa?$AAr?$AAt?$AA?4?$AAF?$AAi?$AAl?$AAe?$AAS?$AAt?$AAr?$AAe?$AAa?$AAm?$AA?4?$AAW?$AAa?$AAr?$AAn?$AAi?$AAn?$AAg@ DB 'C'
	DB	00H, 'a', 00H, 'p', 00H, 't', 00H, 'u', 00H, 'r', 00H, 'e', 00H
	DB	'.', 00H, 'S', 00H, 't', 00H, 'a', 00H, 'r', 00H, 't', 00H, '.'
	DB	00H, 'F', 00H, 'i', 00H, 'l', 00H, 'e', 00H, 'S', 00H, 't', 00H
	DB	'r', 00H, 'e', 00H, 'a', 00H, 'm', 00H, '.', 00H, 'W', 00H, 'a'
	DB	00H, 'r', 00H, 'n', 00H, 'i', 00H, 'n', 00H, 'g', 00H, 00H, 00H ; `string'
CONST	ENDS
;	COMDAT ??_C@_1JI@JCMGAMJO@?$AAR?$AAe?$AAc?$AAo?$AAr?$AAd?$AAi?$AAn?$AAg?$AAH?$AAe?$AAl?$AAp?$AAe?$AAr?$AA?3?$AA?3?$AAS?$AAa?$AAv?$AAe?$AAT?$AAh?$AAr?$AAe?$AAa?$AAd?$AA?3?$AA?5?$AAs?$AAt?$AAo@
CONST	SEGMENT
??_C@_1JI@JCMGAMJO@?$AAR?$AAe?$AAc?$AAo?$AAr?$AAd?$AAi?$AAn?$AAg?$AAH?$AAe?$AAl?$AAp?$AAe?$AAr?$AA?3?$AA?3?$AAS?$AAa?$AAv?$AAe?$AAT?$AAh?$AAr?$AAe?$AAa?$AAd?$AA?3?$AA?5?$AAs?$AAt?$AAo@ DB 'R'
	DB	00H, 'e', 00H, 'c', 00H, 'o', 00H, 'r', 00H, 'd', 00H, 'i', 00H
	DB	'n', 00H, 'g', 00H, 'H', 00H, 'e', 00H, 'l', 00H, 'p', 00H, 'e'
	DB	00H, 'r', 00H, ':', 00H, ':', 00H, 'S', 00H, 'a', 00H, 'v', 00H
	DB	'e', 00H, 'T', 00H, 'h', 00H, 'r', 00H, 'e', 00H, 'a', 00H, 'd'
	DB	00H, ':', 00H, ' ', 00H, 's', 00H, 't', 00H, 'o', 00H, 'p', 00H
	DB	'p', 00H, 'i', 00H, 'n', 00H, 'g', 00H, ' ', 00H, 's', 00H, 'a'
	DB	00H, 'v', 00H, 'e', 00H, ' ', 00H, 't', 00H, 'h', 00H, 'r', 00H
	DB	'e', 00H, 'a', 00H, 'd', 00H, ' ', 00H, 'w', 00H, 'i', 00H, 't'
	DB	00H, 'h', 00H, ' ', 00H, '%', 00H, 'u', 00H, ' ', 00H, 'p', 00H
	DB	'a', 00H, 'c', 00H, 'k', 00H, 'e', 00H, 't', 00H, 's', 00H, ' '
	DB	00H, 'r', 00H, 'e', 00H, 'm', 00H, 'a', 00H, 'i', 00H, 'n', 00H
	DB	'i', 00H, 'n', 00H, 'g', 00H, 00H, 00H	; `string'
CONST	ENDS
;	COMDAT ??_C@_1NE@FJOGMPEN@?$AAR?$AAe?$AAc?$AAo?$AAr?$AAd?$AAi?$AAn?$AAg?$AAH?$AAe?$AAl?$AAp?$AAe?$AAr?$AA?3?$AA?3?$AAS?$AAa?$AAv?$AAe?$AAT?$AAh?$AAr?$AAe?$AAa?$AAd?$AA?3?$AA?5?$AAU?$AAn?$AAa@
CONST	SEGMENT
??_C@_1NE@FJOGMPEN@?$AAR?$AAe?$AAc?$AAo?$AAr?$AAd?$AAi?$AAn?$AAg?$AAH?$AAe?$AAl?$AAp?$AAe?$AAr?$AA?3?$AA?3?$AAS?$AAa?$AAv?$AAe?$AAT?$AAh?$AAr?$AAe?$AAa?$AAd?$AA?3?$AA?5?$AAU?$AAn?$AAa@ DB 'R'
	DB	00H, 'e', 00H, 'c', 00H, 'o', 00H, 'r', 00H, 'd', 00H, 'i', 00H
	DB	'n', 00H, 'g', 00H, 'H', 00H, 'e', 00H, 'l', 00H, 'p', 00H, 'e'
	DB	00H, 'r', 00H, ':', 00H, ':', 00H, 'S', 00H, 'a', 00H, 'v', 00H
	DB	'e', 00H, 'T', 00H, 'h', 00H, 'r', 00H, 'e', 00H, 'a', 00H, 'd'
	DB	00H, ':', 00H, ' ', 00H, 'U', 00H, 'n', 00H, 'a', 00H, 'b', 00H
	DB	'l', 00H, 'e', 00H, ' ', 00H, 't', 00H, 'o', 00H, ' ', 00H, 'c'
	DB	00H, 'r', 00H, 'e', 00H, 'a', 00H, 't', 00H, 'e', 00H, ' ', 00H
	DB	't', 00H, 'h', 00H, 'e', 00H, ' ', 00H, 'f', 00H, 'i', 00H, 'l'
	DB	00H, 'e', 00H, ' ', 00H, 's', 00H, 't', 00H, 'r', 00H, 'e', 00H
	DB	'a', 00H, 'm', 00H, '.', 00H, ' ', 00H, 'C', 00H, 'h', 00H, 'e'
	DB	00H, 'c', 00H, 'k', 00H, ' ', 00H, 't', 00H, 'h', 00H, 'e', 00H
	DB	' ', 00H, 'f', 00H, 'i', 00H, 'l', 00H, 'e', 00H, ' ', 00H, 'p'
	DB	00H, 'a', 00H, 't', 00H, 'h', 00H, ' ', 00H, 'i', 00H, 'n', 00H
	DB	' ', 00H, 'B', 00H, 'r', 00H, 'o', 00H, 'a', 00H, 'd', 00H, 'c'
	DB	00H, 'a', 00H, 's', 00H, 't', 00H, ' ', 00H, 'S', 00H, 'e', 00H
	DB	't', 00H, 't', 00H, 'i', 00H, 'n', 00H, 'g', 00H, 's', 00H, '.'
	DB	00H, 00H, 00H				; `string'
CONST	ENDS
;	COMDAT ??_C@_1FA@KMFJNEIK@?$AAC?$AAa?$AAp?$AAt?$AAu?$AAr?$AAe?$AA?4?$AAS?$AAt?$AAa?$AAr?$AAt?$AA?4?$AAF?$AAi?$AAl?$AAe?$AAS?$AAt?$AAr?$AAe?$AAa?$AAm?$AA?4?$AAW?$AAa?$AAr?$AAn?$AAi?$AAn?$AAg@
CONST	SEGMENT
??_C@_1FA@KMFJNEIK@?$AAC?$AAa?$AAp?$AAt?$AAu?$AAr?$AAe?$AA?4?$AAS?$AAt?$AAa?$AAr?$AAt?$AA?4?$AAF?$AAi?$AAl?$AAe?$AAS?$AAt?$AAr?$AAe?$AAa?$AAm?$AA?4?$AAW?$AAa?$AAr?$AAn?$AAi?$AAn?$AAg@ DB 'C'
	DB	00H, 'a', 00H, 'p', 00H, 't', 00H, 'u', 00H, 'r', 00H, 'e', 00H
	DB	'.', 00H, 'S', 00H, 't', 00H, 'a', 00H, 'r', 00H, 't', 00H, '.'
	DB	00H, 'F', 00H, 'i', 00H, 'l', 00H, 'e', 00H, 'S', 00H, 't', 00H
	DB	'r', 00H, 'e', 00H, 'a', 00H, 'm', 00H, '.', 00H, 'W', 00H, 'a'
	DB	00H, 'r', 00H, 'n', 00H, 'i', 00H, 'n', 00H, 'g', 00H, 'C', 00H
	DB	'a', 00H, 'p', 00H, 't', 00H, 'i', 00H, 'o', 00H, 'n', 00H, 00H
	DB	00H						; `string'
	ORG $+2
$SG4294830812 DB 'R', 00H, 'e', 00H, 'p', 00H, 'l', 00H, 'a', 00H, 'y', 00H
	DB	'B', 00H, 'u', 00H, 'f', 00H, 'f', 00H, 'e', 00H, 'r', 00H, ':'
	DB	00H, ' ', 00H, 'F', 00H, 'a', 00H, 'i', 00H, 'l', 00H, 'e', 00H
	DB	'd', 00H, ' ', 00H, 't', 00H, 'o', 00H, ' ', 00H, 'c', 00H, 'r'
	DB	00H, 'e', 00H, 'a', 00H, 't', 00H, 'e', 00H, ' ', 00H, 'f', 00H
	DB	'i', 00H, 'l', 00H, 'e', 00H, ' ', 00H, 's', 00H, 't', 00H, 'r'
	DB	00H, 'e', 00H, 'a', 00H, 'm', 00H, ' ', 00H, 'f', 00H, 'o', 00H
	DB	'r', 00H, ' ', 00H, 'f', 00H, 'i', 00H, 'l', 00H, 'e', 00H, ' '
	DB	00H, 'n', 00H, 'a', 00H, 'm', 00H, 'e', 00H, ' ', 00H, '''', 00H
	DB	'%', 00H, 's', 00H, '''', 00H, 00H, 00H
$SG4294830797 DB 'T', 00H, 'r', 00H, 'i', 00H, 'e', 00H, 'd', 00H, ' ', 00H
	DB	't', 00H, 'o', 00H, ' ', 00H, 'c', 00H, 'r', 00H, 'e', 00H, 'a'
	DB	00H, 't', 00H, 'e', 00H, ' ', 00H, 'a', 00H, ' ', 00H, 'r', 00H
	DB	'e', 00H, 'c', 00H, 'o', 00H, 'r', 00H, 'd', 00H, 'i', 00H, 'n'
	DB	00H, 'g', 00H, ' ', 00H, 'f', 00H, 'r', 00H, 'o', 00H, 'm', 00H
	DB	' ', 00H, 'r', 00H, 'e', 00H, 'p', 00H, 'l', 00H, 'a', 00H, 'y'
	DB	00H, ' ', 00H, 'b', 00H, 'u', 00H, 'f', 00H, 'f', 00H, 'e', 00H
	DB	'r', 00H, ' ', 00H, 'b', 00H, 'u', 00H, 't', 00H, ' ', 00H, 'a'
	DB	00H, 'n', 00H, 'o', 00H, 't', 00H, 'h', 00H, 'e', 00H, 'r', 00H
	DB	' ', 00H, 'r', 00H, 'e', 00H, 'c', 00H, 'o', 00H, 'r', 00H, 'd'
	DB	00H, 'i', 00H, 'n', 00H, 'g', 00H, ' ', 00H, 'i', 00H, 's', 00H
	DB	' ', 00H, 'a', 00H, 'l', 00H, 'r', 00H, 'e', 00H, 'a', 00H, 'd'
	DB	00H, 'y', 00H, ' ', 00H, 'a', 00H, 'c', 00H, 't', 00H, 'i', 00H
	DB	'v', 00H, 'e', 00H, 00H, 00H
	ORG $+2
$SG4294830796 DB 'R', 00H, 'e', 00H, 'p', 00H, 'l', 00H, 'a', 00H, 'y', 00H
	DB	'B', 00H, 'u', 00H, 'f', 00H, 'f', 00H, 'e', 00H, 'r', 00H, '.'
	DB	00H, 'R', 00H, 'e', 00H, 'c', 00H, 'o', 00H, 'r', 00H, 'd', 00H
	DB	'i', 00H, 'n', 00H, 'g', 00H, 'A', 00H, 'l', 00H, 'r', 00H, 'e'
	DB	00H, 'a', 00H, 'd', 00H, 'y', 00H, 'A', 00H, 'c', 00H, 't', 00H
	DB	'i', 00H, 'v', 00H, 'e', 00H, 00H, 00H
PUBLIC	??$forward@V?$_Ptr_base@X@std@@@std@@YA$$QAV?$_Ptr_base@X@0@AAV10@@Z ; std::forward<std::_Ptr_base<void> >
PUBLIC	??$forward@V?$shared_ptr@X@std@@@std@@YA$$QAV?$shared_ptr@X@0@AAV10@@Z ; std::forward<std::shared_ptr<void> >
PUBLIC	?_Assign_rv@?$_Ptr_base@X@std@@QAEX$$QAV12@@Z	; std::_Ptr_base<void>::_Assign_rv
PUBLIC	??0?$_Ptr_base@X@std@@QAE@$$QAV01@@Z		; std::_Ptr_base<void>::_Ptr_base<void>
PUBLIC	??0?$shared_ptr@X@std@@QAE@$$QAV01@@Z		; std::shared_ptr<void>::shared_ptr<void>
PUBLIC	??$?0V?$unique_ptr@XUThreadCloser@@@std@@V?$shared_ptr@X@1@X@?$pair@V?$unique_ptr@XUThreadCloser@@@std@@V?$shared_ptr@X@2@@std@@QAE@$$QAU01@@Z ; std::pair<std::unique_ptr<void,ThreadCloser>,std::shared_ptr<void> >::pair<std::unique_ptr<void,ThreadCloser>,std::shared_ptr<void> ><std::unique_ptr<void,ThreadCloser>,std::shared_ptr<void>,void>
PUBLIC	??$_Uninit_copy@$$CBEE@std@@YAPAEPBE0PAEAAU?$_Wrap_alloc@V?$allocator@E@std@@@0@U_Scalar_ptr_iterator_tag@0@@Z ; std::_Uninit_copy<unsigned char const ,unsigned char>
PUBLIC	??$_Ptr_cat@EE@std@@YA?AU_Scalar_ptr_iterator_tag@0@PBEPAE@Z ; std::_Ptr_cat<unsigned char,unsigned char>
PUBLIC	??$construct@U?$pair@V?$unique_ptr@XUThreadCloser@@@std@@V?$shared_ptr@X@2@@std@@U12@@?$allocator@U?$pair@V?$unique_ptr@XUThreadCloser@@@std@@V?$shared_ptr@X@2@@std@@@std@@QAEXPAU?$pair@V?$unique_ptr@XUThreadCloser@@@std@@V?$shared_ptr@X@2@@1@$$QAU21@@Z ; std::allocator<std::pair<std::unique_ptr<void,ThreadCloser>,std::shared_ptr<void> > >::construct<std::pair<std::unique_ptr<void,ThreadCloser>,std::shared_ptr<void> >,std::pair<std::unique_ptr<void,ThreadCloser>,std::shared_ptr<void> > >
PUBLIC	??$_Uninit_copy@PBEPAEU?$_Wrap_alloc@V?$allocator@E@std@@@std@@@std@@YAPAEPBE0PAEAAU?$_Wrap_alloc@V?$allocator@E@std@@@0@@Z ; std::_Uninit_copy<unsigned char const *,unsigned char *,std::_Wrap_alloc<std::allocator<unsigned char> > >
PUBLIC	??$construct@U?$pair@V?$unique_ptr@XUThreadCloser@@@std@@V?$shared_ptr@X@2@@std@@U12@@?$allocator_traits@V?$allocator@U?$pair@V?$unique_ptr@XUThreadCloser@@@std@@V?$shared_ptr@X@2@@std@@@std@@@std@@SAXAAV?$allocator@U?$pair@V?$unique_ptr@XUThreadCloser@@@std@@V?$shared_ptr@X@2@@std@@@1@PAU?$pair@V?$unique_ptr@XUThreadCloser@@@std@@V?$shared_ptr@X@2@@1@$$QAU31@@Z ; std::allocator_traits<std::allocator<std::pair<std::unique_ptr<void,ThreadCloser>,std::shared_ptr<void> > > >::construct<std::pair<std::unique_ptr<void,ThreadCloser>,std::shared_ptr<void> >,std::pair<std::unique_ptr<void,ThreadCloser>,std::shared_ptr<void> > >
PUBLIC	??$forward@U?$pair@V?$unique_ptr@XUThreadCloser@@@std@@V?$shared_ptr@X@2@@std@@@std@@YA$$QAU?$pair@V?$unique_ptr@XUThreadCloser@@@std@@V?$shared_ptr@X@2@@0@AAU10@@Z ; std::forward<std::pair<std::unique_ptr<void,ThreadCloser>,std::shared_ptr<void> > >
PUBLIC	??$?0AAV?$shared_ptr@$$CBV?$vector@EV?$allocator@E@std@@@std@@@std@@@?$_Tuple_val@V?$shared_ptr@$$CBV?$vector@EV?$allocator@E@std@@@std@@@std@@@std@@QAE@AAV?$shared_ptr@$$CBV?$vector@EV?$allocator@E@std@@@std@@@1@@Z ; std::_Tuple_val<std::shared_ptr<std::vector<unsigned char,std::allocator<unsigned char> > const > >::_Tuple_val<std::shared_ptr<std::vector<unsigned char,std::allocator<unsigned char> > const > ><std::shared_ptr<std::vector<unsigned char,std::allocator<unsigned char> > const > &>
PUBLIC	??$_Uninitialized_copy@PBEPAEU?$_Wrap_alloc@V?$allocator@E@std@@@std@@@std@@YAPAEPBE0PAEAAU?$_Wrap_alloc@V?$allocator@E@std@@@0@@Z ; std::_Uninitialized_copy<unsigned char const *,unsigned char *,std::_Wrap_alloc<std::allocator<unsigned char> > >
PUBLIC	??$forward@UThreadCloser@@@std@@YA$$QAUThreadCloser@@AAU1@@Z ; std::forward<ThreadCloser>
PUBLIC	??$construct@U?$pair@V?$unique_ptr@XUThreadCloser@@@std@@V?$shared_ptr@X@2@@std@@U12@@?$_Wrap_alloc@V?$allocator@U?$pair@V?$unique_ptr@XUThreadCloser@@@std@@V?$shared_ptr@X@2@@std@@@std@@@std@@QAEXPAU?$pair@V?$unique_ptr@XUThreadCloser@@@std@@V?$shared_ptr@X@2@@1@$$QAU21@@Z ; std::_Wrap_alloc<std::allocator<std::pair<std::unique_ptr<void,ThreadCloser>,std::shared_ptr<void> > > >::construct<std::pair<std::unique_ptr<void,ThreadCloser>,std::shared_ptr<void> >,std::pair<std::unique_ptr<void,ThreadCloser>,std::shared_ptr<void> > >
PUBLIC	??$construct@V?$shared_ptr@$$CBV?$tuple@W4PacketType@@KKV?$shared_ptr@$$CBV?$vector@EV?$allocator@E@std@@@std@@@std@@@std@@@std@@AAV12@@?$allocator@V?$shared_ptr@$$CBV?$tuple@W4PacketType@@KKV?$shared_ptr@$$CBV?$vector@EV?$allocator@E@std@@@std@@@std@@@std@@@std@@@std@@QAEXPAV?$shared_ptr@$$CBV?$tuple@W4PacketType@@KKV?$shared_ptr@$$CBV?$vector@EV?$allocator@E@std@@@std@@@std@@@std@@@1@AAV21@@Z ; std::allocator<std::shared_ptr<std::tuple<enum PacketType,unsigned long,unsigned long,std::shared_ptr<std::vector<unsigned char,std::allocator<unsigned char> > const > > const > >::construct<std::shared_ptr<std::tuple<enum PacketType,unsigned long,unsigned long,std::shared_ptr<std::vector<unsigned char,std::allocator<unsigned char> > const > > const >,std::shared_ptr<std::tuple<enum PacketType,unsigned long,unsigned long,std::shared_ptr<std::vector<unsigned char,std::allocator<unsigned char> > const > > const > &>
PUBLIC	??$construct@V?$shared_ptr@$$CBV?$tuple@W4PacketType@@KKV?$shared_ptr@$$CBV?$vector@EV?$allocator@E@std@@@std@@@std@@@std@@@std@@V12@@?$allocator@U?$_List_node@V?$shared_ptr@$$CBV?$tuple@W4PacketType@@KKV?$shared_ptr@$$CBV?$vector@EV?$allocator@E@std@@@std@@@std@@@std@@@std@@PAX@std@@@std@@QAEXPAV?$shared_ptr@$$CBV?$tuple@W4PacketType@@KKV?$shared_ptr@$$CBV?$vector@EV?$allocator@E@std@@@std@@@std@@@std@@@1@$$QAV21@@Z ; std::allocator<std::_List_node<std::shared_ptr<std::tuple<enum PacketType,unsigned long,unsigned long,std::shared_ptr<std::vector<unsigned char,std::allocator<unsigned char> > const > > const >,void *> >::construct<std::shared_ptr<std::tuple<enum PacketType,unsigned long,unsigned long,std::shared_ptr<std::vector<unsigned char,std::allocator<unsigned char> > const > > const >,std::shared_ptr<std::tuple<enum PacketType,unsigned long,unsigned long,std::shared_ptr<std::vector<unsigned char,std::allocator<unsigned char> > const > > const > >
PUBLIC	??$?0AAV?$shared_ptr@$$CBV?$vector@EV?$allocator@E@std@@@std@@@std@@$$$VPAPAX@?$tuple@V?$shared_ptr@$$CBV?$vector@EV?$allocator@E@std@@@std@@@std@@@std@@QAE@AAV?$shared_ptr@$$CBV?$vector@EV?$allocator@E@std@@@std@@@1@@Z ; std::tuple<std::shared_ptr<std::vector<unsigned char,std::allocator<unsigned char> > const > >::tuple<std::shared_ptr<std::vector<unsigned char,std::allocator<unsigned char> > const > ><std::shared_ptr<std::vector<unsigned char,std::allocator<unsigned char> > const > &,void * *>
PUBLIC	??$_Ucopy@PBE@?$vector@EV?$allocator@E@std@@@std@@IAEPAEPBE0PAE@Z ; std::vector<unsigned char,std::allocator<unsigned char> >::_Ucopy<unsigned char const *>
PUBLIC	??$distance@PBE@std@@YAHPBE0@Z			; std::distance<unsigned char const *>
PUBLIC	??0?$_Unique_ptr_base@XUThreadCloser@@$00@std@@QAE@PAXUThreadCloser@@@Z ; std::_Unique_ptr_base<void,ThreadCloser,1>::_Unique_ptr_base<void,ThreadCloser,1>
PUBLIC	?base@?$move_iterator@V?$_Deque_iterator@V?$_Deque_val@U?$_Deque_simple_types@V?$shared_ptr@$$CBV?$tuple@W4PacketType@@KKV?$shared_ptr@$$CBV?$vector@EV?$allocator@E@std@@@std@@@std@@@std@@@std@@@std@@@std@@@std@@@std@@QBE?AV?$_Deque_iterator@V?$_Deque_val@U?$_Deque_simple_types@V?$shared_ptr@$$CBV?$tuple@W4PacketType@@KKV?$shared_ptr@$$CBV?$vector@EV?$allocator@E@std@@@std@@@std@@@std@@@std@@@std@@@std@@@2@XZ ; std::move_iterator<std::_Deque_iterator<std::_Deque_val<std::_Deque_simple_types<std::shared_ptr<std::tuple<enum PacketType,unsigned long,unsigned long,std::shared_ptr<std::vector<unsigned char,std::allocator<unsigned char> > const > > const > > > > >::base
PUBLIC	??0?$unique_ptr@XUThreadCloser@@@std@@QAE@$$QAV01@@Z ; std::unique_ptr<void,ThreadCloser>::unique_ptr<void,ThreadCloser>
PUBLIC	??1?$pair@V?$unique_ptr@XUThreadCloser@@@std@@V?$shared_ptr@X@2@@std@@QAE@XZ ; std::pair<std::unique_ptr<void,ThreadCloser>,std::shared_ptr<void> >::~pair<std::unique_ptr<void,ThreadCloser>,std::shared_ptr<void> >
PUBLIC	??_G?$pair@V?$unique_ptr@XUThreadCloser@@@std@@V?$shared_ptr@X@2@@std@@QAEPAXI@Z ; std::pair<std::unique_ptr<void,ThreadCloser>,std::shared_ptr<void> >::`scalar deleting destructor'
PUBLIC	??$_Uninit_move@PAU?$pair@V?$unique_ptr@XUThreadCloser@@@std@@V?$shared_ptr@X@2@@std@@PAU12@V?$allocator@U?$pair@V?$unique_ptr@XUThreadCloser@@@std@@V?$shared_ptr@X@2@@std@@@2@U12@@std@@YAPAU?$pair@V?$unique_ptr@XUThreadCloser@@@std@@V?$shared_ptr@X@2@@0@PAU10@00AAU?$_Wrap_alloc@V?$allocator@U?$pair@V?$unique_ptr@XUThreadCloser@@@std@@V?$shared_ptr@X@2@@std@@@std@@@0@0U_Nonscalar_ptr_iterator_tag@0@@Z ; std::_Uninit_move<std::pair<std::unique_ptr<void,ThreadCloser>,std::shared_ptr<void> > *,std::pair<std::unique_ptr<void,ThreadCloser>,std::shared_ptr<void> > *,std::allocator<std::pair<std::unique_ptr<void,ThreadCloser>,std::shared_ptr<void> > >,std::pair<std::unique_ptr<void,ThreadCloser>,std::shared_ptr<void> > >
PUBLIC	??$_Val_type@PAU?$pair@V?$unique_ptr@XUThreadCloser@@@std@@V?$shared_ptr@X@2@@std@@@std@@YAPAU?$pair@V?$unique_ptr@XUThreadCloser@@@std@@V?$shared_ptr@X@2@@0@PAU10@@Z ; std::_Val_type<std::pair<std::unique_ptr<void,ThreadCloser>,std::shared_ptr<void> > *>
PUBLIC	??$_Uninit_move@KKK@std@@YAPAKPAK00AAU?$_Wrap_alloc@V?$allocator@K@std@@@0@0U_Scalar_ptr_iterator_tag@0@@Z ; std::_Uninit_move<unsigned long,unsigned long,unsigned long>
PUBLIC	??$_Val_type@PAK@std@@YAPAKPAK@Z		; std::_Val_type<unsigned long *>
PUBLIC	??$destroy@U?$pair@V?$unique_ptr@XUThreadCloser@@@std@@V?$shared_ptr@X@2@@std@@@?$allocator@U?$pair@V?$unique_ptr@XUThreadCloser@@@std@@V?$shared_ptr@X@2@@std@@@std@@QAEXPAU?$pair@V?$unique_ptr@XUThreadCloser@@@std@@V?$shared_ptr@X@2@@1@@Z ; std::allocator<std::pair<std::unique_ptr<void,ThreadCloser>,std::shared_ptr<void> > >::destroy<std::pair<std::unique_ptr<void,ThreadCloser>,std::shared_ptr<void> > >
PUBLIC	??$_Equal@V?$_Deque_iterator@V?$_Deque_val@U?$_Deque_simple_types@V?$shared_ptr@$$CBV?$tuple@W4PacketType@@KKV?$shared_ptr@$$CBV?$vector@EV?$allocator@E@std@@@std@@@std@@@std@@@std@@@std@@@std@@@std@@@?$move_iterator@V?$_Deque_iterator@V?$_Deque_val@U?$_Deque_simple_types@V?$shared_ptr@$$CBV?$tuple@W4PacketType@@KKV?$shared_ptr@$$CBV?$vector@EV?$allocator@E@std@@@std@@@std@@@std@@@std@@@std@@@std@@@std@@@std@@QBE_NABV01@@Z ; std::move_iterator<std::_Deque_iterator<std::_Deque_val<std::_Deque_simple_types<std::shared_ptr<std::tuple<enum PacketType,unsigned long,unsigned long,std::shared_ptr<std::vector<unsigned char,std::allocator<unsigned char> > const > > const > > > > >::_Equal<std::_Deque_iterator<std::_Deque_val<std::_Deque_simple_types<std::shared_ptr<std::tuple<enum PacketType,unsigned long,unsigned long,std::shared_ptr<std::vector<unsigned char,std::allocator<unsigned char> > const > > const > > > > >
PUBLIC	??$?0V?$unique_ptr@XUThreadCloser@@@std@@AAV?$shared_ptr@X@1@X@?$pair@V?$unique_ptr@XUThreadCloser@@@std@@V?$shared_ptr@X@2@@std@@QAE@$$QAV?$unique_ptr@XUThreadCloser@@@1@AAV?$shared_ptr@X@1@@Z ; std::pair<std::unique_ptr<void,ThreadCloser>,std::shared_ptr<void> >::pair<std::unique_ptr<void,ThreadCloser>,std::shared_ptr<void> ><std::unique_ptr<void,ThreadCloser>,std::shared_ptr<void> &,void>
PUBLIC	??$construct@V?$shared_ptr@$$CBV?$tuple@W4PacketType@@KKV?$shared_ptr@$$CBV?$vector@EV?$allocator@E@std@@@std@@@std@@@std@@@std@@AAV12@@?$allocator_traits@V?$allocator@V?$shared_ptr@$$CBV?$tuple@W4PacketType@@KKV?$shared_ptr@$$CBV?$vector@EV?$allocator@E@std@@@std@@@std@@@std@@@std@@@std@@@std@@SAXAAV?$allocator@V?$shared_ptr@$$CBV?$tuple@W4PacketType@@KKV?$shared_ptr@$$CBV?$vector@EV?$allocator@E@std@@@std@@@std@@@std@@@std@@@1@PAV?$shared_ptr@$$CBV?$tuple@W4PacketType@@KKV?$shared_ptr@$$CBV?$vector@EV?$allocator@E@std@@@std@@@std@@@std@@@1@AAV31@@Z ; std::allocator_traits<std::allocator<std::shared_ptr<std::tuple<enum PacketType,unsigned long,unsigned long,std::shared_ptr<std::vector<unsigned char,std::allocator<unsigned char> > const > > const > > >::construct<std::shared_ptr<std::tuple<enum PacketType,unsigned long,unsigned long,std::shared_ptr<std::vector<unsigned char,std::allocator<unsigned char> > const > > const >,std::shared_ptr<std::tuple<enum PacketType,unsigned long,unsigned long,std::shared_ptr<std::vector<unsigned char,std::allocator<unsigned char> > const > > const > &>
PUBLIC	??$?0AAKAAV?$_List_iterator@V?$_List_val@U?$_List_simple_types@V?$shared_ptr@$$CBV?$tuple@W4PacketType@@KKV?$shared_ptr@$$CBV?$vector@EV?$allocator@E@std@@@std@@@std@@@std@@@std@@@std@@@std@@@std@@X@?$pair@KV?$_List_iterator@V?$_List_val@U?$_List_simple_types@V?$shared_ptr@$$CBV?$tuple@W4PacketType@@KKV?$shared_ptr@$$CBV?$vector@EV?$allocator@E@std@@@std@@@std@@@std@@@std@@@std@@@std@@@std@@@std@@QAE@AAKAAV?$_List_iterator@V?$_List_val@U?$_List_simple_types@V?$shared_ptr@$$CBV?$tuple@W4PacketType@@KKV?$shared_ptr@$$CBV?$vector@EV?$allocator@E@std@@@std@@@std@@@std@@@std@@@std@@@std@@@1@@Z ; std::pair<unsigned long,std::_List_iterator<std::_List_val<std::_List_simple_types<std::shared_ptr<std::tuple<enum PacketType,unsigned long,unsigned long,std::shared_ptr<std::vector<unsigned char,std::allocator<unsigned char> > const > > const > > > > >::pair<unsigned long,std::_List_iterator<std::_List_val<std::_List_simple_types<std::shared_ptr<std::tuple<enum PacketType,unsigned long,unsigned long,std::shared_ptr<std::vector<unsigned char,std::allocator<unsigned char> > const > > const > > > > ><unsigned long &,std::_List_iterator<std::_List_val<std::_List_simple_types<std::shared_ptr<std::tuple<enum PacketType,unsigned long,unsigned long,std::shared_ptr<std::vector<unsigned char,std::allocator<unsigned char> > const > > const > > > > &,void>
PUBLIC	??$construct@V?$shared_ptr@$$CBV?$tuple@W4PacketType@@KKV?$shared_ptr@$$CBV?$vector@EV?$allocator@E@std@@@std@@@std@@@std@@@std@@V12@@?$allocator_traits@V?$allocator@U?$_List_node@V?$shared_ptr@$$CBV?$tuple@W4PacketType@@KKV?$shared_ptr@$$CBV?$vector@EV?$allocator@E@std@@@std@@@std@@@std@@@std@@PAX@std@@@std@@@std@@SAXAAV?$allocator@U?$_List_node@V?$shared_ptr@$$CBV?$tuple@W4PacketType@@KKV?$shared_ptr@$$CBV?$vector@EV?$allocator@E@std@@@std@@@std@@@std@@@std@@PAX@std@@@1@PAV?$shared_ptr@$$CBV?$tuple@W4PacketType@@KKV?$shared_ptr@$$CBV?$vector@EV?$allocator@E@std@@@std@@@std@@@std@@@1@$$QAV31@@Z ; std::allocator_traits<std::allocator<std::_List_node<std::shared_ptr<std::tuple<enum PacketType,unsigned long,unsigned long,std::shared_ptr<std::vector<unsigned char,std::allocator<unsigned char> > const > > const >,void *> > >::construct<std::shared_ptr<std::tuple<enum PacketType,unsigned long,unsigned long,std::shared_ptr<std::vector<unsigned char,std::allocator<unsigned char> > const > > const >,std::shared_ptr<std::tuple<enum PacketType,unsigned long,unsigned long,std::shared_ptr<std::vector<unsigned char,std::allocator<unsigned char> > const > > const > >
PUBLIC	??$?0AAK@?$_Tuple_val@K@std@@QAE@AAK@Z		; std::_Tuple_val<unsigned long>::_Tuple_val<unsigned long><unsigned long &>
PUBLIC	??$?0AAKAAV?$shared_ptr@$$CBV?$vector@EV?$allocator@E@std@@@std@@@std@@PAPAX@?$tuple@KV?$shared_ptr@$$CBV?$vector@EV?$allocator@E@std@@@std@@@std@@@std@@QAE@AAKAAV?$shared_ptr@$$CBV?$vector@EV?$allocator@E@std@@@std@@@1@@Z ; std::tuple<unsigned long,std::shared_ptr<std::vector<unsigned char,std::allocator<unsigned char> > const > >::tuple<unsigned long,std::shared_ptr<std::vector<unsigned char,std::allocator<unsigned char> > const > ><unsigned long &,std::shared_ptr<std::vector<unsigned char,std::allocator<unsigned char> > const > &,void * *>
PUBLIC	??$_Construct@PBE@?$vector@EV?$allocator@E@std@@@std@@QAEXPBE0Uforward_iterator_tag@1@@Z ; std::vector<unsigned char,std::allocator<unsigned char> >::_Construct<unsigned char const *>
PUBLIC	?construct@?$allocator@V?$shared_ptr@$$CBV?$tuple@W4PacketType@@KKV?$shared_ptr@$$CBV?$vector@EV?$allocator@E@std@@@std@@@std@@@std@@@std@@@std@@QAEXPAV?$shared_ptr@$$CBV?$tuple@W4PacketType@@KKV?$shared_ptr@$$CBV?$vector@EV?$allocator@E@std@@@std@@@std@@@std@@@2@ABV32@@Z ; std::allocator<std::shared_ptr<std::tuple<enum PacketType,unsigned long,unsigned long,std::shared_ptr<std::vector<unsigned char,std::allocator<unsigned char> > const > > const > >::construct
PUBLIC	??$_Rechecked@PAU?$pair@V?$unique_ptr@XUThreadCloser@@@std@@V?$shared_ptr@X@2@@std@@PAU12@@std@@YAAAPAU?$pair@V?$unique_ptr@XUThreadCloser@@@std@@V?$shared_ptr@X@2@@0@AAPAU10@PAU10@@Z ; std::_Rechecked<std::pair<std::unique_ptr<void,ThreadCloser>,std::shared_ptr<void> > *,std::pair<std::unique_ptr<void,ThreadCloser>,std::shared_ptr<void> > *>
PUBLIC	??$_Uninit_move@PAU?$pair@V?$unique_ptr@XUThreadCloser@@@std@@V?$shared_ptr@X@2@@std@@PAU12@U?$_Wrap_alloc@V?$allocator@U?$pair@V?$unique_ptr@XUThreadCloser@@@std@@V?$shared_ptr@X@2@@std@@@std@@@2@@std@@YAPAU?$pair@V?$unique_ptr@XUThreadCloser@@@std@@V?$shared_ptr@X@2@@0@PAU10@00AAU?$_Wrap_alloc@V?$allocator@U?$pair@V?$unique_ptr@XUThreadCloser@@@std@@V?$shared_ptr@X@2@@std@@@std@@@0@@Z ; std::_Uninit_move<std::pair<std::unique_ptr<void,ThreadCloser>,std::shared_ptr<void> > *,std::pair<std::unique_ptr<void,ThreadCloser>,std::shared_ptr<void> > *,std::_Wrap_alloc<std::allocator<std::pair<std::unique_ptr<void,ThreadCloser>,std::shared_ptr<void> > > > >
PUBLIC	??$_Unchecked@PAU?$pair@V?$unique_ptr@XUThreadCloser@@@std@@V?$shared_ptr@X@2@@std@@@std@@YAPAU?$pair@V?$unique_ptr@XUThreadCloser@@@std@@V?$shared_ptr@X@2@@0@PAU10@@Z ; std::_Unchecked<std::pair<std::unique_ptr<void,ThreadCloser>,std::shared_ptr<void> > *>
PUBLIC	??$_Rechecked@PAKPAK@std@@YAAAPAKAAPAKPAK@Z	; std::_Rechecked<unsigned long *,unsigned long *>
PUBLIC	??$_Uninit_move@PAKPAKU?$_Wrap_alloc@V?$allocator@K@std@@@std@@@std@@YAPAKPAK00AAU?$_Wrap_alloc@V?$allocator@K@std@@@0@@Z ; std::_Uninit_move<unsigned long *,unsigned long *,std::_Wrap_alloc<std::allocator<unsigned long> > >
PUBLIC	??$_Unchecked@PAK@std@@YAPAKPAK@Z		; std::_Unchecked<unsigned long *>
PUBLIC	??$_Move@AAU?$ThreadDeleter@$0DOI@@@@std@@YA$$QAU?$ThreadDeleter@$0DOI@@@AAU1@@Z ; std::_Move<ThreadDeleter<1000> &>
PUBLIC	??$_Fill_n@PAPAV?$shared_ptr@$$CBV?$tuple@W4PacketType@@KKV?$shared_ptr@$$CBV?$vector@EV?$allocator@E@std@@@std@@@std@@@std@@@std@@IPAV12@@std@@YAPAPAV?$shared_ptr@$$CBV?$tuple@W4PacketType@@KKV?$shared_ptr@$$CBV?$vector@EV?$allocator@E@std@@@std@@@std@@@std@@@0@PAPAV10@IABQAV10@@Z ; std::_Fill_n<std::shared_ptr<std::tuple<enum PacketType,unsigned long,unsigned long,std::shared_ptr<std::vector<unsigned char,std::allocator<unsigned char> > const > > const > * *,unsigned int,std::shared_ptr<std::tuple<enum PacketType,unsigned long,unsigned long,std::shared_ptr<std::vector<unsigned char,std::allocator<unsigned char> > const > > const > *>
PUBLIC	??$_Uninit_copy@PAV?$shared_ptr@$$CBV?$tuple@W4PacketType@@KKV?$shared_ptr@$$CBV?$vector@EV?$allocator@E@std@@@std@@@std@@@std@@@std@@PAV12@@std@@YAPAPAV?$shared_ptr@$$CBV?$tuple@W4PacketType@@KKV?$shared_ptr@$$CBV?$vector@EV?$allocator@E@std@@@std@@@std@@@std@@@0@PAPAV10@00AAU?$_Wrap_alloc@V?$allocator@PAV?$shared_ptr@$$CBV?$tuple@W4PacketType@@KKV?$shared_ptr@$$CBV?$vector@EV?$allocator@E@std@@@std@@@std@@@std@@@std@@@std@@@0@U_Scalar_ptr_iterator_tag@0@@Z ; std::_Uninit_copy<std::shared_ptr<std::tuple<enum PacketType,unsigned long,unsigned long,std::shared_ptr<std::vector<unsigned char,std::allocator<unsigned char> > const > > const > *,std::shared_ptr<std::tuple<enum PacketType,unsigned long,unsigned long,std::shared_ptr<std::vector<unsigned char,std::allocator<unsigned char> > const > > const > *>
PUBLIC	??$_Fill_n@PAPAU?$pair@KV?$_List_iterator@V?$_List_val@U?$_List_simple_types@V?$shared_ptr@$$CBV?$tuple@W4PacketType@@KKV?$shared_ptr@$$CBV?$vector@EV?$allocator@E@std@@@std@@@std@@@std@@@std@@@std@@@std@@@std@@@std@@IPAU12@@std@@YAPAPAU?$pair@KV?$_List_iterator@V?$_List_val@U?$_List_simple_types@V?$shared_ptr@$$CBV?$tuple@W4PacketType@@KKV?$shared_ptr@$$CBV?$vector@EV?$allocator@E@std@@@std@@@std@@@std@@@std@@@std@@@std@@@std@@@0@PAPAU10@IABQAU10@@Z ; std::_Fill_n<std::pair<unsigned long,std::_List_iterator<std::_List_val<std::_List_simple_types<std::shared_ptr<std::tuple<enum PacketType,unsigned long,unsigned long,std::shared_ptr<std::vector<unsigned char,std::allocator<unsigned char> > const > > const > > > > > * *,unsigned int,std::pair<unsigned long,std::_List_iterator<std::_List_val<std::_List_simple_types<std::shared_ptr<std::tuple<enum PacketType,unsigned long,unsigned long,std::shared_ptr<std::vector<unsigned char,std::allocator<unsigned char> > const > > const > > > > > *>
PUBLIC	??$_Uninit_copy@PAU?$pair@KV?$_List_iterator@V?$_List_val@U?$_List_simple_types@V?$shared_ptr@$$CBV?$tuple@W4PacketType@@KKV?$shared_ptr@$$CBV?$vector@EV?$allocator@E@std@@@std@@@std@@@std@@@std@@@std@@@std@@@std@@@std@@PAU12@@std@@YAPAPAU?$pair@KV?$_List_iterator@V?$_List_val@U?$_List_simple_types@V?$shared_ptr@$$CBV?$tuple@W4PacketType@@KKV?$shared_ptr@$$CBV?$vector@EV?$allocator@E@std@@@std@@@std@@@std@@@std@@@std@@@std@@@std@@@0@PAPAU10@00AAU?$_Wrap_alloc@V?$allocator@PAU?$pair@KV?$_List_iterator@V?$_List_val@U?$_List_simple_types@V?$shared_ptr@$$CBV?$tuple@W4PacketType@@KKV?$shared_ptr@$$CBV?$vector@EV?$allocator@E@std@@@std@@@std@@@std@@@std@@@std@@@std@@@std@@@std@@@std@@@0@U_Scalar_ptr_iterator_tag@0@@Z ; std::_Uninit_copy<std::pair<unsigned long,std::_List_iterator<std::_List_val<std::_List_simple_types<std::shared_ptr<std::tuple<enum PacketType,unsigned long,unsigned long,std::shared_ptr<std::vector<unsigned char,std::allocator<unsigned char> > const > > const > > > > > *,std::pair<unsigned long,std::_List_iterator<std::_List_val<std::_List_simple_types<std::shared_ptr<std::tuple<enum PacketType,unsigned long,unsigned long,std::shared_ptr<std::vector<unsigned char,std::allocator<unsigned char> > const > > const > > > > > *>
PUBLIC	??$destroy@U?$pair@V?$unique_ptr@XUThreadCloser@@@std@@V?$shared_ptr@X@2@@std@@@?$allocator_traits@V?$allocator@U?$pair@V?$unique_ptr@XUThreadCloser@@@std@@V?$shared_ptr@X@2@@std@@@std@@@std@@SAXAAV?$allocator@U?$pair@V?$unique_ptr@XUThreadCloser@@@std@@V?$shared_ptr@X@2@@std@@@1@PAU?$pair@V?$unique_ptr@XUThreadCloser@@@std@@V?$shared_ptr@X@2@@1@@Z ; std::allocator_traits<std::allocator<std::pair<std::unique_ptr<void,ThreadCloser>,std::shared_ptr<void> > > >::destroy<std::pair<std::unique_ptr<void,ThreadCloser>,std::shared_ptr<void> > >
PUBLIC	??$?8V?$_Deque_iterator@V?$_Deque_val@U?$_Deque_simple_types@V?$shared_ptr@$$CBV?$tuple@W4PacketType@@KKV?$shared_ptr@$$CBV?$vector@EV?$allocator@E@std@@@std@@@std@@@std@@@std@@@std@@@std@@@std@@V01@@std@@YA_NABV?$move_iterator@V?$_Deque_iterator@V?$_Deque_val@U?$_Deque_simple_types@V?$shared_ptr@$$CBV?$tuple@W4PacketType@@KKV?$shared_ptr@$$CBV?$vector@EV?$allocator@E@std@@@std@@@std@@@std@@@std@@@std@@@std@@@std@@@0@0@Z ; std::operator==<std::_Deque_iterator<std::_Deque_val<std::_Deque_simple_types<std::shared_ptr<std::tuple<enum PacketType,unsigned long,unsigned long,std::shared_ptr<std::vector<unsigned char,std::allocator<unsigned char> > const > > const > > > >,std::_Deque_iterator<std::_Deque_val<std::_Deque_simple_types<std::shared_ptr<std::tuple<enum PacketType,unsigned long,unsigned long,std::shared_ptr<std::vector<unsigned char,std::allocator<unsigned char> > const > > const > > > > >
PUBLIC	??$construct@V?$shared_ptr@$$CBV?$tuple@W4PacketType@@KKV?$shared_ptr@$$CBV?$vector@EV?$allocator@E@std@@@std@@@std@@@std@@@std@@ABV12@@?$allocator_traits@V?$allocator@V?$shared_ptr@$$CBV?$tuple@W4PacketType@@KKV?$shared_ptr@$$CBV?$vector@EV?$allocator@E@std@@@std@@@std@@@std@@@std@@@std@@@std@@SAXAAV?$allocator@V?$shared_ptr@$$CBV?$tuple@W4PacketType@@KKV?$shared_ptr@$$CBV?$vector@EV?$allocator@E@std@@@std@@@std@@@std@@@std@@@1@PAV?$shared_ptr@$$CBV?$tuple@W4PacketType@@KKV?$shared_ptr@$$CBV?$vector@EV?$allocator@E@std@@@std@@@std@@@std@@@1@ABV31@@Z ; std::allocator_traits<std::allocator<std::shared_ptr<std::tuple<enum PacketType,unsigned long,unsigned long,std::shared_ptr<std::vector<unsigned char,std::allocator<unsigned char> > const > > const > > >::construct<std::shared_ptr<std::tuple<enum PacketType,unsigned long,unsigned long,std::shared_ptr<std::vector<unsigned char,std::allocator<unsigned char> > const > > const >,std::shared_ptr<std::tuple<enum PacketType,unsigned long,unsigned long,std::shared_ptr<std::vector<unsigned char,std::allocator<unsigned char> > const > > const > const &>
PUBLIC	??$?0UReplayBuffer@@X@?$default_delete@VVideoFileStream@@@std@@QAE@ABU?$default_delete@UReplayBuffer@@@1@@Z ; std::default_delete<VideoFileStream>::default_delete<VideoFileStream><ReplayBuffer,void>
PUBLIC	??$construct@V?$shared_ptr@$$CBV?$tuple@W4PacketType@@KKV?$shared_ptr@$$CBV?$vector@EV?$allocator@E@std@@@std@@@std@@@std@@@std@@V12@@?$allocator@V?$shared_ptr@$$CBV?$tuple@W4PacketType@@KKV?$shared_ptr@$$CBV?$vector@EV?$allocator@E@std@@@std@@@std@@@std@@@std@@@std@@QAEXPAV?$shared_ptr@$$CBV?$tuple@W4PacketType@@KKV?$shared_ptr@$$CBV?$vector@EV?$allocator@E@std@@@std@@@std@@@std@@@1@$$QAV21@@Z ; std::allocator<std::shared_ptr<std::tuple<enum PacketType,unsigned long,unsigned long,std::shared_ptr<std::vector<unsigned char,std::allocator<unsigned char> > const > > const > >::construct<std::shared_ptr<std::tuple<enum PacketType,unsigned long,unsigned long,std::shared_ptr<std::vector<unsigned char,std::allocator<unsigned char> > const > > const >,std::shared_ptr<std::tuple<enum PacketType,unsigned long,unsigned long,std::shared_ptr<std::vector<unsigned char,std::allocator<unsigned char> > const > > const > >
PUBLIC	??$construct@KAAK@?$allocator@K@std@@QAEXPAKAAK@Z ; std::allocator<unsigned long>::construct<unsigned long,unsigned long &>
PUBLIC	??$construct@U?$pair@V?$unique_ptr@XUThreadCloser@@@std@@V?$shared_ptr@X@2@@std@@V?$unique_ptr@XUThreadCloser@@@2@AAV?$shared_ptr@X@2@@?$allocator@U?$pair@V?$unique_ptr@XUThreadCloser@@@std@@V?$shared_ptr@X@2@@std@@@std@@QAEXPAU?$pair@V?$unique_ptr@XUThreadCloser@@@std@@V?$shared_ptr@X@2@@1@$$QAV?$unique_ptr@XUThreadCloser@@@1@AAV?$shared_ptr@X@1@@Z ; std::allocator<std::pair<std::unique_ptr<void,ThreadCloser>,std::shared_ptr<void> > >::construct<std::pair<std::unique_ptr<void,ThreadCloser>,std::shared_ptr<void> >,std::unique_ptr<void,ThreadCloser>,std::shared_ptr<void> &>
PUBLIC	??$construct@V?$shared_ptr@$$CBV?$tuple@W4PacketType@@KKV?$shared_ptr@$$CBV?$vector@EV?$allocator@E@std@@@std@@@std@@@std@@@std@@AAV12@@?$_Wrap_alloc@V?$allocator@V?$shared_ptr@$$CBV?$tuple@W4PacketType@@KKV?$shared_ptr@$$CBV?$vector@EV?$allocator@E@std@@@std@@@std@@@std@@@std@@@std@@@std@@QAEXPAV?$shared_ptr@$$CBV?$tuple@W4PacketType@@KKV?$shared_ptr@$$CBV?$vector@EV?$allocator@E@std@@@std@@@std@@@std@@@1@AAV21@@Z ; std::_Wrap_alloc<std::allocator<std::shared_ptr<std::tuple<enum PacketType,unsigned long,unsigned long,std::shared_ptr<std::vector<unsigned char,std::allocator<unsigned char> > const > > const > > >::construct<std::shared_ptr<std::tuple<enum PacketType,unsigned long,unsigned long,std::shared_ptr<std::vector<unsigned char,std::allocator<unsigned char> > const > > const >,std::shared_ptr<std::tuple<enum PacketType,unsigned long,unsigned long,std::shared_ptr<std::vector<unsigned char,std::allocator<unsigned char> > const > > const > &>
PUBLIC	??$forward@AAV?$shared_ptr@$$CBV?$tuple@W4PacketType@@KKV?$shared_ptr@$$CBV?$vector@EV?$allocator@E@std@@@std@@@std@@@std@@@std@@@std@@YAAAV?$shared_ptr@$$CBV?$tuple@W4PacketType@@KKV?$shared_ptr@$$CBV?$vector@EV?$allocator@E@std@@@std@@@std@@@std@@@0@AAV10@@Z ; std::forward<std::shared_ptr<std::tuple<enum PacketType,unsigned long,unsigned long,std::shared_ptr<std::vector<unsigned char,std::allocator<unsigned char> > const > > const > &>
PUBLIC	??$_Resetp0@X@?$shared_ptr@X@std@@QAEXPAXPAV_Ref_count_base@1@@Z ; std::shared_ptr<void>::_Resetp0<void>
PUBLIC	??$construct@U?$pair@KV?$_List_iterator@V?$_List_val@U?$_List_simple_types@V?$shared_ptr@$$CBV?$tuple@W4PacketType@@KKV?$shared_ptr@$$CBV?$vector@EV?$allocator@E@std@@@std@@@std@@@std@@@std@@@std@@@std@@@std@@@std@@AAKAAV?$_List_iterator@V?$_List_val@U?$_List_simple_types@V?$shared_ptr@$$CBV?$tuple@W4PacketType@@KKV?$shared_ptr@$$CBV?$vector@EV?$allocator@E@std@@@std@@@std@@@std@@@std@@@std@@@std@@@2@@?$allocator@U?$pair@KV?$_List_iterator@V?$_List_val@U?$_List_simple_types@V?$shared_ptr@$$CBV?$tuple@W4PacketType@@KKV?$shared_ptr@$$CBV?$vector@EV?$allocator@E@std@@@std@@@std@@@std@@@std@@@std@@@std@@@std@@@std@@@std@@QAEXPAU?$pair@KV?$_List_iterator@V?$_List_val@U?$_List_simple_types@V?$shared_ptr@$$CBV?$tuple@W4PacketType@@KKV?$shared_ptr@$$CBV?$vector@EV?$allocator@E@std@@@std@@@std@@@std@@@std@@@std@@@std@@@std@@@1@AAKAAV?$_List_iterator@V?$_List_val@U?$_List_simple_types@V?$shared_ptr@$$CBV?$tuple@W4PacketType@@KKV?$shared_ptr@$$CBV?$vector@EV?$allocator@E@std@@@std@@@std@@@std@@@std@@@std@@@std@@@1@@Z ; std::allocator<std::pair<unsigned long,std::_List_iterator<std::_List_val<std::_List_simple_types<std::shared_ptr<std::tuple<enum PacketType,unsigned long,unsigned long,std::shared_ptr<std::vector<unsigned char,std::allocator<unsigned char> > const > > const > > > > > >::construct<std::pair<unsigned long,std::_List_iterator<std::_List_val<std::_List_simple_types<std::shared_ptr<std::tuple<enum PacketType,unsigned long,unsigned long,std::shared_ptr<std::vector<unsigned char,std::allocator<unsigned char> > const > > const > > > > >,unsigned long &,std::_List_iterator<std::_List_val<std::_List_simple_types<std::shared_ptr<std::tuple<enum PacketType,unsigned long,unsigned long,std::shared_ptr<std::vector<unsigned char,std::allocator<unsigned char> > const > > const > > > > &>
PUBLIC	??$construct@V?$shared_ptr@$$CBV?$tuple@W4PacketType@@KKV?$shared_ptr@$$CBV?$vector@EV?$allocator@E@std@@@std@@@std@@@std@@@std@@V12@@?$_Wrap_alloc@V?$allocator@U?$_List_node@V?$shared_ptr@$$CBV?$tuple@W4PacketType@@KKV?$shared_ptr@$$CBV?$vector@EV?$allocator@E@std@@@std@@@std@@@std@@@std@@PAX@std@@@std@@@std@@QAEXPAV?$shared_ptr@$$CBV?$tuple@W4PacketType@@KKV?$shared_ptr@$$CBV?$vector@EV?$allocator@E@std@@@std@@@std@@@std@@@1@$$QAV21@@Z ; std::_Wrap_alloc<std::allocator<std::_List_node<std::shared_ptr<std::tuple<enum PacketType,unsigned long,unsigned long,std::shared_ptr<std::vector<unsigned char,std::allocator<unsigned char> > const > > const >,void *> > >::construct<std::shared_ptr<std::tuple<enum PacketType,unsigned long,unsigned long,std::shared_ptr<std::vector<unsigned char,std::allocator<unsigned char> > const > > const >,std::shared_ptr<std::tuple<enum PacketType,unsigned long,unsigned long,std::shared_ptr<std::vector<unsigned char,std::allocator<unsigned char> > const > > const > >
PUBLIC	??$?0AAW4PacketType@@@?$_Tuple_val@W4PacketType@@@std@@QAE@AAW4PacketType@@@Z ; std::_Tuple_val<enum PacketType>::_Tuple_val<enum PacketType><enum PacketType &>
PUBLIC	??$?0AAKAAKAAV?$shared_ptr@$$CBV?$vector@EV?$allocator@E@std@@@std@@@std@@PAPAX@?$tuple@KKV?$shared_ptr@$$CBV?$vector@EV?$allocator@E@std@@@std@@@std@@@std@@QAE@AAK0AAV?$shared_ptr@$$CBV?$vector@EV?$allocator@E@std@@@std@@@1@@Z ; std::tuple<unsigned long,unsigned long,std::shared_ptr<std::vector<unsigned char,std::allocator<unsigned char> > const > >::tuple<unsigned long,unsigned long,std::shared_ptr<std::vector<unsigned char,std::allocator<unsigned char> > const > ><unsigned long &,unsigned long &,std::shared_ptr<std::vector<unsigned char,std::allocator<unsigned char> > const > &,void * *>
PUBLIC	??$_Construct@PBE@?$vector@EV?$allocator@E@std@@@std@@QAEXPBE0@Z ; std::vector<unsigned char,std::allocator<unsigned char> >::_Construct<unsigned char const *>
PUBLIC	??1?$_Ref_count_del@XP6AXPAX@Z@std@@UAE@XZ	; std::_Ref_count_del<void,void (__cdecl*)(void *)>::~_Ref_count_del<void,void (__cdecl*)(void *)>
PUBLIC	??_G?$_Ref_count_del@XP6AXPAX@Z@std@@UAEPAXI@Z	; std::_Ref_count_del<void,void (__cdecl*)(void *)>::`scalar deleting destructor'
PUBLIC	?_Delete_this@?$_Ref_count_del@XP6AXPAX@Z@std@@EAEXXZ ; std::_Ref_count_del<void,void (__cdecl*)(void *)>::_Delete_this
PUBLIC	?_Destroy@?$_Ref_count_del@XP6AXPAX@Z@std@@EAEXXZ ; std::_Ref_count_del<void,void (__cdecl*)(void *)>::_Destroy
PUBLIC	?_Get_deleter@?$_Ref_count_del@XP6AXPAX@Z@std@@UBEPAXABVtype_info@@@Z ; std::_Ref_count_del<void,void (__cdecl*)(void *)>::_Get_deleter
PUBLIC	??0?$_Ref_count_del@XP6AXPAX@Z@std@@QAE@PAXP6AX0@Z@Z ; std::_Ref_count_del<void,void (__cdecl*)(void *)>::_Ref_count_del<void,void (__cdecl*)(void *)>
PUBLIC	?base@?$_Revranit@V?$_Deque_iterator@V?$_Deque_val@U?$_Deque_simple_types@V?$shared_ptr@$$CBV?$tuple@W4PacketType@@KKV?$shared_ptr@$$CBV?$vector@EV?$allocator@E@std@@@std@@@std@@@std@@@std@@@std@@@std@@@std@@U?$iterator@Urandom_access_iterator_tag@std@@V?$shared_ptr@$$CBV?$tuple@W4PacketType@@KKV?$shared_ptr@$$CBV?$vector@EV?$allocator@E@std@@@std@@@std@@@std@@@2@HPAV32@AAV32@@2@@std@@QBE?AV?$_Deque_iterator@V?$_Deque_val@U?$_Deque_simple_types@V?$shared_ptr@$$CBV?$tuple@W4PacketType@@KKV?$shared_ptr@$$CBV?$vector@EV?$allocator@E@std@@@std@@@std@@@std@@@std@@@std@@@std@@@2@XZ ; std::_Revranit<std::_Deque_iterator<std::_Deque_val<std::_Deque_simple_types<std::shared_ptr<std::tuple<enum PacketType,unsigned long,unsigned long,std::shared_ptr<std::vector<unsigned char,std::allocator<unsigned char> > const > > const > > > >,std::iterator<std::random_access_iterator_tag,std::shared_ptr<std::tuple<enum PacketType,unsigned long,unsigned long,std::shared_ptr<std::vector<unsigned char,std::allocator<unsigned char> > const > > const >,int,std::shared_ptr<std::tuple<enum PacketType,unsigned long,unsigned long,std::shared_ptr<std::vector<unsigned char,std::allocator<unsigned char> > const > > const > *,std::shared_ptr<std::tuple<enum PacketType,unsigned long,unsigned long,std::shared_ptr<std::vector<unsigned char,std::allocator<unsigned char> > const > > const > &> >::base
PUBLIC	??_G?$shared_ptr@$$CBV?$tuple@W4PacketType@@KKV?$shared_ptr@$$CBV?$vector@EV?$allocator@E@std@@@std@@@std@@@std@@@std@@QAEPAXI@Z ; std::shared_ptr<std::tuple<enum PacketType,unsigned long,unsigned long,std::shared_ptr<std::vector<unsigned char,std::allocator<unsigned char> > const > > const >::`scalar deleting destructor'
PUBLIC	??$move@AAV?$shared_ptr@$$CBV?$tuple@W4PacketType@@KKV?$shared_ptr@$$CBV?$vector@EV?$allocator@E@std@@@std@@@std@@@std@@@std@@@std@@YA$$QAV?$shared_ptr@$$CBV?$tuple@W4PacketType@@KKV?$shared_ptr@$$CBV?$vector@EV?$allocator@E@std@@@std@@@std@@@std@@@0@AAV10@@Z ; std::move<std::shared_ptr<std::tuple<enum PacketType,unsigned long,unsigned long,std::shared_ptr<std::vector<unsigned char,std::allocator<unsigned char> > const > > const > &>
PUBLIC	??$forward@V?$_List_iterator@V?$_List_val@U?$_List_simple_types@V?$shared_ptr@$$CBV?$tuple@W4PacketType@@KKV?$shared_ptr@$$CBV?$vector@EV?$allocator@E@std@@@std@@@std@@@std@@@std@@@std@@@std@@@std@@@std@@YA$$QAV?$_List_iterator@V?$_List_val@U?$_List_simple_types@V?$shared_ptr@$$CBV?$tuple@W4PacketType@@KKV?$shared_ptr@$$CBV?$vector@EV?$allocator@E@std@@@std@@@std@@@std@@@std@@@std@@@std@@@0@AAV10@@Z ; std::forward<std::_List_iterator<std::_List_val<std::_List_simple_types<std::shared_ptr<std::tuple<enum PacketType,unsigned long,unsigned long,std::shared_ptr<std::vector<unsigned char,std::allocator<unsigned char> > const > > const > > > > >
PUBLIC	??$forward@K@std@@YA$$QAKAAK@Z			; std::forward<unsigned long>
PUBLIC	??$_Move@AAPBV?$vector@EV?$allocator@E@std@@@std@@@std@@YA$$QAPBV?$vector@EV?$allocator@E@std@@@0@AAPBV10@@Z ; std::_Move<std::vector<unsigned char,std::allocator<unsigned char> > const * &>
PUBLIC	??$_Move@AAPAX@std@@YA$$QAPAXAAPAX@Z		; std::_Move<void * &>
PUBLIC	??$_Uninitialized_move@PAU?$pair@V?$unique_ptr@XUThreadCloser@@@std@@V?$shared_ptr@X@2@@std@@PAU12@U?$_Wrap_alloc@V?$allocator@U?$pair@V?$unique_ptr@XUThreadCloser@@@std@@V?$shared_ptr@X@2@@std@@@std@@@2@@std@@YAPAU?$pair@V?$unique_ptr@XUThreadCloser@@@std@@V?$shared_ptr@X@2@@0@PAU10@00AAU?$_Wrap_alloc@V?$allocator@U?$pair@V?$unique_ptr@XUThreadCloser@@@std@@V?$shared_ptr@X@2@@std@@@std@@@0@@Z ; std::_Uninitialized_move<std::pair<std::unique_ptr<void,ThreadCloser>,std::shared_ptr<void> > *,std::pair<std::unique_ptr<void,ThreadCloser>,std::shared_ptr<void> > *,std::_Wrap_alloc<std::allocator<std::pair<std::unique_ptr<void,ThreadCloser>,std::shared_ptr<void> > > > >
PUBLIC	??$_Uninitialized_move@PAKPAKU?$_Wrap_alloc@V?$allocator@K@std@@@std@@@std@@YAPAKPAK00AAU?$_Wrap_alloc@V?$allocator@K@std@@@0@@Z ; std::_Uninitialized_move<unsigned long *,unsigned long *,std::_Wrap_alloc<std::allocator<unsigned long> > >
PUBLIC	??$swap@U?$ThreadDeleter@$0DOI@@@@std@@YAXAAU?$ThreadDeleter@$0DOI@@@0@Z ; std::swap<ThreadDeleter<1000> >
PUBLIC	??$_Destroy_range@U?$_Wrap_alloc@V?$allocator@PAV?$shared_ptr@$$CBV?$tuple@W4PacketType@@KKV?$shared_ptr@$$CBV?$vector@EV?$allocator@E@std@@@std@@@std@@@std@@@std@@@std@@@std@@@std@@YAXPAPAV?$shared_ptr@$$CBV?$tuple@W4PacketType@@KKV?$shared_ptr@$$CBV?$vector@EV?$allocator@E@std@@@std@@@std@@@std@@@0@0AAU?$_Wrap_alloc@V?$allocator@PAV?$shared_ptr@$$CBV?$tuple@W4PacketType@@KKV?$shared_ptr@$$CBV?$vector@EV?$allocator@E@std@@@std@@@std@@@std@@@std@@@std@@@0@U_Scalar_ptr_iterator_tag@0@@Z ; std::_Destroy_range<std::_Wrap_alloc<std::allocator<std::shared_ptr<std::tuple<enum PacketType,unsigned long,unsigned long,std::shared_ptr<std::vector<unsigned char,std::allocator<unsigned char> > const > > const > *> > >
PUBLIC	??$_Uninit_def_fill_n@PAV?$shared_ptr@$$CBV?$tuple@W4PacketType@@KKV?$shared_ptr@$$CBV?$vector@EV?$allocator@E@std@@@std@@@std@@@std@@@std@@IPAV12@@std@@YAXPAPAV?$shared_ptr@$$CBV?$tuple@W4PacketType@@KKV?$shared_ptr@$$CBV?$vector@EV?$allocator@E@std@@@std@@@std@@@std@@@0@IAAU?$_Wrap_alloc@V?$allocator@PAV?$shared_ptr@$$CBV?$tuple@W4PacketType@@KKV?$shared_ptr@$$CBV?$vector@EV?$allocator@E@std@@@std@@@std@@@std@@@std@@@std@@@0@0U_Scalar_ptr_iterator_tag@0@@Z ; std::_Uninit_def_fill_n<std::shared_ptr<std::tuple<enum PacketType,unsigned long,unsigned long,std::shared_ptr<std::vector<unsigned char,std::allocator<unsigned char> > const > > const > *,unsigned int,std::shared_ptr<std::tuple<enum PacketType,unsigned long,unsigned long,std::shared_ptr<std::vector<unsigned char,std::allocator<unsigned char> > const > > const > *>
PUBLIC	??$_Ptr_cat@PAV?$shared_ptr@$$CBV?$tuple@W4PacketType@@KKV?$shared_ptr@$$CBV?$vector@EV?$allocator@E@std@@@std@@@std@@@std@@@std@@PAV12@@std@@YA?AU_Scalar_ptr_iterator_tag@0@PAPAV?$shared_ptr@$$CBV?$tuple@W4PacketType@@KKV?$shared_ptr@$$CBV?$vector@EV?$allocator@E@std@@@std@@@std@@@std@@@0@0@Z ; std::_Ptr_cat<std::shared_ptr<std::tuple<enum PacketType,unsigned long,unsigned long,std::shared_ptr<std::vector<unsigned char,std::allocator<unsigned char> > const > > const > *,std::shared_ptr<std::tuple<enum PacketType,unsigned long,unsigned long,std::shared_ptr<std::vector<unsigned char,std::allocator<unsigned char> > const > > const > *>
PUBLIC	??$_Val_type@PAPAV?$shared_ptr@$$CBV?$tuple@W4PacketType@@KKV?$shared_ptr@$$CBV?$vector@EV?$allocator@E@std@@@std@@@std@@@std@@@std@@@std@@YAPAPAV?$shared_ptr@$$CBV?$tuple@W4PacketType@@KKV?$shared_ptr@$$CBV?$vector@EV?$allocator@E@std@@@std@@@std@@@std@@@0@PAPAV10@@Z ; std::_Val_type<std::shared_ptr<std::tuple<enum PacketType,unsigned long,unsigned long,std::shared_ptr<std::vector<unsigned char,std::allocator<unsigned char> > const > > const > * *>
PUBLIC	??$_Rechecked@PAPAV?$shared_ptr@$$CBV?$tuple@W4PacketType@@KKV?$shared_ptr@$$CBV?$vector@EV?$allocator@E@std@@@std@@@std@@@std@@@std@@PAPAV12@@std@@YAAAPAPAV?$shared_ptr@$$CBV?$tuple@W4PacketType@@KKV?$shared_ptr@$$CBV?$vector@EV?$allocator@E@std@@@std@@@std@@@std@@@0@AAPAPAV10@PAPAV10@@Z ; std::_Rechecked<std::shared_ptr<std::tuple<enum PacketType,unsigned long,unsigned long,std::shared_ptr<std::vector<unsigned char,std::allocator<unsigned char> > const > > const > * *,std::shared_ptr<std::tuple<enum PacketType,unsigned long,unsigned long,std::shared_ptr<std::vector<unsigned char,std::allocator<unsigned char> > const > > const > * *>
PUBLIC	??$_Uninit_copy@PAPAV?$shared_ptr@$$CBV?$tuple@W4PacketType@@KKV?$shared_ptr@$$CBV?$vector@EV?$allocator@E@std@@@std@@@std@@@std@@@std@@PAPAV12@U?$_Wrap_alloc@V?$allocator@PAV?$shared_ptr@$$CBV?$tuple@W4PacketType@@KKV?$shared_ptr@$$CBV?$vector@EV?$allocator@E@std@@@std@@@std@@@std@@@std@@@std@@@2@@std@@YAPAPAV?$shared_ptr@$$CBV?$tuple@W4PacketType@@KKV?$shared_ptr@$$CBV?$vector@EV?$allocator@E@std@@@std@@@std@@@std@@@0@PAPAV10@00AAU?$_Wrap_alloc@V?$allocator@PAV?$shared_ptr@$$CBV?$tuple@W4PacketType@@KKV?$shared_ptr@$$CBV?$vector@EV?$allocator@E@std@@@std@@@std@@@std@@@std@@@std@@@0@@Z ; std::_Uninit_copy<std::shared_ptr<std::tuple<enum PacketType,unsigned long,unsigned long,std::shared_ptr<std::vector<unsigned char,std::allocator<unsigned char> > const > > const > * *,std::shared_ptr<std::tuple<enum PacketType,unsigned long,unsigned long,std::shared_ptr<std::vector<unsigned char,std::allocator<unsigned char> > const > > const > * *,std::_Wrap_alloc<std::allocator<std::shared_ptr<std::tuple<enum PacketType,unsigned long,unsigned long,std::shared_ptr<std::vector<unsigned char,std::allocator<unsigned char> > const > > const > *> > >
PUBLIC	??$_Unchecked@PAPAV?$shared_ptr@$$CBV?$tuple@W4PacketType@@KKV?$shared_ptr@$$CBV?$vector@EV?$allocator@E@std@@@std@@@std@@@std@@@std@@@std@@YAPAPAV?$shared_ptr@$$CBV?$tuple@W4PacketType@@KKV?$shared_ptr@$$CBV?$vector@EV?$allocator@E@std@@@std@@@std@@@std@@@0@PAPAV10@@Z ; std::_Unchecked<std::shared_ptr<std::tuple<enum PacketType,unsigned long,unsigned long,std::shared_ptr<std::vector<unsigned char,std::allocator<unsigned char> > const > > const > * *>
PUBLIC	??$_Destroy_range@U?$_Wrap_alloc@V?$allocator@PAU?$pair@KV?$_List_iterator@V?$_List_val@U?$_List_simple_types@V?$shared_ptr@$$CBV?$tuple@W4PacketType@@KKV?$shared_ptr@$$CBV?$vector@EV?$allocator@E@std@@@std@@@std@@@std@@@std@@@std@@@std@@@std@@@std@@@std@@@std@@@std@@YAXPAPAU?$pair@KV?$_List_iterator@V?$_List_val@U?$_List_simple_types@V?$shared_ptr@$$CBV?$tuple@W4PacketType@@KKV?$shared_ptr@$$CBV?$vector@EV?$allocator@E@std@@@std@@@std@@@std@@@std@@@std@@@std@@@std@@@0@0AAU?$_Wrap_alloc@V?$allocator@PAU?$pair@KV?$_List_iterator@V?$_List_val@U?$_List_simple_types@V?$shared_ptr@$$CBV?$tuple@W4PacketType@@KKV?$shared_ptr@$$CBV?$vector@EV?$allocator@E@std@@@std@@@std@@@std@@@std@@@std@@@std@@@std@@@std@@@std@@@0@U_Scalar_ptr_iterator_tag@0@@Z ; std::_Destroy_range<std::_Wrap_alloc<std::allocator<std::pair<unsigned long,std::_List_iterator<std::_List_val<std::_List_simple_types<std::shared_ptr<std::tuple<enum PacketType,unsigned long,unsigned long,std::shared_ptr<std::vector<unsigned char,std::allocator<unsigned char> > const > > const > > > > > *> > >
PUBLIC	??$_Uninit_def_fill_n@PAU?$pair@KV?$_List_iterator@V?$_List_val@U?$_List_simple_types@V?$shared_ptr@$$CBV?$tuple@W4PacketType@@KKV?$shared_ptr@$$CBV?$vector@EV?$allocator@E@std@@@std@@@std@@@std@@@std@@@std@@@std@@@std@@@std@@IPAU12@@std@@YAXPAPAU?$pair@KV?$_List_iterator@V?$_List_val@U?$_List_simple_types@V?$shared_ptr@$$CBV?$tuple@W4PacketType@@KKV?$shared_ptr@$$CBV?$vector@EV?$allocator@E@std@@@std@@@std@@@std@@@std@@@std@@@std@@@std@@@0@IAAU?$_Wrap_alloc@V?$allocator@PAU?$pair@KV?$_List_iterator@V?$_List_val@U?$_List_simple_types@V?$shared_ptr@$$CBV?$tuple@W4PacketType@@KKV?$shared_ptr@$$CBV?$vector@EV?$allocator@E@std@@@std@@@std@@@std@@@std@@@std@@@std@@@std@@@std@@@std@@@0@0U_Scalar_ptr_iterator_tag@0@@Z ; std::_Uninit_def_fill_n<std::pair<unsigned long,std::_List_iterator<std::_List_val<std::_List_simple_types<std::shared_ptr<std::tuple<enum PacketType,unsigned long,unsigned long,std::shared_ptr<std::vector<unsigned char,std::allocator<unsigned char> > const > > const > > > > > *,unsigned int,std::pair<unsigned long,std::_List_iterator<std::_List_val<std::_List_simple_types<std::shared_ptr<std::tuple<enum PacketType,unsigned long,unsigned long,std::shared_ptr<std::vector<unsigned char,std::allocator<unsigned char> > const > > const > > > > > *>
PUBLIC	??$_Ptr_cat@PAU?$pair@KV?$_List_iterator@V?$_List_val@U?$_List_simple_types@V?$shared_ptr@$$CBV?$tuple@W4PacketType@@KKV?$shared_ptr@$$CBV?$vector@EV?$allocator@E@std@@@std@@@std@@@std@@@std@@@std@@@std@@@std@@@std@@PAU12@@std@@YA?AU_Scalar_ptr_iterator_tag@0@PAPAU?$pair@KV?$_List_iterator@V?$_List_val@U?$_List_simple_types@V?$shared_ptr@$$CBV?$tuple@W4PacketType@@KKV?$shared_ptr@$$CBV?$vector@EV?$allocator@E@std@@@std@@@std@@@std@@@std@@@std@@@std@@@std@@@0@0@Z ; std::_Ptr_cat<std::pair<unsigned long,std::_List_iterator<std::_List_val<std::_List_simple_types<std::shared_ptr<std::tuple<enum PacketType,unsigned long,unsigned long,std::shared_ptr<std::vector<unsigned char,std::allocator<unsigned char> > const > > const > > > > > *,std::pair<unsigned long,std::_List_iterator<std::_List_val<std::_List_simple_types<std::shared_ptr<std::tuple<enum PacketType,unsigned long,unsigned long,std::shared_ptr<std::vector<unsigned char,std::allocator<unsigned char> > const > > const > > > > > *>
PUBLIC	??$_Val_type@PAPAU?$pair@KV?$_List_iterator@V?$_List_val@U?$_List_simple_types@V?$shared_ptr@$$CBV?$tuple@W4PacketType@@KKV?$shared_ptr@$$CBV?$vector@EV?$allocator@E@std@@@std@@@std@@@std@@@std@@@std@@@std@@@std@@@std@@@std@@YAPAPAU?$pair@KV?$_List_iterator@V?$_List_val@U?$_List_simple_types@V?$shared_ptr@$$CBV?$tuple@W4PacketType@@KKV?$shared_ptr@$$CBV?$vector@EV?$allocator@E@std@@@std@@@std@@@std@@@std@@@std@@@std@@@std@@@0@PAPAU10@@Z ; std::_Val_type<std::pair<unsigned long,std::_List_iterator<std::_List_val<std::_List_simple_types<std::shared_ptr<std::tuple<enum PacketType,unsigned long,unsigned long,std::shared_ptr<std::vector<unsigned char,std::allocator<unsigned char> > const > > const > > > > > * *>
PUBLIC	??$_Rechecked@PAPAU?$pair@KV?$_List_iterator@V?$_List_val@U?$_List_simple_types@V?$shared_ptr@$$CBV?$tuple@W4PacketType@@KKV?$shared_ptr@$$CBV?$vector@EV?$allocator@E@std@@@std@@@std@@@std@@@std@@@std@@@std@@@std@@@std@@PAPAU12@@std@@YAAAPAPAU?$pair@KV?$_List_iterator@V?$_List_val@U?$_List_simple_types@V?$shared_ptr@$$CBV?$tuple@W4PacketType@@KKV?$shared_ptr@$$CBV?$vector@EV?$allocator@E@std@@@std@@@std@@@std@@@std@@@std@@@std@@@std@@@0@AAPAPAU10@PAPAU10@@Z ; std::_Rechecked<std::pair<unsigned long,std::_List_iterator<std::_List_val<std::_List_simple_types<std::shared_ptr<std::tuple<enum PacketType,unsigned long,unsigned long,std::shared_ptr<std::vector<unsigned char,std::allocator<unsigned char> > const > > const > > > > > * *,std::pair<unsigned long,std::_List_iterator<std::_List_val<std::_List_simple_types<std::shared_ptr<std::tuple<enum PacketType,unsigned long,unsigned long,std::shared_ptr<std::vector<unsigned char,std::allocator<unsigned char> > const > > const > > > > > * *>
PUBLIC	??$_Uninit_copy@PAPAU?$pair@KV?$_List_iterator@V?$_List_val@U?$_List_simple_types@V?$shared_ptr@$$CBV?$tuple@W4PacketType@@KKV?$shared_ptr@$$CBV?$vector@EV?$allocator@E@std@@@std@@@std@@@std@@@std@@@std@@@std@@@std@@@std@@PAPAU12@U?$_Wrap_alloc@V?$allocator@PAU?$pair@KV?$_List_iterator@V?$_List_val@U?$_List_simple_types@V?$shared_ptr@$$CBV?$tuple@W4PacketType@@KKV?$shared_ptr@$$CBV?$vector@EV?$allocator@E@std@@@std@@@std@@@std@@@std@@@std@@@std@@@std@@@std@@@std@@@2@@std@@YAPAPAU?$pair@KV?$_List_iterator@V?$_List_val@U?$_List_simple_types@V?$shared_ptr@$$CBV?$tuple@W4PacketType@@KKV?$shared_ptr@$$CBV?$vector@EV?$allocator@E@std@@@std@@@std@@@std@@@std@@@std@@@std@@@std@@@0@PAPAU10@00AAU?$_Wrap_alloc@V?$allocator@PAU?$pair@KV?$_List_iterator@V?$_List_val@U?$_List_simple_types@V?$shared_ptr@$$CBV?$tuple@W4PacketType@@KKV?$shared_ptr@$$CBV?$vector@EV?$allocator@E@std@@@std@@@std@@@std@@@std@@@std@@@std@@@std@@@std@@@std@@@0@@Z ; std::_Uninit_copy<std::pair<unsigned long,std::_List_iterator<std::_List_val<std::_List_simple_types<std::shared_ptr<std::tuple<enum PacketType,unsigned long,unsigned long,std::shared_ptr<std::vector<unsigned char,std::allocator<unsigned char> > const > > const > > > > > * *,std::pair<unsigned long,std::_List_iterator<std::_List_val<std::_List_simple_types<std::shared_ptr<std::tuple<enum PacketType,unsigned long,unsigned long,std::shared_ptr<std::vector<unsigned char,std::allocator<unsigned char> > const > > const > > > > > * *,std::_Wrap_alloc<std::allocator<std::pair<unsigned long,std::_List_iterator<std::_List_val<std::_List_simple_types<std::shared_ptr<std::tuple<enum PacketType,unsigned long,unsigned long,std::shared_ptr<std::vector<unsigned char,std::allocator<unsigned char> > const > > const > > > > > *> > >
PUBLIC	??$_Unchecked@PAPAU?$pair@KV?$_List_iterator@V?$_List_val@U?$_List_simple_types@V?$shared_ptr@$$CBV?$tuple@W4PacketType@@KKV?$shared_ptr@$$CBV?$vector@EV?$allocator@E@std@@@std@@@std@@@std@@@std@@@std@@@std@@@std@@@std@@@std@@YAPAPAU?$pair@KV?$_List_iterator@V?$_List_val@U?$_List_simple_types@V?$shared_ptr@$$CBV?$tuple@W4PacketType@@KKV?$shared_ptr@$$CBV?$vector@EV?$allocator@E@std@@@std@@@std@@@std@@@std@@@std@@@std@@@std@@@0@PAPAU10@@Z ; std::_Unchecked<std::pair<unsigned long,std::_List_iterator<std::_List_val<std::_List_simple_types<std::shared_ptr<std::tuple<enum PacketType,unsigned long,unsigned long,std::shared_ptr<std::vector<unsigned char,std::allocator<unsigned char> > const > > const > > > > > * *>
PUBLIC	??$construct@PAU?$_List_node@V?$shared_ptr@$$CBV?$tuple@W4PacketType@@KKV?$shared_ptr@$$CBV?$vector@EV?$allocator@E@std@@@std@@@std@@@std@@@std@@PAX@std@@AAPAU12@@?$allocator@U?$_List_node@V?$shared_ptr@$$CBV?$tuple@W4PacketType@@KKV?$shared_ptr@$$CBV?$vector@EV?$allocator@E@std@@@std@@@std@@@std@@@std@@PAX@std@@@std@@QAEXPAPAU?$_List_node@V?$shared_ptr@$$CBV?$tuple@W4PacketType@@KKV?$shared_ptr@$$CBV?$vector@EV?$allocator@E@std@@@std@@@std@@@std@@@std@@PAX@1@AAPAU21@@Z ; std::allocator<std::_List_node<std::shared_ptr<std::tuple<enum PacketType,unsigned long,unsigned long,std::shared_ptr<std::vector<unsigned char,std::allocator<unsigned char> > const > > const >,void *> >::construct<std::_List_node<std::shared_ptr<std::tuple<enum PacketType,unsigned long,unsigned long,std::shared_ptr<std::vector<unsigned char,std::allocator<unsigned char> > const > > const >,void *> *,std::_List_node<std::shared_ptr<std::tuple<enum PacketType,unsigned long,unsigned long,std::shared_ptr<std::vector<unsigned char,std::allocator<unsigned char> > const > > const >,void *> * &>
PUBLIC	??$_Move@AAPAU_Container_proxy@std@@@std@@YA$$QAPAU_Container_proxy@0@AAPAU10@@Z ; std::_Move<std::_Container_proxy * &>
PUBLIC	??$destroy@U?$pair@V?$unique_ptr@XUThreadCloser@@@std@@V?$shared_ptr@X@2@@std@@@?$_Wrap_alloc@V?$allocator@U?$pair@V?$unique_ptr@XUThreadCloser@@@std@@V?$shared_ptr@X@2@@std@@@std@@@std@@QAEXPAU?$pair@V?$unique_ptr@XUThreadCloser@@@std@@V?$shared_ptr@X@2@@1@@Z ; std::_Wrap_alloc<std::allocator<std::pair<std::unique_ptr<void,ThreadCloser>,std::shared_ptr<void> > > >::destroy<std::pair<std::unique_ptr<void,ThreadCloser>,std::shared_ptr<void> > >
PUBLIC	??$destroy@U_Container_proxy@std@@@?$allocator@U_Container_proxy@std@@@std@@QAEXPAU_Container_proxy@1@@Z ; std::allocator<std::_Container_proxy>::destroy<std::_Container_proxy>
PUBLIC	??$construct@U_Container_proxy@std@@U12@@?$allocator@U_Container_proxy@std@@@std@@QAEXPAU_Container_proxy@1@$$QAU21@@Z ; std::allocator<std::_Container_proxy>::construct<std::_Container_proxy,std::_Container_proxy>
PUBLIC	??$destroy@U?$pair@KV?$_List_iterator@V?$_List_val@U?$_List_simple_types@V?$shared_ptr@$$CBV?$tuple@W4PacketType@@KKV?$shared_ptr@$$CBV?$vector@EV?$allocator@E@std@@@std@@@std@@@std@@@std@@@std@@@std@@@std@@@std@@@?$allocator@U?$pair@KV?$_List_iterator@V?$_List_val@U?$_List_simple_types@V?$shared_ptr@$$CBV?$tuple@W4PacketType@@KKV?$shared_ptr@$$CBV?$vector@EV?$allocator@E@std@@@std@@@std@@@std@@@std@@@std@@@std@@@std@@@std@@@std@@QAEXPAU?$pair@KV?$_List_iterator@V?$_List_val@U?$_List_simple_types@V?$shared_ptr@$$CBV?$tuple@W4PacketType@@KKV?$shared_ptr@$$CBV?$vector@EV?$allocator@E@std@@@std@@@std@@@std@@@std@@@std@@@std@@@std@@@1@@Z ; std::allocator<std::pair<unsigned long,std::_List_iterator<std::_List_val<std::_List_simple_types<std::shared_ptr<std::tuple<enum PacketType,unsigned long,unsigned long,std::shared_ptr<std::vector<unsigned char,std::allocator<unsigned char> > const > > const > > > > > >::destroy<std::pair<unsigned long,std::_List_iterator<std::_List_val<std::_List_simple_types<std::shared_ptr<std::tuple<enum PacketType,unsigned long,unsigned long,std::shared_ptr<std::vector<unsigned char,std::allocator<unsigned char> > const > > const > > > > > >
PUBLIC	??$destroy@V?$shared_ptr@$$CBV?$tuple@W4PacketType@@KKV?$shared_ptr@$$CBV?$vector@EV?$allocator@E@std@@@std@@@std@@@std@@@std@@@?$allocator@U?$_List_node@V?$shared_ptr@$$CBV?$tuple@W4PacketType@@KKV?$shared_ptr@$$CBV?$vector@EV?$allocator@E@std@@@std@@@std@@@std@@@std@@PAX@std@@@std@@QAEXPAV?$shared_ptr@$$CBV?$tuple@W4PacketType@@KKV?$shared_ptr@$$CBV?$vector@EV?$allocator@E@std@@@std@@@std@@@std@@@1@@Z ; std::allocator<std::_List_node<std::shared_ptr<std::tuple<enum PacketType,unsigned long,unsigned long,std::shared_ptr<std::vector<unsigned char,std::allocator<unsigned char> > const > > const >,void *> >::destroy<std::shared_ptr<std::tuple<enum PacketType,unsigned long,unsigned long,std::shared_ptr<std::vector<unsigned char,std::allocator<unsigned char> > const > > const > >
PUBLIC	??$destroy@PAU?$_List_node@V?$shared_ptr@$$CBV?$tuple@W4PacketType@@KKV?$shared_ptr@$$CBV?$vector@EV?$allocator@E@std@@@std@@@std@@@std@@@std@@PAX@std@@@?$allocator@U?$_List_node@V?$shared_ptr@$$CBV?$tuple@W4PacketType@@KKV?$shared_ptr@$$CBV?$vector@EV?$allocator@E@std@@@std@@@std@@@std@@@std@@PAX@std@@@std@@QAEXPAPAU?$_List_node@V?$shared_ptr@$$CBV?$tuple@W4PacketType@@KKV?$shared_ptr@$$CBV?$vector@EV?$allocator@E@std@@@std@@@std@@@std@@@std@@PAX@1@@Z ; std::allocator<std::_List_node<std::shared_ptr<std::tuple<enum PacketType,unsigned long,unsigned long,std::shared_ptr<std::vector<unsigned char,std::allocator<unsigned char> > const > > const >,void *> >::destroy<std::_List_node<std::shared_ptr<std::tuple<enum PacketType,unsigned long,unsigned long,std::shared_ptr<std::vector<unsigned char,std::allocator<unsigned char> > const > > const >,void *> *>
PUBLIC	??$destroy@PAV?$shared_ptr@$$CBV?$tuple@W4PacketType@@KKV?$shared_ptr@$$CBV?$vector@EV?$allocator@E@std@@@std@@@std@@@std@@@std@@@?$allocator@V?$shared_ptr@$$CBV?$tuple@W4PacketType@@KKV?$shared_ptr@$$CBV?$vector@EV?$allocator@E@std@@@std@@@std@@@std@@@std@@@std@@QAEXPAPAV?$shared_ptr@$$CBV?$tuple@W4PacketType@@KKV?$shared_ptr@$$CBV?$vector@EV?$allocator@E@std@@@std@@@std@@@std@@@1@@Z ; std::allocator<std::shared_ptr<std::tuple<enum PacketType,unsigned long,unsigned long,std::shared_ptr<std::vector<unsigned char,std::allocator<unsigned char> > const > > const > >::destroy<std::shared_ptr<std::tuple<enum PacketType,unsigned long,unsigned long,std::shared_ptr<std::vector<unsigned char,std::allocator<unsigned char> > const > > const > *>
PUBLIC	??$_Move@AAPAPAV?$shared_ptr@$$CBV?$tuple@W4PacketType@@KKV?$shared_ptr@$$CBV?$vector@EV?$allocator@E@std@@@std@@@std@@@std@@@std@@@std@@YA$$QAPAPAV?$shared_ptr@$$CBV?$tuple@W4PacketType@@KKV?$shared_ptr@$$CBV?$vector@EV?$allocator@E@std@@@std@@@std@@@std@@@0@AAPAPAV10@@Z ; std::_Move<std::shared_ptr<std::tuple<enum PacketType,unsigned long,unsigned long,std::shared_ptr<std::vector<unsigned char,std::allocator<unsigned char> > const > > const > * * &>
PUBLIC	??$destroy@PAU?$pair@KV?$_List_iterator@V?$_List_val@U?$_List_simple_types@V?$shared_ptr@$$CBV?$tuple@W4PacketType@@KKV?$shared_ptr@$$CBV?$vector@EV?$allocator@E@std@@@std@@@std@@@std@@@std@@@std@@@std@@@std@@@std@@@?$allocator@U?$pair@KV?$_List_iterator@V?$_List_val@U?$_List_simple_types@V?$shared_ptr@$$CBV?$tuple@W4PacketType@@KKV?$shared_ptr@$$CBV?$vector@EV?$allocator@E@std@@@std@@@std@@@std@@@std@@@std@@@std@@@std@@@std@@@std@@QAEXPAPAU?$pair@KV?$_List_iterator@V?$_List_val@U?$_List_simple_types@V?$shared_ptr@$$CBV?$tuple@W4PacketType@@KKV?$shared_ptr@$$CBV?$vector@EV?$allocator@E@std@@@std@@@std@@@std@@@std@@@std@@@std@@@std@@@1@@Z ; std::allocator<std::pair<unsigned long,std::_List_iterator<std::_List_val<std::_List_simple_types<std::shared_ptr<std::tuple<enum PacketType,unsigned long,unsigned long,std::shared_ptr<std::vector<unsigned char,std::allocator<unsigned char> > const > > const > > > > > >::destroy<std::pair<unsigned long,std::_List_iterator<std::_List_val<std::_List_simple_types<std::shared_ptr<std::tuple<enum PacketType,unsigned long,unsigned long,std::shared_ptr<std::vector<unsigned char,std::allocator<unsigned char> > const > > const > > > > > *>
PUBLIC	??$move@AAU?$pair@KV?$_List_iterator@V?$_List_val@U?$_List_simple_types@V?$shared_ptr@$$CBV?$tuple@W4PacketType@@KKV?$shared_ptr@$$CBV?$vector@EV?$allocator@E@std@@@std@@@std@@@std@@@std@@@std@@@std@@@std@@@std@@@std@@YA$$QAU?$pair@KV?$_List_iterator@V?$_List_val@U?$_List_simple_types@V?$shared_ptr@$$CBV?$tuple@W4PacketType@@KKV?$shared_ptr@$$CBV?$vector@EV?$allocator@E@std@@@std@@@std@@@std@@@std@@@std@@@std@@@std@@@0@AAU10@@Z ; std::move<std::pair<unsigned long,std::_List_iterator<std::_List_val<std::_List_simple_types<std::shared_ptr<std::tuple<enum PacketType,unsigned long,unsigned long,std::shared_ptr<std::vector<unsigned char,std::allocator<unsigned char> > const > > const > > > > > &>
PUBLIC	??$destroy@V?$shared_ptr@$$CBV?$tuple@W4PacketType@@KKV?$shared_ptr@$$CBV?$vector@EV?$allocator@E@std@@@std@@@std@@@std@@@std@@@?$allocator@V?$shared_ptr@$$CBV?$tuple@W4PacketType@@KKV?$shared_ptr@$$CBV?$vector@EV?$allocator@E@std@@@std@@@std@@@std@@@std@@@std@@QAEXPAV?$shared_ptr@$$CBV?$tuple@W4PacketType@@KKV?$shared_ptr@$$CBV?$vector@EV?$allocator@E@std@@@std@@@std@@@std@@@1@@Z ; std::allocator<std::shared_ptr<std::tuple<enum PacketType,unsigned long,unsigned long,std::shared_ptr<std::vector<unsigned char,std::allocator<unsigned char> > const > > const > >::destroy<std::shared_ptr<std::tuple<enum PacketType,unsigned long,unsigned long,std::shared_ptr<std::vector<unsigned char,std::allocator<unsigned char> > const > > const > >
PUBLIC	??$?9V?$_Deque_iterator@V?$_Deque_val@U?$_Deque_simple_types@V?$shared_ptr@$$CBV?$tuple@W4PacketType@@KKV?$shared_ptr@$$CBV?$vector@EV?$allocator@E@std@@@std@@@std@@@std@@@std@@@std@@@std@@@std@@V01@@std@@YA_NABV?$move_iterator@V?$_Deque_iterator@V?$_Deque_val@U?$_Deque_simple_types@V?$shared_ptr@$$CBV?$tuple@W4PacketType@@KKV?$shared_ptr@$$CBV?$vector@EV?$allocator@E@std@@@std@@@std@@@std@@@std@@@std@@@std@@@std@@@0@0@Z ; std::operator!=<std::_Deque_iterator<std::_Deque_val<std::_Deque_simple_types<std::shared_ptr<std::tuple<enum PacketType,unsigned long,unsigned long,std::shared_ptr<std::vector<unsigned char,std::allocator<unsigned char> > const > > const > > > >,std::_Deque_iterator<std::_Deque_val<std::_Deque_simple_types<std::shared_ptr<std::tuple<enum PacketType,unsigned long,unsigned long,std::shared_ptr<std::vector<unsigned char,std::allocator<unsigned char> > const > > const > > > > >
PUBLIC	??$construct@V?$shared_ptr@$$CBV?$tuple@W4PacketType@@KKV?$shared_ptr@$$CBV?$vector@EV?$allocator@E@std@@@std@@@std@@@std@@@std@@ABV12@@?$_Wrap_alloc@V?$allocator@V?$shared_ptr@$$CBV?$tuple@W4PacketType@@KKV?$shared_ptr@$$CBV?$vector@EV?$allocator@E@std@@@std@@@std@@@std@@@std@@@std@@@std@@QAEXPAV?$shared_ptr@$$CBV?$tuple@W4PacketType@@KKV?$shared_ptr@$$CBV?$vector@EV?$allocator@E@std@@@std@@@std@@@std@@@1@ABV21@@Z ; std::_Wrap_alloc<std::allocator<std::shared_ptr<std::tuple<enum PacketType,unsigned long,unsigned long,std::shared_ptr<std::vector<unsigned char,std::allocator<unsigned char> > const > > const > > >::construct<std::shared_ptr<std::tuple<enum PacketType,unsigned long,unsigned long,std::shared_ptr<std::vector<unsigned char,std::allocator<unsigned char> > const > > const >,std::shared_ptr<std::tuple<enum PacketType,unsigned long,unsigned long,std::shared_ptr<std::vector<unsigned char,std::allocator<unsigned char> > const > > const > const &>
PUBLIC	??$forward@ABV?$shared_ptr@$$CBV?$tuple@W4PacketType@@KKV?$shared_ptr@$$CBV?$vector@EV?$allocator@E@std@@@std@@@std@@@std@@@std@@@std@@YAABV?$shared_ptr@$$CBV?$tuple@W4PacketType@@KKV?$shared_ptr@$$CBV?$vector@EV?$allocator@E@std@@@std@@@std@@@std@@@0@ABV10@@Z ; std::forward<std::shared_ptr<std::tuple<enum PacketType,unsigned long,unsigned long,std::shared_ptr<std::vector<unsigned char,std::allocator<unsigned char> > const > > const > const &>
PUBLIC	??$?0PAUReplayBuffer@@U?$default_delete@UReplayBuffer@@@std@@@?$_Unique_ptr_base@VVideoFileStream@@U?$default_delete@VVideoFileStream@@@std@@$00@std@@QAE@PAUReplayBuffer@@U?$default_delete@UReplayBuffer@@@1@@Z ; std::_Unique_ptr_base<VideoFileStream,std::default_delete<VideoFileStream>,1>::_Unique_ptr_base<VideoFileStream,std::default_delete<VideoFileStream>,1><ReplayBuffer *,std::default_delete<ReplayBuffer> >
PUBLIC	??$forward@U?$default_delete@UReplayBuffer@@@std@@@std@@YA$$QAU?$default_delete@UReplayBuffer@@@0@AAU10@@Z ; std::forward<std::default_delete<ReplayBuffer> >
PUBLIC	??$construct@V?$shared_ptr@$$CBV?$tuple@W4PacketType@@KKV?$shared_ptr@$$CBV?$vector@EV?$allocator@E@std@@@std@@@std@@@std@@@std@@V12@@?$allocator_traits@V?$allocator@V?$shared_ptr@$$CBV?$tuple@W4PacketType@@KKV?$shared_ptr@$$CBV?$vector@EV?$allocator@E@std@@@std@@@std@@@std@@@std@@@std@@@std@@SAXAAV?$allocator@V?$shared_ptr@$$CBV?$tuple@W4PacketType@@KKV?$shared_ptr@$$CBV?$vector@EV?$allocator@E@std@@@std@@@std@@@std@@@std@@@1@PAV?$shared_ptr@$$CBV?$tuple@W4PacketType@@KKV?$shared_ptr@$$CBV?$vector@EV?$allocator@E@std@@@std@@@std@@@std@@@1@$$QAV31@@Z ; std::allocator_traits<std::allocator<std::shared_ptr<std::tuple<enum PacketType,unsigned long,unsigned long,std::shared_ptr<std::vector<unsigned char,std::allocator<unsigned char> > const > > const > > >::construct<std::shared_ptr<std::tuple<enum PacketType,unsigned long,unsigned long,std::shared_ptr<std::vector<unsigned char,std::allocator<unsigned char> > const > > const >,std::shared_ptr<std::tuple<enum PacketType,unsigned long,unsigned long,std::shared_ptr<std::vector<unsigned char,std::allocator<unsigned char> > const > > const > >
PUBLIC	??$_Equal@V?$_Deque_iterator@V?$_Deque_val@U?$_Deque_simple_types@V?$shared_ptr@$$CBV?$tuple@W4PacketType@@KKV?$shared_ptr@$$CBV?$vector@EV?$allocator@E@std@@@std@@@std@@@std@@@std@@@std@@@std@@@std@@U?$iterator@Urandom_access_iterator_tag@std@@V?$shared_ptr@$$CBV?$tuple@W4PacketType@@KKV?$shared_ptr@$$CBV?$vector@EV?$allocator@E@std@@@std@@@std@@@std@@@2@HPAV32@AAV32@@2@@?$_Revranit@V?$_Deque_iterator@V?$_Deque_val@U?$_Deque_simple_types@V?$shared_ptr@$$CBV?$tuple@W4PacketType@@KKV?$shared_ptr@$$CBV?$vector@EV?$allocator@E@std@@@std@@@std@@@std@@@std@@@std@@@std@@@std@@U?$iterator@Urandom_access_iterator_tag@std@@V?$shared_ptr@$$CBV?$tuple@W4PacketType@@KKV?$shared_ptr@$$CBV?$vector@EV?$allocator@E@std@@@std@@@std@@@std@@@2@HPAV32@AAV32@@2@@std@@QBE_NABV01@@Z ; std::_Revranit<std::_Deque_iterator<std::_Deque_val<std::_Deque_simple_types<std::shared_ptr<std::tuple<enum PacketType,unsigned long,unsigned long,std::shared_ptr<std::vector<unsigned char,std::allocator<unsigned char> > const > > const > > > >,std::iterator<std::random_access_iterator_tag,std::shared_ptr<std::tuple<enum PacketType,unsigned long,unsigned long,std::shared_ptr<std::vector<unsigned char,std::allocator<unsigned char> > const > > const >,int,std::shared_ptr<std::tuple<enum PacketType,unsigned long,unsigned long,std::shared_ptr<std::vector<unsigned char,std::allocator<unsigned char> > const > > const > *,std::shared_ptr<std::tuple<enum PacketType,unsigned long,unsigned long,std::shared_ptr<std::vector<unsigned char,std::allocator<unsigned char> > const > > const > &> >::_Equal<std::_Deque_iterator<std::_Deque_val<std::_Deque_simple_types<std::shared_ptr<std::tuple<enum PacketType,unsigned long,unsigned long,std::shared_ptr<std::vector<unsigned char,std::allocator<unsigned char> > const > > const > > > >,std::iterator<std::random_access_iterator_tag,std::shared_ptr<std::tuple<enum PacketType,unsigned long,unsigned long,std::shared_ptr<std::vector<unsigned char,std::allocator<unsigned char> > const > > const >,int,std::shared_ptr<std::tuple<enum PacketType,unsigned long,unsigned long,std::shared_ptr<std::vector<unsigned char,std::allocator<unsigned char> > const > > const > *,std::shared_ptr<std::tuple<enum PacketType,unsigned long,unsigned long,std::shared_ptr<std::vector<unsigned char,std::allocator<unsigned char> > const > > const > &> >
PUBLIC	??$construct@KAAK@?$allocator_traits@V?$allocator@K@std@@@std@@SAXAAV?$allocator@K@1@PAKAAK@Z ; std::allocator_traits<std::allocator<unsigned long> >::construct<unsigned long,unsigned long &>
PUBLIC	??$construct@U?$pair@V?$unique_ptr@XUThreadCloser@@@std@@V?$shared_ptr@X@2@@std@@V?$unique_ptr@XUThreadCloser@@@2@AAV?$shared_ptr@X@2@@?$allocator_traits@V?$allocator@U?$pair@V?$unique_ptr@XUThreadCloser@@@std@@V?$shared_ptr@X@2@@std@@@std@@@std@@SAXAAV?$allocator@U?$pair@V?$unique_ptr@XUThreadCloser@@@std@@V?$shared_ptr@X@2@@std@@@1@PAU?$pair@V?$unique_ptr@XUThreadCloser@@@std@@V?$shared_ptr@X@2@@1@$$QAV?$unique_ptr@XUThreadCloser@@@1@AAV?$shared_ptr@X@1@@Z ; std::allocator_traits<std::allocator<std::pair<std::unique_ptr<void,ThreadCloser>,std::shared_ptr<void> > > >::construct<std::pair<std::unique_ptr<void,ThreadCloser>,std::shared_ptr<void> >,std::unique_ptr<void,ThreadCloser>,std::shared_ptr<void> &>
PUBLIC	??$emplace_back@AAV?$shared_ptr@$$CBV?$tuple@W4PacketType@@KKV?$shared_ptr@$$CBV?$vector@EV?$allocator@E@std@@@std@@@std@@@std@@@std@@@?$deque@V?$shared_ptr@$$CBV?$tuple@W4PacketType@@KKV?$shared_ptr@$$CBV?$vector@EV?$allocator@E@std@@@std@@@std@@@std@@@std@@V?$allocator@V?$shared_ptr@$$CBV?$tuple@W4PacketType@@KKV?$shared_ptr@$$CBV?$vector@EV?$allocator@E@std@@@std@@@std@@@std@@@std@@@2@@std@@QAEXAAV?$shared_ptr@$$CBV?$tuple@W4PacketType@@KKV?$shared_ptr@$$CBV?$vector@EV?$allocator@E@std@@@std@@@std@@@std@@@1@@Z ; std::deque<std::shared_ptr<std::tuple<enum PacketType,unsigned long,unsigned long,std::shared_ptr<std::vector<unsigned char,std::allocator<unsigned char> > const > > const >,std::allocator<std::shared_ptr<std::tuple<enum PacketType,unsigned long,unsigned long,std::shared_ptr<std::vector<unsigned char,std::allocator<unsigned char> > const > > const > > >::emplace_back<std::shared_ptr<std::tuple<enum PacketType,unsigned long,unsigned long,std::shared_ptr<std::vector<unsigned char,std::allocator<unsigned char> > const > > const > &>
PUBLIC	??$_Resetp@XP6AXPAX@Z@?$shared_ptr@X@std@@AAEXPAXP6AX0@Z@Z ; std::shared_ptr<void>::_Resetp<void,void (__cdecl*)(void *)>
PUBLIC	??$construct@U?$pair@KV?$_List_iterator@V?$_List_val@U?$_List_simple_types@V?$shared_ptr@$$CBV?$tuple@W4PacketType@@KKV?$shared_ptr@$$CBV?$vector@EV?$allocator@E@std@@@std@@@std@@@std@@@std@@@std@@@std@@@std@@@std@@AAKAAV?$_List_iterator@V?$_List_val@U?$_List_simple_types@V?$shared_ptr@$$CBV?$tuple@W4PacketType@@KKV?$shared_ptr@$$CBV?$vector@EV?$allocator@E@std@@@std@@@std@@@std@@@std@@@std@@@std@@@2@@?$allocator_traits@V?$allocator@U?$pair@KV?$_List_iterator@V?$_List_val@U?$_List_simple_types@V?$shared_ptr@$$CBV?$tuple@W4PacketType@@KKV?$shared_ptr@$$CBV?$vector@EV?$allocator@E@std@@@std@@@std@@@std@@@std@@@std@@@std@@@std@@@std@@@std@@@std@@SAXAAV?$allocator@U?$pair@KV?$_List_iterator@V?$_List_val@U?$_List_simple_types@V?$shared_ptr@$$CBV?$tuple@W4PacketType@@KKV?$shared_ptr@$$CBV?$vector@EV?$allocator@E@std@@@std@@@std@@@std@@@std@@@std@@@std@@@std@@@std@@@1@PAU?$pair@KV?$_List_iterator@V?$_List_val@U?$_List_simple_types@V?$shared_ptr@$$CBV?$tuple@W4PacketType@@KKV?$shared_ptr@$$CBV?$vector@EV?$allocator@E@std@@@std@@@std@@@std@@@std@@@std@@@std@@@std@@@1@AAKAAV?$_List_iterator@V?$_List_val@U?$_List_simple_types@V?$shared_ptr@$$CBV?$tuple@W4PacketType@@KKV?$shared_ptr@$$CBV?$vector@EV?$allocator@E@std@@@std@@@std@@@std@@@std@@@std@@@std@@@1@@Z ; std::allocator_traits<std::allocator<std::pair<unsigned long,std::_List_iterator<std::_List_val<std::_List_simple_types<std::shared_ptr<std::tuple<enum PacketType,unsigned long,unsigned long,std::shared_ptr<std::vector<unsigned char,std::allocator<unsigned char> > const > > const > > > > > > >::construct<std::pair<unsigned long,std::_List_iterator<std::_List_val<std::_List_simple_types<std::shared_ptr<std::tuple<enum PacketType,unsigned long,unsigned long,std::shared_ptr<std::vector<unsigned char,std::allocator<unsigned char> > const > > const > > > > >,unsigned long &,std::_List_iterator<std::_List_val<std::_List_simple_types<std::shared_ptr<std::tuple<enum PacketType,unsigned long,unsigned long,std::shared_ptr<std::vector<unsigned char,std::allocator<unsigned char> > const > > const > > > > &>
PUBLIC	??$_Buynode@V?$shared_ptr@$$CBV?$tuple@W4PacketType@@KKV?$shared_ptr@$$CBV?$vector@EV?$allocator@E@std@@@std@@@std@@@std@@@std@@@?$_List_buy@V?$shared_ptr@$$CBV?$tuple@W4PacketType@@KKV?$shared_ptr@$$CBV?$vector@EV?$allocator@E@std@@@std@@@std@@@std@@@std@@V?$allocator@V?$shared_ptr@$$CBV?$tuple@W4PacketType@@KKV?$shared_ptr@$$CBV?$vector@EV?$allocator@E@std@@@std@@@std@@@std@@@std@@@2@@std@@QAEPAU?$_List_node@V?$shared_ptr@$$CBV?$tuple@W4PacketType@@KKV?$shared_ptr@$$CBV?$vector@EV?$allocator@E@std@@@std@@@std@@@std@@@std@@PAX@1@PAU21@0$$QAV?$shared_ptr@$$CBV?$tuple@W4PacketType@@KKV?$shared_ptr@$$CBV?$vector@EV?$allocator@E@std@@@std@@@std@@@std@@@1@@Z ; std::_List_buy<std::shared_ptr<std::tuple<enum PacketType,unsigned long,unsigned long,std::shared_ptr<std::vector<unsigned char,std::allocator<unsigned char> > const > > const >,std::allocator<std::shared_ptr<std::tuple<enum PacketType,unsigned long,unsigned long,std::shared_ptr<std::vector<unsigned char,std::allocator<unsigned char> > const > > const > > >::_Buynode<std::shared_ptr<std::tuple<enum PacketType,unsigned long,unsigned long,std::shared_ptr<std::vector<unsigned char,std::allocator<unsigned char> > const > > const > >
PUBLIC	??$?0AAW4PacketType@@AAKAAKAAV?$shared_ptr@$$CBV?$vector@EV?$allocator@E@std@@@std@@@std@@PAPAX@?$tuple@W4PacketType@@KKV?$shared_ptr@$$CBV?$vector@EV?$allocator@E@std@@@std@@@std@@@std@@QAE@AAW4PacketType@@AAK1AAV?$shared_ptr@$$CBV?$vector@EV?$allocator@E@std@@@std@@@1@@Z ; std::tuple<enum PacketType,unsigned long,unsigned long,std::shared_ptr<std::vector<unsigned char,std::allocator<unsigned char> > const > >::tuple<enum PacketType,unsigned long,unsigned long,std::shared_ptr<std::vector<unsigned char,std::allocator<unsigned char> > const > ><enum PacketType &,unsigned long &,unsigned long &,std::shared_ptr<std::vector<unsigned char,std::allocator<unsigned char> > const > &,void * *>
PUBLIC	??$?0PBEX@?$vector@EV?$allocator@E@std@@@std@@QAE@PBE0@Z ; std::vector<unsigned char,std::allocator<unsigned char> >::vector<unsigned char,std::allocator<unsigned char> ><unsigned char const *,void>
PUBLIC	?max_size@?$allocator@U?$_List_node@V?$shared_ptr@$$CBV?$tuple@W4PacketType@@KKV?$shared_ptr@$$CBV?$vector@EV?$allocator@E@std@@@std@@@std@@@std@@@std@@PAX@std@@@std@@QBEIXZ ; std::allocator<std::_List_node<std::shared_ptr<std::tuple<enum PacketType,unsigned long,unsigned long,std::shared_ptr<std::vector<unsigned char,std::allocator<unsigned char> > const > > const >,void *> >::max_size
PUBLIC	?max_size@?$allocator_traits@V?$allocator@U?$_List_node@V?$shared_ptr@$$CBV?$tuple@W4PacketType@@KKV?$shared_ptr@$$CBV?$vector@EV?$allocator@E@std@@@std@@@std@@@std@@@std@@PAX@std@@@std@@@std@@SAIABV?$allocator@U?$_List_node@V?$shared_ptr@$$CBV?$tuple@W4PacketType@@KKV?$shared_ptr@$$CBV?$vector@EV?$allocator@E@std@@@std@@@std@@@std@@@std@@PAX@std@@@2@@Z ; std::allocator_traits<std::allocator<std::_List_node<std::shared_ptr<std::tuple<enum PacketType,unsigned long,unsigned long,std::shared_ptr<std::vector<unsigned char,std::allocator<unsigned char> > const > > const >,void *> > >::max_size
PUBLIC	?max_size@?$_Wrap_alloc@V?$allocator@U?$_List_node@V?$shared_ptr@$$CBV?$tuple@W4PacketType@@KKV?$shared_ptr@$$CBV?$vector@EV?$allocator@E@std@@@std@@@std@@@std@@@std@@PAX@std@@@std@@@std@@QBEIXZ ; std::_Wrap_alloc<std::allocator<std::_List_node<std::shared_ptr<std::tuple<enum PacketType,unsigned long,unsigned long,std::shared_ptr<std::vector<unsigned char,std::allocator<unsigned char> > const > > const >,void *> > >::max_size
PUBLIC	??E?$_Deque_iterator@V?$_Deque_val@U?$_Deque_simple_types@V?$shared_ptr@$$CBV?$tuple@W4PacketType@@KKV?$shared_ptr@$$CBV?$vector@EV?$allocator@E@std@@@std@@@std@@@std@@@std@@@std@@@std@@@std@@QAEAAV01@XZ ; std::_Deque_iterator<std::_Deque_val<std::_Deque_simple_types<std::shared_ptr<std::tuple<enum PacketType,unsigned long,unsigned long,std::shared_ptr<std::vector<unsigned char,std::allocator<unsigned char> > const > > const > > > >::operator++
PUBLIC	??8?$_Deque_const_iterator@V?$_Deque_val@U?$_Deque_simple_types@U?$pair@KV?$_List_iterator@V?$_List_val@U?$_List_simple_types@V?$shared_ptr@$$CBV?$tuple@W4PacketType@@KKV?$shared_ptr@$$CBV?$vector@EV?$allocator@E@std@@@std@@@std@@@std@@@std@@@std@@@std@@@std@@@std@@@std@@@std@@@std@@QBE_NABV01@@Z ; std::_Deque_const_iterator<std::_Deque_val<std::_Deque_simple_types<std::pair<unsigned long,std::_List_iterator<std::_List_val<std::_List_simple_types<std::shared_ptr<std::tuple<enum PacketType,unsigned long,unsigned long,std::shared_ptr<std::vector<unsigned char,std::allocator<unsigned char> > const > > const > > > > > > > >::operator==
PUBLIC	??F?$_Deque_const_iterator@V?$_Deque_val@U?$_Deque_simple_types@U?$pair@KV?$_List_iterator@V?$_List_val@U?$_List_simple_types@V?$shared_ptr@$$CBV?$tuple@W4PacketType@@KKV?$shared_ptr@$$CBV?$vector@EV?$allocator@E@std@@@std@@@std@@@std@@@std@@@std@@@std@@@std@@@std@@@std@@@std@@@std@@QAEAAV01@XZ ; std::_Deque_const_iterator<std::_Deque_val<std::_Deque_simple_types<std::pair<unsigned long,std::_List_iterator<std::_List_val<std::_List_simple_types<std::shared_ptr<std::tuple<enum PacketType,unsigned long,unsigned long,std::shared_ptr<std::vector<unsigned char,std::allocator<unsigned char> > const > > const > > > > > > > >::operator--
PUBLIC	??E?$_Deque_const_iterator@V?$_Deque_val@U?$_Deque_simple_types@U?$pair@KV?$_List_iterator@V?$_List_val@U?$_List_simple_types@V?$shared_ptr@$$CBV?$tuple@W4PacketType@@KKV?$shared_ptr@$$CBV?$vector@EV?$allocator@E@std@@@std@@@std@@@std@@@std@@@std@@@std@@@std@@@std@@@std@@@std@@@std@@QAEAAV01@XZ ; std::_Deque_const_iterator<std::_Deque_val<std::_Deque_simple_types<std::pair<unsigned long,std::_List_iterator<std::_List_val<std::_List_simple_types<std::shared_ptr<std::tuple<enum PacketType,unsigned long,unsigned long,std::shared_ptr<std::vector<unsigned char,std::allocator<unsigned char> > const > > const > > > > > > > >::operator++
PUBLIC	?_Reset0@?$_Ptr_base@X@std@@QAEXPAXPAV_Ref_count_base@2@@Z ; std::_Ptr_base<void>::_Reset0
PUBLIC	??D?$_List_const_iterator@V?$_List_val@U?$_List_simple_types@V?$shared_ptr@$$CBV?$tuple@W4PacketType@@KKV?$shared_ptr@$$CBV?$vector@EV?$allocator@E@std@@@std@@@std@@@std@@@std@@@std@@@std@@@std@@QBEABV?$shared_ptr@$$CBV?$tuple@W4PacketType@@KKV?$shared_ptr@$$CBV?$vector@EV?$allocator@E@std@@@std@@@std@@@std@@@1@XZ ; std::_List_const_iterator<std::_List_val<std::_List_simple_types<std::shared_ptr<std::tuple<enum PacketType,unsigned long,unsigned long,std::shared_ptr<std::vector<unsigned char,std::allocator<unsigned char> > const > > const > > > >::operator*
PUBLIC	?max_size@?$list@V?$shared_ptr@$$CBV?$tuple@W4PacketType@@KKV?$shared_ptr@$$CBV?$vector@EV?$allocator@E@std@@@std@@@std@@@std@@@std@@V?$allocator@V?$shared_ptr@$$CBV?$tuple@W4PacketType@@KKV?$shared_ptr@$$CBV?$vector@EV?$allocator@E@std@@@std@@@std@@@std@@@std@@@2@@std@@QBEIXZ ; std::list<std::shared_ptr<std::tuple<enum PacketType,unsigned long,unsigned long,std::shared_ptr<std::vector<unsigned char,std::allocator<unsigned char> > const > > const >,std::allocator<std::shared_ptr<std::tuple<enum PacketType,unsigned long,unsigned long,std::shared_ptr<std::vector<unsigned char,std::allocator<unsigned char> > const > > const > > >::max_size
PUBLIC	??E?$move_iterator@V?$_Deque_iterator@V?$_Deque_val@U?$_Deque_simple_types@V?$shared_ptr@$$CBV?$tuple@W4PacketType@@KKV?$shared_ptr@$$CBV?$vector@EV?$allocator@E@std@@@std@@@std@@@std@@@std@@@std@@@std@@@std@@@std@@QAEAAV01@XZ ; std::move_iterator<std::_Deque_iterator<std::_Deque_val<std::_Deque_simple_types<std::shared_ptr<std::tuple<enum PacketType,unsigned long,unsigned long,std::shared_ptr<std::vector<unsigned char,std::allocator<unsigned char> > const > > const > > > > >::operator++
PUBLIC	??D?$move_iterator@V?$_Deque_iterator@V?$_Deque_val@U?$_Deque_simple_types@V?$shared_ptr@$$CBV?$tuple@W4PacketType@@KKV?$shared_ptr@$$CBV?$vector@EV?$allocator@E@std@@@std@@@std@@@std@@@std@@@std@@@std@@@std@@@std@@QBE$$QAV?$shared_ptr@$$CBV?$tuple@W4PacketType@@KKV?$shared_ptr@$$CBV?$vector@EV?$allocator@E@std@@@std@@@std@@@std@@@1@XZ ; std::move_iterator<std::_Deque_iterator<std::_Deque_val<std::_Deque_simple_types<std::shared_ptr<std::tuple<enum PacketType,unsigned long,unsigned long,std::shared_ptr<std::vector<unsigned char,std::allocator<unsigned char> > const > > const > > > > >::operator*
PUBLIC	?release@?$unique_ptr@UReplayBuffer@@U?$default_delete@UReplayBuffer@@@std@@@std@@QAEPAUReplayBuffer@@XZ ; std::unique_ptr<ReplayBuffer,std::default_delete<ReplayBuffer> >::release
PUBLIC	??9?$_Deque_const_iterator@V?$_Deque_val@U?$_Deque_simple_types@U?$pair@KV?$_List_iterator@V?$_List_val@U?$_List_simple_types@V?$shared_ptr@$$CBV?$tuple@W4PacketType@@KKV?$shared_ptr@$$CBV?$vector@EV?$allocator@E@std@@@std@@@std@@@std@@@std@@@std@@@std@@@std@@@std@@@std@@@std@@@std@@QBE_NABV01@@Z ; std::_Deque_const_iterator<std::_Deque_val<std::_Deque_simple_types<std::pair<unsigned long,std::_List_iterator<std::_List_val<std::_List_simple_types<std::shared_ptr<std::tuple<enum PacketType,unsigned long,unsigned long,std::shared_ptr<std::vector<unsigned char,std::allocator<unsigned char> > const > > const > > > > > > > >::operator!=
PUBLIC	??F?$_Deque_iterator@V?$_Deque_val@U?$_Deque_simple_types@U?$pair@KV?$_List_iterator@V?$_List_val@U?$_List_simple_types@V?$shared_ptr@$$CBV?$tuple@W4PacketType@@KKV?$shared_ptr@$$CBV?$vector@EV?$allocator@E@std@@@std@@@std@@@std@@@std@@@std@@@std@@@std@@@std@@@std@@@std@@@std@@QAEAAV01@XZ ; std::_Deque_iterator<std::_Deque_val<std::_Deque_simple_types<std::pair<unsigned long,std::_List_iterator<std::_List_val<std::_List_simple_types<std::shared_ptr<std::tuple<enum PacketType,unsigned long,unsigned long,std::shared_ptr<std::vector<unsigned char,std::allocator<unsigned char> > const > > const > > > > > > > >::operator--
PUBLIC	??E?$_Deque_iterator@V?$_Deque_val@U?$_Deque_simple_types@U?$pair@KV?$_List_iterator@V?$_List_val@U?$_List_simple_types@V?$shared_ptr@$$CBV?$tuple@W4PacketType@@KKV?$shared_ptr@$$CBV?$vector@EV?$allocator@E@std@@@std@@@std@@@std@@@std@@@std@@@std@@@std@@@std@@@std@@@std@@@std@@QAEAAV01@XZ ; std::_Deque_iterator<std::_Deque_val<std::_Deque_simple_types<std::pair<unsigned long,std::_List_iterator<std::_List_val<std::_List_simple_types<std::shared_ptr<std::tuple<enum PacketType,unsigned long,unsigned long,std::shared_ptr<std::vector<unsigned char,std::allocator<unsigned char> > const > > const > > > > > > > >::operator++
PUBLIC	?_Reset@?$_Ptr_base@X@std@@QAEXPAXPAV_Ref_count_base@2@@Z ; std::_Ptr_base<void>::_Reset
PUBLIC	?end@?$vector@KV?$allocator@K@std@@@std@@QBE?AV?$_Vector_const_iterator@V?$_Vector_val@U?$_Simple_types@K@std@@@std@@@2@XZ ; std::vector<unsigned long,std::allocator<unsigned long> >::end
PUBLIC	?begin@?$vector@KV?$allocator@K@std@@@std@@QBE?AV?$_Vector_const_iterator@V?$_Vector_val@U?$_Simple_types@K@std@@@std@@@2@XZ ; std::vector<unsigned long,std::allocator<unsigned long> >::begin
PUBLIC	??E?$_List_iterator@V?$_List_val@U?$_List_simple_types@V?$shared_ptr@$$CBV?$tuple@W4PacketType@@KKV?$shared_ptr@$$CBV?$vector@EV?$allocator@E@std@@@std@@@std@@@std@@@std@@@std@@@std@@@std@@QAEAAV01@XZ ; std::_List_iterator<std::_List_val<std::_List_simple_types<std::shared_ptr<std::tuple<enum PacketType,unsigned long,unsigned long,std::shared_ptr<std::vector<unsigned char,std::allocator<unsigned char> > const > > const > > > >::operator++
PUBLIC	??D?$_List_iterator@V?$_List_val@U?$_List_simple_types@V?$shared_ptr@$$CBV?$tuple@W4PacketType@@KKV?$shared_ptr@$$CBV?$vector@EV?$allocator@E@std@@@std@@@std@@@std@@@std@@@std@@@std@@@std@@QBEAAV?$shared_ptr@$$CBV?$tuple@W4PacketType@@KKV?$shared_ptr@$$CBV?$vector@EV?$allocator@E@std@@@std@@@std@@@std@@@1@XZ ; std::_List_iterator<std::_List_val<std::_List_simple_types<std::shared_ptr<std::tuple<enum PacketType,unsigned long,unsigned long,std::shared_ptr<std::vector<unsigned char,std::allocator<unsigned char> > const > > const > > > >::operator*
PUBLIC	??4?$pair@KV?$_List_iterator@V?$_List_val@U?$_List_simple_types@V?$shared_ptr@$$CBV?$tuple@W4PacketType@@KKV?$shared_ptr@$$CBV?$vector@EV?$allocator@E@std@@@std@@@std@@@std@@@std@@@std@@@std@@@std@@@std@@QAEAAU01@$$QAU01@@Z ; std::pair<unsigned long,std::_List_iterator<std::_List_val<std::_List_simple_types<std::shared_ptr<std::tuple<enum PacketType,unsigned long,unsigned long,std::shared_ptr<std::vector<unsigned char,std::allocator<unsigned char> > const > > const > > > > >::operator=
PUBLIC	?_Incsize@?$list@V?$shared_ptr@$$CBV?$tuple@W4PacketType@@KKV?$shared_ptr@$$CBV?$vector@EV?$allocator@E@std@@@std@@@std@@@std@@@std@@V?$allocator@V?$shared_ptr@$$CBV?$tuple@W4PacketType@@KKV?$shared_ptr@$$CBV?$vector@EV?$allocator@E@std@@@std@@@std@@@std@@@std@@@2@@std@@QAEXI@Z ; std::list<std::shared_ptr<std::tuple<enum PacketType,unsigned long,unsigned long,std::shared_ptr<std::vector<unsigned char,std::allocator<unsigned char> > const > > const >,std::allocator<std::shared_ptr<std::tuple<enum PacketType,unsigned long,unsigned long,std::shared_ptr<std::vector<unsigned char,std::allocator<unsigned char> > const > > const > > >::_Incsize
PUBLIC	??1?$_Ref_count_obj@$$CBV?$tuple@W4PacketType@@KKV?$shared_ptr@$$CBV?$vector@EV?$allocator@E@std@@@std@@@std@@@std@@@std@@UAE@XZ ; std::_Ref_count_obj<std::tuple<enum PacketType,unsigned long,unsigned long,std::shared_ptr<std::vector<unsigned char,std::allocator<unsigned char> > const > > const >::~_Ref_count_obj<std::tuple<enum PacketType,unsigned long,unsigned long,std::shared_ptr<std::vector<unsigned char,std::allocator<unsigned char> > const > > const >
PUBLIC	??1?$_Ref_count_obj@$$CBV?$vector@EV?$allocator@E@std@@@std@@@std@@UAE@XZ ; std::_Ref_count_obj<std::vector<unsigned char,std::allocator<unsigned char> > const >::~_Ref_count_obj<std::vector<unsigned char,std::allocator<unsigned char> > const >
PUBLIC	??_G?$_Ref_count_obj@$$CBV?$tuple@W4PacketType@@KKV?$shared_ptr@$$CBV?$vector@EV?$allocator@E@std@@@std@@@std@@@std@@@std@@UAEPAXI@Z ; std::_Ref_count_obj<std::tuple<enum PacketType,unsigned long,unsigned long,std::shared_ptr<std::vector<unsigned char,std::allocator<unsigned char> > const > > const >::`scalar deleting destructor'
PUBLIC	??_G?$_Ref_count_obj@$$CBV?$vector@EV?$allocator@E@std@@@std@@@std@@UAEPAXI@Z ; std::_Ref_count_obj<std::vector<unsigned char,std::allocator<unsigned char> > const >::`scalar deleting destructor'
PUBLIC	??$_Allocate@U?$pair@V?$unique_ptr@XUThreadCloser@@@std@@V?$shared_ptr@X@2@@std@@@std@@YAPAU?$pair@V?$unique_ptr@XUThreadCloser@@@std@@V?$shared_ptr@X@2@@0@IPAU10@@Z ; std::_Allocate<std::pair<std::unique_ptr<void,ThreadCloser>,std::shared_ptr<void> > >
PUBLIC	??$_Allocate@K@std@@YAPAKIPAK@Z			; std::_Allocate<unsigned long>
PUBLIC	??$swap@PBV?$vector@EV?$allocator@E@std@@@std@@@std@@YAXAAPBV?$vector@EV?$allocator@E@std@@@0@0@Z ; std::swap<std::vector<unsigned char,std::allocator<unsigned char> > const *>
PUBLIC	??$_Allocate@PAV?$shared_ptr@$$CBV?$tuple@W4PacketType@@KKV?$shared_ptr@$$CBV?$vector@EV?$allocator@E@std@@@std@@@std@@@std@@@std@@@std@@YAPAPAV?$shared_ptr@$$CBV?$tuple@W4PacketType@@KKV?$shared_ptr@$$CBV?$vector@EV?$allocator@E@std@@@std@@@std@@@std@@@0@IPAPAV10@@Z ; std::_Allocate<std::shared_ptr<std::tuple<enum PacketType,unsigned long,unsigned long,std::shared_ptr<std::vector<unsigned char,std::allocator<unsigned char> > const > > const > *>
PUBLIC	??$_Allocate@PAU?$pair@KV?$_List_iterator@V?$_List_val@U?$_List_simple_types@V?$shared_ptr@$$CBV?$tuple@W4PacketType@@KKV?$shared_ptr@$$CBV?$vector@EV?$allocator@E@std@@@std@@@std@@@std@@@std@@@std@@@std@@@std@@@std@@@std@@YAPAPAU?$pair@KV?$_List_iterator@V?$_List_val@U?$_List_simple_types@V?$shared_ptr@$$CBV?$tuple@W4PacketType@@KKV?$shared_ptr@$$CBV?$vector@EV?$allocator@E@std@@@std@@@std@@@std@@@std@@@std@@@std@@@std@@@0@IPAPAU10@@Z ; std::_Allocate<std::pair<unsigned long,std::_List_iterator<std::_List_val<std::_List_simple_types<std::shared_ptr<std::tuple<enum PacketType,unsigned long,unsigned long,std::shared_ptr<std::vector<unsigned char,std::allocator<unsigned char> > const > > const > > > > > *>
PUBLIC	??$forward@V?$_Ptr_base@$$CBV?$tuple@W4PacketType@@KKV?$shared_ptr@$$CBV?$vector@EV?$allocator@E@std@@@std@@@std@@@std@@@std@@@std@@YA$$QAV?$_Ptr_base@$$CBV?$tuple@W4PacketType@@KKV?$shared_ptr@$$CBV?$vector@EV?$allocator@E@std@@@std@@@std@@@std@@@0@AAV10@@Z ; std::forward<std::_Ptr_base<std::tuple<enum PacketType,unsigned long,unsigned long,std::shared_ptr<std::vector<unsigned char,std::allocator<unsigned char> > const > > const > >
PUBLIC	??$swap@PAX@std@@YAXAAPAX0@Z			; std::swap<void *>
PUBLIC	??$_Umove@PAU?$pair@V?$unique_ptr@XUThreadCloser@@@std@@V?$shared_ptr@X@2@@std@@@?$vector@U?$pair@V?$unique_ptr@XUThreadCloser@@@std@@V?$shared_ptr@X@2@@std@@V?$allocator@U?$pair@V?$unique_ptr@XUThreadCloser@@@std@@V?$shared_ptr@X@2@@std@@@2@@std@@IAEPAU?$pair@V?$unique_ptr@XUThreadCloser@@@std@@V?$shared_ptr@X@2@@1@PAU21@00@Z ; std::vector<std::pair<std::unique_ptr<void,ThreadCloser>,std::shared_ptr<void> >,std::allocator<std::pair<std::unique_ptr<void,ThreadCloser>,std::shared_ptr<void> > > >::_Umove<std::pair<std::unique_ptr<void,ThreadCloser>,std::shared_ptr<void> > *>
PUBLIC	??$_Umove@PAK@?$vector@KV?$allocator@K@std@@@std@@IAEPAKPAK00@Z ; std::vector<unsigned long,std::allocator<unsigned long> >::_Umove<unsigned long *>
PUBLIC	??$_Allocate@U?$pair@KV?$_List_iterator@V?$_List_val@U?$_List_simple_types@V?$shared_ptr@$$CBV?$tuple@W4PacketType@@KKV?$shared_ptr@$$CBV?$vector@EV?$allocator@E@std@@@std@@@std@@@std@@@std@@@std@@@std@@@std@@@std@@@std@@YAPAU?$pair@KV?$_List_iterator@V?$_List_val@U?$_List_simple_types@V?$shared_ptr@$$CBV?$tuple@W4PacketType@@KKV?$shared_ptr@$$CBV?$vector@EV?$allocator@E@std@@@std@@@std@@@std@@@std@@@std@@@std@@@std@@@0@IPAU10@@Z ; std::_Allocate<std::pair<unsigned long,std::_List_iterator<std::_List_val<std::_List_simple_types<std::shared_ptr<std::tuple<enum PacketType,unsigned long,unsigned long,std::shared_ptr<std::vector<unsigned char,std::allocator<unsigned char> > const > > const > > > > > >
PUBLIC	??$_Allocate@V?$shared_ptr@$$CBV?$tuple@W4PacketType@@KKV?$shared_ptr@$$CBV?$vector@EV?$allocator@E@std@@@std@@@std@@@std@@@std@@@std@@YAPAV?$shared_ptr@$$CBV?$tuple@W4PacketType@@KKV?$shared_ptr@$$CBV?$vector@EV?$allocator@E@std@@@std@@@std@@@std@@@0@IPAV10@@Z ; std::_Allocate<std::shared_ptr<std::tuple<enum PacketType,unsigned long,unsigned long,std::shared_ptr<std::vector<unsigned char,std::allocator<unsigned char> > const > > const > >
PUBLIC	??$forward@V?$_Ptr_base@$$CBV?$vector@EV?$allocator@E@std@@@std@@@std@@@std@@YA$$QAV?$_Ptr_base@$$CBV?$vector@EV?$allocator@E@std@@@std@@@0@AAV10@@Z ; std::forward<std::_Ptr_base<std::vector<unsigned char,std::allocator<unsigned char> > const > >
PUBLIC	??$_Swap_adl@U?$ThreadDeleter@$0DOI@@@@std@@YAXAAU?$ThreadDeleter@$0DOI@@@0@Z ; std::_Swap_adl<ThreadDeleter<1000> >
PUBLIC	??$_Swap_adl@PAX@std@@YAXAAPAX0@Z		; std::_Swap_adl<void *>
PUBLIC	??$_Destroy_range@U?$_Wrap_alloc@V?$allocator@PAV?$shared_ptr@$$CBV?$tuple@W4PacketType@@KKV?$shared_ptr@$$CBV?$vector@EV?$allocator@E@std@@@std@@@std@@@std@@@std@@@std@@@std@@@std@@YAXPAPAV?$shared_ptr@$$CBV?$tuple@W4PacketType@@KKV?$shared_ptr@$$CBV?$vector@EV?$allocator@E@std@@@std@@@std@@@std@@@0@0AAU?$_Wrap_alloc@V?$allocator@PAV?$shared_ptr@$$CBV?$tuple@W4PacketType@@KKV?$shared_ptr@$$CBV?$vector@EV?$allocator@E@std@@@std@@@std@@@std@@@std@@@std@@@0@@Z ; std::_Destroy_range<std::_Wrap_alloc<std::allocator<std::shared_ptr<std::tuple<enum PacketType,unsigned long,unsigned long,std::shared_ptr<std::vector<unsigned char,std::allocator<unsigned char> > const > > const > *> > >
PUBLIC	??$_Uninitialized_default_fill_n@PAPAV?$shared_ptr@$$CBV?$tuple@W4PacketType@@KKV?$shared_ptr@$$CBV?$vector@EV?$allocator@E@std@@@std@@@std@@@std@@@std@@IU?$_Wrap_alloc@V?$allocator@PAV?$shared_ptr@$$CBV?$tuple@W4PacketType@@KKV?$shared_ptr@$$CBV?$vector@EV?$allocator@E@std@@@std@@@std@@@std@@@std@@@std@@@2@@std@@YAXPAPAV?$shared_ptr@$$CBV?$tuple@W4PacketType@@KKV?$shared_ptr@$$CBV?$vector@EV?$allocator@E@std@@@std@@@std@@@std@@@0@IAAU?$_Wrap_alloc@V?$allocator@PAV?$shared_ptr@$$CBV?$tuple@W4PacketType@@KKV?$shared_ptr@$$CBV?$vector@EV?$allocator@E@std@@@std@@@std@@@std@@@std@@@std@@@0@@Z ; std::_Uninitialized_default_fill_n<std::shared_ptr<std::tuple<enum PacketType,unsigned long,unsigned long,std::shared_ptr<std::vector<unsigned char,std::allocator<unsigned char> > const > > const > * *,unsigned int,std::_Wrap_alloc<std::allocator<std::shared_ptr<std::tuple<enum PacketType,unsigned long,unsigned long,std::shared_ptr<std::vector<unsigned char,std::allocator<unsigned char> > const > > const > *> > >
PUBLIC	??$_Uninitialized_copy@PAPAV?$shared_ptr@$$CBV?$tuple@W4PacketType@@KKV?$shared_ptr@$$CBV?$vector@EV?$allocator@E@std@@@std@@@std@@@std@@@std@@PAPAV12@U?$_Wrap_alloc@V?$allocator@PAV?$shared_ptr@$$CBV?$tuple@W4PacketType@@KKV?$shared_ptr@$$CBV?$vector@EV?$allocator@E@std@@@std@@@std@@@std@@@std@@@std@@@2@@std@@YAPAPAV?$shared_ptr@$$CBV?$tuple@W4PacketType@@KKV?$shared_ptr@$$CBV?$vector@EV?$allocator@E@std@@@std@@@std@@@std@@@0@PAPAV10@00AAU?$_Wrap_alloc@V?$allocator@PAV?$shared_ptr@$$CBV?$tuple@W4PacketType@@KKV?$shared_ptr@$$CBV?$vector@EV?$allocator@E@std@@@std@@@std@@@std@@@std@@@std@@@0@@Z ; std::_Uninitialized_copy<std::shared_ptr<std::tuple<enum PacketType,unsigned long,unsigned long,std::shared_ptr<std::vector<unsigned char,std::allocator<unsigned char> > const > > const > * *,std::shared_ptr<std::tuple<enum PacketType,unsigned long,unsigned long,std::shared_ptr<std::vector<unsigned char,std::allocator<unsigned char> > const > > const > * *,std::_Wrap_alloc<std::allocator<std::shared_ptr<std::tuple<enum PacketType,unsigned long,unsigned long,std::shared_ptr<std::vector<unsigned char,std::allocator<unsigned char> > const > > const > *> > >
PUBLIC	??$_Reset@X@?$_Ptr_base@X@std@@QAEXABV01@@Z	; std::_Ptr_base<void>::_Reset<void>
PUBLIC	??$_Destroy_range@U?$_Wrap_alloc@V?$allocator@PAU?$pair@KV?$_List_iterator@V?$_List_val@U?$_List_simple_types@V?$shared_ptr@$$CBV?$tuple@W4PacketType@@KKV?$shared_ptr@$$CBV?$vector@EV?$allocator@E@std@@@std@@@std@@@std@@@std@@@std@@@std@@@std@@@std@@@std@@@std@@@std@@YAXPAPAU?$pair@KV?$_List_iterator@V?$_List_val@U?$_List_simple_types@V?$shared_ptr@$$CBV?$tuple@W4PacketType@@KKV?$shared_ptr@$$CBV?$vector@EV?$allocator@E@std@@@std@@@std@@@std@@@std@@@std@@@std@@@std@@@0@0AAU?$_Wrap_alloc@V?$allocator@PAU?$pair@KV?$_List_iterator@V?$_List_val@U?$_List_simple_types@V?$shared_ptr@$$CBV?$tuple@W4PacketType@@KKV?$shared_ptr@$$CBV?$vector@EV?$allocator@E@std@@@std@@@std@@@std@@@std@@@std@@@std@@@std@@@std@@@std@@@0@@Z ; std::_Destroy_range<std::_Wrap_alloc<std::allocator<std::pair<unsigned long,std::_List_iterator<std::_List_val<std::_List_simple_types<std::shared_ptr<std::tuple<enum PacketType,unsigned long,unsigned long,std::shared_ptr<std::vector<unsigned char,std::allocator<unsigned char> > const > > const > > > > > *> > >
PUBLIC	??$_Uninitialized_default_fill_n@PAPAU?$pair@KV?$_List_iterator@V?$_List_val@U?$_List_simple_types@V?$shared_ptr@$$CBV?$tuple@W4PacketType@@KKV?$shared_ptr@$$CBV?$vector@EV?$allocator@E@std@@@std@@@std@@@std@@@std@@@std@@@std@@@std@@@std@@IU?$_Wrap_alloc@V?$allocator@PAU?$pair@KV?$_List_iterator@V?$_List_val@U?$_List_simple_types@V?$shared_ptr@$$CBV?$tuple@W4PacketType@@KKV?$shared_ptr@$$CBV?$vector@EV?$allocator@E@std@@@std@@@std@@@std@@@std@@@std@@@std@@@std@@@std@@@std@@@2@@std@@YAXPAPAU?$pair@KV?$_List_iterator@V?$_List_val@U?$_List_simple_types@V?$shared_ptr@$$CBV?$tuple@W4PacketType@@KKV?$shared_ptr@$$CBV?$vector@EV?$allocator@E@std@@@std@@@std@@@std@@@std@@@std@@@std@@@std@@@0@IAAU?$_Wrap_alloc@V?$allocator@PAU?$pair@KV?$_List_iterator@V?$_List_val@U?$_List_simple_types@V?$shared_ptr@$$CBV?$tuple@W4PacketType@@KKV?$shared_ptr@$$CBV?$vector@EV?$allocator@E@std@@@std@@@std@@@std@@@std@@@std@@@std@@@std@@@std@@@std@@@0@@Z ; std::_Uninitialized_default_fill_n<std::pair<unsigned long,std::_List_iterator<std::_List_val<std::_List_simple_types<std::shared_ptr<std::tuple<enum PacketType,unsigned long,unsigned long,std::shared_ptr<std::vector<unsigned char,std::allocator<unsigned char> > const > > const > > > > > * *,unsigned int,std::_Wrap_alloc<std::allocator<std::pair<unsigned long,std::_List_iterator<std::_List_val<std::_List_simple_types<std::shared_ptr<std::tuple<enum PacketType,unsigned long,unsigned long,std::shared_ptr<std::vector<unsigned char,std::allocator<unsigned char> > const > > const > > > > > *> > >
PUBLIC	??$_Uninitialized_copy@PAPAU?$pair@KV?$_List_iterator@V?$_List_val@U?$_List_simple_types@V?$shared_ptr@$$CBV?$tuple@W4PacketType@@KKV?$shared_ptr@$$CBV?$vector@EV?$allocator@E@std@@@std@@@std@@@std@@@std@@@std@@@std@@@std@@@std@@PAPAU12@U?$_Wrap_alloc@V?$allocator@PAU?$pair@KV?$_List_iterator@V?$_List_val@U?$_List_simple_types@V?$shared_ptr@$$CBV?$tuple@W4PacketType@@KKV?$shared_ptr@$$CBV?$vector@EV?$allocator@E@std@@@std@@@std@@@std@@@std@@@std@@@std@@@std@@@std@@@std@@@2@@std@@YAPAPAU?$pair@KV?$_List_iterator@V?$_List_val@U?$_List_simple_types@V?$shared_ptr@$$CBV?$tuple@W4PacketType@@KKV?$shared_ptr@$$CBV?$vector@EV?$allocator@E@std@@@std@@@std@@@std@@@std@@@std@@@std@@@std@@@0@PAPAU10@00AAU?$_Wrap_alloc@V?$allocator@PAU?$pair@KV?$_List_iterator@V?$_List_val@U?$_List_simple_types@V?$shared_ptr@$$CBV?$tuple@W4PacketType@@KKV?$shared_ptr@$$CBV?$vector@EV?$allocator@E@std@@@std@@@std@@@std@@@std@@@std@@@std@@@std@@@std@@@std@@@0@@Z ; std::_Uninitialized_copy<std::pair<unsigned long,std::_List_iterator<std::_List_val<std::_List_simple_types<std::shared_ptr<std::tuple<enum PacketType,unsigned long,unsigned long,std::shared_ptr<std::vector<unsigned char,std::allocator<unsigned char> > const > > const > > > > > * *,std::pair<unsigned long,std::_List_iterator<std::_List_val<std::_List_simple_types<std::shared_ptr<std::tuple<enum PacketType,unsigned long,unsigned long,std::shared_ptr<std::vector<unsigned char,std::allocator<unsigned char> > const > > const > > > > > * *,std::_Wrap_alloc<std::allocator<std::pair<unsigned long,std::_List_iterator<std::_List_val<std::_List_simple_types<std::shared_ptr<std::tuple<enum PacketType,unsigned long,unsigned long,std::shared_ptr<std::vector<unsigned char,std::allocator<unsigned char> > const > > const > > > > > *> > >
PUBLIC	??$forward@V?$shared_ptr@$$CBV?$vector@EV?$allocator@E@std@@@std@@@std@@@std@@YA$$QAV?$shared_ptr@$$CBV?$vector@EV?$allocator@E@std@@@std@@@0@AAV10@@Z ; std::forward<std::shared_ptr<std::vector<unsigned char,std::allocator<unsigned char> > const > >
PUBLIC	??$construct@PAU?$_List_node@V?$shared_ptr@$$CBV?$tuple@W4PacketType@@KKV?$shared_ptr@$$CBV?$vector@EV?$allocator@E@std@@@std@@@std@@@std@@@std@@PAX@std@@AAPAU12@@?$allocator_traits@V?$allocator@U?$_List_node@V?$shared_ptr@$$CBV?$tuple@W4PacketType@@KKV?$shared_ptr@$$CBV?$vector@EV?$allocator@E@std@@@std@@@std@@@std@@@std@@PAX@std@@@std@@@std@@SAXAAV?$allocator@U?$_List_node@V?$shared_ptr@$$CBV?$tuple@W4PacketType@@KKV?$shared_ptr@$$CBV?$vector@EV?$allocator@E@std@@@std@@@std@@@std@@@std@@PAX@std@@@1@PAPAU?$_List_node@V?$shared_ptr@$$CBV?$tuple@W4PacketType@@KKV?$shared_ptr@$$CBV?$vector@EV?$allocator@E@std@@@std@@@std@@@std@@@std@@PAX@1@AAPAU31@@Z ; std::allocator_traits<std::allocator<std::_List_node<std::shared_ptr<std::tuple<enum PacketType,unsigned long,unsigned long,std::shared_ptr<std::vector<unsigned char,std::allocator<unsigned char> > const > > const >,void *> > >::construct<std::_List_node<std::shared_ptr<std::tuple<enum PacketType,unsigned long,unsigned long,std::shared_ptr<std::vector<unsigned char,std::allocator<unsigned char> > const > > const >,void *> *,std::_List_node<std::shared_ptr<std::tuple<enum PacketType,unsigned long,unsigned long,std::shared_ptr<std::vector<unsigned char,std::allocator<unsigned char> > const > > const >,void *> * &>
PUBLIC	??$forward@AAPAU?$_List_node@V?$shared_ptr@$$CBV?$tuple@W4PacketType@@KKV?$shared_ptr@$$CBV?$vector@EV?$allocator@E@std@@@std@@@std@@@std@@@std@@PAX@std@@@std@@YAAAPAU?$_List_node@V?$shared_ptr@$$CBV?$tuple@W4PacketType@@KKV?$shared_ptr@$$CBV?$vector@EV?$allocator@E@std@@@std@@@std@@@std@@@std@@PAX@0@AAPAU10@@Z ; std::forward<std::_List_node<std::shared_ptr<std::tuple<enum PacketType,unsigned long,unsigned long,std::shared_ptr<std::vector<unsigned char,std::allocator<unsigned char> > const > > const >,void *> * &>
PUBLIC	??$forward@AB_N@std@@YAAB_NAB_N@Z		; std::forward<bool const &>
PUBLIC	??$swap@PAU_Container_proxy@std@@@std@@YAXAAPAU_Container_proxy@0@0@Z ; std::swap<std::_Container_proxy *>
PUBLIC	??$forward@ABV?$deque@V?$shared_ptr@$$CBV?$tuple@W4PacketType@@KKV?$shared_ptr@$$CBV?$vector@EV?$allocator@E@std@@@std@@@std@@@std@@@std@@V?$allocator@V?$shared_ptr@$$CBV?$tuple@W4PacketType@@KKV?$shared_ptr@$$CBV?$vector@EV?$allocator@E@std@@@std@@@std@@@std@@@std@@@2@@std@@@std@@YAABV?$deque@V?$shared_ptr@$$CBV?$tuple@W4PacketType@@KKV?$shared_ptr@$$CBV?$vector@EV?$allocator@E@std@@@std@@@std@@@std@@@std@@V?$allocator@V?$shared_ptr@$$CBV?$tuple@W4PacketType@@KKV?$shared_ptr@$$CBV?$vector@EV?$allocator@E@std@@@std@@@std@@@std@@@std@@@2@@0@ABV10@@Z ; std::forward<std::deque<std::shared_ptr<std::tuple<enum PacketType,unsigned long,unsigned long,std::shared_ptr<std::vector<unsigned char,std::allocator<unsigned char> > const > > const >,std::allocator<std::shared_ptr<std::tuple<enum PacketType,unsigned long,unsigned long,std::shared_ptr<std::vector<unsigned char,std::allocator<unsigned char> > const > > const > > > const &>
PUBLIC	??$_Move@AAPBV?$tuple@W4PacketType@@KKV?$shared_ptr@$$CBV?$vector@EV?$allocator@E@std@@@std@@@std@@@std@@@std@@YA$$QAPBV?$tuple@W4PacketType@@KKV?$shared_ptr@$$CBV?$vector@EV?$allocator@E@std@@@std@@@std@@@0@AAPBV10@@Z ; std::_Move<std::tuple<enum PacketType,unsigned long,unsigned long,std::shared_ptr<std::vector<unsigned char,std::allocator<unsigned char> > const > > const * &>
PUBLIC	??$_Move@AAPAV_Ref_count_base@std@@@std@@YA$$QAPAV_Ref_count_base@0@AAPAV10@@Z ; std::_Move<std::_Ref_count_base * &>
PUBLIC	??$_Destroy_range@U?$_Wrap_alloc@V?$allocator@U?$pair@V?$unique_ptr@XUThreadCloser@@@std@@V?$shared_ptr@X@2@@std@@@std@@@std@@@std@@YAXPAU?$pair@V?$unique_ptr@XUThreadCloser@@@std@@V?$shared_ptr@X@2@@0@0AAU?$_Wrap_alloc@V?$allocator@U?$pair@V?$unique_ptr@XUThreadCloser@@@std@@V?$shared_ptr@X@2@@std@@@std@@@0@U_Nonscalar_ptr_iterator_tag@0@@Z ; std::_Destroy_range<std::_Wrap_alloc<std::allocator<std::pair<std::unique_ptr<void,ThreadCloser>,std::shared_ptr<void> > > > >
PUBLIC	??$_Ptr_cat@U?$pair@V?$unique_ptr@XUThreadCloser@@@std@@V?$shared_ptr@X@2@@std@@U12@@std@@YA?AU_Nonscalar_ptr_iterator_tag@0@PAU?$pair@V?$unique_ptr@XUThreadCloser@@@std@@V?$shared_ptr@X@2@@0@0@Z ; std::_Ptr_cat<std::pair<std::unique_ptr<void,ThreadCloser>,std::shared_ptr<void> >,std::pair<std::unique_ptr<void,ThreadCloser>,std::shared_ptr<void> > >
PUBLIC	??$destroy@U_Container_proxy@std@@@?$allocator_traits@V?$allocator@U_Container_proxy@std@@@std@@@std@@SAXAAV?$allocator@U_Container_proxy@std@@@1@PAU_Container_proxy@1@@Z ; std::allocator_traits<std::allocator<std::_Container_proxy> >::destroy<std::_Container_proxy>
PUBLIC	??$construct@U_Container_proxy@std@@U12@@?$allocator_traits@V?$allocator@U_Container_proxy@std@@@std@@@std@@SAXAAV?$allocator@U_Container_proxy@std@@@1@PAU_Container_proxy@1@$$QAU31@@Z ; std::allocator_traits<std::allocator<std::_Container_proxy> >::construct<std::_Container_proxy,std::_Container_proxy>
PUBLIC	??$forward@U_Container_proxy@std@@@std@@YA$$QAU_Container_proxy@0@AAU10@@Z ; std::forward<std::_Container_proxy>
PUBLIC	??$destroy@U?$pair@KV?$_List_iterator@V?$_List_val@U?$_List_simple_types@V?$shared_ptr@$$CBV?$tuple@W4PacketType@@KKV?$shared_ptr@$$CBV?$vector@EV?$allocator@E@std@@@std@@@std@@@std@@@std@@@std@@@std@@@std@@@std@@@?$allocator_traits@V?$allocator@U?$pair@KV?$_List_iterator@V?$_List_val@U?$_List_simple_types@V?$shared_ptr@$$CBV?$tuple@W4PacketType@@KKV?$shared_ptr@$$CBV?$vector@EV?$allocator@E@std@@@std@@@std@@@std@@@std@@@std@@@std@@@std@@@std@@@std@@@std@@SAXAAV?$allocator@U?$pair@KV?$_List_iterator@V?$_List_val@U?$_List_simple_types@V?$shared_ptr@$$CBV?$tuple@W4PacketType@@KKV?$shared_ptr@$$CBV?$vector@EV?$allocator@E@std@@@std@@@std@@@std@@@std@@@std@@@std@@@std@@@std@@@1@PAU?$pair@KV?$_List_iterator@V?$_List_val@U?$_List_simple_types@V?$shared_ptr@$$CBV?$tuple@W4PacketType@@KKV?$shared_ptr@$$CBV?$vector@EV?$allocator@E@std@@@std@@@std@@@std@@@std@@@std@@@std@@@std@@@1@@Z ; std::allocator_traits<std::allocator<std::pair<unsigned long,std::_List_iterator<std::_List_val<std::_List_simple_types<std::shared_ptr<std::tuple<enum PacketType,unsigned long,unsigned long,std::shared_ptr<std::vector<unsigned char,std::allocator<unsigned char> > const > > const > > > > > > >::destroy<std::pair<unsigned long,std::_List_iterator<std::_List_val<std::_List_simple_types<std::shared_ptr<std::tuple<enum PacketType,unsigned long,unsigned long,std::shared_ptr<std::vector<unsigned char,std::allocator<unsigned char> > const > > const > > > > > >
PUBLIC	??$destroy@V?$shared_ptr@$$CBV?$tuple@W4PacketType@@KKV?$shared_ptr@$$CBV?$vector@EV?$allocator@E@std@@@std@@@std@@@std@@@std@@@?$allocator_traits@V?$allocator@U?$_List_node@V?$shared_ptr@$$CBV?$tuple@W4PacketType@@KKV?$shared_ptr@$$CBV?$vector@EV?$allocator@E@std@@@std@@@std@@@std@@@std@@PAX@std@@@std@@@std@@SAXAAV?$allocator@U?$_List_node@V?$shared_ptr@$$CBV?$tuple@W4PacketType@@KKV?$shared_ptr@$$CBV?$vector@EV?$allocator@E@std@@@std@@@std@@@std@@@std@@PAX@std@@@1@PAV?$shared_ptr@$$CBV?$tuple@W4PacketType@@KKV?$shared_ptr@$$CBV?$vector@EV?$allocator@E@std@@@std@@@std@@@std@@@1@@Z ; std::allocator_traits<std::allocator<std::_List_node<std::shared_ptr<std::tuple<enum PacketType,unsigned long,unsigned long,std::shared_ptr<std::vector<unsigned char,std::allocator<unsigned char> > const > > const >,void *> > >::destroy<std::shared_ptr<std::tuple<enum PacketType,unsigned long,unsigned long,std::shared_ptr<std::vector<unsigned char,std::allocator<unsigned char> > const > > const > >
PUBLIC	??$destroy@PAU?$_List_node@V?$shared_ptr@$$CBV?$tuple@W4PacketType@@KKV?$shared_ptr@$$CBV?$vector@EV?$allocator@E@std@@@std@@@std@@@std@@@std@@PAX@std@@@?$allocator_traits@V?$allocator@U?$_List_node@V?$shared_ptr@$$CBV?$tuple@W4PacketType@@KKV?$shared_ptr@$$CBV?$vector@EV?$allocator@E@std@@@std@@@std@@@std@@@std@@PAX@std@@@std@@@std@@SAXAAV?$allocator@U?$_List_node@V?$shared_ptr@$$CBV?$tuple@W4PacketType@@KKV?$shared_ptr@$$CBV?$vector@EV?$allocator@E@std@@@std@@@std@@@std@@@std@@PAX@std@@@1@PAPAU?$_List_node@V?$shared_ptr@$$CBV?$tuple@W4PacketType@@KKV?$shared_ptr@$$CBV?$vector@EV?$allocator@E@std@@@std@@@std@@@std@@@std@@PAX@1@@Z ; std::allocator_traits<std::allocator<std::_List_node<std::shared_ptr<std::tuple<enum PacketType,unsigned long,unsigned long,std::shared_ptr<std::vector<unsigned char,std::allocator<unsigned char> > const > > const >,void *> > >::destroy<std::_List_node<std::shared_ptr<std::tuple<enum PacketType,unsigned long,unsigned long,std::shared_ptr<std::vector<unsigned char,std::allocator<unsigned char> > const > > const >,void *> *>
PUBLIC	??$destroy@PAV?$shared_ptr@$$CBV?$tuple@W4PacketType@@KKV?$shared_ptr@$$CBV?$vector@EV?$allocator@E@std@@@std@@@std@@@std@@@std@@@?$allocator_traits@V?$allocator@V?$shared_ptr@$$CBV?$tuple@W4PacketType@@KKV?$shared_ptr@$$CBV?$vector@EV?$allocator@E@std@@@std@@@std@@@std@@@std@@@std@@@std@@SAXAAV?$allocator@V?$shared_ptr@$$CBV?$tuple@W4PacketType@@KKV?$shared_ptr@$$CBV?$vector@EV?$allocator@E@std@@@std@@@std@@@std@@@std@@@1@PAPAV?$shared_ptr@$$CBV?$tuple@W4PacketType@@KKV?$shared_ptr@$$CBV?$vector@EV?$allocator@E@std@@@std@@@std@@@std@@@1@@Z ; std::allocator_traits<std::allocator<std::shared_ptr<std::tuple<enum PacketType,unsigned long,unsigned long,std::shared_ptr<std::vector<unsigned char,std::allocator<unsigned char> > const > > const > > >::destroy<std::shared_ptr<std::tuple<enum PacketType,unsigned long,unsigned long,std::shared_ptr<std::vector<unsigned char,std::allocator<unsigned char> > const > > const > *>
PUBLIC	??$?0V?$shared_ptr@$$CBV?$tuple@W4PacketType@@KKV?$shared_ptr@$$CBV?$vector@EV?$allocator@E@std@@@std@@@std@@@std@@@std@@@?$allocator@PAV?$shared_ptr@$$CBV?$tuple@W4PacketType@@KKV?$shared_ptr@$$CBV?$vector@EV?$allocator@E@std@@@std@@@std@@@std@@@std@@@std@@QAE@ABV?$allocator@V?$shared_ptr@$$CBV?$tuple@W4PacketType@@KKV?$shared_ptr@$$CBV?$vector@EV?$allocator@E@std@@@std@@@std@@@std@@@std@@@1@@Z ; std::allocator<std::shared_ptr<std::tuple<enum PacketType,unsigned long,unsigned long,std::shared_ptr<std::vector<unsigned char,std::allocator<unsigned char> > const > > const > *>::allocator<std::shared_ptr<std::tuple<enum PacketType,unsigned long,unsigned long,std::shared_ptr<std::vector<unsigned char,std::allocator<unsigned char> > const > > const > *><std::shared_ptr<std::tuple<enum PacketType,unsigned long,unsigned long,std::shared_ptr<std::vector<unsigned char,std::allocator<unsigned char> > const > > const > >
PUBLIC	??$_Move@AAI@std@@YA$$QAIAAI@Z			; std::_Move<unsigned int &>
PUBLIC	??$swap@PAPAV?$shared_ptr@$$CBV?$tuple@W4PacketType@@KKV?$shared_ptr@$$CBV?$vector@EV?$allocator@E@std@@@std@@@std@@@std@@@std@@@std@@YAXAAPAPAV?$shared_ptr@$$CBV?$tuple@W4PacketType@@KKV?$shared_ptr@$$CBV?$vector@EV?$allocator@E@std@@@std@@@std@@@std@@@0@0@Z ; std::swap<std::shared_ptr<std::tuple<enum PacketType,unsigned long,unsigned long,std::shared_ptr<std::vector<unsigned char,std::allocator<unsigned char> > const > > const > * *>
PUBLIC	??$?8V?$shared_ptr@$$CBV?$tuple@W4PacketType@@KKV?$shared_ptr@$$CBV?$vector@EV?$allocator@E@std@@@std@@@std@@@std@@@std@@V01@@std@@YA_NABV?$allocator@V?$shared_ptr@$$CBV?$tuple@W4PacketType@@KKV?$shared_ptr@$$CBV?$vector@EV?$allocator@E@std@@@std@@@std@@@std@@@std@@@0@0@Z ; std::operator==<std::shared_ptr<std::tuple<enum PacketType,unsigned long,unsigned long,std::shared_ptr<std::vector<unsigned char,std::allocator<unsigned char> > const > > const >,std::shared_ptr<std::tuple<enum PacketType,unsigned long,unsigned long,std::shared_ptr<std::vector<unsigned char,std::allocator<unsigned char> > const > > const > >
PUBLIC	??$forward@ABV?$shared_ptr@X@std@@@std@@YAABV?$shared_ptr@X@0@ABV10@@Z ; std::forward<std::shared_ptr<void> const &>
PUBLIC	??$_Destroy_range@U?$_Wrap_alloc@V?$allocator@K@std@@@std@@@std@@YAXPAK0AAU?$_Wrap_alloc@V?$allocator@K@std@@@0@U_Scalar_ptr_iterator_tag@0@@Z ; std::_Destroy_range<std::_Wrap_alloc<std::allocator<unsigned long> > >
PUBLIC	??$destroy@PAU?$pair@KV?$_List_iterator@V?$_List_val@U?$_List_simple_types@V?$shared_ptr@$$CBV?$tuple@W4PacketType@@KKV?$shared_ptr@$$CBV?$vector@EV?$allocator@E@std@@@std@@@std@@@std@@@std@@@std@@@std@@@std@@@std@@@?$allocator_traits@V?$allocator@U?$pair@KV?$_List_iterator@V?$_List_val@U?$_List_simple_types@V?$shared_ptr@$$CBV?$tuple@W4PacketType@@KKV?$shared_ptr@$$CBV?$vector@EV?$allocator@E@std@@@std@@@std@@@std@@@std@@@std@@@std@@@std@@@std@@@std@@@std@@SAXAAV?$allocator@U?$pair@KV?$_List_iterator@V?$_List_val@U?$_List_simple_types@V?$shared_ptr@$$CBV?$tuple@W4PacketType@@KKV?$shared_ptr@$$CBV?$vector@EV?$allocator@E@std@@@std@@@std@@@std@@@std@@@std@@@std@@@std@@@std@@@1@PAPAU?$pair@KV?$_List_iterator@V?$_List_val@U?$_List_simple_types@V?$shared_ptr@$$CBV?$tuple@W4PacketType@@KKV?$shared_ptr@$$CBV?$vector@EV?$allocator@E@std@@@std@@@std@@@std@@@std@@@std@@@std@@@std@@@1@@Z ; std::allocator_traits<std::allocator<std::pair<unsigned long,std::_List_iterator<std::_List_val<std::_List_simple_types<std::shared_ptr<std::tuple<enum PacketType,unsigned long,unsigned long,std::shared_ptr<std::vector<unsigned char,std::allocator<unsigned char> > const > > const > > > > > > >::destroy<std::pair<unsigned long,std::_List_iterator<std::_List_val<std::_List_simple_types<std::shared_ptr<std::tuple<enum PacketType,unsigned long,unsigned long,std::shared_ptr<std::vector<unsigned char,std::allocator<unsigned char> > const > > const > > > > > *>
PUBLIC	??$?0U?$pair@KV?$_List_iterator@V?$_List_val@U?$_List_simple_types@V?$shared_ptr@$$CBV?$tuple@W4PacketType@@KKV?$shared_ptr@$$CBV?$vector@EV?$allocator@E@std@@@std@@@std@@@std@@@std@@@std@@@std@@@std@@@std@@@?$allocator@PAU?$pair@KV?$_List_iterator@V?$_List_val@U?$_List_simple_types@V?$shared_ptr@$$CBV?$tuple@W4PacketType@@KKV?$shared_ptr@$$CBV?$vector@EV?$allocator@E@std@@@std@@@std@@@std@@@std@@@std@@@std@@@std@@@std@@@std@@QAE@ABV?$allocator@U?$pair@KV?$_List_iterator@V?$_List_val@U?$_List_simple_types@V?$shared_ptr@$$CBV?$tuple@W4PacketType@@KKV?$shared_ptr@$$CBV?$vector@EV?$allocator@E@std@@@std@@@std@@@std@@@std@@@std@@@std@@@std@@@std@@@1@@Z ; std::allocator<std::pair<unsigned long,std::_List_iterator<std::_List_val<std::_List_simple_types<std::shared_ptr<std::tuple<enum PacketType,unsigned long,unsigned long,std::shared_ptr<std::vector<unsigned char,std::allocator<unsigned char> > const > > const > > > > > *>::allocator<std::pair<unsigned long,std::_List_iterator<std::_List_val<std::_List_simple_types<std::shared_ptr<std::tuple<enum PacketType,unsigned long,unsigned long,std::shared_ptr<std::vector<unsigned char,std::allocator<unsigned char> > const > > const > > > > > *><std::pair<unsigned long,std::_List_iterator<std::_List_val<std::_List_simple_types<std::shared_ptr<std::tuple<enum PacketType,unsigned long,unsigned long,std::shared_ptr<std::vector<unsigned char,std::allocator<unsigned char> > const > > const > > > > > >
PUBLIC	??$_Move@V?$_Deque_iterator@V?$_Deque_val@U?$_Deque_simple_types@U?$pair@KV?$_List_iterator@V?$_List_val@U?$_List_simple_types@V?$shared_ptr@$$CBV?$tuple@W4PacketType@@KKV?$shared_ptr@$$CBV?$vector@EV?$allocator@E@std@@@std@@@std@@@std@@@std@@@std@@@std@@@std@@@std@@@std@@@std@@@std@@V12@@std@@YA?AV?$_Deque_iterator@V?$_Deque_val@U?$_Deque_simple_types@U?$pair@KV?$_List_iterator@V?$_List_val@U?$_List_simple_types@V?$shared_ptr@$$CBV?$tuple@W4PacketType@@KKV?$shared_ptr@$$CBV?$vector@EV?$allocator@E@std@@@std@@@std@@@std@@@std@@@std@@@std@@@std@@@std@@@std@@@std@@@0@V10@00U_Nonscalar_ptr_iterator_tag@0@@Z ; std::_Move<std::_Deque_iterator<std::_Deque_val<std::_Deque_simple_types<std::pair<unsigned long,std::_List_iterator<std::_List_val<std::_List_simple_types<std::shared_ptr<std::tuple<enum PacketType,unsigned long,unsigned long,std::shared_ptr<std::vector<unsigned char,std::allocator<unsigned char> > const > > const > > > > > > > >,std::_Deque_iterator<std::_Deque_val<std::_Deque_simple_types<std::pair<unsigned long,std::_List_iterator<std::_List_val<std::_List_simple_types<std::shared_ptr<std::tuple<enum PacketType,unsigned long,unsigned long,std::shared_ptr<std::vector<unsigned char,std::allocator<unsigned char> > const > > const > > > > > > > > >
PUBLIC	??$_Move_backward@V?$_Deque_iterator@V?$_Deque_val@U?$_Deque_simple_types@U?$pair@KV?$_List_iterator@V?$_List_val@U?$_List_simple_types@V?$shared_ptr@$$CBV?$tuple@W4PacketType@@KKV?$shared_ptr@$$CBV?$vector@EV?$allocator@E@std@@@std@@@std@@@std@@@std@@@std@@@std@@@std@@@std@@@std@@@std@@@std@@V12@@std@@YA?AV?$_Deque_iterator@V?$_Deque_val@U?$_Deque_simple_types@U?$pair@KV?$_List_iterator@V?$_List_val@U?$_List_simple_types@V?$shared_ptr@$$CBV?$tuple@W4PacketType@@KKV?$shared_ptr@$$CBV?$vector@EV?$allocator@E@std@@@std@@@std@@@std@@@std@@@std@@@std@@@std@@@std@@@std@@@std@@@0@V10@00U_Nonscalar_ptr_iterator_tag@0@@Z ; std::_Move_backward<std::_Deque_iterator<std::_Deque_val<std::_Deque_simple_types<std::pair<unsigned long,std::_List_iterator<std::_List_val<std::_List_simple_types<std::shared_ptr<std::tuple<enum PacketType,unsigned long,unsigned long,std::shared_ptr<std::vector<unsigned char,std::allocator<unsigned char> > const > > const > > > > > > > >,std::_Deque_iterator<std::_Deque_val<std::_Deque_simple_types<std::pair<unsigned long,std::_List_iterator<std::_List_val<std::_List_simple_types<std::shared_ptr<std::tuple<enum PacketType,unsigned long,unsigned long,std::shared_ptr<std::vector<unsigned char,std::allocator<unsigned char> > const > > const > > > > > > > > >
PUBLIC	??$_Ptr_cat@V?$_Deque_iterator@V?$_Deque_val@U?$_Deque_simple_types@U?$pair@KV?$_List_iterator@V?$_List_val@U?$_List_simple_types@V?$shared_ptr@$$CBV?$tuple@W4PacketType@@KKV?$shared_ptr@$$CBV?$vector@EV?$allocator@E@std@@@std@@@std@@@std@@@std@@@std@@@std@@@std@@@std@@@std@@@std@@@std@@V12@@std@@YA?AU_Nonscalar_ptr_iterator_tag@0@AAV?$_Deque_iterator@V?$_Deque_val@U?$_Deque_simple_types@U?$pair@KV?$_List_iterator@V?$_List_val@U?$_List_simple_types@V?$shared_ptr@$$CBV?$tuple@W4PacketType@@KKV?$shared_ptr@$$CBV?$vector@EV?$allocator@E@std@@@std@@@std@@@std@@@std@@@std@@@std@@@std@@@std@@@std@@@std@@@0@0@Z ; std::_Ptr_cat<std::_Deque_iterator<std::_Deque_val<std::_Deque_simple_types<std::pair<unsigned long,std::_List_iterator<std::_List_val<std::_List_simple_types<std::shared_ptr<std::tuple<enum PacketType,unsigned long,unsigned long,std::shared_ptr<std::vector<unsigned char,std::allocator<unsigned char> > const > > const > > > > > > > >,std::_Deque_iterator<std::_Deque_val<std::_Deque_simple_types<std::pair<unsigned long,std::_List_iterator<std::_List_val<std::_List_simple_types<std::shared_ptr<std::tuple<enum PacketType,unsigned long,unsigned long,std::shared_ptr<std::vector<unsigned char,std::allocator<unsigned char> > const > > const > > > > > > > > >
PUBLIC	??$destroy@V?$shared_ptr@$$CBV?$tuple@W4PacketType@@KKV?$shared_ptr@$$CBV?$vector@EV?$allocator@E@std@@@std@@@std@@@std@@@std@@@?$allocator_traits@V?$allocator@V?$shared_ptr@$$CBV?$tuple@W4PacketType@@KKV?$shared_ptr@$$CBV?$vector@EV?$allocator@E@std@@@std@@@std@@@std@@@std@@@std@@@std@@SAXAAV?$allocator@V?$shared_ptr@$$CBV?$tuple@W4PacketType@@KKV?$shared_ptr@$$CBV?$vector@EV?$allocator@E@std@@@std@@@std@@@std@@@std@@@1@PAV?$shared_ptr@$$CBV?$tuple@W4PacketType@@KKV?$shared_ptr@$$CBV?$vector@EV?$allocator@E@std@@@std@@@std@@@std@@@1@@Z ; std::allocator_traits<std::allocator<std::shared_ptr<std::tuple<enum PacketType,unsigned long,unsigned long,std::shared_ptr<std::vector<unsigned char,std::allocator<unsigned char> > const > > const > > >::destroy<std::shared_ptr<std::tuple<enum PacketType,unsigned long,unsigned long,std::shared_ptr<std::vector<unsigned char,std::allocator<unsigned char> > const > > const > >
PUBLIC	??$_Construct@V?$move_iterator@V?$_Deque_iterator@V?$_Deque_val@U?$_Deque_simple_types@V?$shared_ptr@$$CBV?$tuple@W4PacketType@@KKV?$shared_ptr@$$CBV?$vector@EV?$allocator@E@std@@@std@@@std@@@std@@@std@@@std@@@std@@@std@@@std@@@?$deque@V?$shared_ptr@$$CBV?$tuple@W4PacketType@@KKV?$shared_ptr@$$CBV?$vector@EV?$allocator@E@std@@@std@@@std@@@std@@@std@@V?$allocator@V?$shared_ptr@$$CBV?$tuple@W4PacketType@@KKV?$shared_ptr@$$CBV?$vector@EV?$allocator@E@std@@@std@@@std@@@std@@@std@@@2@@std@@QAEXV?$move_iterator@V?$_Deque_iterator@V?$_Deque_val@U?$_Deque_simple_types@V?$shared_ptr@$$CBV?$tuple@W4PacketType@@KKV?$shared_ptr@$$CBV?$vector@EV?$allocator@E@std@@@std@@@std@@@std@@@std@@@std@@@std@@@std@@@1@0@Z ; std::deque<std::shared_ptr<std::tuple<enum PacketType,unsigned long,unsigned long,std::shared_ptr<std::vector<unsigned char,std::allocator<unsigned char> > const > > const >,std::allocator<std::shared_ptr<std::tuple<enum PacketType,unsigned long,unsigned long,std::shared_ptr<std::vector<unsigned char,std::allocator<unsigned char> > const > > const > > >::_Construct<std::move_iterator<std::_Deque_iterator<std::_Deque_val<std::_Deque_simple_types<std::shared_ptr<std::tuple<enum PacketType,unsigned long,unsigned long,std::shared_ptr<std::vector<unsigned char,std::allocator<unsigned char> > const > > const > > > > > >
PUBLIC	??$emplace_back@ABV?$shared_ptr@$$CBV?$tuple@W4PacketType@@KKV?$shared_ptr@$$CBV?$vector@EV?$allocator@E@std@@@std@@@std@@@std@@@std@@@?$deque@V?$shared_ptr@$$CBV?$tuple@W4PacketType@@KKV?$shared_ptr@$$CBV?$vector@EV?$allocator@E@std@@@std@@@std@@@std@@@std@@V?$allocator@V?$shared_ptr@$$CBV?$tuple@W4PacketType@@KKV?$shared_ptr@$$CBV?$vector@EV?$allocator@E@std@@@std@@@std@@@std@@@std@@@2@@std@@QAEXABV?$shared_ptr@$$CBV?$tuple@W4PacketType@@KKV?$shared_ptr@$$CBV?$vector@EV?$allocator@E@std@@@std@@@std@@@std@@@1@@Z ; std::deque<std::shared_ptr<std::tuple<enum PacketType,unsigned long,unsigned long,std::shared_ptr<std::vector<unsigned char,std::allocator<unsigned char> > const > > const >,std::allocator<std::shared_ptr<std::tuple<enum PacketType,unsigned long,unsigned long,std::shared_ptr<std::vector<unsigned char,std::allocator<unsigned char> > const > > const > > >::emplace_back<std::shared_ptr<std::tuple<enum PacketType,unsigned long,unsigned long,std::shared_ptr<std::vector<unsigned char,std::allocator<unsigned char> > const > > const > const &>
PUBLIC	??$forward@ABK@std@@YAABKABK@Z			; std::forward<unsigned long const &>
PUBLIC	??$_Move@PAKPAK@std@@YAPAKPAK00U_Scalar_ptr_iterator_tag@0@@Z ; std::_Move<unsigned long *,unsigned long *>
PUBLIC	??$_Ptr_cat@KK@std@@YA?AU_Scalar_ptr_iterator_tag@0@PAK0@Z ; std::_Ptr_cat<unsigned long,unsigned long>
PUBLIC	??$?0UReplayBuffer@@U?$default_delete@UReplayBuffer@@@std@@X@?$unique_ptr@VVideoFileStream@@U?$default_delete@VVideoFileStream@@@std@@@std@@QAE@$$QAV?$unique_ptr@UReplayBuffer@@U?$default_delete@UReplayBuffer@@@std@@@1@@Z ; std::unique_ptr<VideoFileStream,std::default_delete<VideoFileStream> >::unique_ptr<VideoFileStream,std::default_delete<VideoFileStream> ><ReplayBuffer,std::default_delete<ReplayBuffer>,void>
PUBLIC	??$forward@V?$unique_ptr@UReplayBuffer@@U?$default_delete@UReplayBuffer@@@std@@@std@@@std@@YA$$QAV?$unique_ptr@UReplayBuffer@@U?$default_delete@UReplayBuffer@@@std@@@0@AAV10@@Z ; std::forward<std::unique_ptr<ReplayBuffer,std::default_delete<ReplayBuffer> > >
PUBLIC	??$forward@PAUReplayBuffer@@@std@@YA$$QAPAUReplayBuffer@@AAPAU1@@Z ; std::forward<ReplayBuffer *>
PUBLIC	??$forward@AAH@std@@YAAAHAAH@Z			; std::forward<int &>
PUBLIC	??$forward@$$T@std@@YA$$QA$$TAA$$T@Z		; std::forward<std::nullptr_t>
PUBLIC	??$forward@V?$deque@V?$shared_ptr@$$CBV?$tuple@W4PacketType@@KKV?$shared_ptr@$$CBV?$vector@EV?$allocator@E@std@@@std@@@std@@@std@@@std@@V?$allocator@V?$shared_ptr@$$CBV?$tuple@W4PacketType@@KKV?$shared_ptr@$$CBV?$vector@EV?$allocator@E@std@@@std@@@std@@@std@@@std@@@2@@std@@@std@@YA$$QAV?$deque@V?$shared_ptr@$$CBV?$tuple@W4PacketType@@KKV?$shared_ptr@$$CBV?$vector@EV?$allocator@E@std@@@std@@@std@@@std@@@std@@V?$allocator@V?$shared_ptr@$$CBV?$tuple@W4PacketType@@KKV?$shared_ptr@$$CBV?$vector@EV?$allocator@E@std@@@std@@@std@@@std@@@std@@@2@@0@AAV10@@Z ; std::forward<std::deque<std::shared_ptr<std::tuple<enum PacketType,unsigned long,unsigned long,std::shared_ptr<std::vector<unsigned char,std::allocator<unsigned char> > const > > const >,std::allocator<std::shared_ptr<std::tuple<enum PacketType,unsigned long,unsigned long,std::shared_ptr<std::vector<unsigned char,std::allocator<unsigned char> > const > > const > > > >
PUBLIC	??$construct@V?$shared_ptr@$$CBV?$tuple@W4PacketType@@KKV?$shared_ptr@$$CBV?$vector@EV?$allocator@E@std@@@std@@@std@@@std@@@std@@V12@@?$_Wrap_alloc@V?$allocator@V?$shared_ptr@$$CBV?$tuple@W4PacketType@@KKV?$shared_ptr@$$CBV?$vector@EV?$allocator@E@std@@@std@@@std@@@std@@@std@@@std@@@std@@QAEXPAV?$shared_ptr@$$CBV?$tuple@W4PacketType@@KKV?$shared_ptr@$$CBV?$vector@EV?$allocator@E@std@@@std@@@std@@@std@@@1@$$QAV21@@Z ; std::_Wrap_alloc<std::allocator<std::shared_ptr<std::tuple<enum PacketType,unsigned long,unsigned long,std::shared_ptr<std::vector<unsigned char,std::allocator<unsigned char> > const > > const > > >::construct<std::shared_ptr<std::tuple<enum PacketType,unsigned long,unsigned long,std::shared_ptr<std::vector<unsigned char,std::allocator<unsigned char> > const > > const >,std::shared_ptr<std::tuple<enum PacketType,unsigned long,unsigned long,std::shared_ptr<std::vector<unsigned char,std::allocator<unsigned char> > const > > const > >
PUBLIC	??$?8V?$_Deque_iterator@V?$_Deque_val@U?$_Deque_simple_types@V?$shared_ptr@$$CBV?$tuple@W4PacketType@@KKV?$shared_ptr@$$CBV?$vector@EV?$allocator@E@std@@@std@@@std@@@std@@@std@@@std@@@std@@@std@@V01@@std@@YA_NABV?$reverse_iterator@V?$_Deque_iterator@V?$_Deque_val@U?$_Deque_simple_types@V?$shared_ptr@$$CBV?$tuple@W4PacketType@@KKV?$shared_ptr@$$CBV?$vector@EV?$allocator@E@std@@@std@@@std@@@std@@@std@@@std@@@std@@@std@@@0@0@Z ; std::operator==<std::_Deque_iterator<std::_Deque_val<std::_Deque_simple_types<std::shared_ptr<std::tuple<enum PacketType,unsigned long,unsigned long,std::shared_ptr<std::vector<unsigned char,std::allocator<unsigned char> > const > > const > > > >,std::_Deque_iterator<std::_Deque_val<std::_Deque_simple_types<std::shared_ptr<std::tuple<enum PacketType,unsigned long,unsigned long,std::shared_ptr<std::vector<unsigned char,std::allocator<unsigned char> > const > > const > > > > >
PUBLIC	??$construct@KAAK@?$_Wrap_alloc@V?$allocator@K@std@@@std@@QAEXPAKAAK@Z ; std::_Wrap_alloc<std::allocator<unsigned long> >::construct<unsigned long,unsigned long &>
PUBLIC	??$end@V?$vector@KV?$allocator@K@std@@@std@@@std@@YA?AV?$_Vector_const_iterator@V?$_Vector_val@U?$_Simple_types@K@std@@@std@@@0@ABV?$vector@KV?$allocator@K@std@@@0@@Z ; std::end<std::vector<unsigned long,std::allocator<unsigned long> > >
PUBLIC	??$begin@V?$vector@KV?$allocator@K@std@@@std@@@std@@YA?AV?$_Vector_const_iterator@V?$_Vector_val@U?$_Simple_types@K@std@@@std@@@0@ABV?$vector@KV?$allocator@K@std@@@0@@Z ; std::begin<std::vector<unsigned long,std::allocator<unsigned long> > >
PUBLIC	??$construct@U?$pair@V?$unique_ptr@XUThreadCloser@@@std@@V?$shared_ptr@X@2@@std@@V?$unique_ptr@XUThreadCloser@@@2@AAV?$shared_ptr@X@2@@?$_Wrap_alloc@V?$allocator@U?$pair@V?$unique_ptr@XUThreadCloser@@@std@@V?$shared_ptr@X@2@@std@@@std@@@std@@QAEXPAU?$pair@V?$unique_ptr@XUThreadCloser@@@std@@V?$shared_ptr@X@2@@1@$$QAV?$unique_ptr@XUThreadCloser@@@1@AAV?$shared_ptr@X@1@@Z ; std::_Wrap_alloc<std::allocator<std::pair<std::unique_ptr<void,ThreadCloser>,std::shared_ptr<void> > > >::construct<std::pair<std::unique_ptr<void,ThreadCloser>,std::shared_ptr<void> >,std::unique_ptr<void,ThreadCloser>,std::shared_ptr<void> &>
PUBLIC	??$forward@AAV?$shared_ptr@X@std@@@std@@YAAAV?$shared_ptr@X@0@AAV10@@Z ; std::forward<std::shared_ptr<void> &>
PUBLIC	??$forward@V?$unique_ptr@XUThreadCloser@@@std@@@std@@YA$$QAV?$unique_ptr@XUThreadCloser@@@0@AAV10@@Z ; std::forward<std::unique_ptr<void,ThreadCloser> >
PUBLIC	??$_Construct@V?$_List_iterator@V?$_List_val@U?$_List_simple_types@V?$shared_ptr@$$CBV?$tuple@W4PacketType@@KKV?$shared_ptr@$$CBV?$vector@EV?$allocator@E@std@@@std@@@std@@@std@@@std@@@std@@@std@@@std@@@?$deque@V?$shared_ptr@$$CBV?$tuple@W4PacketType@@KKV?$shared_ptr@$$CBV?$vector@EV?$allocator@E@std@@@std@@@std@@@std@@@std@@V?$allocator@V?$shared_ptr@$$CBV?$tuple@W4PacketType@@KKV?$shared_ptr@$$CBV?$vector@EV?$allocator@E@std@@@std@@@std@@@std@@@std@@@2@@std@@QAEXV?$_List_iterator@V?$_List_val@U?$_List_simple_types@V?$shared_ptr@$$CBV?$tuple@W4PacketType@@KKV?$shared_ptr@$$CBV?$vector@EV?$allocator@E@std@@@std@@@std@@@std@@@std@@@std@@@std@@@1@0@Z ; std::deque<std::shared_ptr<std::tuple<enum PacketType,unsigned long,unsigned long,std::shared_ptr<std::vector<unsigned char,std::allocator<unsigned char> > const > > const >,std::allocator<std::shared_ptr<std::tuple<enum PacketType,unsigned long,unsigned long,std::shared_ptr<std::vector<unsigned char,std::allocator<unsigned char> > const > > const > > >::_Construct<std::_List_iterator<std::_List_val<std::_List_simple_types<std::shared_ptr<std::tuple<enum PacketType,unsigned long,unsigned long,std::shared_ptr<std::vector<unsigned char,std::allocator<unsigned char> > const > > const > > > > >
PUBLIC	??$?0XP6AXPAX@Z@?$shared_ptr@X@std@@QAE@PAXP6AX0@Z@Z ; std::shared_ptr<void>::shared_ptr<void><void,void (__cdecl*)(void *)>
PUBLIC	??$construct@U?$pair@KV?$_List_iterator@V?$_List_val@U?$_List_simple_types@V?$shared_ptr@$$CBV?$tuple@W4PacketType@@KKV?$shared_ptr@$$CBV?$vector@EV?$allocator@E@std@@@std@@@std@@@std@@@std@@@std@@@std@@@std@@@std@@AAKAAV?$_List_iterator@V?$_List_val@U?$_List_simple_types@V?$shared_ptr@$$CBV?$tuple@W4PacketType@@KKV?$shared_ptr@$$CBV?$vector@EV?$allocator@E@std@@@std@@@std@@@std@@@std@@@std@@@std@@@2@@?$_Wrap_alloc@V?$allocator@U?$pair@KV?$_List_iterator@V?$_List_val@U?$_List_simple_types@V?$shared_ptr@$$CBV?$tuple@W4PacketType@@KKV?$shared_ptr@$$CBV?$vector@EV?$allocator@E@std@@@std@@@std@@@std@@@std@@@std@@@std@@@std@@@std@@@std@@@std@@QAEXPAU?$pair@KV?$_List_iterator@V?$_List_val@U?$_List_simple_types@V?$shared_ptr@$$CBV?$tuple@W4PacketType@@KKV?$shared_ptr@$$CBV?$vector@EV?$allocator@E@std@@@std@@@std@@@std@@@std@@@std@@@std@@@std@@@1@AAKAAV?$_List_iterator@V?$_List_val@U?$_List_simple_types@V?$shared_ptr@$$CBV?$tuple@W4PacketType@@KKV?$shared_ptr@$$CBV?$vector@EV?$allocator@E@std@@@std@@@std@@@std@@@std@@@std@@@std@@@1@@Z ; std::_Wrap_alloc<std::allocator<std::pair<unsigned long,std::_List_iterator<std::_List_val<std::_List_simple_types<std::shared_ptr<std::tuple<enum PacketType,unsigned long,unsigned long,std::shared_ptr<std::vector<unsigned char,std::allocator<unsigned char> > const > > const > > > > > > >::construct<std::pair<unsigned long,std::_List_iterator<std::_List_val<std::_List_simple_types<std::shared_ptr<std::tuple<enum PacketType,unsigned long,unsigned long,std::shared_ptr<std::vector<unsigned char,std::allocator<unsigned char> > const > > const > > > > >,unsigned long &,std::_List_iterator<std::_List_val<std::_List_simple_types<std::shared_ptr<std::tuple<enum PacketType,unsigned long,unsigned long,std::shared_ptr<std::vector<unsigned char,std::allocator<unsigned char> > const > > const > > > > &>
PUBLIC	??$forward@AAV?$_List_iterator@V?$_List_val@U?$_List_simple_types@V?$shared_ptr@$$CBV?$tuple@W4PacketType@@KKV?$shared_ptr@$$CBV?$vector@EV?$allocator@E@std@@@std@@@std@@@std@@@std@@@std@@@std@@@std@@@std@@YAAAV?$_List_iterator@V?$_List_val@U?$_List_simple_types@V?$shared_ptr@$$CBV?$tuple@W4PacketType@@KKV?$shared_ptr@$$CBV?$vector@EV?$allocator@E@std@@@std@@@std@@@std@@@std@@@std@@@std@@@0@AAV10@@Z ; std::forward<std::_List_iterator<std::_List_val<std::_List_simple_types<std::shared_ptr<std::tuple<enum PacketType,unsigned long,unsigned long,std::shared_ptr<std::vector<unsigned char,std::allocator<unsigned char> > const > > const > > > > &>
PUBLIC	??$_Insert@V?$shared_ptr@$$CBV?$tuple@W4PacketType@@KKV?$shared_ptr@$$CBV?$vector@EV?$allocator@E@std@@@std@@@std@@@std@@@std@@@?$list@V?$shared_ptr@$$CBV?$tuple@W4PacketType@@KKV?$shared_ptr@$$CBV?$vector@EV?$allocator@E@std@@@std@@@std@@@std@@@std@@V?$allocator@V?$shared_ptr@$$CBV?$tuple@W4PacketType@@KKV?$shared_ptr@$$CBV?$vector@EV?$allocator@E@std@@@std@@@std@@@std@@@std@@@2@@std@@QAEXV?$_List_unchecked_const_iterator@V?$_List_val@U?$_List_simple_types@V?$shared_ptr@$$CBV?$tuple@W4PacketType@@KKV?$shared_ptr@$$CBV?$vector@EV?$allocator@E@std@@@std@@@std@@@std@@@std@@@std@@@std@@U_Iterator_base0@2@@1@$$QAV?$shared_ptr@$$CBV?$tuple@W4PacketType@@KKV?$shared_ptr@$$CBV?$vector@EV?$allocator@E@std@@@std@@@std@@@std@@@1@@Z ; std::list<std::shared_ptr<std::tuple<enum PacketType,unsigned long,unsigned long,std::shared_ptr<std::vector<unsigned char,std::allocator<unsigned char> > const > > const >,std::allocator<std::shared_ptr<std::tuple<enum PacketType,unsigned long,unsigned long,std::shared_ptr<std::vector<unsigned char,std::allocator<unsigned char> > const > > const > > >::_Insert<std::shared_ptr<std::tuple<enum PacketType,unsigned long,unsigned long,std::shared_ptr<std::vector<unsigned char,std::allocator<unsigned char> > const > > const > >
PUBLIC	??$forward@V?$shared_ptr@$$CBV?$tuple@W4PacketType@@KKV?$shared_ptr@$$CBV?$vector@EV?$allocator@E@std@@@std@@@std@@@std@@@std@@@std@@YA$$QAV?$shared_ptr@$$CBV?$tuple@W4PacketType@@KKV?$shared_ptr@$$CBV?$vector@EV?$allocator@E@std@@@std@@@std@@@std@@@0@AAV10@@Z ; std::forward<std::shared_ptr<std::tuple<enum PacketType,unsigned long,unsigned long,std::shared_ptr<std::vector<unsigned char,std::allocator<unsigned char> > const > > const > >
PUBLIC	??$_Resetp0@$$CBV?$tuple@W4PacketType@@KKV?$shared_ptr@$$CBV?$vector@EV?$allocator@E@std@@@std@@@std@@@std@@@?$shared_ptr@$$CBV?$tuple@W4PacketType@@KKV?$shared_ptr@$$CBV?$vector@EV?$allocator@E@std@@@std@@@std@@@std@@@std@@QAEXPBV?$tuple@W4PacketType@@KKV?$shared_ptr@$$CBV?$vector@EV?$allocator@E@std@@@std@@@std@@@1@PAV_Ref_count_base@1@@Z ; std::shared_ptr<std::tuple<enum PacketType,unsigned long,unsigned long,std::shared_ptr<std::vector<unsigned char,std::allocator<unsigned char> > const > > const >::_Resetp0<std::tuple<enum PacketType,unsigned long,unsigned long,std::shared_ptr<std::vector<unsigned char,std::allocator<unsigned char> > const > > const >
PUBLIC	??$?0AAW4PacketType@@AAKAAKAAV?$shared_ptr@$$CBV?$vector@EV?$allocator@E@std@@@std@@@std@@@?$_Ref_count_obj@$$CBV?$tuple@W4PacketType@@KKV?$shared_ptr@$$CBV?$vector@EV?$allocator@E@std@@@std@@@std@@@std@@@std@@QAE@AAW4PacketType@@AAK1AAV?$shared_ptr@$$CBV?$vector@EV?$allocator@E@std@@@std@@@1@@Z ; std::_Ref_count_obj<std::tuple<enum PacketType,unsigned long,unsigned long,std::shared_ptr<std::vector<unsigned char,std::allocator<unsigned char> > const > > const >::_Ref_count_obj<std::tuple<enum PacketType,unsigned long,unsigned long,std::shared_ptr<std::vector<unsigned char,std::allocator<unsigned char> > const > > const ><enum PacketType &,unsigned long &,unsigned long &,std::shared_ptr<std::vector<unsigned char,std::allocator<unsigned char> > const > &>
PUBLIC	??$forward@AAV?$shared_ptr@$$CBV?$vector@EV?$allocator@E@std@@@std@@@std@@@std@@YAAAV?$shared_ptr@$$CBV?$vector@EV?$allocator@E@std@@@std@@@0@AAV10@@Z ; std::forward<std::shared_ptr<std::vector<unsigned char,std::allocator<unsigned char> > const > &>
PUBLIC	??$forward@AAK@std@@YAAAKAAK@Z			; std::forward<unsigned long &>
PUBLIC	??$forward@AAW4PacketType@@@std@@YAAAW4PacketType@@AAW41@@Z ; std::forward<enum PacketType &>
PUBLIC	??$_Resetp0@$$CBV?$vector@EV?$allocator@E@std@@@std@@@?$shared_ptr@$$CBV?$vector@EV?$allocator@E@std@@@std@@@std@@QAEXPBV?$vector@EV?$allocator@E@std@@@1@PAV_Ref_count_base@1@@Z ; std::shared_ptr<std::vector<unsigned char,std::allocator<unsigned char> > const >::_Resetp0<std::vector<unsigned char,std::allocator<unsigned char> > const >
PUBLIC	??$?0AAPBEPBE@?$_Ref_count_obj@$$CBV?$vector@EV?$allocator@E@std@@@std@@@std@@QAE@AAPBE$$QAPBE@Z ; std::_Ref_count_obj<std::vector<unsigned char,std::allocator<unsigned char> > const >::_Ref_count_obj<std::vector<unsigned char,std::allocator<unsigned char> > const ><unsigned char const * &,unsigned char const *>
PUBLIC	??$forward@PBE@std@@YA$$QAPBEAAPBE@Z		; std::forward<unsigned char const *>
PUBLIC	??$forward@AAPBE@std@@YAAAPBEAAPBE@Z		; std::forward<unsigned char const * &>
PUBLIC	?max_size@?$allocator@U?$pair@V?$unique_ptr@XUThreadCloser@@@std@@V?$shared_ptr@X@2@@std@@@std@@QBEIXZ ; std::allocator<std::pair<std::unique_ptr<void,ThreadCloser>,std::shared_ptr<void> > >::max_size
PUBLIC	?max_size@?$allocator@K@std@@QBEIXZ		; std::allocator<unsigned long>::max_size
PUBLIC	?max_size@?$allocator@U?$pair@KV?$_List_iterator@V?$_List_val@U?$_List_simple_types@V?$shared_ptr@$$CBV?$tuple@W4PacketType@@KKV?$shared_ptr@$$CBV?$vector@EV?$allocator@E@std@@@std@@@std@@@std@@@std@@@std@@@std@@@std@@@std@@@std@@QBEIXZ ; std::allocator<std::pair<unsigned long,std::_List_iterator<std::_List_val<std::_List_simple_types<std::shared_ptr<std::tuple<enum PacketType,unsigned long,unsigned long,std::shared_ptr<std::vector<unsigned char,std::allocator<unsigned char> > const > > const > > > > > >::max_size
PUBLIC	?max_size@?$allocator@V?$shared_ptr@$$CBV?$tuple@W4PacketType@@KKV?$shared_ptr@$$CBV?$vector@EV?$allocator@E@std@@@std@@@std@@@std@@@std@@@std@@QBEIXZ ; std::allocator<std::shared_ptr<std::tuple<enum PacketType,unsigned long,unsigned long,std::shared_ptr<std::vector<unsigned char,std::allocator<unsigned char> > const > > const > >::max_size
PUBLIC	?max_size@?$allocator_traits@V?$allocator@U?$pair@V?$unique_ptr@XUThreadCloser@@@std@@V?$shared_ptr@X@2@@std@@@std@@@std@@SAIABV?$allocator@U?$pair@V?$unique_ptr@XUThreadCloser@@@std@@V?$shared_ptr@X@2@@std@@@2@@Z ; std::allocator_traits<std::allocator<std::pair<std::unique_ptr<void,ThreadCloser>,std::shared_ptr<void> > > >::max_size
PUBLIC	?allocate@?$allocator@U?$pair@V?$unique_ptr@XUThreadCloser@@@std@@V?$shared_ptr@X@2@@std@@@std@@QAEPAU?$pair@V?$unique_ptr@XUThreadCloser@@@std@@V?$shared_ptr@X@2@@2@I@Z ; std::allocator<std::pair<std::unique_ptr<void,ThreadCloser>,std::shared_ptr<void> > >::allocate
PUBLIC	?max_size@?$allocator_traits@V?$allocator@K@std@@@std@@SAIABV?$allocator@K@2@@Z ; std::allocator_traits<std::allocator<unsigned long> >::max_size
PUBLIC	?allocate@?$allocator@K@std@@QAEPAKI@Z		; std::allocator<unsigned long>::allocate
PUBLIC	?max_size@?$allocator_traits@V?$allocator@U?$pair@KV?$_List_iterator@V?$_List_val@U?$_List_simple_types@V?$shared_ptr@$$CBV?$tuple@W4PacketType@@KKV?$shared_ptr@$$CBV?$vector@EV?$allocator@E@std@@@std@@@std@@@std@@@std@@@std@@@std@@@std@@@std@@@std@@@std@@SAIABV?$allocator@U?$pair@KV?$_List_iterator@V?$_List_val@U?$_List_simple_types@V?$shared_ptr@$$CBV?$tuple@W4PacketType@@KKV?$shared_ptr@$$CBV?$vector@EV?$allocator@E@std@@@std@@@std@@@std@@@std@@@std@@@std@@@std@@@std@@@2@@Z ; std::allocator_traits<std::allocator<std::pair<unsigned long,std::_List_iterator<std::_List_val<std::_List_simple_types<std::shared_ptr<std::tuple<enum PacketType,unsigned long,unsigned long,std::shared_ptr<std::vector<unsigned char,std::allocator<unsigned char> > const > > const > > > > > > >::max_size
PUBLIC	?max_size@?$allocator_traits@V?$allocator@V?$shared_ptr@$$CBV?$tuple@W4PacketType@@KKV?$shared_ptr@$$CBV?$vector@EV?$allocator@E@std@@@std@@@std@@@std@@@std@@@std@@@std@@SAIABV?$allocator@V?$shared_ptr@$$CBV?$tuple@W4PacketType@@KKV?$shared_ptr@$$CBV?$vector@EV?$allocator@E@std@@@std@@@std@@@std@@@std@@@2@@Z ; std::allocator_traits<std::allocator<std::shared_ptr<std::tuple<enum PacketType,unsigned long,unsigned long,std::shared_ptr<std::vector<unsigned char,std::allocator<unsigned char> > const > > const > > >::max_size
PUBLIC	?_Swap@?$_Ptr_base@$$CBV?$vector@EV?$allocator@E@std@@@std@@@std@@QAEXAAV12@@Z ; std::_Ptr_base<std::vector<unsigned char,std::allocator<unsigned char> > const >::_Swap
PUBLIC	??0?$default_delete@UReplayBuffer@@@std@@QAE@XZ	; std::default_delete<ReplayBuffer>::default_delete<ReplayBuffer>
PUBLIC	??0?$default_delete@URecordingHelper@@@std@@QAE@XZ ; std::default_delete<RecordingHelper>::default_delete<RecordingHelper>
PUBLIC	??0?$_Revranit@V?$_Deque_iterator@V?$_Deque_val@U?$_Deque_simple_types@V?$shared_ptr@$$CBV?$tuple@W4PacketType@@KKV?$shared_ptr@$$CBV?$vector@EV?$allocator@E@std@@@std@@@std@@@std@@@std@@@std@@@std@@@std@@U?$iterator@Urandom_access_iterator_tag@std@@V?$shared_ptr@$$CBV?$tuple@W4PacketType@@KKV?$shared_ptr@$$CBV?$vector@EV?$allocator@E@std@@@std@@@std@@@std@@@2@HPAV32@AAV32@@2@@std@@QAE@V?$_Deque_iterator@V?$_Deque_val@U?$_Deque_simple_types@V?$shared_ptr@$$CBV?$tuple@W4PacketType@@KKV?$shared_ptr@$$CBV?$vector@EV?$allocator@E@std@@@std@@@std@@@std@@@std@@@std@@@std@@@1@@Z ; std::_Revranit<std::_Deque_iterator<std::_Deque_val<std::_Deque_simple_types<std::shared_ptr<std::tuple<enum PacketType,unsigned long,unsigned long,std::shared_ptr<std::vector<unsigned char,std::allocator<unsigned char> > const > > const > > > >,std::iterator<std::random_access_iterator_tag,std::shared_ptr<std::tuple<enum PacketType,unsigned long,unsigned long,std::shared_ptr<std::vector<unsigned char,std::allocator<unsigned char> > const > > const >,int,std::shared_ptr<std::tuple<enum PacketType,unsigned long,unsigned long,std::shared_ptr<std::vector<unsigned char,std::allocator<unsigned char> > const > > const > *,std::shared_ptr<std::tuple<enum PacketType,unsigned long,unsigned long,std::shared_ptr<std::vector<unsigned char,std::allocator<unsigned char> > const > > const > &> >::_Revranit<std::_Deque_iterator<std::_Deque_val<std::_Deque_simple_types<std::shared_ptr<std::tuple<enum PacketType,unsigned long,unsigned long,std::shared_ptr<std::vector<unsigned char,std::allocator<unsigned char> > const > > const > > > >,std::iterator<std::random_access_iterator_tag,std::shared_ptr<std::tuple<enum PacketType,unsigned long,unsigned long,std::shared_ptr<std::vector<unsigned char,std::allocator<unsigned char> > const > > const >,int,std::shared_ptr<std::tuple<enum PacketType,unsigned long,unsigned long,std::shared_ptr<std::vector<unsigned char,std::allocator<unsigned char> > const > > const > *,std::shared_ptr<std::tuple<enum PacketType,unsigned long,unsigned long,std::shared_ptr<std::vector<unsigned char,std::allocator<unsigned char> > const > > const > &> >
PUBLIC	?_Compat@?$_Deque_const_iterator@V?$_Deque_val@U?$_Deque_simple_types@V?$shared_ptr@$$CBV?$tuple@W4PacketType@@KKV?$shared_ptr@$$CBV?$vector@EV?$allocator@E@std@@@std@@@std@@@std@@@std@@@std@@@std@@@std@@QBEXABV12@@Z ; std::_Deque_const_iterator<std::_Deque_val<std::_Deque_simple_types<std::shared_ptr<std::tuple<enum PacketType,unsigned long,unsigned long,std::shared_ptr<std::vector<unsigned char,std::allocator<unsigned char> > const > > const > > > >::_Compat
PUBLIC	?allocate@?$allocator@PAV?$shared_ptr@$$CBV?$tuple@W4PacketType@@KKV?$shared_ptr@$$CBV?$vector@EV?$allocator@E@std@@@std@@@std@@@std@@@std@@@std@@QAEPAPAV?$shared_ptr@$$CBV?$tuple@W4PacketType@@KKV?$shared_ptr@$$CBV?$vector@EV?$allocator@E@std@@@std@@@std@@@std@@@2@I@Z ; std::allocator<std::shared_ptr<std::tuple<enum PacketType,unsigned long,unsigned long,std::shared_ptr<std::vector<unsigned char,std::allocator<unsigned char> > const > > const > *>::allocate
PUBLIC	?_Assign_rv@?$_Ptr_base@$$CBV?$tuple@W4PacketType@@KKV?$shared_ptr@$$CBV?$vector@EV?$allocator@E@std@@@std@@@std@@@std@@@std@@QAEX$$QAV12@@Z ; std::_Ptr_base<std::tuple<enum PacketType,unsigned long,unsigned long,std::shared_ptr<std::vector<unsigned char,std::allocator<unsigned char> > const > > const >::_Assign_rv
PUBLIC	?max_size@?$_Wrap_alloc@V?$allocator@U?$pair@V?$unique_ptr@XUThreadCloser@@@std@@V?$shared_ptr@X@2@@std@@@std@@@std@@QBEIXZ ; std::_Wrap_alloc<std::allocator<std::pair<std::unique_ptr<void,ThreadCloser>,std::shared_ptr<void> > > >::max_size
PUBLIC	?allocate@?$_Wrap_alloc@V?$allocator@U?$pair@V?$unique_ptr@XUThreadCloser@@@std@@V?$shared_ptr@X@2@@std@@@std@@@std@@QAEPAU?$pair@V?$unique_ptr@XUThreadCloser@@@std@@V?$shared_ptr@X@2@@2@I@Z ; std::_Wrap_alloc<std::allocator<std::pair<std::unique_ptr<void,ThreadCloser>,std::shared_ptr<void> > > >::allocate
PUBLIC	?capacity@?$vector@U?$pair@V?$unique_ptr@XUThreadCloser@@@std@@V?$shared_ptr@X@2@@std@@V?$allocator@U?$pair@V?$unique_ptr@XUThreadCloser@@@std@@V?$shared_ptr@X@2@@std@@@2@@std@@QBEIXZ ; std::vector<std::pair<std::unique_ptr<void,ThreadCloser>,std::shared_ptr<void> >,std::allocator<std::pair<std::unique_ptr<void,ThreadCloser>,std::shared_ptr<void> > > >::capacity
PUBLIC	?max_size@?$_Wrap_alloc@V?$allocator@K@std@@@std@@QBEIXZ ; std::_Wrap_alloc<std::allocator<unsigned long> >::max_size
PUBLIC	?allocate@?$_Wrap_alloc@V?$allocator@K@std@@@std@@QAEPAKI@Z ; std::_Wrap_alloc<std::allocator<unsigned long> >::allocate
PUBLIC	?capacity@?$vector@KV?$allocator@K@std@@@std@@QBEIXZ ; std::vector<unsigned long,std::allocator<unsigned long> >::capacity
PUBLIC	?allocate@?$allocator@PAU?$pair@KV?$_List_iterator@V?$_List_val@U?$_List_simple_types@V?$shared_ptr@$$CBV?$tuple@W4PacketType@@KKV?$shared_ptr@$$CBV?$vector@EV?$allocator@E@std@@@std@@@std@@@std@@@std@@@std@@@std@@@std@@@std@@@std@@QAEPAPAU?$pair@KV?$_List_iterator@V?$_List_val@U?$_List_simple_types@V?$shared_ptr@$$CBV?$tuple@W4PacketType@@KKV?$shared_ptr@$$CBV?$vector@EV?$allocator@E@std@@@std@@@std@@@std@@@std@@@std@@@std@@@std@@@2@I@Z ; std::allocator<std::pair<unsigned long,std::_List_iterator<std::_List_val<std::_List_simple_types<std::shared_ptr<std::tuple<enum PacketType,unsigned long,unsigned long,std::shared_ptr<std::vector<unsigned char,std::allocator<unsigned char> > const > > const > > > > > *>::allocate
PUBLIC	?max_size@?$_Wrap_alloc@V?$allocator@U?$pair@KV?$_List_iterator@V?$_List_val@U?$_List_simple_types@V?$shared_ptr@$$CBV?$tuple@W4PacketType@@KKV?$shared_ptr@$$CBV?$vector@EV?$allocator@E@std@@@std@@@std@@@std@@@std@@@std@@@std@@@std@@@std@@@std@@@std@@QBEIXZ ; std::_Wrap_alloc<std::allocator<std::pair<unsigned long,std::_List_iterator<std::_List_val<std::_List_simple_types<std::shared_ptr<std::tuple<enum PacketType,unsigned long,unsigned long,std::shared_ptr<std::vector<unsigned char,std::allocator<unsigned char> > const > > const > > > > > > >::max_size
PUBLIC	?max_size@?$_Wrap_alloc@V?$allocator@V?$shared_ptr@$$CBV?$tuple@W4PacketType@@KKV?$shared_ptr@$$CBV?$vector@EV?$allocator@E@std@@@std@@@std@@@std@@@std@@@std@@@std@@QBEIXZ ; std::_Wrap_alloc<std::allocator<std::shared_ptr<std::tuple<enum PacketType,unsigned long,unsigned long,std::shared_ptr<std::vector<unsigned char,std::allocator<unsigned char> > const > > const > > >::max_size
PUBLIC	?_Assign_rv@?$_Ptr_base@$$CBV?$vector@EV?$allocator@E@std@@@std@@@std@@QAEX$$QAV12@@Z ; std::_Ptr_base<std::vector<unsigned char,std::allocator<unsigned char> > const >::_Assign_rv
PUBLIC	??0?$_List_unchecked_iterator@V?$_List_val@U?$_List_simple_types@V?$shared_ptr@$$CBV?$tuple@W4PacketType@@KKV?$shared_ptr@$$CBV?$vector@EV?$allocator@E@std@@@std@@@std@@@std@@@std@@@std@@@std@@@std@@QAE@PAU?$_List_node@V?$shared_ptr@$$CBV?$tuple@W4PacketType@@KKV?$shared_ptr@$$CBV?$vector@EV?$allocator@E@std@@@std@@@std@@@std@@@std@@PAX@1@PBV?$_List_val@U?$_List_simple_types@V?$shared_ptr@$$CBV?$tuple@W4PacketType@@KKV?$shared_ptr@$$CBV?$vector@EV?$allocator@E@std@@@std@@@std@@@std@@@std@@@std@@@1@@Z ; std::_List_unchecked_iterator<std::_List_val<std::_List_simple_types<std::shared_ptr<std::tuple<enum PacketType,unsigned long,unsigned long,std::shared_ptr<std::vector<unsigned char,std::allocator<unsigned char> > const > > const > > > >::_List_unchecked_iterator<std::_List_val<std::_List_simple_types<std::shared_ptr<std::tuple<enum PacketType,unsigned long,unsigned long,std::shared_ptr<std::vector<unsigned char,std::allocator<unsigned char> > const > > const > > > >
PUBLIC	??0?$_Unique_ptr_base@UReplayBuffer@@U?$default_delete@UReplayBuffer@@@std@@$00@std@@QAE@PAUReplayBuffer@@@Z ; std::_Unique_ptr_base<ReplayBuffer,std::default_delete<ReplayBuffer>,1>::_Unique_ptr_base<ReplayBuffer,std::default_delete<ReplayBuffer>,1>
PUBLIC	??0?$_Unique_ptr_base@URecordingHelper@@U?$default_delete@URecordingHelper@@@std@@$00@std@@QAE@PAURecordingHelper@@@Z ; std::_Unique_ptr_base<RecordingHelper,std::default_delete<RecordingHelper>,1>::_Unique_ptr_base<RecordingHelper,std::default_delete<RecordingHelper>,1>
PUBLIC	??8?$_Deque_const_iterator@V?$_Deque_val@U?$_Deque_simple_types@V?$shared_ptr@$$CBV?$tuple@W4PacketType@@KKV?$shared_ptr@$$CBV?$vector@EV?$allocator@E@std@@@std@@@std@@@std@@@std@@@std@@@std@@@std@@QBE_NABV01@@Z ; std::_Deque_const_iterator<std::_Deque_val<std::_Deque_simple_types<std::shared_ptr<std::tuple<enum PacketType,unsigned long,unsigned long,std::shared_ptr<std::vector<unsigned char,std::allocator<unsigned char> > const > > const > > > >::operator==
PUBLIC	??0?$reverse_iterator@V?$_Deque_iterator@V?$_Deque_val@U?$_Deque_simple_types@V?$shared_ptr@$$CBV?$tuple@W4PacketType@@KKV?$shared_ptr@$$CBV?$vector@EV?$allocator@E@std@@@std@@@std@@@std@@@std@@@std@@@std@@@std@@@std@@QAE@V?$_Deque_iterator@V?$_Deque_val@U?$_Deque_simple_types@V?$shared_ptr@$$CBV?$tuple@W4PacketType@@KKV?$shared_ptr@$$CBV?$vector@EV?$allocator@E@std@@@std@@@std@@@std@@@std@@@std@@@std@@@1@@Z ; std::reverse_iterator<std::_Deque_iterator<std::_Deque_val<std::_Deque_simple_types<std::shared_ptr<std::tuple<enum PacketType,unsigned long,unsigned long,std::shared_ptr<std::vector<unsigned char,std::allocator<unsigned char> > const > > const > > > > >::reverse_iterator<std::_Deque_iterator<std::_Deque_val<std::_Deque_simple_types<std::shared_ptr<std::tuple<enum PacketType,unsigned long,unsigned long,std::shared_ptr<std::vector<unsigned char,std::allocator<unsigned char> > const > > const > > > > >
PUBLIC	?allocate@?$_Wrap_alloc@V?$allocator@PAV?$shared_ptr@$$CBV?$tuple@W4PacketType@@KKV?$shared_ptr@$$CBV?$vector@EV?$allocator@E@std@@@std@@@std@@@std@@@std@@@std@@@std@@QAEPAPAV?$shared_ptr@$$CBV?$tuple@W4PacketType@@KKV?$shared_ptr@$$CBV?$vector@EV?$allocator@E@std@@@std@@@std@@@std@@@2@I@Z ; std::_Wrap_alloc<std::allocator<std::shared_ptr<std::tuple<enum PacketType,unsigned long,unsigned long,std::shared_ptr<std::vector<unsigned char,std::allocator<unsigned char> > const > > const > *> >::allocate
PUBLIC	?_Xlen@?$deque@V?$shared_ptr@$$CBV?$tuple@W4PacketType@@KKV?$shared_ptr@$$CBV?$vector@EV?$allocator@E@std@@@std@@@std@@@std@@@std@@V?$allocator@V?$shared_ptr@$$CBV?$tuple@W4PacketType@@KKV?$shared_ptr@$$CBV?$vector@EV?$allocator@E@std@@@std@@@std@@@std@@@std@@@2@@std@@IBEXXZ ; std::deque<std::shared_ptr<std::tuple<enum PacketType,unsigned long,unsigned long,std::shared_ptr<std::vector<unsigned char,std::allocator<unsigned char> > const > > const >,std::allocator<std::shared_ptr<std::tuple<enum PacketType,unsigned long,unsigned long,std::shared_ptr<std::vector<unsigned char,std::allocator<unsigned char> > const > > const > > >::_Xlen
PUBLIC	?max_size@?$deque@V?$shared_ptr@$$CBV?$tuple@W4PacketType@@KKV?$shared_ptr@$$CBV?$vector@EV?$allocator@E@std@@@std@@@std@@@std@@@std@@V?$allocator@V?$shared_ptr@$$CBV?$tuple@W4PacketType@@KKV?$shared_ptr@$$CBV?$vector@EV?$allocator@E@std@@@std@@@std@@@std@@@std@@@2@@std@@QBEIXZ ; std::deque<std::shared_ptr<std::tuple<enum PacketType,unsigned long,unsigned long,std::shared_ptr<std::vector<unsigned char,std::allocator<unsigned char> > const > > const >,std::allocator<std::shared_ptr<std::tuple<enum PacketType,unsigned long,unsigned long,std::shared_ptr<std::vector<unsigned char,std::allocator<unsigned char> > const > > const > > >::max_size
PUBLIC	?_Assign_rv@?$deque@V?$shared_ptr@$$CBV?$tuple@W4PacketType@@KKV?$shared_ptr@$$CBV?$vector@EV?$allocator@E@std@@@std@@@std@@@std@@@std@@V?$allocator@V?$shared_ptr@$$CBV?$tuple@W4PacketType@@KKV?$shared_ptr@$$CBV?$vector@EV?$allocator@E@std@@@std@@@std@@@std@@@std@@@2@@std@@QAEX$$QAV12@U?$integral_constant@_N$00@2@@Z ; std::deque<std::shared_ptr<std::tuple<enum PacketType,unsigned long,unsigned long,std::shared_ptr<std::vector<unsigned char,std::allocator<unsigned char> > const > > const >,std::allocator<std::shared_ptr<std::tuple<enum PacketType,unsigned long,unsigned long,std::shared_ptr<std::vector<unsigned char,std::allocator<unsigned char> > const > > const > > >::_Assign_rv
PUBLIC	?_Reset0@?$_Ptr_base@$$CBV?$tuple@W4PacketType@@KKV?$shared_ptr@$$CBV?$vector@EV?$allocator@E@std@@@std@@@std@@@std@@@std@@QAEXPBV?$tuple@W4PacketType@@KKV?$shared_ptr@$$CBV?$vector@EV?$allocator@E@std@@@std@@@std@@@2@PAV_Ref_count_base@2@@Z ; std::_Ptr_base<std::tuple<enum PacketType,unsigned long,unsigned long,std::shared_ptr<std::vector<unsigned char,std::allocator<unsigned char> > const > > const >::_Reset0
PUBLIC	??0?$_Ptr_base@$$CBV?$tuple@W4PacketType@@KKV?$shared_ptr@$$CBV?$vector@EV?$allocator@E@std@@@std@@@std@@@std@@@std@@QAE@$$QAV01@@Z ; std::_Ptr_base<std::tuple<enum PacketType,unsigned long,unsigned long,std::shared_ptr<std::vector<unsigned char,std::allocator<unsigned char> > const > > const >::_Ptr_base<std::tuple<enum PacketType,unsigned long,unsigned long,std::shared_ptr<std::vector<unsigned char,std::allocator<unsigned char> > const > > const >
PUBLIC	?_Swap@?$_Ptr_base@X@std@@QAEXAAV12@@Z		; std::_Ptr_base<void>::_Swap
PUBLIC	?_Xlen@?$vector@U?$pair@V?$unique_ptr@XUThreadCloser@@@std@@V?$shared_ptr@X@2@@std@@V?$allocator@U?$pair@V?$unique_ptr@XUThreadCloser@@@std@@V?$shared_ptr@X@2@@std@@@2@@std@@IBEXXZ ; std::vector<std::pair<std::unique_ptr<void,ThreadCloser>,std::shared_ptr<void> >,std::allocator<std::pair<std::unique_ptr<void,ThreadCloser>,std::shared_ptr<void> > > >::_Xlen
PUBLIC	?_Reallocate@?$vector@U?$pair@V?$unique_ptr@XUThreadCloser@@@std@@V?$shared_ptr@X@2@@std@@V?$allocator@U?$pair@V?$unique_ptr@XUThreadCloser@@@std@@V?$shared_ptr@X@2@@std@@@2@@std@@IAEXI@Z ; std::vector<std::pair<std::unique_ptr<void,ThreadCloser>,std::shared_ptr<void> >,std::allocator<std::pair<std::unique_ptr<void,ThreadCloser>,std::shared_ptr<void> > > >::_Reallocate
PUBLIC	?_Grow_to@?$vector@U?$pair@V?$unique_ptr@XUThreadCloser@@@std@@V?$shared_ptr@X@2@@std@@V?$allocator@U?$pair@V?$unique_ptr@XUThreadCloser@@@std@@V?$shared_ptr@X@2@@std@@@2@@std@@IBEII@Z ; std::vector<std::pair<std::unique_ptr<void,ThreadCloser>,std::shared_ptr<void> >,std::allocator<std::pair<std::unique_ptr<void,ThreadCloser>,std::shared_ptr<void> > > >::_Grow_to
PUBLIC	?max_size@?$vector@U?$pair@V?$unique_ptr@XUThreadCloser@@@std@@V?$shared_ptr@X@2@@std@@V?$allocator@U?$pair@V?$unique_ptr@XUThreadCloser@@@std@@V?$shared_ptr@X@2@@std@@@2@@std@@QBEIXZ ; std::vector<std::pair<std::unique_ptr<void,ThreadCloser>,std::shared_ptr<void> >,std::allocator<std::pair<std::unique_ptr<void,ThreadCloser>,std::shared_ptr<void> > > >::max_size
PUBLIC	?size@?$vector@U?$pair@V?$unique_ptr@XUThreadCloser@@@std@@V?$shared_ptr@X@2@@std@@V?$allocator@U?$pair@V?$unique_ptr@XUThreadCloser@@@std@@V?$shared_ptr@X@2@@std@@@2@@std@@QBEIXZ ; std::vector<std::pair<std::unique_ptr<void,ThreadCloser>,std::shared_ptr<void> >,std::allocator<std::pair<std::unique_ptr<void,ThreadCloser>,std::shared_ptr<void> > > >::size
PUBLIC	?_Unused_capacity@?$vector@U?$pair@V?$unique_ptr@XUThreadCloser@@@std@@V?$shared_ptr@X@2@@std@@V?$allocator@U?$pair@V?$unique_ptr@XUThreadCloser@@@std@@V?$shared_ptr@X@2@@std@@@2@@std@@QBEIXZ ; std::vector<std::pair<std::unique_ptr<void,ThreadCloser>,std::shared_ptr<void> >,std::allocator<std::pair<std::unique_ptr<void,ThreadCloser>,std::shared_ptr<void> > > >::_Unused_capacity
PUBLIC	?_Xlen@?$vector@KV?$allocator@K@std@@@std@@IBEXXZ ; std::vector<unsigned long,std::allocator<unsigned long> >::_Xlen
PUBLIC	?_Reallocate@?$vector@KV?$allocator@K@std@@@std@@IAEXI@Z ; std::vector<unsigned long,std::allocator<unsigned long> >::_Reallocate
PUBLIC	?_Grow_to@?$vector@KV?$allocator@K@std@@@std@@IBEII@Z ; std::vector<unsigned long,std::allocator<unsigned long> >::_Grow_to
PUBLIC	?max_size@?$vector@KV?$allocator@K@std@@@std@@QBEIXZ ; std::vector<unsigned long,std::allocator<unsigned long> >::max_size
PUBLIC	?_Unused_capacity@?$vector@KV?$allocator@K@std@@@std@@QBEIXZ ; std::vector<unsigned long,std::allocator<unsigned long> >::_Unused_capacity
PUBLIC	?allocate@?$_Wrap_alloc@V?$allocator@PAU?$pair@KV?$_List_iterator@V?$_List_val@U?$_List_simple_types@V?$shared_ptr@$$CBV?$tuple@W4PacketType@@KKV?$shared_ptr@$$CBV?$vector@EV?$allocator@E@std@@@std@@@std@@@std@@@std@@@std@@@std@@@std@@@std@@@std@@@std@@QAEPAPAU?$pair@KV?$_List_iterator@V?$_List_val@U?$_List_simple_types@V?$shared_ptr@$$CBV?$tuple@W4PacketType@@KKV?$shared_ptr@$$CBV?$vector@EV?$allocator@E@std@@@std@@@std@@@std@@@std@@@std@@@std@@@std@@@2@I@Z ; std::_Wrap_alloc<std::allocator<std::pair<unsigned long,std::_List_iterator<std::_List_val<std::_List_simple_types<std::shared_ptr<std::tuple<enum PacketType,unsigned long,unsigned long,std::shared_ptr<std::vector<unsigned char,std::allocator<unsigned char> > const > > const > > > > > *> >::allocate
PUBLIC	?allocate@?$allocator@U?$pair@KV?$_List_iterator@V?$_List_val@U?$_List_simple_types@V?$shared_ptr@$$CBV?$tuple@W4PacketType@@KKV?$shared_ptr@$$CBV?$vector@EV?$allocator@E@std@@@std@@@std@@@std@@@std@@@std@@@std@@@std@@@std@@@std@@QAEPAU?$pair@KV?$_List_iterator@V?$_List_val@U?$_List_simple_types@V?$shared_ptr@$$CBV?$tuple@W4PacketType@@KKV?$shared_ptr@$$CBV?$vector@EV?$allocator@E@std@@@std@@@std@@@std@@@std@@@std@@@std@@@std@@@2@I@Z ; std::allocator<std::pair<unsigned long,std::_List_iterator<std::_List_val<std::_List_simple_types<std::shared_ptr<std::tuple<enum PacketType,unsigned long,unsigned long,std::shared_ptr<std::vector<unsigned char,std::allocator<unsigned char> > const > > const > > > > > >::allocate
PUBLIC	?_Xlen@?$deque@U?$pair@KV?$_List_iterator@V?$_List_val@U?$_List_simple_types@V?$shared_ptr@$$CBV?$tuple@W4PacketType@@KKV?$shared_ptr@$$CBV?$vector@EV?$allocator@E@std@@@std@@@std@@@std@@@std@@@std@@@std@@@std@@@std@@V?$allocator@U?$pair@KV?$_List_iterator@V?$_List_val@U?$_List_simple_types@V?$shared_ptr@$$CBV?$tuple@W4PacketType@@KKV?$shared_ptr@$$CBV?$vector@EV?$allocator@E@std@@@std@@@std@@@std@@@std@@@std@@@std@@@std@@@std@@@2@@std@@IBEXXZ ; std::deque<std::pair<unsigned long,std::_List_iterator<std::_List_val<std::_List_simple_types<std::shared_ptr<std::tuple<enum PacketType,unsigned long,unsigned long,std::shared_ptr<std::vector<unsigned char,std::allocator<unsigned char> > const > > const > > > > >,std::allocator<std::pair<unsigned long,std::_List_iterator<std::_List_val<std::_List_simple_types<std::shared_ptr<std::tuple<enum PacketType,unsigned long,unsigned long,std::shared_ptr<std::vector<unsigned char,std::allocator<unsigned char> > const > > const > > > > > > >::_Xlen
PUBLIC	?max_size@?$deque@U?$pair@KV?$_List_iterator@V?$_List_val@U?$_List_simple_types@V?$shared_ptr@$$CBV?$tuple@W4PacketType@@KKV?$shared_ptr@$$CBV?$vector@EV?$allocator@E@std@@@std@@@std@@@std@@@std@@@std@@@std@@@std@@@std@@V?$allocator@U?$pair@KV?$_List_iterator@V?$_List_val@U?$_List_simple_types@V?$shared_ptr@$$CBV?$tuple@W4PacketType@@KKV?$shared_ptr@$$CBV?$vector@EV?$allocator@E@std@@@std@@@std@@@std@@@std@@@std@@@std@@@std@@@std@@@2@@std@@QBEIXZ ; std::deque<std::pair<unsigned long,std::_List_iterator<std::_List_val<std::_List_simple_types<std::shared_ptr<std::tuple<enum PacketType,unsigned long,unsigned long,std::shared_ptr<std::vector<unsigned char,std::allocator<unsigned char> > const > > const > > > > >,std::allocator<std::pair<unsigned long,std::_List_iterator<std::_List_val<std::_List_simple_types<std::shared_ptr<std::tuple<enum PacketType,unsigned long,unsigned long,std::shared_ptr<std::vector<unsigned char,std::allocator<unsigned char> > const > > const > > > > > > >::max_size
PUBLIC	?allocate@?$allocator@V?$shared_ptr@$$CBV?$tuple@W4PacketType@@KKV?$shared_ptr@$$CBV?$vector@EV?$allocator@E@std@@@std@@@std@@@std@@@std@@@std@@QAEPAV?$shared_ptr@$$CBV?$tuple@W4PacketType@@KKV?$shared_ptr@$$CBV?$vector@EV?$allocator@E@std@@@std@@@std@@@std@@@2@I@Z ; std::allocator<std::shared_ptr<std::tuple<enum PacketType,unsigned long,unsigned long,std::shared_ptr<std::vector<unsigned char,std::allocator<unsigned char> > const > > const > >::allocate
PUBLIC	?_Reset0@?$_Ptr_base@$$CBV?$vector@EV?$allocator@E@std@@@std@@@std@@QAEXPBV?$vector@EV?$allocator@E@std@@@2@PAV_Ref_count_base@2@@Z ; std::_Ptr_base<std::vector<unsigned char,std::allocator<unsigned char> > const >::_Reset0
PUBLIC	??0?$_Ptr_base@$$CBV?$vector@EV?$allocator@E@std@@@std@@@std@@QAE@$$QAV01@@Z ; std::_Ptr_base<std::vector<unsigned char,std::allocator<unsigned char> > const >::_Ptr_base<std::vector<unsigned char,std::allocator<unsigned char> > const >
PUBLIC	??1?$_Tuple_val@V?$shared_ptr@$$CBV?$vector@EV?$allocator@E@std@@@std@@@std@@@std@@QAE@XZ ; std::_Tuple_val<std::shared_ptr<std::vector<unsigned char,std::allocator<unsigned char> > const > >::~_Tuple_val<std::shared_ptr<std::vector<unsigned char,std::allocator<unsigned char> > const > >
PUBLIC	??1?$tuple@V?$shared_ptr@$$CBV?$vector@EV?$allocator@E@std@@@std@@@std@@@std@@QAE@XZ ; std::tuple<std::shared_ptr<std::vector<unsigned char,std::allocator<unsigned char> > const > >::~tuple<std::shared_ptr<std::vector<unsigned char,std::allocator<unsigned char> > const > >
PUBLIC	??1?$tuple@KV?$shared_ptr@$$CBV?$vector@EV?$allocator@E@std@@@std@@@std@@@std@@QAE@XZ ; std::tuple<unsigned long,std::shared_ptr<std::vector<unsigned char,std::allocator<unsigned char> > const > >::~tuple<unsigned long,std::shared_ptr<std::vector<unsigned char,std::allocator<unsigned char> > const > >
PUBLIC	??1?$tuple@KKV?$shared_ptr@$$CBV?$vector@EV?$allocator@E@std@@@std@@@std@@@std@@QAE@XZ ; std::tuple<unsigned long,unsigned long,std::shared_ptr<std::vector<unsigned char,std::allocator<unsigned char> > const > >::~tuple<unsigned long,unsigned long,std::shared_ptr<std::vector<unsigned char,std::allocator<unsigned char> > const > >
PUBLIC	??1?$tuple@W4PacketType@@KKV?$shared_ptr@$$CBV?$vector@EV?$allocator@E@std@@@std@@@std@@@std@@QAE@XZ ; std::tuple<enum PacketType,unsigned long,unsigned long,std::shared_ptr<std::vector<unsigned char,std::allocator<unsigned char> > const > >::~tuple<enum PacketType,unsigned long,unsigned long,std::shared_ptr<std::vector<unsigned char,std::allocator<unsigned char> > const > >
PUBLIC	??_G?$tuple@W4PacketType@@KKV?$shared_ptr@$$CBV?$vector@EV?$allocator@E@std@@@std@@@std@@@std@@QAEPAXI@Z ; std::tuple<enum PacketType,unsigned long,unsigned long,std::shared_ptr<std::vector<unsigned char,std::allocator<unsigned char> > const > >::`scalar deleting destructor'
PUBLIC	??_G?$vector@EV?$allocator@E@std@@@std@@QAEPAXI@Z ; std::vector<unsigned char,std::allocator<unsigned char> >::`scalar deleting destructor'
PUBLIC	?_Delete_this@?$_Ref_count_obj@$$CBV?$tuple@W4PacketType@@KKV?$shared_ptr@$$CBV?$vector@EV?$allocator@E@std@@@std@@@std@@@std@@@std@@EAEXXZ ; std::_Ref_count_obj<std::tuple<enum PacketType,unsigned long,unsigned long,std::shared_ptr<std::vector<unsigned char,std::allocator<unsigned char> > const > > const >::_Delete_this
PUBLIC	?_Destroy@?$_Ref_count_obj@$$CBV?$tuple@W4PacketType@@KKV?$shared_ptr@$$CBV?$vector@EV?$allocator@E@std@@@std@@@std@@@std@@@std@@EAEXXZ ; std::_Ref_count_obj<std::tuple<enum PacketType,unsigned long,unsigned long,std::shared_ptr<std::vector<unsigned char,std::allocator<unsigned char> > const > > const >::_Destroy
PUBLIC	?_Getptr@?$_Ref_count_obj@$$CBV?$tuple@W4PacketType@@KKV?$shared_ptr@$$CBV?$vector@EV?$allocator@E@std@@@std@@@std@@@std@@@std@@QBEPBV?$tuple@W4PacketType@@KKV?$shared_ptr@$$CBV?$vector@EV?$allocator@E@std@@@std@@@std@@@2@XZ ; std::_Ref_count_obj<std::tuple<enum PacketType,unsigned long,unsigned long,std::shared_ptr<std::vector<unsigned char,std::allocator<unsigned char> > const > > const >::_Getptr
PUBLIC	?_Delete_this@?$_Ref_count_obj@$$CBV?$vector@EV?$allocator@E@std@@@std@@@std@@EAEXXZ ; std::_Ref_count_obj<std::vector<unsigned char,std::allocator<unsigned char> > const >::_Delete_this
PUBLIC	?_Destroy@?$_Ref_count_obj@$$CBV?$vector@EV?$allocator@E@std@@@std@@@std@@EAEXXZ ; std::_Ref_count_obj<std::vector<unsigned char,std::allocator<unsigned char> > const >::_Destroy
PUBLIC	?_Getptr@?$_Ref_count_obj@$$CBV?$vector@EV?$allocator@E@std@@@std@@@std@@QBEPBV?$vector@EV?$allocator@E@std@@@2@XZ ; std::_Ref_count_obj<std::vector<unsigned char,std::allocator<unsigned char> > const >::_Getptr
PUBLIC	??0?$move_iterator@V?$_Deque_iterator@V?$_Deque_val@U?$_Deque_simple_types@V?$shared_ptr@$$CBV?$tuple@W4PacketType@@KKV?$shared_ptr@$$CBV?$vector@EV?$allocator@E@std@@@std@@@std@@@std@@@std@@@std@@@std@@@std@@@std@@QAE@V?$_Deque_iterator@V?$_Deque_val@U?$_Deque_simple_types@V?$shared_ptr@$$CBV?$tuple@W4PacketType@@KKV?$shared_ptr@$$CBV?$vector@EV?$allocator@E@std@@@std@@@std@@@std@@@std@@@std@@@std@@@1@@Z ; std::move_iterator<std::_Deque_iterator<std::_Deque_val<std::_Deque_simple_types<std::shared_ptr<std::tuple<enum PacketType,unsigned long,unsigned long,std::shared_ptr<std::vector<unsigned char,std::allocator<unsigned char> > const > > const > > > > >::move_iterator<std::_Deque_iterator<std::_Deque_val<std::_Deque_simple_types<std::shared_ptr<std::tuple<enum PacketType,unsigned long,unsigned long,std::shared_ptr<std::vector<unsigned char,std::allocator<unsigned char> > const > > const > > > > >
PUBLIC	??0?$unique_ptr@UReplayBuffer@@U?$default_delete@UReplayBuffer@@@std@@@std@@QAE@PAUReplayBuffer@@@Z ; std::unique_ptr<ReplayBuffer,std::default_delete<ReplayBuffer> >::unique_ptr<ReplayBuffer,std::default_delete<ReplayBuffer> >
PUBLIC	??0?$unique_ptr@URecordingHelper@@U?$default_delete@URecordingHelper@@@std@@@std@@QAE@PAURecordingHelper@@@Z ; std::unique_ptr<RecordingHelper,std::default_delete<RecordingHelper> >::unique_ptr<RecordingHelper,std::default_delete<RecordingHelper> >
PUBLIC	?swap@?$unique_ptr@XU?$ThreadDeleter@$0DOI@@@@std@@QAEXAAV12@@Z ; std::unique_ptr<void,ThreadDeleter<1000> >::swap
PUBLIC	??9?$_Deque_const_iterator@V?$_Deque_val@U?$_Deque_simple_types@V?$shared_ptr@$$CBV?$tuple@W4PacketType@@KKV?$shared_ptr@$$CBV?$vector@EV?$allocator@E@std@@@std@@@std@@@std@@@std@@@std@@@std@@@std@@QBE_NABV01@@Z ; std::_Deque_const_iterator<std::_Deque_val<std::_Deque_simple_types<std::shared_ptr<std::tuple<enum PacketType,unsigned long,unsigned long,std::shared_ptr<std::vector<unsigned char,std::allocator<unsigned char> > const > > const > > > >::operator!=
PUBLIC	??E?$_Deque_const_iterator@V?$_Deque_val@U?$_Deque_simple_types@V?$shared_ptr@$$CBV?$tuple@W4PacketType@@KKV?$shared_ptr@$$CBV?$vector@EV?$allocator@E@std@@@std@@@std@@@std@@@std@@@std@@@std@@@std@@QAEAAV01@XZ ; std::_Deque_const_iterator<std::_Deque_val<std::_Deque_simple_types<std::shared_ptr<std::tuple<enum PacketType,unsigned long,unsigned long,std::shared_ptr<std::vector<unsigned char,std::allocator<unsigned char> > const > > const > > > >::operator++
PUBLIC	?_Growmap@?$deque@V?$shared_ptr@$$CBV?$tuple@W4PacketType@@KKV?$shared_ptr@$$CBV?$vector@EV?$allocator@E@std@@@std@@@std@@@std@@@std@@V?$allocator@V?$shared_ptr@$$CBV?$tuple@W4PacketType@@KKV?$shared_ptr@$$CBV?$vector@EV?$allocator@E@std@@@std@@@std@@@std@@@std@@@2@@std@@IAEXI@Z ; std::deque<std::shared_ptr<std::tuple<enum PacketType,unsigned long,unsigned long,std::shared_ptr<std::vector<unsigned char,std::allocator<unsigned char> > const > > const >,std::allocator<std::shared_ptr<std::tuple<enum PacketType,unsigned long,unsigned long,std::shared_ptr<std::vector<unsigned char,std::allocator<unsigned char> > const > > const > > >::_Growmap
PUBLIC	?rend@?$deque@V?$shared_ptr@$$CBV?$tuple@W4PacketType@@KKV?$shared_ptr@$$CBV?$vector@EV?$allocator@E@std@@@std@@@std@@@std@@@std@@V?$allocator@V?$shared_ptr@$$CBV?$tuple@W4PacketType@@KKV?$shared_ptr@$$CBV?$vector@EV?$allocator@E@std@@@std@@@std@@@std@@@std@@@2@@std@@QAE?AV?$reverse_iterator@V?$_Deque_iterator@V?$_Deque_val@U?$_Deque_simple_types@V?$shared_ptr@$$CBV?$tuple@W4PacketType@@KKV?$shared_ptr@$$CBV?$vector@EV?$allocator@E@std@@@std@@@std@@@std@@@std@@@std@@@std@@@std@@@2@XZ ; std::deque<std::shared_ptr<std::tuple<enum PacketType,unsigned long,unsigned long,std::shared_ptr<std::vector<unsigned char,std::allocator<unsigned char> > const > > const >,std::allocator<std::shared_ptr<std::tuple<enum PacketType,unsigned long,unsigned long,std::shared_ptr<std::vector<unsigned char,std::allocator<unsigned char> > const > > const > > >::rend
PUBLIC	?rbegin@?$deque@V?$shared_ptr@$$CBV?$tuple@W4PacketType@@KKV?$shared_ptr@$$CBV?$vector@EV?$allocator@E@std@@@std@@@std@@@std@@@std@@V?$allocator@V?$shared_ptr@$$CBV?$tuple@W4PacketType@@KKV?$shared_ptr@$$CBV?$vector@EV?$allocator@E@std@@@std@@@std@@@std@@@std@@@2@@std@@QAE?AV?$reverse_iterator@V?$_Deque_iterator@V?$_Deque_val@U?$_Deque_simple_types@V?$shared_ptr@$$CBV?$tuple@W4PacketType@@KKV?$shared_ptr@$$CBV?$vector@EV?$allocator@E@std@@@std@@@std@@@std@@@std@@@std@@@std@@@std@@@2@XZ ; std::deque<std::shared_ptr<std::tuple<enum PacketType,unsigned long,unsigned long,std::shared_ptr<std::vector<unsigned char,std::allocator<unsigned char> > const > > const >,std::allocator<std::shared_ptr<std::tuple<enum PacketType,unsigned long,unsigned long,std::shared_ptr<std::vector<unsigned char,std::allocator<unsigned char> > const > > const > > >::rbegin
PUBLIC	??0?$deque@V?$shared_ptr@$$CBV?$tuple@W4PacketType@@KKV?$shared_ptr@$$CBV?$vector@EV?$allocator@E@std@@@std@@@std@@@std@@@std@@V?$allocator@V?$shared_ptr@$$CBV?$tuple@W4PacketType@@KKV?$shared_ptr@$$CBV?$vector@EV?$allocator@E@std@@@std@@@std@@@std@@@std@@@2@@std@@QAE@$$QAV01@@Z ; std::deque<std::shared_ptr<std::tuple<enum PacketType,unsigned long,unsigned long,std::shared_ptr<std::vector<unsigned char,std::allocator<unsigned char> > const > > const >,std::allocator<std::shared_ptr<std::tuple<enum PacketType,unsigned long,unsigned long,std::shared_ptr<std::vector<unsigned char,std::allocator<unsigned char> > const > > const > > >::deque<std::shared_ptr<std::tuple<enum PacketType,unsigned long,unsigned long,std::shared_ptr<std::vector<unsigned char,std::allocator<unsigned char> > const > > const >,std::allocator<std::shared_ptr<std::tuple<enum PacketType,unsigned long,unsigned long,std::shared_ptr<std::vector<unsigned char,std::allocator<unsigned char> > const > > const > > >
PUBLIC	?_Reset@?$_Ptr_base@$$CBV?$tuple@W4PacketType@@KKV?$shared_ptr@$$CBV?$vector@EV?$allocator@E@std@@@std@@@std@@@std@@@std@@QAEXPBV?$tuple@W4PacketType@@KKV?$shared_ptr@$$CBV?$vector@EV?$allocator@E@std@@@std@@@std@@@2@PAV_Ref_count_base@2@@Z ; std::_Ptr_base<std::tuple<enum PacketType,unsigned long,unsigned long,std::shared_ptr<std::vector<unsigned char,std::allocator<unsigned char> > const > > const >::_Reset
PUBLIC	??0?$shared_ptr@$$CBV?$tuple@W4PacketType@@KKV?$shared_ptr@$$CBV?$vector@EV?$allocator@E@std@@@std@@@std@@@std@@@std@@QAE@$$QAV01@@Z ; std::shared_ptr<std::tuple<enum PacketType,unsigned long,unsigned long,std::shared_ptr<std::vector<unsigned char,std::allocator<unsigned char> > const > > const >::shared_ptr<std::tuple<enum PacketType,unsigned long,unsigned long,std::shared_ptr<std::vector<unsigned char,std::allocator<unsigned char> > const > > const >
PUBLIC	?swap@?$shared_ptr@X@std@@QAEXAAV12@@Z		; std::shared_ptr<void>::swap
PUBLIC	??0?$shared_ptr@X@std@@QAE@ABV01@@Z		; std::shared_ptr<void>::shared_ptr<void>
PUBLIC	?_Orphan_range@?$vector@U?$pair@V?$unique_ptr@XUThreadCloser@@@std@@V?$shared_ptr@X@2@@std@@V?$allocator@U?$pair@V?$unique_ptr@XUThreadCloser@@@std@@V?$shared_ptr@X@2@@std@@@2@@std@@IBEXPAU?$pair@V?$unique_ptr@XUThreadCloser@@@std@@V?$shared_ptr@X@2@@2@0@Z ; std::vector<std::pair<std::unique_ptr<void,ThreadCloser>,std::shared_ptr<void> >,std::allocator<std::pair<std::unique_ptr<void,ThreadCloser>,std::shared_ptr<void> > > >::_Orphan_range
PUBLIC	?_Reserve@?$vector@U?$pair@V?$unique_ptr@XUThreadCloser@@@std@@V?$shared_ptr@X@2@@std@@V?$allocator@U?$pair@V?$unique_ptr@XUThreadCloser@@@std@@V?$shared_ptr@X@2@@std@@@2@@std@@IAEXI@Z ; std::vector<std::pair<std::unique_ptr<void,ThreadCloser>,std::shared_ptr<void> >,std::allocator<std::pair<std::unique_ptr<void,ThreadCloser>,std::shared_ptr<void> > > >::_Reserve
PUBLIC	?_Orphan_range@?$vector@KV?$allocator@K@std@@@std@@IBEXPAK0@Z ; std::vector<unsigned long,std::allocator<unsigned long> >::_Orphan_range
PUBLIC	?_Reserve@?$vector@KV?$allocator@K@std@@@std@@IAEXI@Z ; std::vector<unsigned long,std::allocator<unsigned long> >::_Reserve
PUBLIC	?allocate@?$_Wrap_alloc@V?$allocator@U?$pair@KV?$_List_iterator@V?$_List_val@U?$_List_simple_types@V?$shared_ptr@$$CBV?$tuple@W4PacketType@@KKV?$shared_ptr@$$CBV?$vector@EV?$allocator@E@std@@@std@@@std@@@std@@@std@@@std@@@std@@@std@@@std@@@std@@@std@@QAEPAU?$pair@KV?$_List_iterator@V?$_List_val@U?$_List_simple_types@V?$shared_ptr@$$CBV?$tuple@W4PacketType@@KKV?$shared_ptr@$$CBV?$vector@EV?$allocator@E@std@@@std@@@std@@@std@@@std@@@std@@@std@@@std@@@2@I@Z ; std::_Wrap_alloc<std::allocator<std::pair<unsigned long,std::_List_iterator<std::_List_val<std::_List_simple_types<std::shared_ptr<std::tuple<enum PacketType,unsigned long,unsigned long,std::shared_ptr<std::vector<unsigned char,std::allocator<unsigned char> > const > > const > > > > > > >::allocate
PUBLIC	?_Growmap@?$deque@U?$pair@KV?$_List_iterator@V?$_List_val@U?$_List_simple_types@V?$shared_ptr@$$CBV?$tuple@W4PacketType@@KKV?$shared_ptr@$$CBV?$vector@EV?$allocator@E@std@@@std@@@std@@@std@@@std@@@std@@@std@@@std@@@std@@V?$allocator@U?$pair@KV?$_List_iterator@V?$_List_val@U?$_List_simple_types@V?$shared_ptr@$$CBV?$tuple@W4PacketType@@KKV?$shared_ptr@$$CBV?$vector@EV?$allocator@E@std@@@std@@@std@@@std@@@std@@@std@@@std@@@std@@@std@@@2@@std@@IAEXI@Z ; std::deque<std::pair<unsigned long,std::_List_iterator<std::_List_val<std::_List_simple_types<std::shared_ptr<std::tuple<enum PacketType,unsigned long,unsigned long,std::shared_ptr<std::vector<unsigned char,std::allocator<unsigned char> > const > > const > > > > >,std::allocator<std::pair<unsigned long,std::_List_iterator<std::_List_val<std::_List_simple_types<std::shared_ptr<std::tuple<enum PacketType,unsigned long,unsigned long,std::shared_ptr<std::vector<unsigned char,std::allocator<unsigned char> > const > > const > > > > > > >::_Growmap
PUBLIC	?allocate@?$_Wrap_alloc@V?$allocator@V?$shared_ptr@$$CBV?$tuple@W4PacketType@@KKV?$shared_ptr@$$CBV?$vector@EV?$allocator@E@std@@@std@@@std@@@std@@@std@@@std@@@std@@QAEPAV?$shared_ptr@$$CBV?$tuple@W4PacketType@@KKV?$shared_ptr@$$CBV?$vector@EV?$allocator@E@std@@@std@@@std@@@std@@@2@I@Z ; std::_Wrap_alloc<std::allocator<std::shared_ptr<std::tuple<enum PacketType,unsigned long,unsigned long,std::shared_ptr<std::vector<unsigned char,std::allocator<unsigned char> > const > > const > > >::allocate
PUBLIC	?_Unchecked_end@?$list@V?$shared_ptr@$$CBV?$tuple@W4PacketType@@KKV?$shared_ptr@$$CBV?$vector@EV?$allocator@E@std@@@std@@@std@@@std@@@std@@V?$allocator@V?$shared_ptr@$$CBV?$tuple@W4PacketType@@KKV?$shared_ptr@$$CBV?$vector@EV?$allocator@E@std@@@std@@@std@@@std@@@std@@@2@@std@@QAE?AV?$_List_unchecked_iterator@V?$_List_val@U?$_List_simple_types@V?$shared_ptr@$$CBV?$tuple@W4PacketType@@KKV?$shared_ptr@$$CBV?$vector@EV?$allocator@E@std@@@std@@@std@@@std@@@std@@@std@@@std@@@2@XZ ; std::list<std::shared_ptr<std::tuple<enum PacketType,unsigned long,unsigned long,std::shared_ptr<std::vector<unsigned char,std::allocator<unsigned char> > const > > const >,std::allocator<std::shared_ptr<std::tuple<enum PacketType,unsigned long,unsigned long,std::shared_ptr<std::vector<unsigned char,std::allocator<unsigned char> > const > > const > > >::_Unchecked_end
PUBLIC	??0?$unique_ptr@VVideoFileStream@@U?$default_delete@VVideoFileStream@@@std@@@std@@QAE@$$T@Z ; std::unique_ptr<VideoFileStream,std::default_delete<VideoFileStream> >::unique_ptr<VideoFileStream,std::default_delete<VideoFileStream> >
PUBLIC	?_Reset@?$_Ptr_base@$$CBV?$vector@EV?$allocator@E@std@@@std@@@std@@QAEXPBV?$vector@EV?$allocator@E@std@@@2@PAV_Ref_count_base@2@@Z ; std::_Ptr_base<std::vector<unsigned char,std::allocator<unsigned char> > const >::_Reset
PUBLIC	??0?$shared_ptr@$$CBV?$vector@EV?$allocator@E@std@@@std@@@std@@QAE@$$QAV01@@Z ; std::shared_ptr<std::vector<unsigned char,std::allocator<unsigned char> > const >::shared_ptr<std::vector<unsigned char,std::allocator<unsigned char> > const >
PUBLIC	??0?$shared_ptr@$$CBV?$vector@EV?$allocator@E@std@@@std@@@std@@QAE@XZ ; std::shared_ptr<std::vector<unsigned char,std::allocator<unsigned char> > const >::shared_ptr<std::vector<unsigned char,std::allocator<unsigned char> > const >
PUBLIC	??0?$move_iterator@V?$_Deque_iterator@V?$_Deque_val@U?$_Deque_simple_types@V?$shared_ptr@$$CBV?$tuple@W4PacketType@@KKV?$shared_ptr@$$CBV?$vector@EV?$allocator@E@std@@@std@@@std@@@std@@@std@@@std@@@std@@@std@@@std@@QAE@ABV01@@Z ; std::move_iterator<std::_Deque_iterator<std::_Deque_val<std::_Deque_simple_types<std::shared_ptr<std::tuple<enum PacketType,unsigned long,unsigned long,std::shared_ptr<std::vector<unsigned char,std::allocator<unsigned char> > const > > const > > > > >::move_iterator<std::_Deque_iterator<std::_Deque_val<std::_Deque_simple_types<std::shared_ptr<std::tuple<enum PacketType,unsigned long,unsigned long,std::shared_ptr<std::vector<unsigned char,std::allocator<unsigned char> > const > > const > > > > >
PUBLIC	??$_Allocate@U?$_List_node@V?$shared_ptr@$$CBV?$tuple@W4PacketType@@KKV?$shared_ptr@$$CBV?$vector@EV?$allocator@E@std@@@std@@@std@@@std@@@std@@PAX@std@@@std@@YAPAU?$_List_node@V?$shared_ptr@$$CBV?$tuple@W4PacketType@@KKV?$shared_ptr@$$CBV?$vector@EV?$allocator@E@std@@@std@@@std@@@std@@@std@@PAX@0@IPAU10@@Z ; std::_Allocate<std::_List_node<std::shared_ptr<std::tuple<enum PacketType,unsigned long,unsigned long,std::shared_ptr<std::vector<unsigned char,std::allocator<unsigned char> > const > > const >,void *> >
PUBLIC	??$_Allocate@U_Container_proxy@std@@@std@@YAPAU_Container_proxy@0@IPAU10@@Z ; std::_Allocate<std::_Container_proxy>
PUBLIC	??$construct@PAU?$_List_node@V?$shared_ptr@$$CBV?$tuple@W4PacketType@@KKV?$shared_ptr@$$CBV?$vector@EV?$allocator@E@std@@@std@@@std@@@std@@@std@@PAX@std@@AAPAU12@@?$_Wrap_alloc@V?$allocator@U?$_List_node@V?$shared_ptr@$$CBV?$tuple@W4PacketType@@KKV?$shared_ptr@$$CBV?$vector@EV?$allocator@E@std@@@std@@@std@@@std@@@std@@PAX@std@@@std@@@std@@QAEXPAPAU?$_List_node@V?$shared_ptr@$$CBV?$tuple@W4PacketType@@KKV?$shared_ptr@$$CBV?$vector@EV?$allocator@E@std@@@std@@@std@@@std@@@std@@PAX@1@AAPAU21@@Z ; std::_Wrap_alloc<std::allocator<std::_List_node<std::shared_ptr<std::tuple<enum PacketType,unsigned long,unsigned long,std::shared_ptr<std::vector<unsigned char,std::allocator<unsigned char> > const > > const >,void *> > >::construct<std::_List_node<std::shared_ptr<std::tuple<enum PacketType,unsigned long,unsigned long,std::shared_ptr<std::vector<unsigned char,std::allocator<unsigned char> > const > > const >,void *> *,std::_List_node<std::shared_ptr<std::tuple<enum PacketType,unsigned long,unsigned long,std::shared_ptr<std::vector<unsigned char,std::allocator<unsigned char> > const > > const >,void *> * &>
PUBLIC	??$?0AB_N@?$_Tuple_val@_N@std@@QAE@AB_N@Z	; std::_Tuple_val<bool>::_Tuple_val<bool><bool const &>
PUBLIC	??$_Swap_adl@PAU_Container_proxy@std@@@std@@YAXAAPAU_Container_proxy@0@0@Z ; std::_Swap_adl<std::_Container_proxy *>
PUBLIC	??$?0ABV?$deque@V?$shared_ptr@$$CBV?$tuple@W4PacketType@@KKV?$shared_ptr@$$CBV?$vector@EV?$allocator@E@std@@@std@@@std@@@std@@@std@@V?$allocator@V?$shared_ptr@$$CBV?$tuple@W4PacketType@@KKV?$shared_ptr@$$CBV?$vector@EV?$allocator@E@std@@@std@@@std@@@std@@@std@@@2@@std@@@?$_Tuple_val@V?$deque@V?$shared_ptr@$$CBV?$tuple@W4PacketType@@KKV?$shared_ptr@$$CBV?$vector@EV?$allocator@E@std@@@std@@@std@@@std@@@std@@V?$allocator@V?$shared_ptr@$$CBV?$tuple@W4PacketType@@KKV?$shared_ptr@$$CBV?$vector@EV?$allocator@E@std@@@std@@@std@@@std@@@std@@@2@@std@@@std@@QAE@ABV?$deque@V?$shared_ptr@$$CBV?$tuple@W4PacketType@@KKV?$shared_ptr@$$CBV?$vector@EV?$allocator@E@std@@@std@@@std@@@std@@@std@@V?$allocator@V?$shared_ptr@$$CBV?$tuple@W4PacketType@@KKV?$shared_ptr@$$CBV?$vector@EV?$allocator@E@std@@@std@@@std@@@std@@@std@@@2@@1@@Z ; std::_Tuple_val<std::deque<std::shared_ptr<std::tuple<enum PacketType,unsigned long,unsigned long,std::shared_ptr<std::vector<unsigned char,std::allocator<unsigned char> > const > > const >,std::allocator<std::shared_ptr<std::tuple<enum PacketType,unsigned long,unsigned long,std::shared_ptr<std::vector<unsigned char,std::allocator<unsigned char> > const > > const > > > >::_Tuple_val<std::deque<std::shared_ptr<std::tuple<enum PacketType,unsigned long,unsigned long,std::shared_ptr<std::vector<unsigned char,std::allocator<unsigned char> > const > > const >,std::allocator<std::shared_ptr<std::tuple<enum PacketType,unsigned long,unsigned long,std::shared_ptr<std::vector<unsigned char,std::allocator<unsigned char> > const > > const > > > ><std::deque<std::shared_ptr<std::tuple<enum PacketType,unsigned long,unsigned long,std::shared_ptr<std::vector<unsigned char,std::allocator<unsigned char> > const > > const >,std::allocator<std::shared_ptr<std::tuple<enum PacketType,unsigned long,unsigned long,std::shared_ptr<std::vector<unsigned char,std::allocator<unsigned char> > const > > const > > > const &>
PUBLIC	??$swap@PBV?$tuple@W4PacketType@@KKV?$shared_ptr@$$CBV?$vector@EV?$allocator@E@std@@@std@@@std@@@std@@@std@@YAXAAPBV?$tuple@W4PacketType@@KKV?$shared_ptr@$$CBV?$vector@EV?$allocator@E@std@@@std@@@std@@@0@0@Z ; std::swap<std::tuple<enum PacketType,unsigned long,unsigned long,std::shared_ptr<std::vector<unsigned char,std::allocator<unsigned char> > const > > const *>
PUBLIC	??$swap@PAV_Ref_count_base@std@@@std@@YAXAAPAV_Ref_count_base@0@0@Z ; std::swap<std::_Ref_count_base *>
PUBLIC	??$_Destroy_range@U?$_Wrap_alloc@V?$allocator@U?$pair@V?$unique_ptr@XUThreadCloser@@@std@@V?$shared_ptr@X@2@@std@@@std@@@std@@@std@@YAXPAU?$pair@V?$unique_ptr@XUThreadCloser@@@std@@V?$shared_ptr@X@2@@0@0AAU?$_Wrap_alloc@V?$allocator@U?$pair@V?$unique_ptr@XUThreadCloser@@@std@@V?$shared_ptr@X@2@@std@@@std@@@0@@Z ; std::_Destroy_range<std::_Wrap_alloc<std::allocator<std::pair<std::unique_ptr<void,ThreadCloser>,std::shared_ptr<void> > > > >
PUBLIC	??$destroy@U_Container_proxy@std@@@?$_Wrap_alloc@V?$allocator@U_Container_proxy@std@@@std@@@std@@QAEXPAU_Container_proxy@1@@Z ; std::_Wrap_alloc<std::allocator<std::_Container_proxy> >::destroy<std::_Container_proxy>
PUBLIC	??$construct@U_Container_proxy@std@@U12@@?$_Wrap_alloc@V?$allocator@U_Container_proxy@std@@@std@@@std@@QAEXPAU_Container_proxy@1@$$QAU21@@Z ; std::_Wrap_alloc<std::allocator<std::_Container_proxy> >::construct<std::_Container_proxy,std::_Container_proxy>
PUBLIC	??$destroy@U?$pair@KV?$_List_iterator@V?$_List_val@U?$_List_simple_types@V?$shared_ptr@$$CBV?$tuple@W4PacketType@@KKV?$shared_ptr@$$CBV?$vector@EV?$allocator@E@std@@@std@@@std@@@std@@@std@@@std@@@std@@@std@@@std@@@?$_Wrap_alloc@V?$allocator@U?$pair@KV?$_List_iterator@V?$_List_val@U?$_List_simple_types@V?$shared_ptr@$$CBV?$tuple@W4PacketType@@KKV?$shared_ptr@$$CBV?$vector@EV?$allocator@E@std@@@std@@@std@@@std@@@std@@@std@@@std@@@std@@@std@@@std@@@std@@QAEXPAU?$pair@KV?$_List_iterator@V?$_List_val@U?$_List_simple_types@V?$shared_ptr@$$CBV?$tuple@W4PacketType@@KKV?$shared_ptr@$$CBV?$vector@EV?$allocator@E@std@@@std@@@std@@@std@@@std@@@std@@@std@@@std@@@1@@Z ; std::_Wrap_alloc<std::allocator<std::pair<unsigned long,std::_List_iterator<std::_List_val<std::_List_simple_types<std::shared_ptr<std::tuple<enum PacketType,unsigned long,unsigned long,std::shared_ptr<std::vector<unsigned char,std::allocator<unsigned char> > const > > const > > > > > > >::destroy<std::pair<unsigned long,std::_List_iterator<std::_List_val<std::_List_simple_types<std::shared_ptr<std::tuple<enum PacketType,unsigned long,unsigned long,std::shared_ptr<std::vector<unsigned char,std::allocator<unsigned char> > const > > const > > > > > >
PUBLIC	??$destroy@V?$shared_ptr@$$CBV?$tuple@W4PacketType@@KKV?$shared_ptr@$$CBV?$vector@EV?$allocator@E@std@@@std@@@std@@@std@@@std@@@?$_Wrap_alloc@V?$allocator@U?$_List_node@V?$shared_ptr@$$CBV?$tuple@W4PacketType@@KKV?$shared_ptr@$$CBV?$vector@EV?$allocator@E@std@@@std@@@std@@@std@@@std@@PAX@std@@@std@@@std@@QAEXPAV?$shared_ptr@$$CBV?$tuple@W4PacketType@@KKV?$shared_ptr@$$CBV?$vector@EV?$allocator@E@std@@@std@@@std@@@std@@@1@@Z ; std::_Wrap_alloc<std::allocator<std::_List_node<std::shared_ptr<std::tuple<enum PacketType,unsigned long,unsigned long,std::shared_ptr<std::vector<unsigned char,std::allocator<unsigned char> > const > > const >,void *> > >::destroy<std::shared_ptr<std::tuple<enum PacketType,unsigned long,unsigned long,std::shared_ptr<std::vector<unsigned char,std::allocator<unsigned char> > const > > const > >
PUBLIC	??$addressof@V?$shared_ptr@$$CBV?$tuple@W4PacketType@@KKV?$shared_ptr@$$CBV?$vector@EV?$allocator@E@std@@@std@@@std@@@std@@@std@@@std@@YAPAV?$shared_ptr@$$CBV?$tuple@W4PacketType@@KKV?$shared_ptr@$$CBV?$vector@EV?$allocator@E@std@@@std@@@std@@@std@@@0@AAV10@@Z ; std::addressof<std::shared_ptr<std::tuple<enum PacketType,unsigned long,unsigned long,std::shared_ptr<std::vector<unsigned char,std::allocator<unsigned char> > const > > const > >
PUBLIC	??$destroy@PAU?$_List_node@V?$shared_ptr@$$CBV?$tuple@W4PacketType@@KKV?$shared_ptr@$$CBV?$vector@EV?$allocator@E@std@@@std@@@std@@@std@@@std@@PAX@std@@@?$_Wrap_alloc@V?$allocator@U?$_List_node@V?$shared_ptr@$$CBV?$tuple@W4PacketType@@KKV?$shared_ptr@$$CBV?$vector@EV?$allocator@E@std@@@std@@@std@@@std@@@std@@PAX@std@@@std@@@std@@QAEXPAPAU?$_List_node@V?$shared_ptr@$$CBV?$tuple@W4PacketType@@KKV?$shared_ptr@$$CBV?$vector@EV?$allocator@E@std@@@std@@@std@@@std@@@std@@PAX@1@@Z ; std::_Wrap_alloc<std::allocator<std::_List_node<std::shared_ptr<std::tuple<enum PacketType,unsigned long,unsigned long,std::shared_ptr<std::vector<unsigned char,std::allocator<unsigned char> > const > > const >,void *> > >::destroy<std::_List_node<std::shared_ptr<std::tuple<enum PacketType,unsigned long,unsigned long,std::shared_ptr<std::vector<unsigned char,std::allocator<unsigned char> > const > > const >,void *> *>
PUBLIC	??$addressof@PAU?$_List_node@V?$shared_ptr@$$CBV?$tuple@W4PacketType@@KKV?$shared_ptr@$$CBV?$vector@EV?$allocator@E@std@@@std@@@std@@@std@@@std@@PAX@std@@@std@@YAPAPAU?$_List_node@V?$shared_ptr@$$CBV?$tuple@W4PacketType@@KKV?$shared_ptr@$$CBV?$vector@EV?$allocator@E@std@@@std@@@std@@@std@@@std@@PAX@0@AAPAU10@@Z ; std::addressof<std::_List_node<std::shared_ptr<std::tuple<enum PacketType,unsigned long,unsigned long,std::shared_ptr<std::vector<unsigned char,std::allocator<unsigned char> > const > > const >,void *> *>
PUBLIC	??$addressof@URecordingHelper@@@std@@YAPAURecordingHelper@@AAU1@@Z ; std::addressof<RecordingHelper>
PUBLIC	??$addressof@VVideoFileStream@@@std@@YAPAVVideoFileStream@@AAV1@@Z ; std::addressof<VideoFileStream>
PUBLIC	??$destroy@PAV?$shared_ptr@$$CBV?$tuple@W4PacketType@@KKV?$shared_ptr@$$CBV?$vector@EV?$allocator@E@std@@@std@@@std@@@std@@@std@@@?$_Wrap_alloc@V?$allocator@V?$shared_ptr@$$CBV?$tuple@W4PacketType@@KKV?$shared_ptr@$$CBV?$vector@EV?$allocator@E@std@@@std@@@std@@@std@@@std@@@std@@@std@@QAEXPAPAV?$shared_ptr@$$CBV?$tuple@W4PacketType@@KKV?$shared_ptr@$$CBV?$vector@EV?$allocator@E@std@@@std@@@std@@@std@@@1@@Z ; std::_Wrap_alloc<std::allocator<std::shared_ptr<std::tuple<enum PacketType,unsigned long,unsigned long,std::shared_ptr<std::vector<unsigned char,std::allocator<unsigned char> > const > > const > > >::destroy<std::shared_ptr<std::tuple<enum PacketType,unsigned long,unsigned long,std::shared_ptr<std::vector<unsigned char,std::allocator<unsigned char> > const > > const > *>
PUBLIC	??$?0U?$_Wrap_alloc@V?$allocator@V?$shared_ptr@$$CBV?$tuple@W4PacketType@@KKV?$shared_ptr@$$CBV?$vector@EV?$allocator@E@std@@@std@@@std@@@std@@@std@@@std@@@std@@@?$_Wrap_alloc@V?$allocator@PAV?$shared_ptr@$$CBV?$tuple@W4PacketType@@KKV?$shared_ptr@$$CBV?$vector@EV?$allocator@E@std@@@std@@@std@@@std@@@std@@@std@@@std@@QAE@ABU?$_Wrap_alloc@V?$allocator@V?$shared_ptr@$$CBV?$tuple@W4PacketType@@KKV?$shared_ptr@$$CBV?$vector@EV?$allocator@E@std@@@std@@@std@@@std@@@std@@@std@@@1@@Z ; std::_Wrap_alloc<std::allocator<std::shared_ptr<std::tuple<enum PacketType,unsigned long,unsigned long,std::shared_ptr<std::vector<unsigned char,std::allocator<unsigned char> > const > > const > *> >::_Wrap_alloc<std::allocator<std::shared_ptr<std::tuple<enum PacketType,unsigned long,unsigned long,std::shared_ptr<std::vector<unsigned char,std::allocator<unsigned char> > const > > const > *> ><std::_Wrap_alloc<std::allocator<std::shared_ptr<std::tuple<enum PacketType,unsigned long,unsigned long,std::shared_ptr<std::vector<unsigned char,std::allocator<unsigned char> > const > > const > > > >
PUBLIC	??$swap@I@std@@YAXAAI0@Z			; std::swap<unsigned int>
PUBLIC	??$_Swap_adl@PAPAV?$shared_ptr@$$CBV?$tuple@W4PacketType@@KKV?$shared_ptr@$$CBV?$vector@EV?$allocator@E@std@@@std@@@std@@@std@@@std@@@std@@YAXAAPAPAV?$shared_ptr@$$CBV?$tuple@W4PacketType@@KKV?$shared_ptr@$$CBV?$vector@EV?$allocator@E@std@@@std@@@std@@@std@@@0@0@Z ; std::_Swap_adl<std::shared_ptr<std::tuple<enum PacketType,unsigned long,unsigned long,std::shared_ptr<std::vector<unsigned char,std::allocator<unsigned char> > const > > const > * *>
PUBLIC	??$?8V?$allocator@V?$shared_ptr@$$CBV?$tuple@W4PacketType@@KKV?$shared_ptr@$$CBV?$vector@EV?$allocator@E@std@@@std@@@std@@@std@@@std@@@std@@V01@@std@@YA_NABU?$_Wrap_alloc@V?$allocator@V?$shared_ptr@$$CBV?$tuple@W4PacketType@@KKV?$shared_ptr@$$CBV?$vector@EV?$allocator@E@std@@@std@@@std@@@std@@@std@@@std@@@0@0@Z ; std::operator==<std::allocator<std::shared_ptr<std::tuple<enum PacketType,unsigned long,unsigned long,std::shared_ptr<std::vector<unsigned char,std::allocator<unsigned char> > const > > const > >,std::allocator<std::shared_ptr<std::tuple<enum PacketType,unsigned long,unsigned long,std::shared_ptr<std::vector<unsigned char,std::allocator<unsigned char> > const > > const > > >
PUBLIC	??$?0ABV?$shared_ptr@X@std@@@?$_Tuple_val@V?$shared_ptr@X@std@@@std@@QAE@ABV?$shared_ptr@X@1@@Z ; std::_Tuple_val<std::shared_ptr<void> >::_Tuple_val<std::shared_ptr<void> ><std::shared_ptr<void> const &>
PUBLIC	??$_Reset@$$CBV?$tuple@W4PacketType@@KKV?$shared_ptr@$$CBV?$vector@EV?$allocator@E@std@@@std@@@std@@@std@@@?$_Ptr_base@$$CBV?$tuple@W4PacketType@@KKV?$shared_ptr@$$CBV?$vector@EV?$allocator@E@std@@@std@@@std@@@std@@@std@@QAEXABV01@@Z ; std::_Ptr_base<std::tuple<enum PacketType,unsigned long,unsigned long,std::shared_ptr<std::vector<unsigned char,std::allocator<unsigned char> > const > > const >::_Reset<std::tuple<enum PacketType,unsigned long,unsigned long,std::shared_ptr<std::vector<unsigned char,std::allocator<unsigned char> > const > > const >
PUBLIC	??$_Destroy_range@U?$_Wrap_alloc@V?$allocator@K@std@@@std@@@std@@YAXPAK0AAU?$_Wrap_alloc@V?$allocator@K@std@@@0@@Z ; std::_Destroy_range<std::_Wrap_alloc<std::allocator<unsigned long> > >
PUBLIC	??$destroy@PAU?$pair@KV?$_List_iterator@V?$_List_val@U?$_List_simple_types@V?$shared_ptr@$$CBV?$tuple@W4PacketType@@KKV?$shared_ptr@$$CBV?$vector@EV?$allocator@E@std@@@std@@@std@@@std@@@std@@@std@@@std@@@std@@@std@@@?$_Wrap_alloc@V?$allocator@U?$pair@KV?$_List_iterator@V?$_List_val@U?$_List_simple_types@V?$shared_ptr@$$CBV?$tuple@W4PacketType@@KKV?$shared_ptr@$$CBV?$vector@EV?$allocator@E@std@@@std@@@std@@@std@@@std@@@std@@@std@@@std@@@std@@@std@@@std@@QAEXPAPAU?$pair@KV?$_List_iterator@V?$_List_val@U?$_List_simple_types@V?$shared_ptr@$$CBV?$tuple@W4PacketType@@KKV?$shared_ptr@$$CBV?$vector@EV?$allocator@E@std@@@std@@@std@@@std@@@std@@@std@@@std@@@std@@@1@@Z ; std::_Wrap_alloc<std::allocator<std::pair<unsigned long,std::_List_iterator<std::_List_val<std::_List_simple_types<std::shared_ptr<std::tuple<enum PacketType,unsigned long,unsigned long,std::shared_ptr<std::vector<unsigned char,std::allocator<unsigned char> > const > > const > > > > > > >::destroy<std::pair<unsigned long,std::_List_iterator<std::_List_val<std::_List_simple_types<std::shared_ptr<std::tuple<enum PacketType,unsigned long,unsigned long,std::shared_ptr<std::vector<unsigned char,std::allocator<unsigned char> > const > > const > > > > > *>
PUBLIC	??$?0U?$_Wrap_alloc@V?$allocator@U?$pair@KV?$_List_iterator@V?$_List_val@U?$_List_simple_types@V?$shared_ptr@$$CBV?$tuple@W4PacketType@@KKV?$shared_ptr@$$CBV?$vector@EV?$allocator@E@std@@@std@@@std@@@std@@@std@@@std@@@std@@@std@@@std@@@std@@@std@@@?$_Wrap_alloc@V?$allocator@PAU?$pair@KV?$_List_iterator@V?$_List_val@U?$_List_simple_types@V?$shared_ptr@$$CBV?$tuple@W4PacketType@@KKV?$shared_ptr@$$CBV?$vector@EV?$allocator@E@std@@@std@@@std@@@std@@@std@@@std@@@std@@@std@@@std@@@std@@@std@@QAE@ABU?$_Wrap_alloc@V?$allocator@U?$pair@KV?$_List_iterator@V?$_List_val@U?$_List_simple_types@V?$shared_ptr@$$CBV?$tuple@W4PacketType@@KKV?$shared_ptr@$$CBV?$vector@EV?$allocator@E@std@@@std@@@std@@@std@@@std@@@std@@@std@@@std@@@std@@@std@@@1@@Z ; std::_Wrap_alloc<std::allocator<std::pair<unsigned long,std::_List_iterator<std::_List_val<std::_List_simple_types<std::shared_ptr<std::tuple<enum PacketType,unsigned long,unsigned long,std::shared_ptr<std::vector<unsigned char,std::allocator<unsigned char> > const > > const > > > > > *> >::_Wrap_alloc<std::allocator<std::pair<unsigned long,std::_List_iterator<std::_List_val<std::_List_simple_types<std::shared_ptr<std::tuple<enum PacketType,unsigned long,unsigned long,std::shared_ptr<std::vector<unsigned char,std::allocator<unsigned char> > const > > const > > > > > *> ><std::_Wrap_alloc<std::allocator<std::pair<unsigned long,std::_List_iterator<std::_List_val<std::_List_simple_types<std::shared_ptr<std::tuple<enum PacketType,unsigned long,unsigned long,std::shared_ptr<std::vector<unsigned char,std::allocator<unsigned char> > const > > const > > > > > > > >
PUBLIC	??$_Move@V?$_Deque_iterator@V?$_Deque_val@U?$_Deque_simple_types@U?$pair@KV?$_List_iterator@V?$_List_val@U?$_List_simple_types@V?$shared_ptr@$$CBV?$tuple@W4PacketType@@KKV?$shared_ptr@$$CBV?$vector@EV?$allocator@E@std@@@std@@@std@@@std@@@std@@@std@@@std@@@std@@@std@@@std@@@std@@@std@@V12@@std@@YA?AV?$_Deque_iterator@V?$_Deque_val@U?$_Deque_simple_types@U?$pair@KV?$_List_iterator@V?$_List_val@U?$_List_simple_types@V?$shared_ptr@$$CBV?$tuple@W4PacketType@@KKV?$shared_ptr@$$CBV?$vector@EV?$allocator@E@std@@@std@@@std@@@std@@@std@@@std@@@std@@@std@@@std@@@std@@@std@@@0@V10@00@Z ; std::_Move<std::_Deque_iterator<std::_Deque_val<std::_Deque_simple_types<std::pair<unsigned long,std::_List_iterator<std::_List_val<std::_List_simple_types<std::shared_ptr<std::tuple<enum PacketType,unsigned long,unsigned long,std::shared_ptr<std::vector<unsigned char,std::allocator<unsigned char> > const > > const > > > > > > > >,std::_Deque_iterator<std::_Deque_val<std::_Deque_simple_types<std::pair<unsigned long,std::_List_iterator<std::_List_val<std::_List_simple_types<std::shared_ptr<std::tuple<enum PacketType,unsigned long,unsigned long,std::shared_ptr<std::vector<unsigned char,std::allocator<unsigned char> > const > > const > > > > > > > > >
PUBLIC	??$_Move_backward@V?$_Deque_iterator@V?$_Deque_val@U?$_Deque_simple_types@U?$pair@KV?$_List_iterator@V?$_List_val@U?$_List_simple_types@V?$shared_ptr@$$CBV?$tuple@W4PacketType@@KKV?$shared_ptr@$$CBV?$vector@EV?$allocator@E@std@@@std@@@std@@@std@@@std@@@std@@@std@@@std@@@std@@@std@@@std@@@std@@V12@@std@@YA?AV?$_Deque_iterator@V?$_Deque_val@U?$_Deque_simple_types@U?$pair@KV?$_List_iterator@V?$_List_val@U?$_List_simple_types@V?$shared_ptr@$$CBV?$tuple@W4PacketType@@KKV?$shared_ptr@$$CBV?$vector@EV?$allocator@E@std@@@std@@@std@@@std@@@std@@@std@@@std@@@std@@@std@@@std@@@std@@@0@V10@00@Z ; std::_Move_backward<std::_Deque_iterator<std::_Deque_val<std::_Deque_simple_types<std::pair<unsigned long,std::_List_iterator<std::_List_val<std::_List_simple_types<std::shared_ptr<std::tuple<enum PacketType,unsigned long,unsigned long,std::shared_ptr<std::vector<unsigned char,std::allocator<unsigned char> > const > > const > > > > > > > >,std::_Deque_iterator<std::_Deque_val<std::_Deque_simple_types<std::pair<unsigned long,std::_List_iterator<std::_List_val<std::_List_simple_types<std::shared_ptr<std::tuple<enum PacketType,unsigned long,unsigned long,std::shared_ptr<std::vector<unsigned char,std::allocator<unsigned char> > const > > const > > > > > > > > >
PUBLIC	??$destroy@V?$shared_ptr@$$CBV?$tuple@W4PacketType@@KKV?$shared_ptr@$$CBV?$vector@EV?$allocator@E@std@@@std@@@std@@@std@@@std@@@?$_Wrap_alloc@V?$allocator@V?$shared_ptr@$$CBV?$tuple@W4PacketType@@KKV?$shared_ptr@$$CBV?$vector@EV?$allocator@E@std@@@std@@@std@@@std@@@std@@@std@@@std@@QAEXPAV?$shared_ptr@$$CBV?$tuple@W4PacketType@@KKV?$shared_ptr@$$CBV?$vector@EV?$allocator@E@std@@@std@@@std@@@std@@@1@@Z ; std::_Wrap_alloc<std::allocator<std::shared_ptr<std::tuple<enum PacketType,unsigned long,unsigned long,std::shared_ptr<std::vector<unsigned char,std::allocator<unsigned char> > const > > const > > >::destroy<std::shared_ptr<std::tuple<enum PacketType,unsigned long,unsigned long,std::shared_ptr<std::vector<unsigned char,std::allocator<unsigned char> > const > > const > >
PUBLIC	??$?0V?$move_iterator@V?$_Deque_iterator@V?$_Deque_val@U?$_Deque_simple_types@V?$shared_ptr@$$CBV?$tuple@W4PacketType@@KKV?$shared_ptr@$$CBV?$vector@EV?$allocator@E@std@@@std@@@std@@@std@@@std@@@std@@@std@@@std@@@std@@X@?$deque@V?$shared_ptr@$$CBV?$tuple@W4PacketType@@KKV?$shared_ptr@$$CBV?$vector@EV?$allocator@E@std@@@std@@@std@@@std@@@std@@V?$allocator@V?$shared_ptr@$$CBV?$tuple@W4PacketType@@KKV?$shared_ptr@$$CBV?$vector@EV?$allocator@E@std@@@std@@@std@@@std@@@std@@@2@@std@@QAE@V?$move_iterator@V?$_Deque_iterator@V?$_Deque_val@U?$_Deque_simple_types@V?$shared_ptr@$$CBV?$tuple@W4PacketType@@KKV?$shared_ptr@$$CBV?$vector@EV?$allocator@E@std@@@std@@@std@@@std@@@std@@@std@@@std@@@std@@@1@0@Z ; std::deque<std::shared_ptr<std::tuple<enum PacketType,unsigned long,unsigned long,std::shared_ptr<std::vector<unsigned char,std::allocator<unsigned char> > const > > const >,std::allocator<std::shared_ptr<std::tuple<enum PacketType,unsigned long,unsigned long,std::shared_ptr<std::vector<unsigned char,std::allocator<unsigned char> > const > > const > > >::deque<std::shared_ptr<std::tuple<enum PacketType,unsigned long,unsigned long,std::shared_ptr<std::vector<unsigned char,std::allocator<unsigned char> > const > > const >,std::allocator<std::shared_ptr<std::tuple<enum PacketType,unsigned long,unsigned long,std::shared_ptr<std::vector<unsigned char,std::allocator<unsigned char> > const > > const > > ><std::move_iterator<std::_Deque_iterator<std::_Deque_val<std::_Deque_simple_types<std::shared_ptr<std::tuple<enum PacketType,unsigned long,unsigned long,std::shared_ptr<std::vector<unsigned char,std::allocator<unsigned char> > const > > const > > > > >,void>
PUBLIC	??$make_move_iterator@V?$_Deque_iterator@V?$_Deque_val@U?$_Deque_simple_types@V?$shared_ptr@$$CBV?$tuple@W4PacketType@@KKV?$shared_ptr@$$CBV?$vector@EV?$allocator@E@std@@@std@@@std@@@std@@@std@@@std@@@std@@@std@@@std@@YA?AV?$move_iterator@V?$_Deque_iterator@V?$_Deque_val@U?$_Deque_simple_types@V?$shared_ptr@$$CBV?$tuple@W4PacketType@@KKV?$shared_ptr@$$CBV?$vector@EV?$allocator@E@std@@@std@@@std@@@std@@@std@@@std@@@std@@@std@@@0@V?$_Deque_iterator@V?$_Deque_val@U?$_Deque_simple_types@V?$shared_ptr@$$CBV?$tuple@W4PacketType@@KKV?$shared_ptr@$$CBV?$vector@EV?$allocator@E@std@@@std@@@std@@@std@@@std@@@std@@@std@@@0@@Z ; std::make_move_iterator<std::_Deque_iterator<std::_Deque_val<std::_Deque_simple_types<std::shared_ptr<std::tuple<enum PacketType,unsigned long,unsigned long,std::shared_ptr<std::vector<unsigned char,std::allocator<unsigned char> > const > > const > > > > >
PUBLIC	??$_Construct@V?$_Deque_const_iterator@V?$_Deque_val@U?$_Deque_simple_types@V?$shared_ptr@$$CBV?$tuple@W4PacketType@@KKV?$shared_ptr@$$CBV?$vector@EV?$allocator@E@std@@@std@@@std@@@std@@@std@@@std@@@std@@@std@@@?$deque@V?$shared_ptr@$$CBV?$tuple@W4PacketType@@KKV?$shared_ptr@$$CBV?$vector@EV?$allocator@E@std@@@std@@@std@@@std@@@std@@V?$allocator@V?$shared_ptr@$$CBV?$tuple@W4PacketType@@KKV?$shared_ptr@$$CBV?$vector@EV?$allocator@E@std@@@std@@@std@@@std@@@std@@@2@@std@@QAEXV?$_Deque_const_iterator@V?$_Deque_val@U?$_Deque_simple_types@V?$shared_ptr@$$CBV?$tuple@W4PacketType@@KKV?$shared_ptr@$$CBV?$vector@EV?$allocator@E@std@@@std@@@std@@@std@@@std@@@std@@@std@@@1@0@Z ; std::deque<std::shared_ptr<std::tuple<enum PacketType,unsigned long,unsigned long,std::shared_ptr<std::vector<unsigned char,std::allocator<unsigned char> > const > > const >,std::allocator<std::shared_ptr<std::tuple<enum PacketType,unsigned long,unsigned long,std::shared_ptr<std::vector<unsigned char,std::allocator<unsigned char> > const > > const > > >::_Construct<std::_Deque_const_iterator<std::_Deque_val<std::_Deque_simple_types<std::shared_ptr<std::tuple<enum PacketType,unsigned long,unsigned long,std::shared_ptr<std::vector<unsigned char,std::allocator<unsigned char> > const > > const > > > > >
PUBLIC	??$?0ABK@?$_Tuple_val@K@std@@QAE@ABK@Z		; std::_Tuple_val<unsigned long>::_Tuple_val<unsigned long><unsigned long const &>
PUBLIC	??$_Move@PAKPAK@std@@YAPAKPAK00@Z		; std::_Move<unsigned long *,unsigned long *>
PUBLIC	??$_Reset@$$CBV?$vector@EV?$allocator@E@std@@@std@@@?$_Ptr_base@$$CBV?$vector@EV?$allocator@E@std@@@std@@@std@@QAEXABV01@@Z ; std::_Ptr_base<std::vector<unsigned char,std::allocator<unsigned char> > const >::_Reset<std::vector<unsigned char,std::allocator<unsigned char> > const >
PUBLIC	??$?0PAUReplayBuffer@@V?$unique_ptr@UReplayBuffer@@U?$default_delete@UReplayBuffer@@@std@@@std@@X@?$pair@PAUReplayBuffer@@V?$unique_ptr@VVideoFileStream@@U?$default_delete@VVideoFileStream@@@std@@@std@@@std@@QAE@$$QAPAUReplayBuffer@@$$QAV?$unique_ptr@UReplayBuffer@@U?$default_delete@UReplayBuffer@@@std@@@1@@Z ; std::pair<ReplayBuffer *,std::unique_ptr<VideoFileStream,std::default_delete<VideoFileStream> > >::pair<ReplayBuffer *,std::unique_ptr<VideoFileStream,std::default_delete<VideoFileStream> > ><ReplayBuffer *,std::unique_ptr<ReplayBuffer,std::default_delete<ReplayBuffer> >,void>
PUBLIC	??$move@AAV?$unique_ptr@UReplayBuffer@@U?$default_delete@UReplayBuffer@@@std@@@std@@@std@@YA$$QAV?$unique_ptr@UReplayBuffer@@U?$default_delete@UReplayBuffer@@@std@@@0@AAV10@@Z ; std::move<std::unique_ptr<ReplayBuffer,std::default_delete<ReplayBuffer> > &>
PUBLIC	??$make_unique@UReplayBuffer@@AAH@std@@YA?AV?$unique_ptr@UReplayBuffer@@U?$default_delete@UReplayBuffer@@@std@@@0@AAH@Z ; std::make_unique<ReplayBuffer,int &>
PUBLIC	??$?0$$T$$TX@?$pair@PAUReplayBuffer@@V?$unique_ptr@VVideoFileStream@@U?$default_delete@VVideoFileStream@@@std@@@std@@@std@@QAE@$$QA$$T0@Z ; std::pair<ReplayBuffer *,std::unique_ptr<VideoFileStream,std::default_delete<VideoFileStream> > >::pair<ReplayBuffer *,std::unique_ptr<VideoFileStream,std::default_delete<VideoFileStream> > ><std::nullptr_t,std::nullptr_t,void>
PUBLIC	??$make_unique@URecordingHelper@@V?$deque@V?$shared_ptr@$$CBV?$tuple@W4PacketType@@KKV?$shared_ptr@$$CBV?$vector@EV?$allocator@E@std@@@std@@@std@@@std@@@std@@V?$allocator@V?$shared_ptr@$$CBV?$tuple@W4PacketType@@KKV?$shared_ptr@$$CBV?$vector@EV?$allocator@E@std@@@std@@@std@@@std@@@std@@@2@@std@@@std@@YA?AV?$unique_ptr@URecordingHelper@@U?$default_delete@URecordingHelper@@@std@@@0@$$QAV?$deque@V?$shared_ptr@$$CBV?$tuple@W4PacketType@@KKV?$shared_ptr@$$CBV?$vector@EV?$allocator@E@std@@@std@@@std@@@std@@@std@@V?$allocator@V?$shared_ptr@$$CBV?$tuple@W4PacketType@@KKV?$shared_ptr@$$CBV?$vector@EV?$allocator@E@std@@@std@@@std@@@std@@@std@@@2@@0@@Z ; std::make_unique<RecordingHelper,std::deque<std::shared_ptr<std::tuple<enum PacketType,unsigned long,unsigned long,std::shared_ptr<std::vector<unsigned char,std::allocator<unsigned char> > const > > const >,std::allocator<std::shared_ptr<std::tuple<enum PacketType,unsigned long,unsigned long,std::shared_ptr<std::vector<unsigned char,std::allocator<unsigned char> > const > > const > > > >
PUBLIC	??$emplace_back@V?$shared_ptr@$$CBV?$tuple@W4PacketType@@KKV?$shared_ptr@$$CBV?$vector@EV?$allocator@E@std@@@std@@@std@@@std@@@std@@@?$deque@V?$shared_ptr@$$CBV?$tuple@W4PacketType@@KKV?$shared_ptr@$$CBV?$vector@EV?$allocator@E@std@@@std@@@std@@@std@@@std@@V?$allocator@V?$shared_ptr@$$CBV?$tuple@W4PacketType@@KKV?$shared_ptr@$$CBV?$vector@EV?$allocator@E@std@@@std@@@std@@@std@@@std@@@2@@std@@QAEX$$QAV?$shared_ptr@$$CBV?$tuple@W4PacketType@@KKV?$shared_ptr@$$CBV?$vector@EV?$allocator@E@std@@@std@@@std@@@std@@@1@@Z ; std::deque<std::shared_ptr<std::tuple<enum PacketType,unsigned long,unsigned long,std::shared_ptr<std::vector<unsigned char,std::allocator<unsigned char> > const > > const >,std::allocator<std::shared_ptr<std::tuple<enum PacketType,unsigned long,unsigned long,std::shared_ptr<std::vector<unsigned char,std::allocator<unsigned char> > const > > const > > >::emplace_back<std::shared_ptr<std::tuple<enum PacketType,unsigned long,unsigned long,std::shared_ptr<std::vector<unsigned char,std::allocator<unsigned char> > const > > const > >
PUBLIC	??$swap@XU?$ThreadDeleter@$0DOI@@@@std@@YAXAAV?$unique_ptr@XU?$ThreadDeleter@$0DOI@@@@0@0@Z ; std::swap<void,ThreadDeleter<1000> >
PUBLIC	??$get@$02W4PacketType@@KKV?$shared_ptr@$$CBV?$vector@EV?$allocator@E@std@@@std@@@std@@@std@@YAABV?$shared_ptr@$$CBV?$vector@EV?$allocator@E@std@@@std@@@0@ABV?$tuple@W4PacketType@@KKV?$shared_ptr@$$CBV?$vector@EV?$allocator@E@std@@@std@@@std@@@0@@Z ; std::get<3,enum PacketType,unsigned long,unsigned long,std::shared_ptr<std::vector<unsigned char,std::allocator<unsigned char> > const > >
PUBLIC	??$max@K@std@@YAABKABK0@Z			; std::max<unsigned long>
PUBLIC	??$min@K@std@@YAABKABK0@Z			; std::min<unsigned long>
PUBLIC	??$get@$00W4PacketType@@KKV?$shared_ptr@$$CBV?$vector@EV?$allocator@E@std@@@std@@@std@@@std@@YAABKABV?$tuple@W4PacketType@@KKV?$shared_ptr@$$CBV?$vector@EV?$allocator@E@std@@@std@@@std@@@0@@Z ; std::get<1,enum PacketType,unsigned long,unsigned long,std::shared_ptr<std::vector<unsigned char,std::allocator<unsigned char> > const > >
PUBLIC	??$get@$00KV?$shared_ptr@X@std@@V?$deque@V?$shared_ptr@$$CBV?$tuple@W4PacketType@@KKV?$shared_ptr@$$CBV?$vector@EV?$allocator@E@std@@@std@@@std@@@std@@@std@@V?$allocator@V?$shared_ptr@$$CBV?$tuple@W4PacketType@@KKV?$shared_ptr@$$CBV?$vector@EV?$allocator@E@std@@@std@@@std@@@std@@@std@@@2@@2@_N@std@@YAAAV?$shared_ptr@X@0@AAV?$tuple@KV?$shared_ptr@X@std@@V?$deque@V?$shared_ptr@$$CBV?$tuple@W4PacketType@@KKV?$shared_ptr@$$CBV?$vector@EV?$allocator@E@std@@@std@@@std@@@std@@@std@@V?$allocator@V?$shared_ptr@$$CBV?$tuple@W4PacketType@@KKV?$shared_ptr@$$CBV?$vector@EV?$allocator@E@std@@@std@@@std@@@std@@@std@@@2@@2@_N@0@@Z ; std::get<1,unsigned long,std::shared_ptr<void>,std::deque<std::shared_ptr<std::tuple<enum PacketType,unsigned long,unsigned long,std::shared_ptr<std::vector<unsigned char,std::allocator<unsigned char> > const > > const >,std::allocator<std::shared_ptr<std::tuple<enum PacketType,unsigned long,unsigned long,std::shared_ptr<std::vector<unsigned char,std::allocator<unsigned char> > const > > const > > >,bool>
PUBLIC	??$get@$01W4PacketType@@KKV?$shared_ptr@$$CBV?$vector@EV?$allocator@E@std@@@std@@@std@@@std@@YAABKABV?$tuple@W4PacketType@@KKV?$shared_ptr@$$CBV?$vector@EV?$allocator@E@std@@@std@@@std@@@0@@Z ; std::get<2,enum PacketType,unsigned long,unsigned long,std::shared_ptr<std::vector<unsigned char,std::allocator<unsigned char> > const > >
PUBLIC	??$get@$0A@W4PacketType@@KKV?$shared_ptr@$$CBV?$vector@EV?$allocator@E@std@@@std@@@std@@@std@@YAABW4PacketType@@ABV?$tuple@W4PacketType@@KKV?$shared_ptr@$$CBV?$vector@EV?$allocator@E@std@@@std@@@std@@@0@@Z ; std::get<0,enum PacketType,unsigned long,unsigned long,std::shared_ptr<std::vector<unsigned char,std::allocator<unsigned char> > const > >
PUBLIC	??$?9V?$_Deque_iterator@V?$_Deque_val@U?$_Deque_simple_types@V?$shared_ptr@$$CBV?$tuple@W4PacketType@@KKV?$shared_ptr@$$CBV?$vector@EV?$allocator@E@std@@@std@@@std@@@std@@@std@@@std@@@std@@@std@@V01@@std@@YA_NABV?$reverse_iterator@V?$_Deque_iterator@V?$_Deque_val@U?$_Deque_simple_types@V?$shared_ptr@$$CBV?$tuple@W4PacketType@@KKV?$shared_ptr@$$CBV?$vector@EV?$allocator@E@std@@@std@@@std@@@std@@@std@@@std@@@std@@@std@@@0@0@Z ; std::operator!=<std::_Deque_iterator<std::_Deque_val<std::_Deque_simple_types<std::shared_ptr<std::tuple<enum PacketType,unsigned long,unsigned long,std::shared_ptr<std::vector<unsigned char,std::allocator<unsigned char> > const > > const > > > >,std::_Deque_iterator<std::_Deque_val<std::_Deque_simple_types<std::shared_ptr<std::tuple<enum PacketType,unsigned long,unsigned long,std::shared_ptr<std::vector<unsigned char,std::allocator<unsigned char> > const > > const > > > > >
PUBLIC	??$rend@V?$deque@V?$shared_ptr@$$CBV?$tuple@W4PacketType@@KKV?$shared_ptr@$$CBV?$vector@EV?$allocator@E@std@@@std@@@std@@@std@@@std@@V?$allocator@V?$shared_ptr@$$CBV?$tuple@W4PacketType@@KKV?$shared_ptr@$$CBV?$vector@EV?$allocator@E@std@@@std@@@std@@@std@@@std@@@2@@std@@@std@@YA?AV?$reverse_iterator@V?$_Deque_iterator@V?$_Deque_val@U?$_Deque_simple_types@V?$shared_ptr@$$CBV?$tuple@W4PacketType@@KKV?$shared_ptr@$$CBV?$vector@EV?$allocator@E@std@@@std@@@std@@@std@@@std@@@std@@@std@@@std@@@0@AAV?$deque@V?$shared_ptr@$$CBV?$tuple@W4PacketType@@KKV?$shared_ptr@$$CBV?$vector@EV?$allocator@E@std@@@std@@@std@@@std@@@std@@V?$allocator@V?$shared_ptr@$$CBV?$tuple@W4PacketType@@KKV?$shared_ptr@$$CBV?$vector@EV?$allocator@E@std@@@std@@@std@@@std@@@std@@@2@@0@@Z ; std::rend<std::deque<std::shared_ptr<std::tuple<enum PacketType,unsigned long,unsigned long,std::shared_ptr<std::vector<unsigned char,std::allocator<unsigned char> > const > > const >,std::allocator<std::shared_ptr<std::tuple<enum PacketType,unsigned long,unsigned long,std::shared_ptr<std::vector<unsigned char,std::allocator<unsigned char> > const > > const > > > >
PUBLIC	??$rbegin@V?$deque@V?$shared_ptr@$$CBV?$tuple@W4PacketType@@KKV?$shared_ptr@$$CBV?$vector@EV?$allocator@E@std@@@std@@@std@@@std@@@std@@V?$allocator@V?$shared_ptr@$$CBV?$tuple@W4PacketType@@KKV?$shared_ptr@$$CBV?$vector@EV?$allocator@E@std@@@std@@@std@@@std@@@std@@@2@@std@@@std@@YA?AV?$reverse_iterator@V?$_Deque_iterator@V?$_Deque_val@U?$_Deque_simple_types@V?$shared_ptr@$$CBV?$tuple@W4PacketType@@KKV?$shared_ptr@$$CBV?$vector@EV?$allocator@E@std@@@std@@@std@@@std@@@std@@@std@@@std@@@std@@@0@AAV?$deque@V?$shared_ptr@$$CBV?$tuple@W4PacketType@@KKV?$shared_ptr@$$CBV?$vector@EV?$allocator@E@std@@@std@@@std@@@std@@@std@@V?$allocator@V?$shared_ptr@$$CBV?$tuple@W4PacketType@@KKV?$shared_ptr@$$CBV?$vector@EV?$allocator@E@std@@@std@@@std@@@std@@@std@@@2@@0@@Z ; std::rbegin<std::deque<std::shared_ptr<std::tuple<enum PacketType,unsigned long,unsigned long,std::shared_ptr<std::vector<unsigned char,std::allocator<unsigned char> > const > > const >,std::allocator<std::shared_ptr<std::tuple<enum PacketType,unsigned long,unsigned long,std::shared_ptr<std::vector<unsigned char,std::allocator<unsigned char> > const > > const > > > >
PUBLIC	??$get@$0A@KV?$shared_ptr@X@std@@V?$deque@V?$shared_ptr@$$CBV?$tuple@W4PacketType@@KKV?$shared_ptr@$$CBV?$vector@EV?$allocator@E@std@@@std@@@std@@@std@@@std@@V?$allocator@V?$shared_ptr@$$CBV?$tuple@W4PacketType@@KKV?$shared_ptr@$$CBV?$vector@EV?$allocator@E@std@@@std@@@std@@@std@@@std@@@2@@2@_N@std@@YAAAKAAV?$tuple@KV?$shared_ptr@X@std@@V?$deque@V?$shared_ptr@$$CBV?$tuple@W4PacketType@@KKV?$shared_ptr@$$CBV?$vector@EV?$allocator@E@std@@@std@@@std@@@std@@@std@@V?$allocator@V?$shared_ptr@$$CBV?$tuple@W4PacketType@@KKV?$shared_ptr@$$CBV?$vector@EV?$allocator@E@std@@@std@@@std@@@std@@@std@@@2@@2@_N@0@@Z ; std::get<0,unsigned long,std::shared_ptr<void>,std::deque<std::shared_ptr<std::tuple<enum PacketType,unsigned long,unsigned long,std::shared_ptr<std::vector<unsigned char,std::allocator<unsigned char> > const > > const >,std::allocator<std::shared_ptr<std::tuple<enum PacketType,unsigned long,unsigned long,std::shared_ptr<std::vector<unsigned char,std::allocator<unsigned char> > const > > const > > >,bool>
PUBLIC	??$get@$01KV?$shared_ptr@X@std@@V?$deque@V?$shared_ptr@$$CBV?$tuple@W4PacketType@@KKV?$shared_ptr@$$CBV?$vector@EV?$allocator@E@std@@@std@@@std@@@std@@@std@@V?$allocator@V?$shared_ptr@$$CBV?$tuple@W4PacketType@@KKV?$shared_ptr@$$CBV?$vector@EV?$allocator@E@std@@@std@@@std@@@std@@@std@@@2@@2@_N@std@@YAAAV?$deque@V?$shared_ptr@$$CBV?$tuple@W4PacketType@@KKV?$shared_ptr@$$CBV?$vector@EV?$allocator@E@std@@@std@@@std@@@std@@@std@@V?$allocator@V?$shared_ptr@$$CBV?$tuple@W4PacketType@@KKV?$shared_ptr@$$CBV?$vector@EV?$allocator@E@std@@@std@@@std@@@std@@@std@@@2@@0@AAV?$tuple@KV?$shared_ptr@X@std@@V?$deque@V?$shared_ptr@$$CBV?$tuple@W4PacketType@@KKV?$shared_ptr@$$CBV?$vector@EV?$allocator@E@std@@@std@@@std@@@std@@@std@@V?$allocator@V?$shared_ptr@$$CBV?$tuple@W4PacketType@@KKV?$shared_ptr@$$CBV?$vector@EV?$allocator@E@std@@@std@@@std@@@std@@@std@@@2@@2@_N@0@@Z ; std::get<2,unsigned long,std::shared_ptr<void>,std::deque<std::shared_ptr<std::tuple<enum PacketType,unsigned long,unsigned long,std::shared_ptr<std::vector<unsigned char,std::allocator<unsigned char> > const > > const >,std::allocator<std::shared_ptr<std::tuple<enum PacketType,unsigned long,unsigned long,std::shared_ptr<std::vector<unsigned char,std::allocator<unsigned char> > const > > const > > >,bool>
PUBLIC	??$get@$02KV?$shared_ptr@X@std@@V?$deque@V?$shared_ptr@$$CBV?$tuple@W4PacketType@@KKV?$shared_ptr@$$CBV?$vector@EV?$allocator@E@std@@@std@@@std@@@std@@@std@@V?$allocator@V?$shared_ptr@$$CBV?$tuple@W4PacketType@@KKV?$shared_ptr@$$CBV?$vector@EV?$allocator@E@std@@@std@@@std@@@std@@@std@@@2@@2@_N@std@@YAAA_NAAV?$tuple@KV?$shared_ptr@X@std@@V?$deque@V?$shared_ptr@$$CBV?$tuple@W4PacketType@@KKV?$shared_ptr@$$CBV?$vector@EV?$allocator@E@std@@@std@@@std@@@std@@@std@@V?$allocator@V?$shared_ptr@$$CBV?$tuple@W4PacketType@@KKV?$shared_ptr@$$CBV?$vector@EV?$allocator@E@std@@@std@@@std@@@std@@@std@@@2@@2@_N@0@@Z ; std::get<3,unsigned long,std::shared_ptr<void>,std::deque<std::shared_ptr<std::tuple<enum PacketType,unsigned long,unsigned long,std::shared_ptr<std::vector<unsigned char,std::allocator<unsigned char> > const > > const >,std::allocator<std::shared_ptr<std::tuple<enum PacketType,unsigned long,unsigned long,std::shared_ptr<std::vector<unsigned char,std::allocator<unsigned char> > const > > const > > >,bool>
PUBLIC	??$emplace_back@AAK@?$vector@KV?$allocator@K@std@@@std@@QAEXAAK@Z ; std::vector<unsigned long,std::allocator<unsigned long> >::emplace_back<unsigned long &>
PUBLIC	??$begin@V?$vector@KV?$allocator@K@std@@@std@@@std@@YA?AV?$_Vector_iterator@V?$_Vector_val@U?$_Simple_types@K@std@@@std@@@0@AAV?$vector@KV?$allocator@K@std@@@0@@Z ; std::begin<std::vector<unsigned long,std::allocator<unsigned long> > >
PUBLIC	??$cend@V?$vector@KV?$allocator@K@std@@@std@@@std@@YA?AV?$_Vector_const_iterator@V?$_Vector_val@U?$_Simple_types@K@std@@@std@@@0@ABV?$vector@KV?$allocator@K@std@@@0@@Z ; std::cend<std::vector<unsigned long,std::allocator<unsigned long> > >
PUBLIC	??$cbegin@V?$vector@KV?$allocator@K@std@@@std@@@std@@YA?AV?$_Vector_const_iterator@V?$_Vector_val@U?$_Simple_types@K@std@@@std@@@0@ABV?$vector@KV?$allocator@K@std@@@0@@Z ; std::cbegin<std::vector<unsigned long,std::allocator<unsigned long> > >
PUBLIC	??$emplace_back@V?$unique_ptr@XUThreadCloser@@@std@@AAV?$shared_ptr@X@2@@?$vector@U?$pair@V?$unique_ptr@XUThreadCloser@@@std@@V?$shared_ptr@X@2@@std@@V?$allocator@U?$pair@V?$unique_ptr@XUThreadCloser@@@std@@V?$shared_ptr@X@2@@std@@@2@@std@@QAEX$$QAV?$unique_ptr@XUThreadCloser@@@1@AAV?$shared_ptr@X@1@@Z ; std::vector<std::pair<std::unique_ptr<void,ThreadCloser>,std::shared_ptr<void> >,std::allocator<std::pair<std::unique_ptr<void,ThreadCloser>,std::shared_ptr<void> > > >::emplace_back<std::unique_ptr<void,ThreadCloser>,std::shared_ptr<void> &>
PUBLIC	??$?0V?$_List_iterator@V?$_List_val@U?$_List_simple_types@V?$shared_ptr@$$CBV?$tuple@W4PacketType@@KKV?$shared_ptr@$$CBV?$vector@EV?$allocator@E@std@@@std@@@std@@@std@@@std@@@std@@@std@@@std@@X@?$deque@V?$shared_ptr@$$CBV?$tuple@W4PacketType@@KKV?$shared_ptr@$$CBV?$vector@EV?$allocator@E@std@@@std@@@std@@@std@@@std@@V?$allocator@V?$shared_ptr@$$CBV?$tuple@W4PacketType@@KKV?$shared_ptr@$$CBV?$vector@EV?$allocator@E@std@@@std@@@std@@@std@@@std@@@2@@std@@QAE@V?$_List_iterator@V?$_List_val@U?$_List_simple_types@V?$shared_ptr@$$CBV?$tuple@W4PacketType@@KKV?$shared_ptr@$$CBV?$vector@EV?$allocator@E@std@@@std@@@std@@@std@@@std@@@std@@@std@@@1@0@Z ; std::deque<std::shared_ptr<std::tuple<enum PacketType,unsigned long,unsigned long,std::shared_ptr<std::vector<unsigned char,std::allocator<unsigned char> > const > > const >,std::allocator<std::shared_ptr<std::tuple<enum PacketType,unsigned long,unsigned long,std::shared_ptr<std::vector<unsigned char,std::allocator<unsigned char> > const > > const > > >::deque<std::shared_ptr<std::tuple<enum PacketType,unsigned long,unsigned long,std::shared_ptr<std::vector<unsigned char,std::allocator<unsigned char> > const > > const >,std::allocator<std::shared_ptr<std::tuple<enum PacketType,unsigned long,unsigned long,std::shared_ptr<std::vector<unsigned char,std::allocator<unsigned char> > const > > const > > ><std::_List_iterator<std::_List_val<std::_List_simple_types<std::shared_ptr<std::tuple<enum PacketType,unsigned long,unsigned long,std::shared_ptr<std::vector<unsigned char,std::allocator<unsigned char> > const > > const > > > >,void>
PUBLIC	??$reset@XP6AXPAX@Z@?$shared_ptr@X@std@@QAEXPAXP6AX0@Z@Z ; std::shared_ptr<void>::reset<void,void (__cdecl*)(void *)>
PUBLIC	??$begin@V?$deque@U?$pair@KV?$_List_iterator@V?$_List_val@U?$_List_simple_types@V?$shared_ptr@$$CBV?$tuple@W4PacketType@@KKV?$shared_ptr@$$CBV?$vector@EV?$allocator@E@std@@@std@@@std@@@std@@@std@@@std@@@std@@@std@@@std@@V?$allocator@U?$pair@KV?$_List_iterator@V?$_List_val@U?$_List_simple_types@V?$shared_ptr@$$CBV?$tuple@W4PacketType@@KKV?$shared_ptr@$$CBV?$vector@EV?$allocator@E@std@@@std@@@std@@@std@@@std@@@std@@@std@@@std@@@std@@@2@@std@@@std@@YA?AV?$_Deque_iterator@V?$_Deque_val@U?$_Deque_simple_types@U?$pair@KV?$_List_iterator@V?$_List_val@U?$_List_simple_types@V?$shared_ptr@$$CBV?$tuple@W4PacketType@@KKV?$shared_ptr@$$CBV?$vector@EV?$allocator@E@std@@@std@@@std@@@std@@@std@@@std@@@std@@@std@@@std@@@std@@@std@@@0@AAV?$deque@U?$pair@KV?$_List_iterator@V?$_List_val@U?$_List_simple_types@V?$shared_ptr@$$CBV?$tuple@W4PacketType@@KKV?$shared_ptr@$$CBV?$vector@EV?$allocator@E@std@@@std@@@std@@@std@@@std@@@std@@@std@@@std@@@std@@V?$allocator@U?$pair@KV?$_List_iterator@V?$_List_val@U?$_List_simple_types@V?$shared_ptr@$$CBV?$tuple@W4PacketType@@KKV?$shared_ptr@$$CBV?$vector@EV?$allocator@E@std@@@std@@@std@@@std@@@std@@@std@@@std@@@std@@@std@@@2@@0@@Z ; std::begin<std::deque<std::pair<unsigned long,std::_List_iterator<std::_List_val<std::_List_simple_types<std::shared_ptr<std::tuple<enum PacketType,unsigned long,unsigned long,std::shared_ptr<std::vector<unsigned char,std::allocator<unsigned char> > const > > const > > > > >,std::allocator<std::pair<unsigned long,std::_List_iterator<std::_List_val<std::_List_simple_types<std::shared_ptr<std::tuple<enum PacketType,unsigned long,unsigned long,std::shared_ptr<std::vector<unsigned char,std::allocator<unsigned char> > const > > const > > > > > > > >
PUBLIC	??$begin@V?$list@V?$shared_ptr@$$CBV?$tuple@W4PacketType@@KKV?$shared_ptr@$$CBV?$vector@EV?$allocator@E@std@@@std@@@std@@@std@@@std@@V?$allocator@V?$shared_ptr@$$CBV?$tuple@W4PacketType@@KKV?$shared_ptr@$$CBV?$vector@EV?$allocator@E@std@@@std@@@std@@@std@@@std@@@2@@std@@@std@@YA?AV?$_List_iterator@V?$_List_val@U?$_List_simple_types@V?$shared_ptr@$$CBV?$tuple@W4PacketType@@KKV?$shared_ptr@$$CBV?$vector@EV?$allocator@E@std@@@std@@@std@@@std@@@std@@@std@@@std@@@0@AAV?$list@V?$shared_ptr@$$CBV?$tuple@W4PacketType@@KKV?$shared_ptr@$$CBV?$vector@EV?$allocator@E@std@@@std@@@std@@@std@@@std@@V?$allocator@V?$shared_ptr@$$CBV?$tuple@W4PacketType@@KKV?$shared_ptr@$$CBV?$vector@EV?$allocator@E@std@@@std@@@std@@@std@@@std@@@2@@0@@Z ; std::begin<std::list<std::shared_ptr<std::tuple<enum PacketType,unsigned long,unsigned long,std::shared_ptr<std::vector<unsigned char,std::allocator<unsigned char> > const > > const >,std::allocator<std::shared_ptr<std::tuple<enum PacketType,unsigned long,unsigned long,std::shared_ptr<std::vector<unsigned char,std::allocator<unsigned char> > const > > const > > > >
PUBLIC	??$emplace_back@AAKAAV?$_List_iterator@V?$_List_val@U?$_List_simple_types@V?$shared_ptr@$$CBV?$tuple@W4PacketType@@KKV?$shared_ptr@$$CBV?$vector@EV?$allocator@E@std@@@std@@@std@@@std@@@std@@@std@@@std@@@std@@@?$deque@U?$pair@KV?$_List_iterator@V?$_List_val@U?$_List_simple_types@V?$shared_ptr@$$CBV?$tuple@W4PacketType@@KKV?$shared_ptr@$$CBV?$vector@EV?$allocator@E@std@@@std@@@std@@@std@@@std@@@std@@@std@@@std@@@std@@V?$allocator@U?$pair@KV?$_List_iterator@V?$_List_val@U?$_List_simple_types@V?$shared_ptr@$$CBV?$tuple@W4PacketType@@KKV?$shared_ptr@$$CBV?$vector@EV?$allocator@E@std@@@std@@@std@@@std@@@std@@@std@@@std@@@std@@@std@@@2@@std@@QAEXAAKAAV?$_List_iterator@V?$_List_val@U?$_List_simple_types@V?$shared_ptr@$$CBV?$tuple@W4PacketType@@KKV?$shared_ptr@$$CBV?$vector@EV?$allocator@E@std@@@std@@@std@@@std@@@std@@@std@@@std@@@1@@Z ; std::deque<std::pair<unsigned long,std::_List_iterator<std::_List_val<std::_List_simple_types<std::shared_ptr<std::tuple<enum PacketType,unsigned long,unsigned long,std::shared_ptr<std::vector<unsigned char,std::allocator<unsigned char> > const > > const > > > > >,std::allocator<std::pair<unsigned long,std::_List_iterator<std::_List_val<std::_List_simple_types<std::shared_ptr<std::tuple<enum PacketType,unsigned long,unsigned long,std::shared_ptr<std::vector<unsigned char,std::allocator<unsigned char> > const > > const > > > > > > >::emplace_back<unsigned long &,std::_List_iterator<std::_List_val<std::_List_simple_types<std::shared_ptr<std::tuple<enum PacketType,unsigned long,unsigned long,std::shared_ptr<std::vector<unsigned char,std::allocator<unsigned char> > const > > const > > > > &>
PUBLIC	??$end@V?$list@V?$shared_ptr@$$CBV?$tuple@W4PacketType@@KKV?$shared_ptr@$$CBV?$vector@EV?$allocator@E@std@@@std@@@std@@@std@@@std@@V?$allocator@V?$shared_ptr@$$CBV?$tuple@W4PacketType@@KKV?$shared_ptr@$$CBV?$vector@EV?$allocator@E@std@@@std@@@std@@@std@@@std@@@2@@std@@@std@@YA?AV?$_List_iterator@V?$_List_val@U?$_List_simple_types@V?$shared_ptr@$$CBV?$tuple@W4PacketType@@KKV?$shared_ptr@$$CBV?$vector@EV?$allocator@E@std@@@std@@@std@@@std@@@std@@@std@@@std@@@0@AAV?$list@V?$shared_ptr@$$CBV?$tuple@W4PacketType@@KKV?$shared_ptr@$$CBV?$vector@EV?$allocator@E@std@@@std@@@std@@@std@@@std@@V?$allocator@V?$shared_ptr@$$CBV?$tuple@W4PacketType@@KKV?$shared_ptr@$$CBV?$vector@EV?$allocator@E@std@@@std@@@std@@@std@@@std@@@2@@0@@Z ; std::end<std::list<std::shared_ptr<std::tuple<enum PacketType,unsigned long,unsigned long,std::shared_ptr<std::vector<unsigned char,std::allocator<unsigned char> > const > > const >,std::allocator<std::shared_ptr<std::tuple<enum PacketType,unsigned long,unsigned long,std::shared_ptr<std::vector<unsigned char,std::allocator<unsigned char> > const > > const > > > >
