; Listing generated by Microsoft (R) Optimizing Compiler Version 18.00.21005.1 

	TITLE	F:\songmm_moon_stone_obs\OBS\Source\SettingsPublish.cpp
	.686P
	.XMM
	include listing.inc
	.model	flat

INCLUDELIB OLDNAMES

PUBLIC	??_C@_0BB@DIADEFJJ@GetSaveFileNameW?$AA@	; `string'
PUBLIC	??_R3?$_Func_impl@U?$_Callable_obj@V<lambda_0a265d9f88e42e1afeaf76e4a6ca41f3>@@$0A@@std@@V?$allocator@V?$_Func_class@X$$$V@std@@@2@X$$$V@std@@8 ; std::_Func_impl<std::_Callable_obj<<lambda_0a265d9f88e42e1afeaf76e4a6ca41f3>,0>,std::allocator<std::_Func_class<void> >,void>::`RTTI Class Hierarchy Descriptor'
PUBLIC	??_R4?$_Func_impl@U?$_Callable_obj@V<lambda_624bb9d9f3cde644ba29e7729588d586>@@$0A@@std@@V?$allocator@V?$_Func_class@X$$$V@std@@@2@X$$$V@std@@6B@ ; std::_Func_impl<std::_Callable_obj<<lambda_624bb9d9f3cde644ba29e7729588d586>,0>,std::allocator<std::_Func_class<void> >,void>::`RTTI Complete Object Locator'
PUBLIC	??_R0?AV<lambda_da5f0f708578e290fee5fc13ec57d23a>@@@8 ; <lambda_da5f0f708578e290fee5fc13ec57d23a> `RTTI Type Descriptor'
PUBLIC	??_R0?AV<lambda_8499d2186312c49ebbd56f30c74af45d>@@@8 ; <lambda_8499d2186312c49ebbd56f30c74af45d> `RTTI Type Descriptor'
PUBLIC	??_R0?AVSettingsPublish@@@8			; SettingsPublish `RTTI Type Descriptor'
PUBLIC	??_R4?$_Func_impl@U?$_Callable_obj@V<lambda_c4599be8aa20546a4c0f056de45f81e0>@@$0A@@std@@V?$allocator@V?$_Func_class@X$$$V@std@@@2@X$$$V@std@@6B@ ; std::_Func_impl<std::_Callable_obj<<lambda_c4599be8aa20546a4c0f056de45f81e0>,0>,std::allocator<std::_Func_class<void> >,void>::`RTTI Complete Object Locator'
PUBLIC	??_7?$_Func_impl@U?$_Callable_obj@V<lambda_0a265d9f88e42e1afeaf76e4a6ca41f3>@@$0A@@std@@V?$allocator@V?$_Func_class@X$$$V@std@@@2@X$$$V@std@@6B@ ; std::_Func_impl<std::_Callable_obj<<lambda_0a265d9f88e42e1afeaf76e4a6ca41f3>,0>,std::allocator<std::_Func_class<void> >,void>::`vftable'
PUBLIC	??_7?$_Func_impl@U?$_Callable_obj@V<lambda_424e07199e07f172c211b579b41a0f6b>@@$0A@@std@@V?$allocator@V?$_Func_class@X$$$V@std@@@2@X$$$V@std@@6B@ ; std::_Func_impl<std::_Callable_obj<<lambda_424e07199e07f172c211b579b41a0f6b>,0>,std::allocator<std::_Func_class<void> >,void>::`vftable'
PUBLIC	??_R4?$_Func_impl@U?$_Callable_obj@V<lambda_424e07199e07f172c211b579b41a0f6b>@@$0A@@std@@V?$allocator@V?$_Func_class@X$$$V@std@@@2@X$$$V@std@@6B@ ; std::_Func_impl<std::_Callable_obj<<lambda_424e07199e07f172c211b579b41a0f6b>,0>,std::allocator<std::_Func_class<void> >,void>::`RTTI Complete Object Locator'
PUBLIC	??_R1A@?0A@EA@?$_Func_impl@U?$_Callable_obj@V<lambda_07b41efe5098b34c18964d3f394ff711>@@$0A@@std@@V?$allocator@V?$_Func_class@X$$$V@std@@@2@X$$$V@std@@8 ; std::_Func_impl<std::_Callable_obj<<lambda_07b41efe5098b34c18964d3f394ff711>,0>,std::allocator<std::_Func_class<void> >,void>::`RTTI Base Class Descriptor at (0,-1,0,64)'
PUBLIC	??_7?$_Func_impl@U?$_Callable_obj@V<lambda_c4599be8aa20546a4c0f056de45f81e0>@@$0A@@std@@V?$allocator@V?$_Func_class@X$$$V@std@@@2@X$$$V@std@@6B@ ; std::_Func_impl<std::_Callable_obj<<lambda_c4599be8aa20546a4c0f056de45f81e0>,0>,std::allocator<std::_Func_class<void> >,void>::`vftable'
PUBLIC	??_R0?AV?$_Func_impl@U?$_Callable_obj@V<lambda_8499d2186312c49ebbd56f30c74af45d>@@$0A@@std@@V?$allocator@V?$_Func_class@X$$$V@std@@@2@X$$$V@std@@@8 ; std::_Func_impl<std::_Callable_obj<<lambda_8499d2186312c49ebbd56f30c74af45d>,0>,std::allocator<std::_Func_class<void> >,void> `RTTI Type Descriptor'
PUBLIC	??_7SettingsPublish@@6B@			; SettingsPublish::`vftable'
PUBLIC	??_R4?$_Func_impl@U?$_Callable_obj@V<lambda_8499d2186312c49ebbd56f30c74af45d>@@$0A@@std@@V?$allocator@V?$_Func_class@X$$$V@std@@@2@X$$$V@std@@6B@ ; std::_Func_impl<std::_Callable_obj<<lambda_8499d2186312c49ebbd56f30c74af45d>,0>,std::allocator<std::_Func_class<void> >,void>::`RTTI Complete Object Locator'
PUBLIC	??_R2?$_Func_impl@U?$_Callable_obj@V<lambda_424e07199e07f172c211b579b41a0f6b>@@$0A@@std@@V?$allocator@V?$_Func_class@X$$$V@std@@@2@X$$$V@std@@8 ; std::_Func_impl<std::_Callable_obj<<lambda_424e07199e07f172c211b579b41a0f6b>,0>,std::allocator<std::_Func_class<void> >,void>::`RTTI Base Class Array'
PUBLIC	??_R0?AV?$_Func_impl@U?$_Callable_obj@V<lambda_624bb9d9f3cde644ba29e7729588d586>@@$0A@@std@@V?$allocator@V?$_Func_class@X$$$V@std@@@2@X$$$V@std@@@8 ; std::_Func_impl<std::_Callable_obj<<lambda_624bb9d9f3cde644ba29e7729588d586>,0>,std::allocator<std::_Func_class<void> >,void> `RTTI Type Descriptor'
PUBLIC	??_7?$_Func_impl@U?$_Callable_obj@V<lambda_07b41efe5098b34c18964d3f394ff711>@@$0A@@std@@V?$allocator@V?$_Func_class@X$$$V@std@@@2@X$$$V@std@@6B@ ; std::_Func_impl<std::_Callable_obj<<lambda_07b41efe5098b34c18964d3f394ff711>,0>,std::allocator<std::_Func_class<void> >,void>::`vftable'
PUBLIC	?s_pfn@?1??IsolationAwareGetSaveFileNameW@@9@4@4P6GHPAUtagOFNW@@@ZA ; `IsolationAwareGetSaveFileNameW'::`2'::s_pfn
PUBLIC	??_R3SettingsPublish@@8				; SettingsPublish::`RTTI Class Hierarchy Descriptor'
PUBLIC	??_R0?AV?$_Func_impl@U?$_Callable_obj@V<lambda_5b58d388793fe563bc112a2536ab3933>@@$0A@@std@@V?$allocator@V?$_Func_class@X$$$V@std@@@2@X$$$V@std@@@8 ; std::_Func_impl<std::_Callable_obj<<lambda_5b58d388793fe563bc112a2536ab3933>,0>,std::allocator<std::_Func_class<void> >,void> `RTTI Type Descriptor'
PUBLIC	??_R4?$_Func_impl@U?$_Callable_obj@V<lambda_da5f0f708578e290fee5fc13ec57d23a>@@$0A@@std@@V?$allocator@V?$_Func_class@_NUServiceIdentifier@@PAVXElement@@@std@@@2@_NUServiceIdentifier@@PAVXElement@@@std@@6B@ ; std::_Func_impl<std::_Callable_obj<<lambda_da5f0f708578e290fee5fc13ec57d23a>,0>,std::allocator<std::_Func_class<bool,ServiceIdentifier,XElement *> >,bool,ServiceIdentifier,XElement *>::`RTTI Complete Object Locator'
PUBLIC	??_R0?AV<lambda_0a265d9f88e42e1afeaf76e4a6ca41f3>@@@8 ; <lambda_0a265d9f88e42e1afeaf76e4a6ca41f3> `RTTI Type Descriptor'
PUBLIC	??_R2?$_Func_impl@U?$_Callable_obj@V<lambda_07b41efe5098b34c18964d3f394ff711>@@$0A@@std@@V?$allocator@V?$_Func_class@X$$$V@std@@@2@X$$$V@std@@8 ; std::_Func_impl<std::_Callable_obj<<lambda_07b41efe5098b34c18964d3f394ff711>,0>,std::allocator<std::_Func_class<void> >,void>::`RTTI Base Class Array'
PUBLIC	??_R2?$_Func_base@_NUServiceIdentifier@@PAVXElement@@@std@@8 ; std::_Func_base<bool,ServiceIdentifier,XElement *>::`RTTI Base Class Array'
PUBLIC	??_R1A@?0A@EA@?$_Func_impl@U?$_Callable_obj@V<lambda_5b58d388793fe563bc112a2536ab3933>@@$0A@@std@@V?$allocator@V?$_Func_class@X$$$V@std@@@2@X$$$V@std@@8 ; std::_Func_impl<std::_Callable_obj<<lambda_5b58d388793fe563bc112a2536ab3933>,0>,std::allocator<std::_Func_class<void> >,void>::`RTTI Base Class Descriptor at (0,-1,0,64)'
PUBLIC	??_R4SettingsPublish@@6B@			; SettingsPublish::`RTTI Complete Object Locator'
PUBLIC	??_R3?$_Func_impl@U?$_Callable_obj@V<lambda_624bb9d9f3cde644ba29e7729588d586>@@$0A@@std@@V?$allocator@V?$_Func_class@X$$$V@std@@@2@X$$$V@std@@8 ; std::_Func_impl<std::_Callable_obj<<lambda_624bb9d9f3cde644ba29e7729588d586>,0>,std::allocator<std::_Func_class<void> >,void>::`RTTI Class Hierarchy Descriptor'
PUBLIC	??_R0?AV?$_Func_impl@U?$_Callable_obj@V<lambda_424e07199e07f172c211b579b41a0f6b>@@$0A@@std@@V?$allocator@V?$_Func_class@X$$$V@std@@@2@X$$$V@std@@@8 ; std::_Func_impl<std::_Callable_obj<<lambda_424e07199e07f172c211b579b41a0f6b>,0>,std::allocator<std::_Func_class<void> >,void> `RTTI Type Descriptor'
PUBLIC	??_R4?$_Func_base@_NUServiceIdentifier@@PAVXElement@@@std@@6B@ ; std::_Func_base<bool,ServiceIdentifier,XElement *>::`RTTI Complete Object Locator'
PUBLIC	??_R0?AV<lambda_07b41efe5098b34c18964d3f394ff711>@@@8 ; <lambda_07b41efe5098b34c18964d3f394ff711> `RTTI Type Descriptor'
PUBLIC	??_R3?$_Func_impl@U?$_Callable_obj@V<lambda_424e07199e07f172c211b579b41a0f6b>@@$0A@@std@@V?$allocator@V?$_Func_class@X$$$V@std@@@2@X$$$V@std@@8 ; std::_Func_impl<std::_Callable_obj<<lambda_424e07199e07f172c211b579b41a0f6b>,0>,std::allocator<std::_Func_class<void> >,void>::`RTTI Class Hierarchy Descriptor'
PUBLIC	??_R2SettingsPublish@@8				; SettingsPublish::`RTTI Base Class Array'
PUBLIC	??_R1A@?0A@EA@?$_Func_base@_NUServiceIdentifier@@PAVXElement@@@std@@8 ; std::_Func_base<bool,ServiceIdentifier,XElement *>::`RTTI Base Class Descriptor at (0,-1,0,64)'
PUBLIC	??_R0?AV?$_Func_impl@U?$_Callable_obj@V<lambda_0a265d9f88e42e1afeaf76e4a6ca41f3>@@$0A@@std@@V?$allocator@V?$_Func_class@X$$$V@std@@@2@X$$$V@std@@@8 ; std::_Func_impl<std::_Callable_obj<<lambda_0a265d9f88e42e1afeaf76e4a6ca41f3>,0>,std::allocator<std::_Func_class<void> >,void> `RTTI Type Descriptor'
PUBLIC	??_R3?$_Func_base@_NUServiceIdentifier@@PAVXElement@@@std@@8 ; std::_Func_base<bool,ServiceIdentifier,XElement *>::`RTTI Class Hierarchy Descriptor'
PUBLIC	??_R1A@?0A@EA@?$_Func_impl@U?$_Callable_obj@V<lambda_c4599be8aa20546a4c0f056de45f81e0>@@$0A@@std@@V?$allocator@V?$_Func_class@X$$$V@std@@@2@X$$$V@std@@8 ; std::_Func_impl<std::_Callable_obj<<lambda_c4599be8aa20546a4c0f056de45f81e0>,0>,std::allocator<std::_Func_class<void> >,void>::`RTTI Base Class Descriptor at (0,-1,0,64)'
PUBLIC	??_R3?$_Func_impl@U?$_Callable_obj@V<lambda_c4599be8aa20546a4c0f056de45f81e0>@@$0A@@std@@V?$allocator@V?$_Func_class@X$$$V@std@@@2@X$$$V@std@@8 ; std::_Func_impl<std::_Callable_obj<<lambda_c4599be8aa20546a4c0f056de45f81e0>,0>,std::allocator<std::_Func_class<void> >,void>::`RTTI Class Hierarchy Descriptor'
PUBLIC	??_R2?$_Func_impl@U?$_Callable_obj@V<lambda_5b58d388793fe563bc112a2536ab3933>@@$0A@@std@@V?$allocator@V?$_Func_class@X$$$V@std@@@2@X$$$V@std@@8 ; std::_Func_impl<std::_Callable_obj<<lambda_5b58d388793fe563bc112a2536ab3933>,0>,std::allocator<std::_Func_class<void> >,void>::`RTTI Base Class Array'
PUBLIC	??_R0?AV?$_Func_impl@U?$_Callable_obj@V<lambda_da5f0f708578e290fee5fc13ec57d23a>@@$0A@@std@@V?$allocator@V?$_Func_class@_NUServiceIdentifier@@PAVXElement@@@std@@@2@_NUServiceIdentifier@@PAVXElement@@@std@@@8 ; std::_Func_impl<std::_Callable_obj<<lambda_da5f0f708578e290fee5fc13ec57d23a>,0>,std::allocator<std::_Func_class<bool,ServiceIdentifier,XElement *> >,bool,ServiceIdentifier,XElement *> `RTTI Type Descriptor'
PUBLIC	??_7?$_Func_impl@U?$_Callable_obj@V<lambda_8499d2186312c49ebbd56f30c74af45d>@@$0A@@std@@V?$allocator@V?$_Func_class@X$$$V@std@@@2@X$$$V@std@@6B@ ; std::_Func_impl<std::_Callable_obj<<lambda_8499d2186312c49ebbd56f30c74af45d>,0>,std::allocator<std::_Func_class<void> >,void>::`vftable'
PUBLIC	??_R1A@?0A@EA@?$_Func_impl@U?$_Callable_obj@V<lambda_424e07199e07f172c211b579b41a0f6b>@@$0A@@std@@V?$allocator@V?$_Func_class@X$$$V@std@@@2@X$$$V@std@@8 ; std::_Func_impl<std::_Callable_obj<<lambda_424e07199e07f172c211b579b41a0f6b>,0>,std::allocator<std::_Func_class<void> >,void>::`RTTI Base Class Descriptor at (0,-1,0,64)'
PUBLIC	??_R0?AV<lambda_5b58d388793fe563bc112a2536ab3933>@@@8 ; <lambda_5b58d388793fe563bc112a2536ab3933> `RTTI Type Descriptor'
PUBLIC	??_R0?AV?$_Func_impl@U?$_Callable_obj@V<lambda_07b41efe5098b34c18964d3f394ff711>@@$0A@@std@@V?$allocator@V?$_Func_class@X$$$V@std@@@2@X$$$V@std@@@8 ; std::_Func_impl<std::_Callable_obj<<lambda_07b41efe5098b34c18964d3f394ff711>,0>,std::allocator<std::_Func_class<void> >,void> `RTTI Type Descriptor'
PUBLIC	??_7?$_Func_impl@U?$_Callable_obj@V<lambda_5b58d388793fe563bc112a2536ab3933>@@$0A@@std@@V?$allocator@V?$_Func_class@X$$$V@std@@@2@X$$$V@std@@6B@ ; std::_Func_impl<std::_Callable_obj<<lambda_5b58d388793fe563bc112a2536ab3933>,0>,std::allocator<std::_Func_class<void> >,void>::`vftable'
PUBLIC	??_R0?AV?$_Func_base@_NUServiceIdentifier@@PAVXElement@@@std@@@8 ; std::_Func_base<bool,ServiceIdentifier,XElement *> `RTTI Type Descriptor'
PUBLIC	??_R2?$_Func_impl@U?$_Callable_obj@V<lambda_8499d2186312c49ebbd56f30c74af45d>@@$0A@@std@@V?$allocator@V?$_Func_class@X$$$V@std@@@2@X$$$V@std@@8 ; std::_Func_impl<std::_Callable_obj<<lambda_8499d2186312c49ebbd56f30c74af45d>,0>,std::allocator<std::_Func_class<void> >,void>::`RTTI Base Class Array'
PUBLIC	??_R1A@?0A@EA@?$_Func_impl@U?$_Callable_obj@V<lambda_8499d2186312c49ebbd56f30c74af45d>@@$0A@@std@@V?$allocator@V?$_Func_class@X$$$V@std@@@2@X$$$V@std@@8 ; std::_Func_impl<std::_Callable_obj<<lambda_8499d2186312c49ebbd56f30c74af45d>,0>,std::allocator<std::_Func_class<void> >,void>::`RTTI Base Class Descriptor at (0,-1,0,64)'
PUBLIC	??_R2?$_Func_impl@U?$_Callable_obj@V<lambda_0a265d9f88e42e1afeaf76e4a6ca41f3>@@$0A@@std@@V?$allocator@V?$_Func_class@X$$$V@std@@@2@X$$$V@std@@8 ; std::_Func_impl<std::_Callable_obj<<lambda_0a265d9f88e42e1afeaf76e4a6ca41f3>,0>,std::allocator<std::_Func_class<void> >,void>::`RTTI Base Class Array'
PUBLIC	??_7?$_Func_impl@U?$_Callable_obj@V<lambda_da5f0f708578e290fee5fc13ec57d23a>@@$0A@@std@@V?$allocator@V?$_Func_class@_NUServiceIdentifier@@PAVXElement@@@std@@@2@_NUServiceIdentifier@@PAVXElement@@@std@@6B@ ; std::_Func_impl<std::_Callable_obj<<lambda_da5f0f708578e290fee5fc13ec57d23a>,0>,std::allocator<std::_Func_class<bool,ServiceIdentifier,XElement *> >,bool,ServiceIdentifier,XElement *>::`vftable'
PUBLIC	??_R4?$_Func_impl@U?$_Callable_obj@V<lambda_07b41efe5098b34c18964d3f394ff711>@@$0A@@std@@V?$allocator@V?$_Func_class@X$$$V@std@@@2@X$$$V@std@@6B@ ; std::_Func_impl<std::_Callable_obj<<lambda_07b41efe5098b34c18964d3f394ff711>,0>,std::allocator<std::_Func_class<void> >,void>::`RTTI Complete Object Locator'
PUBLIC	??_R4?$_Func_impl@U?$_Callable_obj@V<lambda_0a265d9f88e42e1afeaf76e4a6ca41f3>@@$0A@@std@@V?$allocator@V?$_Func_class@X$$$V@std@@@2@X$$$V@std@@6B@ ; std::_Func_impl<std::_Callable_obj<<lambda_0a265d9f88e42e1afeaf76e4a6ca41f3>,0>,std::allocator<std::_Func_class<void> >,void>::`RTTI Complete Object Locator'
PUBLIC	??_R2?$_Func_impl@U?$_Callable_obj@V<lambda_c4599be8aa20546a4c0f056de45f81e0>@@$0A@@std@@V?$allocator@V?$_Func_class@X$$$V@std@@@2@X$$$V@std@@8 ; std::_Func_impl<std::_Callable_obj<<lambda_c4599be8aa20546a4c0f056de45f81e0>,0>,std::allocator<std::_Func_class<void> >,void>::`RTTI Base Class Array'
PUBLIC	??_R4?$_Func_impl@U?$_Callable_obj@V<lambda_5b58d388793fe563bc112a2536ab3933>@@$0A@@std@@V?$allocator@V?$_Func_class@X$$$V@std@@@2@X$$$V@std@@6B@ ; std::_Func_impl<std::_Callable_obj<<lambda_5b58d388793fe563bc112a2536ab3933>,0>,std::allocator<std::_Func_class<void> >,void>::`RTTI Complete Object Locator'
PUBLIC	??_R0?AV<lambda_c4599be8aa20546a4c0f056de45f81e0>@@@8 ; <lambda_c4599be8aa20546a4c0f056de45f81e0> `RTTI Type Descriptor'
PUBLIC	??_R1A@?0A@EA@?$_Func_impl@U?$_Callable_obj@V<lambda_0a265d9f88e42e1afeaf76e4a6ca41f3>@@$0A@@std@@V?$allocator@V?$_Func_class@X$$$V@std@@@2@X$$$V@std@@8 ; std::_Func_impl<std::_Callable_obj<<lambda_0a265d9f88e42e1afeaf76e4a6ca41f3>,0>,std::allocator<std::_Func_class<void> >,void>::`RTTI Base Class Descriptor at (0,-1,0,64)'
PUBLIC	??_R3?$_Func_impl@U?$_Callable_obj@V<lambda_07b41efe5098b34c18964d3f394ff711>@@$0A@@std@@V?$allocator@V?$_Func_class@X$$$V@std@@@2@X$$$V@std@@8 ; std::_Func_impl<std::_Callable_obj<<lambda_07b41efe5098b34c18964d3f394ff711>,0>,std::allocator<std::_Func_class<void> >,void>::`RTTI Class Hierarchy Descriptor'
PUBLIC	??_R1A@?0A@EA@?$_Func_impl@U?$_Callable_obj@V<lambda_624bb9d9f3cde644ba29e7729588d586>@@$0A@@std@@V?$allocator@V?$_Func_class@X$$$V@std@@@2@X$$$V@std@@8 ; std::_Func_impl<std::_Callable_obj<<lambda_624bb9d9f3cde644ba29e7729588d586>,0>,std::allocator<std::_Func_class<void> >,void>::`RTTI Base Class Descriptor at (0,-1,0,64)'
PUBLIC	??_R0?AV<lambda_424e07199e07f172c211b579b41a0f6b>@@@8 ; <lambda_424e07199e07f172c211b579b41a0f6b> `RTTI Type Descriptor'
PUBLIC	??_R3?$_Func_impl@U?$_Callable_obj@V<lambda_8499d2186312c49ebbd56f30c74af45d>@@$0A@@std@@V?$allocator@V?$_Func_class@X$$$V@std@@@2@X$$$V@std@@8 ; std::_Func_impl<std::_Callable_obj<<lambda_8499d2186312c49ebbd56f30c74af45d>,0>,std::allocator<std::_Func_class<void> >,void>::`RTTI Class Hierarchy Descriptor'
PUBLIC	??_R0?AV<lambda_624bb9d9f3cde644ba29e7729588d586>@@@8 ; <lambda_624bb9d9f3cde644ba29e7729588d586> `RTTI Type Descriptor'
PUBLIC	??_R3?$_Func_impl@U?$_Callable_obj@V<lambda_da5f0f708578e290fee5fc13ec57d23a>@@$0A@@std@@V?$allocator@V?$_Func_class@_NUServiceIdentifier@@PAVXElement@@@std@@@2@_NUServiceIdentifier@@PAVXElement@@@std@@8 ; std::_Func_impl<std::_Callable_obj<<lambda_da5f0f708578e290fee5fc13ec57d23a>,0>,std::allocator<std::_Func_class<bool,ServiceIdentifier,XElement *> >,bool,ServiceIdentifier,XElement *>::`RTTI Class Hierarchy Descriptor'
PUBLIC	??_7?$_Func_impl@U?$_Callable_obj@V<lambda_624bb9d9f3cde644ba29e7729588d586>@@$0A@@std@@V?$allocator@V?$_Func_class@X$$$V@std@@@2@X$$$V@std@@6B@ ; std::_Func_impl<std::_Callable_obj<<lambda_624bb9d9f3cde644ba29e7729588d586>,0>,std::allocator<std::_Func_class<void> >,void>::`vftable'
PUBLIC	??_R1A@?0A@EA@SettingsPublish@@8		; SettingsPublish::`RTTI Base Class Descriptor at (0,-1,0,64)'
PUBLIC	??_R1A@?0A@EA@?$_Func_impl@U?$_Callable_obj@V<lambda_da5f0f708578e290fee5fc13ec57d23a>@@$0A@@std@@V?$allocator@V?$_Func_class@_NUServiceIdentifier@@PAVXElement@@@std@@@2@_NUServiceIdentifier@@PAVXElement@@@std@@8 ; std::_Func_impl<std::_Callable_obj<<lambda_da5f0f708578e290fee5fc13ec57d23a>,0>,std::allocator<std::_Func_class<bool,ServiceIdentifier,XElement *> >,bool,ServiceIdentifier,XElement *>::`RTTI Base Class Descriptor at (0,-1,0,64)'
PUBLIC	??_7?$_Func_base@_NUServiceIdentifier@@PAVXElement@@@std@@6B@ ; std::_Func_base<bool,ServiceIdentifier,XElement *>::`vftable'
PUBLIC	??_R2?$_Func_impl@U?$_Callable_obj@V<lambda_da5f0f708578e290fee5fc13ec57d23a>@@$0A@@std@@V?$allocator@V?$_Func_class@_NUServiceIdentifier@@PAVXElement@@@std@@@2@_NUServiceIdentifier@@PAVXElement@@@std@@8 ; std::_Func_impl<std::_Callable_obj<<lambda_da5f0f708578e290fee5fc13ec57d23a>,0>,std::allocator<std::_Func_class<bool,ServiceIdentifier,XElement *> >,bool,ServiceIdentifier,XElement *>::`RTTI Base Class Array'
PUBLIC	??_R2?$_Func_impl@U?$_Callable_obj@V<lambda_624bb9d9f3cde644ba29e7729588d586>@@$0A@@std@@V?$allocator@V?$_Func_class@X$$$V@std@@@2@X$$$V@std@@8 ; std::_Func_impl<std::_Callable_obj<<lambda_624bb9d9f3cde644ba29e7729588d586>,0>,std::allocator<std::_Func_class<void> >,void>::`RTTI Base Class Array'
PUBLIC	??_R3?$_Func_impl@U?$_Callable_obj@V<lambda_5b58d388793fe563bc112a2536ab3933>@@$0A@@std@@V?$allocator@V?$_Func_class@X$$$V@std@@@2@X$$$V@std@@8 ; std::_Func_impl<std::_Callable_obj<<lambda_5b58d388793fe563bc112a2536ab3933>,0>,std::allocator<std::_Func_class<void> >,void>::`RTTI Class Hierarchy Descriptor'
PUBLIC	??_R0?AV?$_Func_impl@U?$_Callable_obj@V<lambda_c4599be8aa20546a4c0f056de45f81e0>@@$0A@@std@@V?$allocator@V?$_Func_class@X$$$V@std@@@2@X$$$V@std@@@8 ; std::_Func_impl<std::_Callable_obj<<lambda_c4599be8aa20546a4c0f056de45f81e0>,0>,std::allocator<std::_Func_class<void> >,void> `RTTI Type Descriptor'
EXTRN	__imp_?ToFloat@String@@QBEMXZ:PROC
EXTRN	__imp_?HasItem@XElement@@QBE_NPB_W@Z:PROC
EXTRN	__imp_?FindValueIndex@?$List@VString@@@@QBEIABVString@@@Z:PROC
EXTRN	__imp__ScreenToClient@8:PROC
EXTRN	__imp__SetBkColor@8:PROC
EXTRN	__imp_?SetCanOptimizeSettings@SettingsPane@@IAEX_N@Z:PROC
EXTRN	__imp__SetDlgItemTextW@12:PROC
;	COMDAT ?s_pfn@?1??IsolationAwareGetSaveFileNameW@@9@4@4P6GHPAUtagOFNW@@@ZA
_BSS	SEGMENT
?s_pfn@?1??IsolationAwareGetSaveFileNameW@@9@4@4P6GHPAUtagOFNW@@@ZA DD 01H DUP (?) ; `IsolationAwareGetSaveFileNameW'::`2'::s_pfn
_BSS	ENDS
;	COMDAT ??_R0?AV?$_Func_impl@U?$_Callable_obj@V<lambda_c4599be8aa20546a4c0f056de45f81e0>@@$0A@@std@@V?$allocator@V?$_Func_class@X$$$V@std@@@2@X$$$V@std@@@8
data$r	SEGMENT
??_R0?AV?$_Func_impl@U?$_Callable_obj@V<lambda_c4599be8aa20546a4c0f056de45f81e0>@@$0A@@std@@V?$allocator@V?$_Func_class@X$$$V@std@@@2@X$$$V@std@@@8 DD FLAT:??_7type_info@@6B@ ; std::_Func_impl<std::_Callable_obj<<lambda_c4599be8aa20546a4c0f056de45f81e0>,0>,std::allocator<std::_Func_class<void> >,void> `RTTI Type Descriptor'
	DD	00H
	DB	'.?AV?$_Func_impl@U?$_Callable_obj@V<lambda_c4599be8aa205'
	DB	'46a4c0f056de45f81e0>@@$0A@@std@@V?$allocator@V?$_Func_class@X'
	DB	'$$$V@std@@@2@X$$$V@std@@', 00H
data$r	ENDS
;	COMDAT ??_R3?$_Func_impl@U?$_Callable_obj@V<lambda_5b58d388793fe563bc112a2536ab3933>@@$0A@@std@@V?$allocator@V?$_Func_class@X$$$V@std@@@2@X$$$V@std@@8
rdata$r	SEGMENT
??_R3?$_Func_impl@U?$_Callable_obj@V<lambda_5b58d388793fe563bc112a2536ab3933>@@$0A@@std@@V?$allocator@V?$_Func_class@X$$$V@std@@@2@X$$$V@std@@8 DD 00H ; std::_Func_impl<std::_Callable_obj<<lambda_5b58d388793fe563bc112a2536ab3933>,0>,std::allocator<std::_Func_class<void> >,void>::`RTTI Class Hierarchy Descriptor'
	DD	00H
	DD	02H
	DD	FLAT:??_R2?$_Func_impl@U?$_Callable_obj@V<lambda_5b58d388793fe563bc112a2536ab3933>@@$0A@@std@@V?$allocator@V?$_Func_class@X$$$V@std@@@2@X$$$V@std@@8
rdata$r	ENDS
;	COMDAT ??_R2?$_Func_impl@U?$_Callable_obj@V<lambda_624bb9d9f3cde644ba29e7729588d586>@@$0A@@std@@V?$allocator@V?$_Func_class@X$$$V@std@@@2@X$$$V@std@@8
rdata$r	SEGMENT
??_R2?$_Func_impl@U?$_Callable_obj@V<lambda_624bb9d9f3cde644ba29e7729588d586>@@$0A@@std@@V?$allocator@V?$_Func_class@X$$$V@std@@@2@X$$$V@std@@8 DD FLAT:??_R1A@?0A@EA@?$_Func_impl@U?$_Callable_obj@V<lambda_624bb9d9f3cde644ba29e7729588d586>@@$0A@@std@@V?$allocator@V?$_Func_class@X$$$V@std@@@2@X$$$V@std@@8 ; std::_Func_impl<std::_Callable_obj<<lambda_624bb9d9f3cde644ba29e7729588d586>,0>,std::allocator<std::_Func_class<void> >,void>::`RTTI Base Class Array'
	DD	FLAT:??_R1A@?0A@EA@?$_Func_base@X$$$V@std@@8
rdata$r	ENDS
;	COMDAT ??_R2?$_Func_impl@U?$_Callable_obj@V<lambda_da5f0f708578e290fee5fc13ec57d23a>@@$0A@@std@@V?$allocator@V?$_Func_class@_NUServiceIdentifier@@PAVXElement@@@std@@@2@_NUServiceIdentifier@@PAVXElement@@@std@@8
rdata$r	SEGMENT
??_R2?$_Func_impl@U?$_Callable_obj@V<lambda_da5f0f708578e290fee5fc13ec57d23a>@@$0A@@std@@V?$allocator@V?$_Func_class@_NUServiceIdentifier@@PAVXElement@@@std@@@2@_NUServiceIdentifier@@PAVXElement@@@std@@8 DD FLAT:??_R1A@?0A@EA@?$_Func_impl@U?$_Callable_obj@V<lambda_da5f0f708578e290fee5fc13ec57d23a>@@$0A@@std@@V?$allocator@V?$_Func_class@_NUServiceIdentifier@@PAVXElement@@@std@@@2@_NUServiceIdentifier@@PAVXElement@@@std@@8 ; std::_Func_impl<std::_Callable_obj<<lambda_da5f0f708578e290fee5fc13ec57d23a>,0>,std::allocator<std::_Func_class<bool,ServiceIdentifier,XElement *> >,bool,ServiceIdentifier,XElement *>::`RTTI Base Class Array'
	DD	FLAT:??_R1A@?0A@EA@?$_Func_base@_NUServiceIdentifier@@PAVXElement@@@std@@8
rdata$r	ENDS
;	COMDAT ??_7?$_Func_base@_NUServiceIdentifier@@PAVXElement@@@std@@6B@
CONST	SEGMENT
??_7?$_Func_base@_NUServiceIdentifier@@PAVXElement@@@std@@6B@ DD FLAT:??_R4?$_Func_base@_NUServiceIdentifier@@PAVXElement@@@std@@6B@ ; std::_Func_base<bool,ServiceIdentifier,XElement *>::`vftable'
	DD	FLAT:__purecall
	DD	FLAT:__purecall
	DD	FLAT:__purecall
	DD	FLAT:__purecall
	DD	FLAT:__purecall
	DD	FLAT:??_E?$_Func_base@_NUServiceIdentifier@@PAVXElement@@@std@@UAEPAXI@Z
	DD	FLAT:__purecall
CONST	ENDS
;	COMDAT ??_R1A@?0A@EA@?$_Func_impl@U?$_Callable_obj@V<lambda_da5f0f708578e290fee5fc13ec57d23a>@@$0A@@std@@V?$allocator@V?$_Func_class@_NUServiceIdentifier@@PAVXElement@@@std@@@2@_NUServiceIdentifier@@PAVXElement@@@std@@8
rdata$r	SEGMENT
??_R1A@?0A@EA@?$_Func_impl@U?$_Callable_obj@V<lambda_da5f0f708578e290fee5fc13ec57d23a>@@$0A@@std@@V?$allocator@V?$_Func_class@_NUServiceIdentifier@@PAVXElement@@@std@@@2@_NUServiceIdentifier@@PAVXElement@@@std@@8 DD FLAT:??_R0?AV?$_Func_impl@U?$_Callable_obj@V<lambda_da5f0f708578e290fee5fc13ec57d23a>@@$0A@@std@@V?$allocator@V?$_Func_class@_NUServiceIdentifier@@PAVXElement@@@std@@@2@_NUServiceIdentifier@@PAVXElement@@@std@@@8 ; std::_Func_impl<std::_Callable_obj<<lambda_da5f0f708578e290fee5fc13ec57d23a>,0>,std::allocator<std::_Func_class<bool,ServiceIdentifier,XElement *> >,bool,ServiceIdentifier,XElement *>::`RTTI Base Class Descriptor at (0,-1,0,64)'
	DD	01H
	DD	00H
	DD	0ffffffffH
	DD	00H
	DD	040H
	DD	FLAT:??_R3?$_Func_impl@U?$_Callable_obj@V<lambda_da5f0f708578e290fee5fc13ec57d23a>@@$0A@@std@@V?$allocator@V?$_Func_class@_NUServiceIdentifier@@PAVXElement@@@std@@@2@_NUServiceIdentifier@@PAVXElement@@@std@@8
rdata$r	ENDS
;	COMDAT ??_R1A@?0A@EA@SettingsPublish@@8
rdata$r	SEGMENT
??_R1A@?0A@EA@SettingsPublish@@8 DD FLAT:??_R0?AVSettingsPublish@@@8 ; SettingsPublish::`RTTI Base Class Descriptor at (0,-1,0,64)'
	DD	01H
	DD	00H
	DD	0ffffffffH
	DD	00H
	DD	040H
	DD	FLAT:??_R3SettingsPublish@@8
rdata$r	ENDS
;	COMDAT ??_7?$_Func_impl@U?$_Callable_obj@V<lambda_624bb9d9f3cde644ba29e7729588d586>@@$0A@@std@@V?$allocator@V?$_Func_class@X$$$V@std@@@2@X$$$V@std@@6B@
CONST	SEGMENT
??_7?$_Func_impl@U?$_Callable_obj@V<lambda_624bb9d9f3cde644ba29e7729588d586>@@$0A@@std@@V?$allocator@V?$_Func_class@X$$$V@std@@@2@X$$$V@std@@6B@ DD FLAT:??_R4?$_Func_impl@U?$_Callable_obj@V<lambda_624bb9d9f3cde644ba29e7729588d586>@@$0A@@std@@V?$allocator@V?$_Func_class@X$$$V@std@@@2@X$$$V@std@@6B@ ; std::_Func_impl<std::_Callable_obj<<lambda_624bb9d9f3cde644ba29e7729588d586>,0>,std::allocator<std::_Func_class<void> >,void>::`vftable'
	DD	FLAT:?_Copy@?$_Func_impl@U?$_Callable_obj@V<lambda_624bb9d9f3cde644ba29e7729588d586>@@$0A@@std@@V?$allocator@V?$_Func_class@X$$$V@std@@@2@X$$$V@std@@UAEPAV?$_Func_base@X$$$V@2@PAX@Z
	DD	FLAT:?_Move@?$_Func_impl@U?$_Callable_obj@V<lambda_624bb9d9f3cde644ba29e7729588d586>@@$0A@@std@@V?$allocator@V?$_Func_class@X$$$V@std@@@2@X$$$V@std@@UAEPAV?$_Func_base@X$$$V@2@PAX@Z
	DD	FLAT:?_Do_call@?$_Func_impl@U?$_Callable_obj@V<lambda_624bb9d9f3cde644ba29e7729588d586>@@$0A@@std@@V?$allocator@V?$_Func_class@X$$$V@std@@@2@X$$$V@std@@UAEXXZ
	DD	FLAT:?_Target_type@?$_Func_impl@U?$_Callable_obj@V<lambda_624bb9d9f3cde644ba29e7729588d586>@@$0A@@std@@V?$allocator@V?$_Func_class@X$$$V@std@@@2@X$$$V@std@@UBEABVtype_info@@XZ
	DD	FLAT:?_Delete_this@?$_Func_impl@U?$_Callable_obj@V<lambda_624bb9d9f3cde644ba29e7729588d586>@@$0A@@std@@V?$allocator@V?$_Func_class@X$$$V@std@@@2@X$$$V@std@@EAEX_N@Z
	DD	FLAT:??_E?$_Func_impl@U?$_Callable_obj@V<lambda_624bb9d9f3cde644ba29e7729588d586>@@$0A@@std@@V?$allocator@V?$_Func_class@X$$$V@std@@@2@X$$$V@std@@UAEPAXI@Z
	DD	FLAT:?_Get@?$_Func_impl@U?$_Callable_obj@V<lambda_624bb9d9f3cde644ba29e7729588d586>@@$0A@@std@@V?$allocator@V?$_Func_class@X$$$V@std@@@2@X$$$V@std@@EBEPBXXZ
CONST	ENDS
;	COMDAT ??_R3?$_Func_impl@U?$_Callable_obj@V<lambda_da5f0f708578e290fee5fc13ec57d23a>@@$0A@@std@@V?$allocator@V?$_Func_class@_NUServiceIdentifier@@PAVXElement@@@std@@@2@_NUServiceIdentifier@@PAVXElement@@@std@@8
rdata$r	SEGMENT
??_R3?$_Func_impl@U?$_Callable_obj@V<lambda_da5f0f708578e290fee5fc13ec57d23a>@@$0A@@std@@V?$allocator@V?$_Func_class@_NUServiceIdentifier@@PAVXElement@@@std@@@2@_NUServiceIdentifier@@PAVXElement@@@std@@8 DD 00H ; std::_Func_impl<std::_Callable_obj<<lambda_da5f0f708578e290fee5fc13ec57d23a>,0>,std::allocator<std::_Func_class<bool,ServiceIdentifier,XElement *> >,bool,ServiceIdentifier,XElement *>::`RTTI Class Hierarchy Descriptor'
	DD	00H
	DD	02H
	DD	FLAT:??_R2?$_Func_impl@U?$_Callable_obj@V<lambda_da5f0f708578e290fee5fc13ec57d23a>@@$0A@@std@@V?$allocator@V?$_Func_class@_NUServiceIdentifier@@PAVXElement@@@std@@@2@_NUServiceIdentifier@@PAVXElement@@@std@@8
rdata$r	ENDS
;	COMDAT ??_R0?AV<lambda_624bb9d9f3cde644ba29e7729588d586>@@@8
data$r	SEGMENT
??_R0?AV<lambda_624bb9d9f3cde644ba29e7729588d586>@@@8 DD FLAT:??_7type_info@@6B@ ; <lambda_624bb9d9f3cde644ba29e7729588d586> `RTTI Type Descriptor'
	DD	00H
	DB	'.?AV<lambda_624bb9d9f3cde644ba29e7729588d586>@@', 00H
data$r	ENDS
;	COMDAT ??_R3?$_Func_impl@U?$_Callable_obj@V<lambda_8499d2186312c49ebbd56f30c74af45d>@@$0A@@std@@V?$allocator@V?$_Func_class@X$$$V@std@@@2@X$$$V@std@@8
rdata$r	SEGMENT
??_R3?$_Func_impl@U?$_Callable_obj@V<lambda_8499d2186312c49ebbd56f30c74af45d>@@$0A@@std@@V?$allocator@V?$_Func_class@X$$$V@std@@@2@X$$$V@std@@8 DD 00H ; std::_Func_impl<std::_Callable_obj<<lambda_8499d2186312c49ebbd56f30c74af45d>,0>,std::allocator<std::_Func_class<void> >,void>::`RTTI Class Hierarchy Descriptor'
	DD	00H
	DD	02H
	DD	FLAT:??_R2?$_Func_impl@U?$_Callable_obj@V<lambda_8499d2186312c49ebbd56f30c74af45d>@@$0A@@std@@V?$allocator@V?$_Func_class@X$$$V@std@@@2@X$$$V@std@@8
rdata$r	ENDS
;	COMDAT ??_R0?AV<lambda_424e07199e07f172c211b579b41a0f6b>@@@8
data$r	SEGMENT
??_R0?AV<lambda_424e07199e07f172c211b579b41a0f6b>@@@8 DD FLAT:??_7type_info@@6B@ ; <lambda_424e07199e07f172c211b579b41a0f6b> `RTTI Type Descriptor'
	DD	00H
	DB	'.?AV<lambda_424e07199e07f172c211b579b41a0f6b>@@', 00H
data$r	ENDS
;	COMDAT ??_R1A@?0A@EA@?$_Func_impl@U?$_Callable_obj@V<lambda_624bb9d9f3cde644ba29e7729588d586>@@$0A@@std@@V?$allocator@V?$_Func_class@X$$$V@std@@@2@X$$$V@std@@8
rdata$r	SEGMENT
??_R1A@?0A@EA@?$_Func_impl@U?$_Callable_obj@V<lambda_624bb9d9f3cde644ba29e7729588d586>@@$0A@@std@@V?$allocator@V?$_Func_class@X$$$V@std@@@2@X$$$V@std@@8 DD FLAT:??_R0?AV?$_Func_impl@U?$_Callable_obj@V<lambda_624bb9d9f3cde644ba29e7729588d586>@@$0A@@std@@V?$allocator@V?$_Func_class@X$$$V@std@@@2@X$$$V@std@@@8 ; std::_Func_impl<std::_Callable_obj<<lambda_624bb9d9f3cde644ba29e7729588d586>,0>,std::allocator<std::_Func_class<void> >,void>::`RTTI Base Class Descriptor at (0,-1,0,64)'
	DD	01H
	DD	00H
	DD	0ffffffffH
	DD	00H
	DD	040H
	DD	FLAT:??_R3?$_Func_impl@U?$_Callable_obj@V<lambda_624bb9d9f3cde644ba29e7729588d586>@@$0A@@std@@V?$allocator@V?$_Func_class@X$$$V@std@@@2@X$$$V@std@@8
rdata$r	ENDS
;	COMDAT ??_R3?$_Func_impl@U?$_Callable_obj@V<lambda_07b41efe5098b34c18964d3f394ff711>@@$0A@@std@@V?$allocator@V?$_Func_class@X$$$V@std@@@2@X$$$V@std@@8
rdata$r	SEGMENT
??_R3?$_Func_impl@U?$_Callable_obj@V<lambda_07b41efe5098b34c18964d3f394ff711>@@$0A@@std@@V?$allocator@V?$_Func_class@X$$$V@std@@@2@X$$$V@std@@8 DD 00H ; std::_Func_impl<std::_Callable_obj<<lambda_07b41efe5098b34c18964d3f394ff711>,0>,std::allocator<std::_Func_class<void> >,void>::`RTTI Class Hierarchy Descriptor'
	DD	00H
	DD	02H
	DD	FLAT:??_R2?$_Func_impl@U?$_Callable_obj@V<lambda_07b41efe5098b34c18964d3f394ff711>@@$0A@@std@@V?$allocator@V?$_Func_class@X$$$V@std@@@2@X$$$V@std@@8
rdata$r	ENDS
;	COMDAT ??_R1A@?0A@EA@?$_Func_impl@U?$_Callable_obj@V<lambda_0a265d9f88e42e1afeaf76e4a6ca41f3>@@$0A@@std@@V?$allocator@V?$_Func_class@X$$$V@std@@@2@X$$$V@std@@8
rdata$r	SEGMENT
??_R1A@?0A@EA@?$_Func_impl@U?$_Callable_obj@V<lambda_0a265d9f88e42e1afeaf76e4a6ca41f3>@@$0A@@std@@V?$allocator@V?$_Func_class@X$$$V@std@@@2@X$$$V@std@@8 DD FLAT:??_R0?AV?$_Func_impl@U?$_Callable_obj@V<lambda_0a265d9f88e42e1afeaf76e4a6ca41f3>@@$0A@@std@@V?$allocator@V?$_Func_class@X$$$V@std@@@2@X$$$V@std@@@8 ; std::_Func_impl<std::_Callable_obj<<lambda_0a265d9f88e42e1afeaf76e4a6ca41f3>,0>,std::allocator<std::_Func_class<void> >,void>::`RTTI Base Class Descriptor at (0,-1,0,64)'
	DD	01H
	DD	00H
	DD	0ffffffffH
	DD	00H
	DD	040H
	DD	FLAT:??_R3?$_Func_impl@U?$_Callable_obj@V<lambda_0a265d9f88e42e1afeaf76e4a6ca41f3>@@$0A@@std@@V?$allocator@V?$_Func_class@X$$$V@std@@@2@X$$$V@std@@8
rdata$r	ENDS
;	COMDAT ??_R0?AV<lambda_c4599be8aa20546a4c0f056de45f81e0>@@@8
data$r	SEGMENT
??_R0?AV<lambda_c4599be8aa20546a4c0f056de45f81e0>@@@8 DD FLAT:??_7type_info@@6B@ ; <lambda_c4599be8aa20546a4c0f056de45f81e0> `RTTI Type Descriptor'
	DD	00H
	DB	'.?AV<lambda_c4599be8aa20546a4c0f056de45f81e0>@@', 00H
data$r	ENDS
;	COMDAT ??_R4?$_Func_impl@U?$_Callable_obj@V<lambda_5b58d388793fe563bc112a2536ab3933>@@$0A@@std@@V?$allocator@V?$_Func_class@X$$$V@std@@@2@X$$$V@std@@6B@
rdata$r	SEGMENT
??_R4?$_Func_impl@U?$_Callable_obj@V<lambda_5b58d388793fe563bc112a2536ab3933>@@$0A@@std@@V?$allocator@V?$_Func_class@X$$$V@std@@@2@X$$$V@std@@6B@ DD 00H ; std::_Func_impl<std::_Callable_obj<<lambda_5b58d388793fe563bc112a2536ab3933>,0>,std::allocator<std::_Func_class<void> >,void>::`RTTI Complete Object Locator'
	DD	00H
	DD	00H
	DD	FLAT:??_R0?AV?$_Func_impl@U?$_Callable_obj@V<lambda_5b58d388793fe563bc112a2536ab3933>@@$0A@@std@@V?$allocator@V?$_Func_class@X$$$V@std@@@2@X$$$V@std@@@8
	DD	FLAT:??_R3?$_Func_impl@U?$_Callable_obj@V<lambda_5b58d388793fe563bc112a2536ab3933>@@$0A@@std@@V?$allocator@V?$_Func_class@X$$$V@std@@@2@X$$$V@std@@8
rdata$r	ENDS
;	COMDAT ??_R2?$_Func_impl@U?$_Callable_obj@V<lambda_c4599be8aa20546a4c0f056de45f81e0>@@$0A@@std@@V?$allocator@V?$_Func_class@X$$$V@std@@@2@X$$$V@std@@8
rdata$r	SEGMENT
??_R2?$_Func_impl@U?$_Callable_obj@V<lambda_c4599be8aa20546a4c0f056de45f81e0>@@$0A@@std@@V?$allocator@V?$_Func_class@X$$$V@std@@@2@X$$$V@std@@8 DD FLAT:??_R1A@?0A@EA@?$_Func_impl@U?$_Callable_obj@V<lambda_c4599be8aa20546a4c0f056de45f81e0>@@$0A@@std@@V?$allocator@V?$_Func_class@X$$$V@std@@@2@X$$$V@std@@8 ; std::_Func_impl<std::_Callable_obj<<lambda_c4599be8aa20546a4c0f056de45f81e0>,0>,std::allocator<std::_Func_class<void> >,void>::`RTTI Base Class Array'
	DD	FLAT:??_R1A@?0A@EA@?$_Func_base@X$$$V@std@@8
rdata$r	ENDS
;	COMDAT ??_R4?$_Func_impl@U?$_Callable_obj@V<lambda_0a265d9f88e42e1afeaf76e4a6ca41f3>@@$0A@@std@@V?$allocator@V?$_Func_class@X$$$V@std@@@2@X$$$V@std@@6B@
rdata$r	SEGMENT
??_R4?$_Func_impl@U?$_Callable_obj@V<lambda_0a265d9f88e42e1afeaf76e4a6ca41f3>@@$0A@@std@@V?$allocator@V?$_Func_class@X$$$V@std@@@2@X$$$V@std@@6B@ DD 00H ; std::_Func_impl<std::_Callable_obj<<lambda_0a265d9f88e42e1afeaf76e4a6ca41f3>,0>,std::allocator<std::_Func_class<void> >,void>::`RTTI Complete Object Locator'
	DD	00H
	DD	00H
	DD	FLAT:??_R0?AV?$_Func_impl@U?$_Callable_obj@V<lambda_0a265d9f88e42e1afeaf76e4a6ca41f3>@@$0A@@std@@V?$allocator@V?$_Func_class@X$$$V@std@@@2@X$$$V@std@@@8
	DD	FLAT:??_R3?$_Func_impl@U?$_Callable_obj@V<lambda_0a265d9f88e42e1afeaf76e4a6ca41f3>@@$0A@@std@@V?$allocator@V?$_Func_class@X$$$V@std@@@2@X$$$V@std@@8
rdata$r	ENDS
;	COMDAT ??_R4?$_Func_impl@U?$_Callable_obj@V<lambda_07b41efe5098b34c18964d3f394ff711>@@$0A@@std@@V?$allocator@V?$_Func_class@X$$$V@std@@@2@X$$$V@std@@6B@
rdata$r	SEGMENT
??_R4?$_Func_impl@U?$_Callable_obj@V<lambda_07b41efe5098b34c18964d3f394ff711>@@$0A@@std@@V?$allocator@V?$_Func_class@X$$$V@std@@@2@X$$$V@std@@6B@ DD 00H ; std::_Func_impl<std::_Callable_obj<<lambda_07b41efe5098b34c18964d3f394ff711>,0>,std::allocator<std::_Func_class<void> >,void>::`RTTI Complete Object Locator'
	DD	00H
	DD	00H
	DD	FLAT:??_R0?AV?$_Func_impl@U?$_Callable_obj@V<lambda_07b41efe5098b34c18964d3f394ff711>@@$0A@@std@@V?$allocator@V?$_Func_class@X$$$V@std@@@2@X$$$V@std@@@8
	DD	FLAT:??_R3?$_Func_impl@U?$_Callable_obj@V<lambda_07b41efe5098b34c18964d3f394ff711>@@$0A@@std@@V?$allocator@V?$_Func_class@X$$$V@std@@@2@X$$$V@std@@8
rdata$r	ENDS
;	COMDAT ??_7?$_Func_impl@U?$_Callable_obj@V<lambda_da5f0f708578e290fee5fc13ec57d23a>@@$0A@@std@@V?$allocator@V?$_Func_class@_NUServiceIdentifier@@PAVXElement@@@std@@@2@_NUServiceIdentifier@@PAVXElement@@@std@@6B@
CONST	SEGMENT
??_7?$_Func_impl@U?$_Callable_obj@V<lambda_da5f0f708578e290fee5fc13ec57d23a>@@$0A@@std@@V?$allocator@V?$_Func_class@_NUServiceIdentifier@@PAVXElement@@@std@@@2@_NUServiceIdentifier@@PAVXElement@@@std@@6B@ DD FLAT:??_R4?$_Func_impl@U?$_Callable_obj@V<lambda_da5f0f708578e290fee5fc13ec57d23a>@@$0A@@std@@V?$allocator@V?$_Func_class@_NUServiceIdentifier@@PAVXElement@@@std@@@2@_NUServiceIdentifier@@PAVXElement@@@std@@6B@ ; std::_Func_impl<std::_Callable_obj<<lambda_da5f0f708578e290fee5fc13ec57d23a>,0>,std::allocator<std::_Func_class<bool,ServiceIdentifier,XElement *> >,bool,ServiceIdentifier,XElement *>::`vftable'
	DD	FLAT:?_Copy@?$_Func_impl@U?$_Callable_obj@V<lambda_da5f0f708578e290fee5fc13ec57d23a>@@$0A@@std@@V?$allocator@V?$_Func_class@_NUServiceIdentifier@@PAVXElement@@@std@@@2@_NUServiceIdentifier@@PAVXElement@@@std@@UAEPAV?$_Func_base@_NUServiceIdentifier@@PAVXElement@@@2@PAX@Z
	DD	FLAT:?_Move@?$_Func_impl@U?$_Callable_obj@V<lambda_da5f0f708578e290fee5fc13ec57d23a>@@$0A@@std@@V?$allocator@V?$_Func_class@_NUServiceIdentifier@@PAVXElement@@@std@@@2@_NUServiceIdentifier@@PAVXElement@@@std@@UAEPAV?$_Func_base@_NUServiceIdentifier@@PAVXElement@@@2@PAX@Z
	DD	FLAT:?_Do_call@?$_Func_impl@U?$_Callable_obj@V<lambda_da5f0f708578e290fee5fc13ec57d23a>@@$0A@@std@@V?$allocator@V?$_Func_class@_NUServiceIdentifier@@PAVXElement@@@std@@@2@_NUServiceIdentifier@@PAVXElement@@@std@@UAE_N$$QAUServiceIdentifier@@$$QAPAVXElement@@@Z
	DD	FLAT:?_Target_type@?$_Func_impl@U?$_Callable_obj@V<lambda_da5f0f708578e290fee5fc13ec57d23a>@@$0A@@std@@V?$allocator@V?$_Func_class@_NUServiceIdentifier@@PAVXElement@@@std@@@2@_NUServiceIdentifier@@PAVXElement@@@std@@UBEABVtype_info@@XZ
	DD	FLAT:?_Delete_this@?$_Func_impl@U?$_Callable_obj@V<lambda_da5f0f708578e290fee5fc13ec57d23a>@@$0A@@std@@V?$allocator@V?$_Func_class@_NUServiceIdentifier@@PAVXElement@@@std@@@2@_NUServiceIdentifier@@PAVXElement@@@std@@EAEX_N@Z
	DD	FLAT:??_E?$_Func_impl@U?$_Callable_obj@V<lambda_da5f0f708578e290fee5fc13ec57d23a>@@$0A@@std@@V?$allocator@V?$_Func_class@_NUServiceIdentifier@@PAVXElement@@@std@@@2@_NUServiceIdentifier@@PAVXElement@@@std@@UAEPAXI@Z
	DD	FLAT:?_Get@?$_Func_impl@U?$_Callable_obj@V<lambda_da5f0f708578e290fee5fc13ec57d23a>@@$0A@@std@@V?$allocator@V?$_Func_class@_NUServiceIdentifier@@PAVXElement@@@std@@@2@_NUServiceIdentifier@@PAVXElement@@@std@@EBEPBXXZ
CONST	ENDS
;	COMDAT ??_R2?$_Func_impl@U?$_Callable_obj@V<lambda_0a265d9f88e42e1afeaf76e4a6ca41f3>@@$0A@@std@@V?$allocator@V?$_Func_class@X$$$V@std@@@2@X$$$V@std@@8
rdata$r	SEGMENT
??_R2?$_Func_impl@U?$_Callable_obj@V<lambda_0a265d9f88e42e1afeaf76e4a6ca41f3>@@$0A@@std@@V?$allocator@V?$_Func_class@X$$$V@std@@@2@X$$$V@std@@8 DD FLAT:??_R1A@?0A@EA@?$_Func_impl@U?$_Callable_obj@V<lambda_0a265d9f88e42e1afeaf76e4a6ca41f3>@@$0A@@std@@V?$allocator@V?$_Func_class@X$$$V@std@@@2@X$$$V@std@@8 ; std::_Func_impl<std::_Callable_obj<<lambda_0a265d9f88e42e1afeaf76e4a6ca41f3>,0>,std::allocator<std::_Func_class<void> >,void>::`RTTI Base Class Array'
	DD	FLAT:??_R1A@?0A@EA@?$_Func_base@X$$$V@std@@8
rdata$r	ENDS
;	COMDAT ??_R1A@?0A@EA@?$_Func_impl@U?$_Callable_obj@V<lambda_8499d2186312c49ebbd56f30c74af45d>@@$0A@@std@@V?$allocator@V?$_Func_class@X$$$V@std@@@2@X$$$V@std@@8
rdata$r	SEGMENT
??_R1A@?0A@EA@?$_Func_impl@U?$_Callable_obj@V<lambda_8499d2186312c49ebbd56f30c74af45d>@@$0A@@std@@V?$allocator@V?$_Func_class@X$$$V@std@@@2@X$$$V@std@@8 DD FLAT:??_R0?AV?$_Func_impl@U?$_Callable_obj@V<lambda_8499d2186312c49ebbd56f30c74af45d>@@$0A@@std@@V?$allocator@V?$_Func_class@X$$$V@std@@@2@X$$$V@std@@@8 ; std::_Func_impl<std::_Callable_obj<<lambda_8499d2186312c49ebbd56f30c74af45d>,0>,std::allocator<std::_Func_class<void> >,void>::`RTTI Base Class Descriptor at (0,-1,0,64)'
	DD	01H
	DD	00H
	DD	0ffffffffH
	DD	00H
	DD	040H
	DD	FLAT:??_R3?$_Func_impl@U?$_Callable_obj@V<lambda_8499d2186312c49ebbd56f30c74af45d>@@$0A@@std@@V?$allocator@V?$_Func_class@X$$$V@std@@@2@X$$$V@std@@8
rdata$r	ENDS
;	COMDAT ??_R2?$_Func_impl@U?$_Callable_obj@V<lambda_8499d2186312c49ebbd56f30c74af45d>@@$0A@@std@@V?$allocator@V?$_Func_class@X$$$V@std@@@2@X$$$V@std@@8
rdata$r	SEGMENT
??_R2?$_Func_impl@U?$_Callable_obj@V<lambda_8499d2186312c49ebbd56f30c74af45d>@@$0A@@std@@V?$allocator@V?$_Func_class@X$$$V@std@@@2@X$$$V@std@@8 DD FLAT:??_R1A@?0A@EA@?$_Func_impl@U?$_Callable_obj@V<lambda_8499d2186312c49ebbd56f30c74af45d>@@$0A@@std@@V?$allocator@V?$_Func_class@X$$$V@std@@@2@X$$$V@std@@8 ; std::_Func_impl<std::_Callable_obj<<lambda_8499d2186312c49ebbd56f30c74af45d>,0>,std::allocator<std::_Func_class<void> >,void>::`RTTI Base Class Array'
	DD	FLAT:??_R1A@?0A@EA@?$_Func_base@X$$$V@std@@8
rdata$r	ENDS
;	COMDAT ??_R0?AV?$_Func_base@_NUServiceIdentifier@@PAVXElement@@@std@@@8
data$r	SEGMENT
??_R0?AV?$_Func_base@_NUServiceIdentifier@@PAVXElement@@@std@@@8 DD FLAT:??_7type_info@@6B@ ; std::_Func_base<bool,ServiceIdentifier,XElement *> `RTTI Type Descriptor'
	DD	00H
	DB	'.?AV?$_Func_base@_NUServiceIdentifier@@PAVXElement@@@std'
	DB	'@@', 00H
data$r	ENDS
;	COMDAT ??_7?$_Func_impl@U?$_Callable_obj@V<lambda_5b58d388793fe563bc112a2536ab3933>@@$0A@@std@@V?$allocator@V?$_Func_class@X$$$V@std@@@2@X$$$V@std@@6B@
CONST	SEGMENT
??_7?$_Func_impl@U?$_Callable_obj@V<lambda_5b58d388793fe563bc112a2536ab3933>@@$0A@@std@@V?$allocator@V?$_Func_class@X$$$V@std@@@2@X$$$V@std@@6B@ DD FLAT:??_R4?$_Func_impl@U?$_Callable_obj@V<lambda_5b58d388793fe563bc112a2536ab3933>@@$0A@@std@@V?$allocator@V?$_Func_class@X$$$V@std@@@2@X$$$V@std@@6B@ ; std::_Func_impl<std::_Callable_obj<<lambda_5b58d388793fe563bc112a2536ab3933>,0>,std::allocator<std::_Func_class<void> >,void>::`vftable'
	DD	FLAT:?_Copy@?$_Func_impl@U?$_Callable_obj@V<lambda_5b58d388793fe563bc112a2536ab3933>@@$0A@@std@@V?$allocator@V?$_Func_class@X$$$V@std@@@2@X$$$V@std@@UAEPAV?$_Func_base@X$$$V@2@PAX@Z
	DD	FLAT:?_Move@?$_Func_impl@U?$_Callable_obj@V<lambda_5b58d388793fe563bc112a2536ab3933>@@$0A@@std@@V?$allocator@V?$_Func_class@X$$$V@std@@@2@X$$$V@std@@UAEPAV?$_Func_base@X$$$V@2@PAX@Z
	DD	FLAT:?_Do_call@?$_Func_impl@U?$_Callable_obj@V<lambda_5b58d388793fe563bc112a2536ab3933>@@$0A@@std@@V?$allocator@V?$_Func_class@X$$$V@std@@@2@X$$$V@std@@UAEXXZ
	DD	FLAT:?_Target_type@?$_Func_impl@U?$_Callable_obj@V<lambda_5b58d388793fe563bc112a2536ab3933>@@$0A@@std@@V?$allocator@V?$_Func_class@X$$$V@std@@@2@X$$$V@std@@UBEABVtype_info@@XZ
	DD	FLAT:?_Delete_this@?$_Func_impl@U?$_Callable_obj@V<lambda_5b58d388793fe563bc112a2536ab3933>@@$0A@@std@@V?$allocator@V?$_Func_class@X$$$V@std@@@2@X$$$V@std@@EAEX_N@Z
	DD	FLAT:??_E?$_Func_impl@U?$_Callable_obj@V<lambda_5b58d388793fe563bc112a2536ab3933>@@$0A@@std@@V?$allocator@V?$_Func_class@X$$$V@std@@@2@X$$$V@std@@UAEPAXI@Z
	DD	FLAT:?_Get@?$_Func_impl@U?$_Callable_obj@V<lambda_5b58d388793fe563bc112a2536ab3933>@@$0A@@std@@V?$allocator@V?$_Func_class@X$$$V@std@@@2@X$$$V@std@@EBEPBXXZ
CONST	ENDS
;	COMDAT ??_R0?AV?$_Func_impl@U?$_Callable_obj@V<lambda_07b41efe5098b34c18964d3f394ff711>@@$0A@@std@@V?$allocator@V?$_Func_class@X$$$V@std@@@2@X$$$V@std@@@8
data$r	SEGMENT
??_R0?AV?$_Func_impl@U?$_Callable_obj@V<lambda_07b41efe5098b34c18964d3f394ff711>@@$0A@@std@@V?$allocator@V?$_Func_class@X$$$V@std@@@2@X$$$V@std@@@8 DD FLAT:??_7type_info@@6B@ ; std::_Func_impl<std::_Callable_obj<<lambda_07b41efe5098b34c18964d3f394ff711>,0>,std::allocator<std::_Func_class<void> >,void> `RTTI Type Descriptor'
	DD	00H
	DB	'.?AV?$_Func_impl@U?$_Callable_obj@V<lambda_07b41efe5098b'
	DB	'34c18964d3f394ff711>@@$0A@@std@@V?$allocator@V?$_Func_class@X'
	DB	'$$$V@std@@@2@X$$$V@std@@', 00H
data$r	ENDS
;	COMDAT ??_R0?AV<lambda_5b58d388793fe563bc112a2536ab3933>@@@8
data$r	SEGMENT
??_R0?AV<lambda_5b58d388793fe563bc112a2536ab3933>@@@8 DD FLAT:??_7type_info@@6B@ ; <lambda_5b58d388793fe563bc112a2536ab3933> `RTTI Type Descriptor'
	DD	00H
	DB	'.?AV<lambda_5b58d388793fe563bc112a2536ab3933>@@', 00H
data$r	ENDS
;	COMDAT ??_R1A@?0A@EA@?$_Func_impl@U?$_Callable_obj@V<lambda_424e07199e07f172c211b579b41a0f6b>@@$0A@@std@@V?$allocator@V?$_Func_class@X$$$V@std@@@2@X$$$V@std@@8
rdata$r	SEGMENT
??_R1A@?0A@EA@?$_Func_impl@U?$_Callable_obj@V<lambda_424e07199e07f172c211b579b41a0f6b>@@$0A@@std@@V?$allocator@V?$_Func_class@X$$$V@std@@@2@X$$$V@std@@8 DD FLAT:??_R0?AV?$_Func_impl@U?$_Callable_obj@V<lambda_424e07199e07f172c211b579b41a0f6b>@@$0A@@std@@V?$allocator@V?$_Func_class@X$$$V@std@@@2@X$$$V@std@@@8 ; std::_Func_impl<std::_Callable_obj<<lambda_424e07199e07f172c211b579b41a0f6b>,0>,std::allocator<std::_Func_class<void> >,void>::`RTTI Base Class Descriptor at (0,-1,0,64)'
	DD	01H
	DD	00H
	DD	0ffffffffH
	DD	00H
	DD	040H
	DD	FLAT:??_R3?$_Func_impl@U?$_Callable_obj@V<lambda_424e07199e07f172c211b579b41a0f6b>@@$0A@@std@@V?$allocator@V?$_Func_class@X$$$V@std@@@2@X$$$V@std@@8
rdata$r	ENDS
;	COMDAT ??_7?$_Func_impl@U?$_Callable_obj@V<lambda_8499d2186312c49ebbd56f30c74af45d>@@$0A@@std@@V?$allocator@V?$_Func_class@X$$$V@std@@@2@X$$$V@std@@6B@
CONST	SEGMENT
??_7?$_Func_impl@U?$_Callable_obj@V<lambda_8499d2186312c49ebbd56f30c74af45d>@@$0A@@std@@V?$allocator@V?$_Func_class@X$$$V@std@@@2@X$$$V@std@@6B@ DD FLAT:??_R4?$_Func_impl@U?$_Callable_obj@V<lambda_8499d2186312c49ebbd56f30c74af45d>@@$0A@@std@@V?$allocator@V?$_Func_class@X$$$V@std@@@2@X$$$V@std@@6B@ ; std::_Func_impl<std::_Callable_obj<<lambda_8499d2186312c49ebbd56f30c74af45d>,0>,std::allocator<std::_Func_class<void> >,void>::`vftable'
	DD	FLAT:?_Copy@?$_Func_impl@U?$_Callable_obj@V<lambda_8499d2186312c49ebbd56f30c74af45d>@@$0A@@std@@V?$allocator@V?$_Func_class@X$$$V@std@@@2@X$$$V@std@@UAEPAV?$_Func_base@X$$$V@2@PAX@Z
	DD	FLAT:?_Move@?$_Func_impl@U?$_Callable_obj@V<lambda_8499d2186312c49ebbd56f30c74af45d>@@$0A@@std@@V?$allocator@V?$_Func_class@X$$$V@std@@@2@X$$$V@std@@UAEPAV?$_Func_base@X$$$V@2@PAX@Z
	DD	FLAT:?_Do_call@?$_Func_impl@U?$_Callable_obj@V<lambda_8499d2186312c49ebbd56f30c74af45d>@@$0A@@std@@V?$allocator@V?$_Func_class@X$$$V@std@@@2@X$$$V@std@@UAEXXZ
	DD	FLAT:?_Target_type@?$_Func_impl@U?$_Callable_obj@V<lambda_8499d2186312c49ebbd56f30c74af45d>@@$0A@@std@@V?$allocator@V?$_Func_class@X$$$V@std@@@2@X$$$V@std@@UBEABVtype_info@@XZ
	DD	FLAT:?_Delete_this@?$_Func_impl@U?$_Callable_obj@V<lambda_8499d2186312c49ebbd56f30c74af45d>@@$0A@@std@@V?$allocator@V?$_Func_class@X$$$V@std@@@2@X$$$V@std@@EAEX_N@Z
	DD	FLAT:??_E?$_Func_impl@U?$_Callable_obj@V<lambda_8499d2186312c49ebbd56f30c74af45d>@@$0A@@std@@V?$allocator@V?$_Func_class@X$$$V@std@@@2@X$$$V@std@@UAEPAXI@Z
	DD	FLAT:?_Get@?$_Func_impl@U?$_Callable_obj@V<lambda_8499d2186312c49ebbd56f30c74af45d>@@$0A@@std@@V?$allocator@V?$_Func_class@X$$$V@std@@@2@X$$$V@std@@EBEPBXXZ
CONST	ENDS
;	COMDAT ??_R0?AV?$_Func_impl@U?$_Callable_obj@V<lambda_da5f0f708578e290fee5fc13ec57d23a>@@$0A@@std@@V?$allocator@V?$_Func_class@_NUServiceIdentifier@@PAVXElement@@@std@@@2@_NUServiceIdentifier@@PAVXElement@@@std@@@8
data$r	SEGMENT
??_R0?AV?$_Func_impl@U?$_Callable_obj@V<lambda_da5f0f708578e290fee5fc13ec57d23a>@@$0A@@std@@V?$allocator@V?$_Func_class@_NUServiceIdentifier@@PAVXElement@@@std@@@2@_NUServiceIdentifier@@PAVXElement@@@std@@@8 DD FLAT:??_7type_info@@6B@ ; std::_Func_impl<std::_Callable_obj<<lambda_da5f0f708578e290fee5fc13ec57d23a>,0>,std::allocator<std::_Func_class<bool,ServiceIdentifier,XElement *> >,bool,ServiceIdentifier,XElement *> `RTTI Type Descriptor'
	DD	00H
	DB	'.?AV?$_Func_impl@U?$_Callable_obj@V<lambda_da5f0f708578e'
	DB	'290fee5fc13ec57d23a>@@$0A@@std@@V?$allocator@V?$_Func_class@_'
	DB	'NUServiceIdentifier@@PAVXElement@@@std@@@2@_NUServiceIdentifi'
	DB	'er@@PAVXElement@@@std@@', 00H
data$r	ENDS
;	COMDAT ??_R2?$_Func_impl@U?$_Callable_obj@V<lambda_5b58d388793fe563bc112a2536ab3933>@@$0A@@std@@V?$allocator@V?$_Func_class@X$$$V@std@@@2@X$$$V@std@@8
rdata$r	SEGMENT
??_R2?$_Func_impl@U?$_Callable_obj@V<lambda_5b58d388793fe563bc112a2536ab3933>@@$0A@@std@@V?$allocator@V?$_Func_class@X$$$V@std@@@2@X$$$V@std@@8 DD FLAT:??_R1A@?0A@EA@?$_Func_impl@U?$_Callable_obj@V<lambda_5b58d388793fe563bc112a2536ab3933>@@$0A@@std@@V?$allocator@V?$_Func_class@X$$$V@std@@@2@X$$$V@std@@8 ; std::_Func_impl<std::_Callable_obj<<lambda_5b58d388793fe563bc112a2536ab3933>,0>,std::allocator<std::_Func_class<void> >,void>::`RTTI Base Class Array'
	DD	FLAT:??_R1A@?0A@EA@?$_Func_base@X$$$V@std@@8
rdata$r	ENDS
;	COMDAT ??_R3?$_Func_impl@U?$_Callable_obj@V<lambda_c4599be8aa20546a4c0f056de45f81e0>@@$0A@@std@@V?$allocator@V?$_Func_class@X$$$V@std@@@2@X$$$V@std@@8
rdata$r	SEGMENT
??_R3?$_Func_impl@U?$_Callable_obj@V<lambda_c4599be8aa20546a4c0f056de45f81e0>@@$0A@@std@@V?$allocator@V?$_Func_class@X$$$V@std@@@2@X$$$V@std@@8 DD 00H ; std::_Func_impl<std::_Callable_obj<<lambda_c4599be8aa20546a4c0f056de45f81e0>,0>,std::allocator<std::_Func_class<void> >,void>::`RTTI Class Hierarchy Descriptor'
	DD	00H
	DD	02H
	DD	FLAT:??_R2?$_Func_impl@U?$_Callable_obj@V<lambda_c4599be8aa20546a4c0f056de45f81e0>@@$0A@@std@@V?$allocator@V?$_Func_class@X$$$V@std@@@2@X$$$V@std@@8
rdata$r	ENDS
;	COMDAT ??_R1A@?0A@EA@?$_Func_impl@U?$_Callable_obj@V<lambda_c4599be8aa20546a4c0f056de45f81e0>@@$0A@@std@@V?$allocator@V?$_Func_class@X$$$V@std@@@2@X$$$V@std@@8
rdata$r	SEGMENT
??_R1A@?0A@EA@?$_Func_impl@U?$_Callable_obj@V<lambda_c4599be8aa20546a4c0f056de45f81e0>@@$0A@@std@@V?$allocator@V?$_Func_class@X$$$V@std@@@2@X$$$V@std@@8 DD FLAT:??_R0?AV?$_Func_impl@U?$_Callable_obj@V<lambda_c4599be8aa20546a4c0f056de45f81e0>@@$0A@@std@@V?$allocator@V?$_Func_class@X$$$V@std@@@2@X$$$V@std@@@8 ; std::_Func_impl<std::_Callable_obj<<lambda_c4599be8aa20546a4c0f056de45f81e0>,0>,std::allocator<std::_Func_class<void> >,void>::`RTTI Base Class Descriptor at (0,-1,0,64)'
	DD	01H
	DD	00H
	DD	0ffffffffH
	DD	00H
	DD	040H
	DD	FLAT:??_R3?$_Func_impl@U?$_Callable_obj@V<lambda_c4599be8aa20546a4c0f056de45f81e0>@@$0A@@std@@V?$allocator@V?$_Func_class@X$$$V@std@@@2@X$$$V@std@@8
rdata$r	ENDS
;	COMDAT ??_R3?$_Func_base@_NUServiceIdentifier@@PAVXElement@@@std@@8
rdata$r	SEGMENT
??_R3?$_Func_base@_NUServiceIdentifier@@PAVXElement@@@std@@8 DD 00H ; std::_Func_base<bool,ServiceIdentifier,XElement *>::`RTTI Class Hierarchy Descriptor'
	DD	00H
	DD	01H
	DD	FLAT:??_R2?$_Func_base@_NUServiceIdentifier@@PAVXElement@@@std@@8
rdata$r	ENDS
;	COMDAT ??_R0?AV?$_Func_impl@U?$_Callable_obj@V<lambda_0a265d9f88e42e1afeaf76e4a6ca41f3>@@$0A@@std@@V?$allocator@V?$_Func_class@X$$$V@std@@@2@X$$$V@std@@@8
data$r	SEGMENT
??_R0?AV?$_Func_impl@U?$_Callable_obj@V<lambda_0a265d9f88e42e1afeaf76e4a6ca41f3>@@$0A@@std@@V?$allocator@V?$_Func_class@X$$$V@std@@@2@X$$$V@std@@@8 DD FLAT:??_7type_info@@6B@ ; std::_Func_impl<std::_Callable_obj<<lambda_0a265d9f88e42e1afeaf76e4a6ca41f3>,0>,std::allocator<std::_Func_class<void> >,void> `RTTI Type Descriptor'
	DD	00H
	DB	'.?AV?$_Func_impl@U?$_Callable_obj@V<lambda_0a265d9f88e42'
	DB	'e1afeaf76e4a6ca41f3>@@$0A@@std@@V?$allocator@V?$_Func_class@X'
	DB	'$$$V@std@@@2@X$$$V@std@@', 00H
data$r	ENDS
;	COMDAT ??_R1A@?0A@EA@?$_Func_base@_NUServiceIdentifier@@PAVXElement@@@std@@8
rdata$r	SEGMENT
??_R1A@?0A@EA@?$_Func_base@_NUServiceIdentifier@@PAVXElement@@@std@@8 DD FLAT:??_R0?AV?$_Func_base@_NUServiceIdentifier@@PAVXElement@@@std@@@8 ; std::_Func_base<bool,ServiceIdentifier,XElement *>::`RTTI Base Class Descriptor at (0,-1,0,64)'
	DD	00H
	DD	00H
	DD	0ffffffffH
	DD	00H
	DD	040H
	DD	FLAT:??_R3?$_Func_base@_NUServiceIdentifier@@PAVXElement@@@std@@8
rdata$r	ENDS
;	COMDAT ??_R2SettingsPublish@@8
rdata$r	SEGMENT
??_R2SettingsPublish@@8 DD FLAT:??_R1A@?0A@EA@SettingsPublish@@8 ; SettingsPublish::`RTTI Base Class Array'
	DD	FLAT:??_R1A@?0A@EA@SettingsPane@@8
rdata$r	ENDS
;	COMDAT ??_R3?$_Func_impl@U?$_Callable_obj@V<lambda_424e07199e07f172c211b579b41a0f6b>@@$0A@@std@@V?$allocator@V?$_Func_class@X$$$V@std@@@2@X$$$V@std@@8
rdata$r	SEGMENT
??_R3?$_Func_impl@U?$_Callable_obj@V<lambda_424e07199e07f172c211b579b41a0f6b>@@$0A@@std@@V?$allocator@V?$_Func_class@X$$$V@std@@@2@X$$$V@std@@8 DD 00H ; std::_Func_impl<std::_Callable_obj<<lambda_424e07199e07f172c211b579b41a0f6b>,0>,std::allocator<std::_Func_class<void> >,void>::`RTTI Class Hierarchy Descriptor'
	DD	00H
	DD	02H
	DD	FLAT:??_R2?$_Func_impl@U?$_Callable_obj@V<lambda_424e07199e07f172c211b579b41a0f6b>@@$0A@@std@@V?$allocator@V?$_Func_class@X$$$V@std@@@2@X$$$V@std@@8
rdata$r	ENDS
;	COMDAT ??_R0?AV<lambda_07b41efe5098b34c18964d3f394ff711>@@@8
data$r	SEGMENT
??_R0?AV<lambda_07b41efe5098b34c18964d3f394ff711>@@@8 DD FLAT:??_7type_info@@6B@ ; <lambda_07b41efe5098b34c18964d3f394ff711> `RTTI Type Descriptor'
	DD	00H
	DB	'.?AV<lambda_07b41efe5098b34c18964d3f394ff711>@@', 00H
data$r	ENDS
;	COMDAT ??_R4?$_Func_base@_NUServiceIdentifier@@PAVXElement@@@std@@6B@
rdata$r	SEGMENT
??_R4?$_Func_base@_NUServiceIdentifier@@PAVXElement@@@std@@6B@ DD 00H ; std::_Func_base<bool,ServiceIdentifier,XElement *>::`RTTI Complete Object Locator'
	DD	00H
	DD	00H
	DD	FLAT:??_R0?AV?$_Func_base@_NUServiceIdentifier@@PAVXElement@@@std@@@8
	DD	FLAT:??_R3?$_Func_base@_NUServiceIdentifier@@PAVXElement@@@std@@8
rdata$r	ENDS
;	COMDAT ??_R0?AV?$_Func_impl@U?$_Callable_obj@V<lambda_424e07199e07f172c211b579b41a0f6b>@@$0A@@std@@V?$allocator@V?$_Func_class@X$$$V@std@@@2@X$$$V@std@@@8
data$r	SEGMENT
??_R0?AV?$_Func_impl@U?$_Callable_obj@V<lambda_424e07199e07f172c211b579b41a0f6b>@@$0A@@std@@V?$allocator@V?$_Func_class@X$$$V@std@@@2@X$$$V@std@@@8 DD FLAT:??_7type_info@@6B@ ; std::_Func_impl<std::_Callable_obj<<lambda_424e07199e07f172c211b579b41a0f6b>,0>,std::allocator<std::_Func_class<void> >,void> `RTTI Type Descriptor'
	DD	00H
	DB	'.?AV?$_Func_impl@U?$_Callable_obj@V<lambda_424e07199e07f'
	DB	'172c211b579b41a0f6b>@@$0A@@std@@V?$allocator@V?$_Func_class@X'
	DB	'$$$V@std@@@2@X$$$V@std@@', 00H
data$r	ENDS
;	COMDAT ??_R3?$_Func_impl@U?$_Callable_obj@V<lambda_624bb9d9f3cde644ba29e7729588d586>@@$0A@@std@@V?$allocator@V?$_Func_class@X$$$V@std@@@2@X$$$V@std@@8
rdata$r	SEGMENT
??_R3?$_Func_impl@U?$_Callable_obj@V<lambda_624bb9d9f3cde644ba29e7729588d586>@@$0A@@std@@V?$allocator@V?$_Func_class@X$$$V@std@@@2@X$$$V@std@@8 DD 00H ; std::_Func_impl<std::_Callable_obj<<lambda_624bb9d9f3cde644ba29e7729588d586>,0>,std::allocator<std::_Func_class<void> >,void>::`RTTI Class Hierarchy Descriptor'
	DD	00H
	DD	02H
	DD	FLAT:??_R2?$_Func_impl@U?$_Callable_obj@V<lambda_624bb9d9f3cde644ba29e7729588d586>@@$0A@@std@@V?$allocator@V?$_Func_class@X$$$V@std@@@2@X$$$V@std@@8
rdata$r	ENDS
;	COMDAT ??_R4SettingsPublish@@6B@
rdata$r	SEGMENT
??_R4SettingsPublish@@6B@ DD 00H			; SettingsPublish::`RTTI Complete Object Locator'
	DD	00H
	DD	00H
	DD	FLAT:??_R0?AVSettingsPublish@@@8
	DD	FLAT:??_R3SettingsPublish@@8
rdata$r	ENDS
;	COMDAT ??_R1A@?0A@EA@?$_Func_impl@U?$_Callable_obj@V<lambda_5b58d388793fe563bc112a2536ab3933>@@$0A@@std@@V?$allocator@V?$_Func_class@X$$$V@std@@@2@X$$$V@std@@8
rdata$r	SEGMENT
??_R1A@?0A@EA@?$_Func_impl@U?$_Callable_obj@V<lambda_5b58d388793fe563bc112a2536ab3933>@@$0A@@std@@V?$allocator@V?$_Func_class@X$$$V@std@@@2@X$$$V@std@@8 DD FLAT:??_R0?AV?$_Func_impl@U?$_Callable_obj@V<lambda_5b58d388793fe563bc112a2536ab3933>@@$0A@@std@@V?$allocator@V?$_Func_class@X$$$V@std@@@2@X$$$V@std@@@8 ; std::_Func_impl<std::_Callable_obj<<lambda_5b58d388793fe563bc112a2536ab3933>,0>,std::allocator<std::_Func_class<void> >,void>::`RTTI Base Class Descriptor at (0,-1,0,64)'
	DD	01H
	DD	00H
	DD	0ffffffffH
	DD	00H
	DD	040H
	DD	FLAT:??_R3?$_Func_impl@U?$_Callable_obj@V<lambda_5b58d388793fe563bc112a2536ab3933>@@$0A@@std@@V?$allocator@V?$_Func_class@X$$$V@std@@@2@X$$$V@std@@8
rdata$r	ENDS
;	COMDAT ??_R2?$_Func_base@_NUServiceIdentifier@@PAVXElement@@@std@@8
rdata$r	SEGMENT
??_R2?$_Func_base@_NUServiceIdentifier@@PAVXElement@@@std@@8 DD FLAT:??_R1A@?0A@EA@?$_Func_base@_NUServiceIdentifier@@PAVXElement@@@std@@8 ; std::_Func_base<bool,ServiceIdentifier,XElement *>::`RTTI Base Class Array'
rdata$r	ENDS
;	COMDAT ??_R2?$_Func_impl@U?$_Callable_obj@V<lambda_07b41efe5098b34c18964d3f394ff711>@@$0A@@std@@V?$allocator@V?$_Func_class@X$$$V@std@@@2@X$$$V@std@@8
rdata$r	SEGMENT
??_R2?$_Func_impl@U?$_Callable_obj@V<lambda_07b41efe5098b34c18964d3f394ff711>@@$0A@@std@@V?$allocator@V?$_Func_class@X$$$V@std@@@2@X$$$V@std@@8 DD FLAT:??_R1A@?0A@EA@?$_Func_impl@U?$_Callable_obj@V<lambda_07b41efe5098b34c18964d3f394ff711>@@$0A@@std@@V?$allocator@V?$_Func_class@X$$$V@std@@@2@X$$$V@std@@8 ; std::_Func_impl<std::_Callable_obj<<lambda_07b41efe5098b34c18964d3f394ff711>,0>,std::allocator<std::_Func_class<void> >,void>::`RTTI Base Class Array'
	DD	FLAT:??_R1A@?0A@EA@?$_Func_base@X$$$V@std@@8
rdata$r	ENDS
;	COMDAT ??_R0?AV<lambda_0a265d9f88e42e1afeaf76e4a6ca41f3>@@@8
data$r	SEGMENT
??_R0?AV<lambda_0a265d9f88e42e1afeaf76e4a6ca41f3>@@@8 DD FLAT:??_7type_info@@6B@ ; <lambda_0a265d9f88e42e1afeaf76e4a6ca41f3> `RTTI Type Descriptor'
	DD	00H
	DB	'.?AV<lambda_0a265d9f88e42e1afeaf76e4a6ca41f3>@@', 00H
data$r	ENDS
;	COMDAT ??_R4?$_Func_impl@U?$_Callable_obj@V<lambda_da5f0f708578e290fee5fc13ec57d23a>@@$0A@@std@@V?$allocator@V?$_Func_class@_NUServiceIdentifier@@PAVXElement@@@std@@@2@_NUServiceIdentifier@@PAVXElement@@@std@@6B@
rdata$r	SEGMENT
??_R4?$_Func_impl@U?$_Callable_obj@V<lambda_da5f0f708578e290fee5fc13ec57d23a>@@$0A@@std@@V?$allocator@V?$_Func_class@_NUServiceIdentifier@@PAVXElement@@@std@@@2@_NUServiceIdentifier@@PAVXElement@@@std@@6B@ DD 00H ; std::_Func_impl<std::_Callable_obj<<lambda_da5f0f708578e290fee5fc13ec57d23a>,0>,std::allocator<std::_Func_class<bool,ServiceIdentifier,XElement *> >,bool,ServiceIdentifier,XElement *>::`RTTI Complete Object Locator'
	DD	00H
	DD	00H
	DD	FLAT:??_R0?AV?$_Func_impl@U?$_Callable_obj@V<lambda_da5f0f708578e290fee5fc13ec57d23a>@@$0A@@std@@V?$allocator@V?$_Func_class@_NUServiceIdentifier@@PAVXElement@@@std@@@2@_NUServiceIdentifier@@PAVXElement@@@std@@@8
	DD	FLAT:??_R3?$_Func_impl@U?$_Callable_obj@V<lambda_da5f0f708578e290fee5fc13ec57d23a>@@$0A@@std@@V?$allocator@V?$_Func_class@_NUServiceIdentifier@@PAVXElement@@@std@@@2@_NUServiceIdentifier@@PAVXElement@@@std@@8
rdata$r	ENDS
;	COMDAT ??_R0?AV?$_Func_impl@U?$_Callable_obj@V<lambda_5b58d388793fe563bc112a2536ab3933>@@$0A@@std@@V?$allocator@V?$_Func_class@X$$$V@std@@@2@X$$$V@std@@@8
data$r	SEGMENT
??_R0?AV?$_Func_impl@U?$_Callable_obj@V<lambda_5b58d388793fe563bc112a2536ab3933>@@$0A@@std@@V?$allocator@V?$_Func_class@X$$$V@std@@@2@X$$$V@std@@@8 DD FLAT:??_7type_info@@6B@ ; std::_Func_impl<std::_Callable_obj<<lambda_5b58d388793fe563bc112a2536ab3933>,0>,std::allocator<std::_Func_class<void> >,void> `RTTI Type Descriptor'
	DD	00H
	DB	'.?AV?$_Func_impl@U?$_Callable_obj@V<lambda_5b58d388793fe'
	DB	'563bc112a2536ab3933>@@$0A@@std@@V?$allocator@V?$_Func_class@X'
	DB	'$$$V@std@@@2@X$$$V@std@@', 00H
data$r	ENDS
;	COMDAT ??_R3SettingsPublish@@8
rdata$r	SEGMENT
??_R3SettingsPublish@@8 DD 00H				; SettingsPublish::`RTTI Class Hierarchy Descriptor'
	DD	00H
	DD	02H
	DD	FLAT:??_R2SettingsPublish@@8
rdata$r	ENDS
;	COMDAT ??_7?$_Func_impl@U?$_Callable_obj@V<lambda_07b41efe5098b34c18964d3f394ff711>@@$0A@@std@@V?$allocator@V?$_Func_class@X$$$V@std@@@2@X$$$V@std@@6B@
CONST	SEGMENT
??_7?$_Func_impl@U?$_Callable_obj@V<lambda_07b41efe5098b34c18964d3f394ff711>@@$0A@@std@@V?$allocator@V?$_Func_class@X$$$V@std@@@2@X$$$V@std@@6B@ DD FLAT:??_R4?$_Func_impl@U?$_Callable_obj@V<lambda_07b41efe5098b34c18964d3f394ff711>@@$0A@@std@@V?$allocator@V?$_Func_class@X$$$V@std@@@2@X$$$V@std@@6B@ ; std::_Func_impl<std::_Callable_obj<<lambda_07b41efe5098b34c18964d3f394ff711>,0>,std::allocator<std::_Func_class<void> >,void>::`vftable'
	DD	FLAT:?_Copy@?$_Func_impl@U?$_Callable_obj@V<lambda_07b41efe5098b34c18964d3f394ff711>@@$0A@@std@@V?$allocator@V?$_Func_class@X$$$V@std@@@2@X$$$V@std@@UAEPAV?$_Func_base@X$$$V@2@PAX@Z
	DD	FLAT:?_Move@?$_Func_impl@U?$_Callable_obj@V<lambda_07b41efe5098b34c18964d3f394ff711>@@$0A@@std@@V?$allocator@V?$_Func_class@X$$$V@std@@@2@X$$$V@std@@UAEPAV?$_Func_base@X$$$V@2@PAX@Z
	DD	FLAT:?_Do_call@?$_Func_impl@U?$_Callable_obj@V<lambda_07b41efe5098b34c18964d3f394ff711>@@$0A@@std@@V?$allocator@V?$_Func_class@X$$$V@std@@@2@X$$$V@std@@UAEXXZ
	DD	FLAT:?_Target_type@?$_Func_impl@U?$_Callable_obj@V<lambda_07b41efe5098b34c18964d3f394ff711>@@$0A@@std@@V?$allocator@V?$_Func_class@X$$$V@std@@@2@X$$$V@std@@UBEABVtype_info@@XZ
	DD	FLAT:?_Delete_this@?$_Func_impl@U?$_Callable_obj@V<lambda_07b41efe5098b34c18964d3f394ff711>@@$0A@@std@@V?$allocator@V?$_Func_class@X$$$V@std@@@2@X$$$V@std@@EAEX_N@Z
	DD	FLAT:??_E?$_Func_impl@U?$_Callable_obj@V<lambda_07b41efe5098b34c18964d3f394ff711>@@$0A@@std@@V?$allocator@V?$_Func_class@X$$$V@std@@@2@X$$$V@std@@UAEPAXI@Z
	DD	FLAT:?_Get@?$_Func_impl@U?$_Callable_obj@V<lambda_07b41efe5098b34c18964d3f394ff711>@@$0A@@std@@V?$allocator@V?$_Func_class@X$$$V@std@@@2@X$$$V@std@@EBEPBXXZ
CONST	ENDS
;	COMDAT ??_R0?AV?$_Func_impl@U?$_Callable_obj@V<lambda_624bb9d9f3cde644ba29e7729588d586>@@$0A@@std@@V?$allocator@V?$_Func_class@X$$$V@std@@@2@X$$$V@std@@@8
data$r	SEGMENT
??_R0?AV?$_Func_impl@U?$_Callable_obj@V<lambda_624bb9d9f3cde644ba29e7729588d586>@@$0A@@std@@V?$allocator@V?$_Func_class@X$$$V@std@@@2@X$$$V@std@@@8 DD FLAT:??_7type_info@@6B@ ; std::_Func_impl<std::_Callable_obj<<lambda_624bb9d9f3cde644ba29e7729588d586>,0>,std::allocator<std::_Func_class<void> >,void> `RTTI Type Descriptor'
	DD	00H
	DB	'.?AV?$_Func_impl@U?$_Callable_obj@V<lambda_624bb9d9f3cde'
	DB	'644ba29e7729588d586>@@$0A@@std@@V?$allocator@V?$_Func_class@X'
	DB	'$$$V@std@@@2@X$$$V@std@@', 00H
data$r	ENDS
;	COMDAT ??_R2?$_Func_impl@U?$_Callable_obj@V<lambda_424e07199e07f172c211b579b41a0f6b>@@$0A@@std@@V?$allocator@V?$_Func_class@X$$$V@std@@@2@X$$$V@std@@8
rdata$r	SEGMENT
??_R2?$_Func_impl@U?$_Callable_obj@V<lambda_424e07199e07f172c211b579b41a0f6b>@@$0A@@std@@V?$allocator@V?$_Func_class@X$$$V@std@@@2@X$$$V@std@@8 DD FLAT:??_R1A@?0A@EA@?$_Func_impl@U?$_Callable_obj@V<lambda_424e07199e07f172c211b579b41a0f6b>@@$0A@@std@@V?$allocator@V?$_Func_class@X$$$V@std@@@2@X$$$V@std@@8 ; std::_Func_impl<std::_Callable_obj<<lambda_424e07199e07f172c211b579b41a0f6b>,0>,std::allocator<std::_Func_class<void> >,void>::`RTTI Base Class Array'
	DD	FLAT:??_R1A@?0A@EA@?$_Func_base@X$$$V@std@@8
rdata$r	ENDS
;	COMDAT ??_R4?$_Func_impl@U?$_Callable_obj@V<lambda_8499d2186312c49ebbd56f30c74af45d>@@$0A@@std@@V?$allocator@V?$_Func_class@X$$$V@std@@@2@X$$$V@std@@6B@
rdata$r	SEGMENT
??_R4?$_Func_impl@U?$_Callable_obj@V<lambda_8499d2186312c49ebbd56f30c74af45d>@@$0A@@std@@V?$allocator@V?$_Func_class@X$$$V@std@@@2@X$$$V@std@@6B@ DD 00H ; std::_Func_impl<std::_Callable_obj<<lambda_8499d2186312c49ebbd56f30c74af45d>,0>,std::allocator<std::_Func_class<void> >,void>::`RTTI Complete Object Locator'
	DD	00H
	DD	00H
	DD	FLAT:??_R0?AV?$_Func_impl@U?$_Callable_obj@V<lambda_8499d2186312c49ebbd56f30c74af45d>@@$0A@@std@@V?$allocator@V?$_Func_class@X$$$V@std@@@2@X$$$V@std@@@8
	DD	FLAT:??_R3?$_Func_impl@U?$_Callable_obj@V<lambda_8499d2186312c49ebbd56f30c74af45d>@@$0A@@std@@V?$allocator@V?$_Func_class@X$$$V@std@@@2@X$$$V@std@@8
rdata$r	ENDS
;	COMDAT ??_7SettingsPublish@@6B@
CONST	SEGMENT
??_7SettingsPublish@@6B@ DD FLAT:??_R4SettingsPublish@@6B@ ; SettingsPublish::`vftable'
	DD	FLAT:??_ESettingsPublish@@UAEPAXI@Z
	DD	FLAT:?GetCategory@SettingsPublish@@UBEPB_WXZ
	DD	FLAT:?CreatePane@SettingsPublish@@UAEPAUHWND__@@PAU2@@Z
	DD	FLAT:?DestroyPane@SettingsPublish@@UAEXXZ
	DD	FLAT:?ProcMessage@SettingsPublish@@UAEHIIJ@Z
	DD	FLAT:?ApplySettings@SettingsPublish@@UAEXXZ
	DD	FLAT:?CancelSettings@SettingsPublish@@UAEXXZ
	DD	FLAT:?HasDefaults@SettingsPublish@@UBE_NXZ
	DD	FLAT:?SetDefaults@SettingsPane@@UAEXXZ
	DD	FLAT:?OptimizeSettings@SettingsPublish@@UAEXXZ
CONST	ENDS
;	COMDAT ??_R0?AV?$_Func_impl@U?$_Callable_obj@V<lambda_8499d2186312c49ebbd56f30c74af45d>@@$0A@@std@@V?$allocator@V?$_Func_class@X$$$V@std@@@2@X$$$V@std@@@8
data$r	SEGMENT
??_R0?AV?$_Func_impl@U?$_Callable_obj@V<lambda_8499d2186312c49ebbd56f30c74af45d>@@$0A@@std@@V?$allocator@V?$_Func_class@X$$$V@std@@@2@X$$$V@std@@@8 DD FLAT:??_7type_info@@6B@ ; std::_Func_impl<std::_Callable_obj<<lambda_8499d2186312c49ebbd56f30c74af45d>,0>,std::allocator<std::_Func_class<void> >,void> `RTTI Type Descriptor'
	DD	00H
	DB	'.?AV?$_Func_impl@U?$_Callable_obj@V<lambda_8499d2186312c'
	DB	'49ebbd56f30c74af45d>@@$0A@@std@@V?$allocator@V?$_Func_class@X'
	DB	'$$$V@std@@@2@X$$$V@std@@', 00H
data$r	ENDS
;	COMDAT ??_7?$_Func_impl@U?$_Callable_obj@V<lambda_c4599be8aa20546a4c0f056de45f81e0>@@$0A@@std@@V?$allocator@V?$_Func_class@X$$$V@std@@@2@X$$$V@std@@6B@
CONST	SEGMENT
??_7?$_Func_impl@U?$_Callable_obj@V<lambda_c4599be8aa20546a4c0f056de45f81e0>@@$0A@@std@@V?$allocator@V?$_Func_class@X$$$V@std@@@2@X$$$V@std@@6B@ DD FLAT:??_R4?$_Func_impl@U?$_Callable_obj@V<lambda_c4599be8aa20546a4c0f056de45f81e0>@@$0A@@std@@V?$allocator@V?$_Func_class@X$$$V@std@@@2@X$$$V@std@@6B@ ; std::_Func_impl<std::_Callable_obj<<lambda_c4599be8aa20546a4c0f056de45f81e0>,0>,std::allocator<std::_Func_class<void> >,void>::`vftable'
	DD	FLAT:?_Copy@?$_Func_impl@U?$_Callable_obj@V<lambda_c4599be8aa20546a4c0f056de45f81e0>@@$0A@@std@@V?$allocator@V?$_Func_class@X$$$V@std@@@2@X$$$V@std@@UAEPAV?$_Func_base@X$$$V@2@PAX@Z
	DD	FLAT:?_Move@?$_Func_impl@U?$_Callable_obj@V<lambda_c4599be8aa20546a4c0f056de45f81e0>@@$0A@@std@@V?$allocator@V?$_Func_class@X$$$V@std@@@2@X$$$V@std@@UAEPAV?$_Func_base@X$$$V@2@PAX@Z
	DD	FLAT:?_Do_call@?$_Func_impl@U?$_Callable_obj@V<lambda_c4599be8aa20546a4c0f056de45f81e0>@@$0A@@std@@V?$allocator@V?$_Func_class@X$$$V@std@@@2@X$$$V@std@@UAEXXZ
	DD	FLAT:?_Target_type@?$_Func_impl@U?$_Callable_obj@V<lambda_c4599be8aa20546a4c0f056de45f81e0>@@$0A@@std@@V?$allocator@V?$_Func_class@X$$$V@std@@@2@X$$$V@std@@UBEABVtype_info@@XZ
	DD	FLAT:?_Delete_this@?$_Func_impl@U?$_Callable_obj@V<lambda_c4599be8aa20546a4c0f056de45f81e0>@@$0A@@std@@V?$allocator@V?$_Func_class@X$$$V@std@@@2@X$$$V@std@@EAEX_N@Z
	DD	FLAT:??_E?$_Func_impl@U?$_Callable_obj@V<lambda_c4599be8aa20546a4c0f056de45f81e0>@@$0A@@std@@V?$allocator@V?$_Func_class@X$$$V@std@@@2@X$$$V@std@@UAEPAXI@Z
	DD	FLAT:?_Get@?$_Func_impl@U?$_Callable_obj@V<lambda_c4599be8aa20546a4c0f056de45f81e0>@@$0A@@std@@V?$allocator@V?$_Func_class@X$$$V@std@@@2@X$$$V@std@@EBEPBXXZ
CONST	ENDS
;	COMDAT ??_R1A@?0A@EA@?$_Func_impl@U?$_Callable_obj@V<lambda_07b41efe5098b34c18964d3f394ff711>@@$0A@@std@@V?$allocator@V?$_Func_class@X$$$V@std@@@2@X$$$V@std@@8
rdata$r	SEGMENT
??_R1A@?0A@EA@?$_Func_impl@U?$_Callable_obj@V<lambda_07b41efe5098b34c18964d3f394ff711>@@$0A@@std@@V?$allocator@V?$_Func_class@X$$$V@std@@@2@X$$$V@std@@8 DD FLAT:??_R0?AV?$_Func_impl@U?$_Callable_obj@V<lambda_07b41efe5098b34c18964d3f394ff711>@@$0A@@std@@V?$allocator@V?$_Func_class@X$$$V@std@@@2@X$$$V@std@@@8 ; std::_Func_impl<std::_Callable_obj<<lambda_07b41efe5098b34c18964d3f394ff711>,0>,std::allocator<std::_Func_class<void> >,void>::`RTTI Base Class Descriptor at (0,-1,0,64)'
	DD	01H
	DD	00H
	DD	0ffffffffH
	DD	00H
	DD	040H
	DD	FLAT:??_R3?$_Func_impl@U?$_Callable_obj@V<lambda_07b41efe5098b34c18964d3f394ff711>@@$0A@@std@@V?$allocator@V?$_Func_class@X$$$V@std@@@2@X$$$V@std@@8
rdata$r	ENDS
;	COMDAT ??_R4?$_Func_impl@U?$_Callable_obj@V<lambda_424e07199e07f172c211b579b41a0f6b>@@$0A@@std@@V?$allocator@V?$_Func_class@X$$$V@std@@@2@X$$$V@std@@6B@
rdata$r	SEGMENT
??_R4?$_Func_impl@U?$_Callable_obj@V<lambda_424e07199e07f172c211b579b41a0f6b>@@$0A@@std@@V?$allocator@V?$_Func_class@X$$$V@std@@@2@X$$$V@std@@6B@ DD 00H ; std::_Func_impl<std::_Callable_obj<<lambda_424e07199e07f172c211b579b41a0f6b>,0>,std::allocator<std::_Func_class<void> >,void>::`RTTI Complete Object Locator'
	DD	00H
	DD	00H
	DD	FLAT:??_R0?AV?$_Func_impl@U?$_Callable_obj@V<lambda_424e07199e07f172c211b579b41a0f6b>@@$0A@@std@@V?$allocator@V?$_Func_class@X$$$V@std@@@2@X$$$V@std@@@8
	DD	FLAT:??_R3?$_Func_impl@U?$_Callable_obj@V<lambda_424e07199e07f172c211b579b41a0f6b>@@$0A@@std@@V?$allocator@V?$_Func_class@X$$$V@std@@@2@X$$$V@std@@8
rdata$r	ENDS
;	COMDAT ??_7?$_Func_impl@U?$_Callable_obj@V<lambda_424e07199e07f172c211b579b41a0f6b>@@$0A@@std@@V?$allocator@V?$_Func_class@X$$$V@std@@@2@X$$$V@std@@6B@
CONST	SEGMENT
??_7?$_Func_impl@U?$_Callable_obj@V<lambda_424e07199e07f172c211b579b41a0f6b>@@$0A@@std@@V?$allocator@V?$_Func_class@X$$$V@std@@@2@X$$$V@std@@6B@ DD FLAT:??_R4?$_Func_impl@U?$_Callable_obj@V<lambda_424e07199e07f172c211b579b41a0f6b>@@$0A@@std@@V?$allocator@V?$_Func_class@X$$$V@std@@@2@X$$$V@std@@6B@ ; std::_Func_impl<std::_Callable_obj<<lambda_424e07199e07f172c211b579b41a0f6b>,0>,std::allocator<std::_Func_class<void> >,void>::`vftable'
	DD	FLAT:?_Copy@?$_Func_impl@U?$_Callable_obj@V<lambda_424e07199e07f172c211b579b41a0f6b>@@$0A@@std@@V?$allocator@V?$_Func_class@X$$$V@std@@@2@X$$$V@std@@UAEPAV?$_Func_base@X$$$V@2@PAX@Z
	DD	FLAT:?_Move@?$_Func_impl@U?$_Callable_obj@V<lambda_424e07199e07f172c211b579b41a0f6b>@@$0A@@std@@V?$allocator@V?$_Func_class@X$$$V@std@@@2@X$$$V@std@@UAEPAV?$_Func_base@X$$$V@2@PAX@Z
	DD	FLAT:?_Do_call@?$_Func_impl@U?$_Callable_obj@V<lambda_424e07199e07f172c211b579b41a0f6b>@@$0A@@std@@V?$allocator@V?$_Func_class@X$$$V@std@@@2@X$$$V@std@@UAEXXZ
	DD	FLAT:?_Target_type@?$_Func_impl@U?$_Callable_obj@V<lambda_424e07199e07f172c211b579b41a0f6b>@@$0A@@std@@V?$allocator@V?$_Func_class@X$$$V@std@@@2@X$$$V@std@@UBEABVtype_info@@XZ
	DD	FLAT:?_Delete_this@?$_Func_impl@U?$_Callable_obj@V<lambda_424e07199e07f172c211b579b41a0f6b>@@$0A@@std@@V?$allocator@V?$_Func_class@X$$$V@std@@@2@X$$$V@std@@EAEX_N@Z
	DD	FLAT:??_E?$_Func_impl@U?$_Callable_obj@V<lambda_424e07199e07f172c211b579b41a0f6b>@@$0A@@std@@V?$allocator@V?$_Func_class@X$$$V@std@@@2@X$$$V@std@@UAEPAXI@Z
	DD	FLAT:?_Get@?$_Func_impl@U?$_Callable_obj@V<lambda_424e07199e07f172c211b579b41a0f6b>@@$0A@@std@@V?$allocator@V?$_Func_class@X$$$V@std@@@2@X$$$V@std@@EBEPBXXZ
CONST	ENDS
;	COMDAT ??_7?$_Func_impl@U?$_Callable_obj@V<lambda_0a265d9f88e42e1afeaf76e4a6ca41f3>@@$0A@@std@@V?$allocator@V?$_Func_class@X$$$V@std@@@2@X$$$V@std@@6B@
CONST	SEGMENT
??_7?$_Func_impl@U?$_Callable_obj@V<lambda_0a265d9f88e42e1afeaf76e4a6ca41f3>@@$0A@@std@@V?$allocator@V?$_Func_class@X$$$V@std@@@2@X$$$V@std@@6B@ DD FLAT:??_R4?$_Func_impl@U?$_Callable_obj@V<lambda_0a265d9f88e42e1afeaf76e4a6ca41f3>@@$0A@@std@@V?$allocator@V?$_Func_class@X$$$V@std@@@2@X$$$V@std@@6B@ ; std::_Func_impl<std::_Callable_obj<<lambda_0a265d9f88e42e1afeaf76e4a6ca41f3>,0>,std::allocator<std::_Func_class<void> >,void>::`vftable'
	DD	FLAT:?_Copy@?$_Func_impl@U?$_Callable_obj@V<lambda_0a265d9f88e42e1afeaf76e4a6ca41f3>@@$0A@@std@@V?$allocator@V?$_Func_class@X$$$V@std@@@2@X$$$V@std@@UAEPAV?$_Func_base@X$$$V@2@PAX@Z
	DD	FLAT:?_Move@?$_Func_impl@U?$_Callable_obj@V<lambda_0a265d9f88e42e1afeaf76e4a6ca41f3>@@$0A@@std@@V?$allocator@V?$_Func_class@X$$$V@std@@@2@X$$$V@std@@UAEPAV?$_Func_base@X$$$V@2@PAX@Z
	DD	FLAT:?_Do_call@?$_Func_impl@U?$_Callable_obj@V<lambda_0a265d9f88e42e1afeaf76e4a6ca41f3>@@$0A@@std@@V?$allocator@V?$_Func_class@X$$$V@std@@@2@X$$$V@std@@UAEXXZ
	DD	FLAT:?_Target_type@?$_Func_impl@U?$_Callable_obj@V<lambda_0a265d9f88e42e1afeaf76e4a6ca41f3>@@$0A@@std@@V?$allocator@V?$_Func_class@X$$$V@std@@@2@X$$$V@std@@UBEABVtype_info@@XZ
	DD	FLAT:?_Delete_this@?$_Func_impl@U?$_Callable_obj@V<lambda_0a265d9f88e42e1afeaf76e4a6ca41f3>@@$0A@@std@@V?$allocator@V?$_Func_class@X$$$V@std@@@2@X$$$V@std@@EAEX_N@Z
	DD	FLAT:??_E?$_Func_impl@U?$_Callable_obj@V<lambda_0a265d9f88e42e1afeaf76e4a6ca41f3>@@$0A@@std@@V?$allocator@V?$_Func_class@X$$$V@std@@@2@X$$$V@std@@UAEPAXI@Z
	DD	FLAT:?_Get@?$_Func_impl@U?$_Callable_obj@V<lambda_0a265d9f88e42e1afeaf76e4a6ca41f3>@@$0A@@std@@V?$allocator@V?$_Func_class@X$$$V@std@@@2@X$$$V@std@@EBEPBXXZ
CONST	ENDS
;	COMDAT ??_R4?$_Func_impl@U?$_Callable_obj@V<lambda_c4599be8aa20546a4c0f056de45f81e0>@@$0A@@std@@V?$allocator@V?$_Func_class@X$$$V@std@@@2@X$$$V@std@@6B@
rdata$r	SEGMENT
??_R4?$_Func_impl@U?$_Callable_obj@V<lambda_c4599be8aa20546a4c0f056de45f81e0>@@$0A@@std@@V?$allocator@V?$_Func_class@X$$$V@std@@@2@X$$$V@std@@6B@ DD 00H ; std::_Func_impl<std::_Callable_obj<<lambda_c4599be8aa20546a4c0f056de45f81e0>,0>,std::allocator<std::_Func_class<void> >,void>::`RTTI Complete Object Locator'
	DD	00H
	DD	00H
	DD	FLAT:??_R0?AV?$_Func_impl@U?$_Callable_obj@V<lambda_c4599be8aa20546a4c0f056de45f81e0>@@$0A@@std@@V?$allocator@V?$_Func_class@X$$$V@std@@@2@X$$$V@std@@@8
	DD	FLAT:??_R3?$_Func_impl@U?$_Callable_obj@V<lambda_c4599be8aa20546a4c0f056de45f81e0>@@$0A@@std@@V?$allocator@V?$_Func_class@X$$$V@std@@@2@X$$$V@std@@8
rdata$r	ENDS
;	COMDAT ??_R0?AVSettingsPublish@@@8
data$r	SEGMENT
??_R0?AVSettingsPublish@@@8 DD FLAT:??_7type_info@@6B@	; SettingsPublish `RTTI Type Descriptor'
	DD	00H
	DB	'.?AVSettingsPublish@@', 00H
data$r	ENDS
;	COMDAT ??_R0?AV<lambda_8499d2186312c49ebbd56f30c74af45d>@@@8
data$r	SEGMENT
??_R0?AV<lambda_8499d2186312c49ebbd56f30c74af45d>@@@8 DD FLAT:??_7type_info@@6B@ ; <lambda_8499d2186312c49ebbd56f30c74af45d> `RTTI Type Descriptor'
	DD	00H
	DB	'.?AV<lambda_8499d2186312c49ebbd56f30c74af45d>@@', 00H
data$r	ENDS
;	COMDAT ??_R0?AV<lambda_da5f0f708578e290fee5fc13ec57d23a>@@@8
data$r	SEGMENT
??_R0?AV<lambda_da5f0f708578e290fee5fc13ec57d23a>@@@8 DD FLAT:??_7type_info@@6B@ ; <lambda_da5f0f708578e290fee5fc13ec57d23a> `RTTI Type Descriptor'
	DD	00H
	DB	'.?AV<lambda_da5f0f708578e290fee5fc13ec57d23a>@@', 00H
data$r	ENDS
;	COMDAT ??_R4?$_Func_impl@U?$_Callable_obj@V<lambda_624bb9d9f3cde644ba29e7729588d586>@@$0A@@std@@V?$allocator@V?$_Func_class@X$$$V@std@@@2@X$$$V@std@@6B@
rdata$r	SEGMENT
??_R4?$_Func_impl@U?$_Callable_obj@V<lambda_624bb9d9f3cde644ba29e7729588d586>@@$0A@@std@@V?$allocator@V?$_Func_class@X$$$V@std@@@2@X$$$V@std@@6B@ DD 00H ; std::_Func_impl<std::_Callable_obj<<lambda_624bb9d9f3cde644ba29e7729588d586>,0>,std::allocator<std::_Func_class<void> >,void>::`RTTI Complete Object Locator'
	DD	00H
	DD	00H
	DD	FLAT:??_R0?AV?$_Func_impl@U?$_Callable_obj@V<lambda_624bb9d9f3cde644ba29e7729588d586>@@$0A@@std@@V?$allocator@V?$_Func_class@X$$$V@std@@@2@X$$$V@std@@@8
	DD	FLAT:??_R3?$_Func_impl@U?$_Callable_obj@V<lambda_624bb9d9f3cde644ba29e7729588d586>@@$0A@@std@@V?$allocator@V?$_Func_class@X$$$V@std@@@2@X$$$V@std@@8
rdata$r	ENDS
;	COMDAT ??_R3?$_Func_impl@U?$_Callable_obj@V<lambda_0a265d9f88e42e1afeaf76e4a6ca41f3>@@$0A@@std@@V?$allocator@V?$_Func_class@X$$$V@std@@@2@X$$$V@std@@8
rdata$r	SEGMENT
??_R3?$_Func_impl@U?$_Callable_obj@V<lambda_0a265d9f88e42e1afeaf76e4a6ca41f3>@@$0A@@std@@V?$allocator@V?$_Func_class@X$$$V@std@@@2@X$$$V@std@@8 DD 00H ; std::_Func_impl<std::_Callable_obj<<lambda_0a265d9f88e42e1afeaf76e4a6ca41f3>,0>,std::allocator<std::_Func_class<void> >,void>::`RTTI Class Hierarchy Descriptor'
	DD	00H
	DD	02H
	DD	FLAT:??_R2?$_Func_impl@U?$_Callable_obj@V<lambda_0a265d9f88e42e1afeaf76e4a6ca41f3>@@$0A@@std@@V?$allocator@V?$_Func_class@X$$$V@std@@@2@X$$$V@std@@8
rdata$r	ENDS
;	COMDAT ??_C@_0BB@DIADEFJJ@GetSaveFileNameW?$AA@
CONST	SEGMENT
??_C@_0BB@DIADEFJJ@GetSaveFileNameW?$AA@ DB 'GetSaveFileNameW', 00H ; `string'
	ORG $+2
$SG4294737556 DB 'S', 00H, 'e', 00H, 't', 00H, 't', 00H, 'i', 00H, 'n', 00H
	DB	'g', 00H, 's', 00H, '.', 00H, 'P', 00H, 'u', 00H, 'b', 00H, 'l'
	DB	00H, 'i', 00H, 's', 00H, 'h', 00H, 00H, 00H
	ORG $+2
$SG4294737555 DB '\', 00H, '.', 00H, 'f', 00H, 'l', 00H, 'v', 00H, 00H, 00H
$SG4294737552 DB 'S', 00H, 'e', 00H, 't', 00H, 't', 00H, 'i', 00H, 'n', 00H
	DB	'g', 00H, 's', 00H, '.', 00H, 'P', 00H, 'u', 00H, 'b', 00H, 'l'
	DB	00H, 'i', 00H, 's', 00H, 'h', 00H, '.', 00H, 'I', 00H, 'n', 00H
	DB	'v', 00H, 'a', 00H, 'l', 00H, 'i', 00H, 'd', 00H, 'S', 00H, 'a'
	DB	00H, 'v', 00H, 'e', 00H, 'P', 00H, 'a', 00H, 't', 00H, 'h', 00H
	DB	'C', 00H, 'a', 00H, 'p', 00H, 't', 00H, 'i', 00H, 'o', 00H, 'n'
	DB	00H, 00H, 00H
$SG4294737553 DB '$', 00H, '1', 00H, 00H, 00H
	ORG $+2
$SG4294737554 DB 'S', 00H, 'e', 00H, 't', 00H, 't', 00H, 'i', 00H, 'n', 00H
	DB	'g', 00H, 's', 00H, '.', 00H, 'P', 00H, 'u', 00H, 'b', 00H, 'l'
	DB	00H, 'i', 00H, 's', 00H, 'h', 00H, '.', 00H, 'I', 00H, 'n', 00H
	DB	'v', 00H, 'a', 00H, 'l', 00H, 'i', 00H, 'd', 00H, 'S', 00H, 'a'
	DB	00H, 'v', 00H, 'e', 00H, 'P', 00H, 'a', 00H, 't', 00H, 'h', 00H
	DB	00H, 00H
	ORG $+2
$SG4294737540 DB 'P', 00H, 'u', 00H, 'b', 00H, 'l', 00H, 'i', 00H, 's', 00H
	DB	'h', 00H, 00H, 00H
$SG4294737543 DB 'M', 00H, 'o', 00H, 'd', 00H, 'e', 00H, 00H, 00H
	ORG $+2
$SG4294737548 DB 'S', 00H, 'e', 00H, 't', 00H, 't', 00H, 'i', 00H, 'n', 00H
	DB	'g', 00H, 's', 00H, '.', 00H, 'P', 00H, 'u', 00H, 'b', 00H, 'l'
	DB	00H, 'i', 00H, 's', 00H, 'h', 00H, '.', 00H, 'I', 00H, 'n', 00H
	DB	'v', 00H, 'a', 00H, 'l', 00H, 'i', 00H, 'd', 00H, 'R', 00H, 'e'
	DB	00H, 'p', 00H, 'l', 00H, 'a', 00H, 'y', 00H, 'B', 00H, 'u', 00H
	DB	'f', 00H, 'f', 00H, 'e', 00H, 'r', 00H, 'S', 00H, 'a', 00H, 'v'
	DB	00H, 'e', 00H, 'P', 00H, 'a', 00H, 't', 00H, 'h', 00H, 00H, 00H
	ORG $+2
$SG4294737549 DB '\', 00H, 'R', 00H, 'e', 00H, 'p', 00H, 'l', 00H, 'a', 00H
	DB	'y', 00H, '-', 00H, '$', 00H, 'T', 00H, '.', 00H, 'f', 00H, 'l'
	DB	00H, 'v', 00H, 00H, 00H
	ORG $+2
$SG4294737541 DB 'S', 00H, 'e', 00H, 'r', 00H, 'v', 00H, 'i', 00H, 'c', 00H
	DB	'e', 00H, 00H, 00H
$SG4294737537 DB 'P', 00H, 'l', 00H, 'a', 00H, 'y', 00H, 'P', 00H, 'a', 00H
	DB	't', 00H, 'h', 00H, 00H, 00H
	ORG $+2
$SG4294737550 DB 'S', 00H, 'e', 00H, 't', 00H, 't', 00H, 'i', 00H, 'n', 00H
	DB	'g', 00H, 's', 00H, '.', 00H, 'P', 00H, 'u', 00H, 'b', 00H, 'l'
	DB	00H, 'i', 00H, 's', 00H, 'h', 00H, '.', 00H, 'S', 00H, 'a', 00H
	DB	'v', 00H, 'e', 00H, 'P', 00H, 'a', 00H, 't', 00H, 'h', 00H, 'D'
	DB	00H, 'o', 00H, 'e', 00H, 's', 00H, 'N', 00H, 'o', 00H, 't', 00H
	DB	'E', 00H, 'x', 00H, 'i', 00H, 's', 00H, 't', 00H, 00H, 00H
$SG4294737529 DB 'A', 00H, 'u', 00H, 't', 00H, 'o', 00H, 'R', 00H, 'e', 00H
	DB	'c', 00H, 'o', 00H, 'n', 00H, 'n', 00H, 'e', 00H, 'c', 00H, 't'
	DB	00H, 00H, 00H
$SG4294737551 DB 'S', 00H, 'e', 00H, 't', 00H, 't', 00H, 'i', 00H, 'n', 00H
	DB	'g', 00H, 's', 00H, '.', 00H, 'P', 00H, 'u', 00H, 'b', 00H, 'l'
	DB	00H, 'i', 00H, 's', 00H, 'h', 00H, '.', 00H, 'S', 00H, 'a', 00H
	DB	'v', 00H, 'e', 00H, 'P', 00H, 'a', 00H, 't', 00H, 'h', 00H, 'D'
	DB	00H, 'o', 00H, 'e', 00H, 's', 00H, 'N', 00H, 'o', 00H, 't', 00H
	DB	'E', 00H, 'x', 00H, 'i', 00H, 's', 00H, 't', 00H, 'C', 00H, 'a'
	DB	00H, 'p', 00H, 't', 00H, 'i', 00H, 'o', 00H, 'n', 00H, 00H, 00H
	ORG $+2
$SG4294737542 DB 'P', 00H, 'u', 00H, 'b', 00H, 'l', 00H, 'i', 00H, 's', 00H
	DB	'h', 00H, 00H, 00H
$SG4294737525 DB 'K', 00H, 'e', 00H, 'e', 00H, 'p', 00H, 'R', 00H, 'e', 00H
	DB	'c', 00H, 'o', 00H, 'r', 00H, 'd', 00H, 'i', 00H, 'n', 00H, 'g'
	DB	00H, 00H, 00H
$SG4294737544 DB 'S', 00H, 'e', 00H, 't', 00H, 't', 00H, 'i', 00H, 'n', 00H
	DB	'g', 00H, 's', 00H, '.', 00H, 'P', 00H, 'u', 00H, 'b', 00H, 'l'
	DB	00H, 'i', 00H, 's', 00H, 'h', 00H, '.', 00H, 'R', 00H, 'e', 00H
	DB	'p', 00H, 'l', 00H, 'a', 00H, 'y', 00H, 'B', 00H, 'u', 00H, 'f'
	DB	00H, 'f', 00H, 'e', 00H, 'r', 00H, 'S', 00H, 'a', 00H, 'v', 00H
	DB	'e', 00H, 'P', 00H, 'a', 00H, 't', 00H, 'h', 00H, 'D', 00H, 'o'
	DB	00H, 'e', 00H, 's', 00H, 'N', 00H, 'o', 00H, 't', 00H, 'E', 00H
	DB	'x', 00H, 'i', 00H, 's', 00H, 't', 00H, 00H, 00H
$SG4294737527 DB 'A', 00H, 'u', 00H, 't', 00H, 'o', 00H, 'R', 00H, 'e', 00H
	DB	'c', 00H, 'o', 00H, 'n', 00H, 'n', 00H, 'e', 00H, 'c', 00H, 't'
	DB	00H, 'T', 00H, 'i', 00H, 'm', 00H, 'e', 00H, 'o', 00H, 'u', 00H
	DB	't', 00H, 00H, 00H
	ORG $+2
$SG4294737545 DB 'S', 00H, 'e', 00H, 't', 00H, 't', 00H, 'i', 00H, 'n', 00H
	DB	'g', 00H, 's', 00H, '.', 00H, 'P', 00H, 'u', 00H, 'b', 00H, 'l'
	DB	00H, 'i', 00H, 's', 00H, 'h', 00H, '.', 00H, 'R', 00H, 'e', 00H
	DB	'p', 00H, 'l', 00H, 'a', 00H, 'y', 00H, 'B', 00H, 'u', 00H, 'f'
	DB	00H, 'f', 00H, 'e', 00H, 'r', 00H, 'S', 00H, 'a', 00H, 'v', 00H
	DB	'e', 00H, 'P', 00H, 'a', 00H, 't', 00H, 'h', 00H, 'D', 00H, 'o'
	DB	00H, 'e', 00H, 's', 00H, 'N', 00H, 'o', 00H, 't', 00H, 'E', 00H
	DB	'x', 00H, 'i', 00H, 's', 00H, 't', 00H, 'C', 00H, 'a', 00H, 'p'
	DB	00H, 't', 00H, 'i', 00H, 'o', 00H, 'n', 00H, 00H, 00H
	ORG $+2
$SG4294737536 DB 'P', 00H, 'u', 00H, 'b', 00H, 'l', 00H, 'i', 00H, 's', 00H
	DB	'h', 00H, 00H, 00H
$SG4294737523 DB 'D', 00H, 'e', 00H, 'l', 00H, 'a', 00H, 'y', 00H, 00H, 00H
$SG4294737546 DB 'S', 00H, 'e', 00H, 't', 00H, 't', 00H, 'i', 00H, 'n', 00H
	DB	'g', 00H, 's', 00H, '.', 00H, 'P', 00H, 'u', 00H, 'b', 00H, 'l'
	DB	00H, 'i', 00H, 's', 00H, 'h', 00H, '.', 00H, 'I', 00H, 'n', 00H
	DB	'v', 00H, 'a', 00H, 'l', 00H, 'i', 00H, 'd', 00H, 'R', 00H, 'e'
	DB	00H, 'p', 00H, 'l', 00H, 'a', 00H, 'y', 00H, 'B', 00H, 'u', 00H
	DB	'f', 00H, 'f', 00H, 'e', 00H, 'r', 00H, 'S', 00H, 'a', 00H, 'v'
	DB	00H, 'e', 00H, 'P', 00H, 'a', 00H, 't', 00H, 'h', 00H, 'C', 00H
	DB	'a', 00H, 'p', 00H, 't', 00H, 'i', 00H, 'o', 00H, 'n', 00H, 00H
	DB	00H
$SG4294737547 DB '$', 00H, '1', 00H, 00H, 00H
	ORG $+2
$SG4294737538 DB 'P', 00H, 'u', 00H, 'b', 00H, 'l', 00H, 'i', 00H, 's', 00H
	DB	'h', 00H, 00H, 00H
$SG4294737539 DB 'S', 00H, 'e', 00H, 'r', 00H, 'v', 00H, 'i', 00H, 'c', 00H
	DB	'e', 00H, 'F', 00H, 'i', 00H, 'l', 00H, 'e', 00H, 00H, 00H
$SG4294737532 DB 'P', 00H, 'u', 00H, 'b', 00H, 'l', 00H, 'i', 00H, 's', 00H
	DB	'h', 00H, 00H, 00H
$SG4294737533 DB 'U', 00H, 'R', 00H, 'L', 00H, 00H, 00H
$SG4294737534 DB 'P', 00H, 'u', 00H, 'b', 00H, 'l', 00H, 'i', 00H, 's', 00H
	DB	'h', 00H, 00H, 00H
$SG4294737535 DB 'U', 00H, 'R', 00H, 'L', 00H, 00H, 00H
$SG4294737528 DB 'P', 00H, 'u', 00H, 'b', 00H, 'l', 00H, 'i', 00H, 's', 00H
	DB	'h', 00H, 00H, 00H
$SG4294737530 DB 'P', 00H, 'u', 00H, 'b', 00H, 'l', 00H, 'i', 00H, 's', 00H
	DB	'h', 00H, 00H, 00H
$SG4294737531 DB 'L', 00H, 'o', 00H, 'w', 00H, 'L', 00H, 'a', 00H, 't', 00H
	DB	'e', 00H, 'n', 00H, 'c', 00H, 'y', 00H, 'M', 00H, 'o', 00H, 'd'
	DB	00H, 'e', 00H, 00H, 00H
	ORG $+2
$SG4294737524 DB 'P', 00H, 'u', 00H, 'b', 00H, 'l', 00H, 'i', 00H, 's', 00H
	DB	'h', 00H, 00H, 00H
$SG4294737526 DB 'P', 00H, 'u', 00H, 'b', 00H, 'l', 00H, 'i', 00H, 's', 00H
	DB	'h', 00H, 00H, 00H
$SG4294737520 DB 'P', 00H, 'u', 00H, 'b', 00H, 'l', 00H, 'i', 00H, 's', 00H
	DB	'h', 00H, 00H, 00H
$SG4294737521 DB 'S', 00H, 'a', 00H, 'v', 00H, 'e', 00H, 'T', 00H, 'o', 00H
	DB	'F', 00H, 'i', 00H, 'l', 00H, 'e', 00H, 00H, 00H
	ORG $+2
$SG4294737522 DB 'P', 00H, 'u', 00H, 'b', 00H, 'l', 00H, 'i', 00H, 's', 00H
	DB	'h', 00H, 00H, 00H
$SG4294737516 DB 'P', 00H, 'u', 00H, 'b', 00H, 'l', 00H, 'i', 00H, 's', 00H
	DB	'h', 00H, 00H, 00H
$SG4294737517 DB 'R', 00H, 'e', 00H, 'p', 00H, 'l', 00H, 'a', 00H, 'y', 00H
	DB	'B', 00H, 'u', 00H, 'f', 00H, 'f', 00H, 'e', 00H, 'r', 00H, 'L'
	DB	00H, 'e', 00H, 'n', 00H, 'g', 00H, 't', 00H, 'h', 00H, 00H, 00H
	ORG $+2
$SG4294737518 DB 'P', 00H, 'u', 00H, 'b', 00H, 'l', 00H, 'i', 00H, 's', 00H
	DB	'h', 00H, 00H, 00H
$SG4294737519 DB 'S', 00H, 'a', 00H, 'v', 00H, 'e', 00H, 'P', 00H, 'a', 00H
	DB	't', 00H, 'h', 00H, 00H, 00H
	ORG $+2
$SG4294737512 DB 'U', 00H, 's', 00H, 'e', 00H, 'C', 00H, 'B', 00H, 'R', 00H
	DB	00H, 00H
	ORG $+2
$SG4294737513 DB '$', 00H, '1', 00H, 00H, 00H
	ORG $+2
$SG4294737514 DB 'P', 00H, 'u', 00H, 'b', 00H, 'l', 00H, 'i', 00H, 's', 00H
	DB	'h', 00H, 00H, 00H
$SG4294737515 DB 'R', 00H, 'e', 00H, 'p', 00H, 'l', 00H, 'a', 00H, 'y', 00H
	DB	'B', 00H, 'u', 00H, 'f', 00H, 'f', 00H, 'e', 00H, 'r', 00H, 'S'
	DB	00H, 'a', 00H, 'v', 00H, 'e', 00H, 'P', 00H, 'a', 00H, 't', 00H
	DB	'h', 00H, 00H, 00H
	ORG $+2
$SG4294737508 DB 'K', 00H, 'e', 00H, 'y', 00H, 'f', 00H, 'r', 00H, 'a', 00H
	DB	'm', 00H, 'e', 00H, 'I', 00H, 'n', 00H, 't', 00H, 'e', 00H, 'r'
	DB	00H, 'v', 00H, 'a', 00H, 'l', 00H, 00H, 00H
	ORG $+2
$SG4294737509 DB 'V', 00H, 'i', 00H, 'd', 00H, 'e', 00H, 'o', 00H, ' ', 00H
	DB	'E', 00H, 'n', 00H, 'c', 00H, 'o', 00H, 'd', 00H, 'i', 00H, 'n'
	DB	00H, 'g', 00H, 00H, 00H
	ORG $+2
$SG4294737510 DB 'M', 00H, 'a', 00H, 'x', 00H, 'B', 00H, 'i', 00H, 't', 00H
	DB	'r', 00H, 'a', 00H, 't', 00H, 'e', 00H, 00H, 00H
	ORG $+2
$SG4294737511 DB 'V', 00H, 'i', 00H, 'd', 00H, 'e', 00H, 'o', 00H, ' ', 00H
	DB	'E', 00H, 'n', 00H, 'c', 00H, 'o', 00H, 'd', 00H, 'i', 00H, 'n'
	DB	00H, 'g', 00H, 00H, 00H
	ORG $+2
$SG4294737504 DB 'h', 00H, 'i', 00H, 'g', 00H, 'h', 00H, 00H, 00H
	ORG $+2
$SG4294737505 DB 'A', 00H, 'u', 00H, 'd', 00H, 'i', 00H, 'o', 00H, ' ', 00H
	DB	'E', 00H, 'n', 00H, 'c', 00H, 'o', 00H, 'd', 00H, 'i', 00H, 'n'
	DB	00H, 'g', 00H, 00H, 00H
	ORG $+2
$SG4294737506 DB 'B', 00H, 'i', 00H, 't', 00H, 'r', 00H, 'a', 00H, 't', 00H
	DB	'e', 00H, 00H, 00H
$SG4294737507 DB 'V', 00H, 'i', 00H, 'd', 00H, 'e', 00H, 'o', 00H, ' ', 00H
	DB	'E', 00H, 'n', 00H, 'c', 00H, 'o', 00H, 'd', 00H, 'i', 00H, 'n'
	DB	00H, 'g', 00H, 00H, 00H
	ORG $+2
$SG4294737500 DB 'C', 00H, 'o', 00H, 'd', 00H, 'e', 00H, 'c', 00H, 00H, 00H
$SG4294737501 DB 'A', 00H, 'A', 00H, 'C', 00H, 00H, 00H
$SG4294737502 DB 'V', 00H, 'i', 00H, 'd', 00H, 'e', 00H, 'o', 00H, ' ', 00H
	DB	'E', 00H, 'n', 00H, 'c', 00H, 'o', 00H, 'd', 00H, 'i', 00H, 'n'
	DB	00H, 'g', 00H, 00H, 00H
	ORG $+2
$SG4294737503 DB 'X', 00H, '2', 00H, '6', 00H, '4', 00H, 'P', 00H, 'r', 00H
	DB	'o', 00H, 'f', 00H, 'i', 00H, 'l', 00H, 'e', 00H, 00H, 00H
$SG4294737496 DB 'B', 00H, 'a', 00H, 's', 00H, 'e', 00H, 'H', 00H, 'e', 00H
	DB	'i', 00H, 'g', 00H, 'h', 00H, 't', 00H, 00H, 00H
	ORG $+2
$SG4294737497 DB 'V', 00H, 'i', 00H, 'd', 00H, 'e', 00H, 'o', 00H, 00H, 00H
$SG4294737498 DB 'B', 00H, 'a', 00H, 's', 00H, 'e', 00H, 'W', 00H, 'i', 00H
	DB	'd', 00H, 't', 00H, 'h', 00H, 00H, 00H
$SG4294737499 DB 'A', 00H, 'u', 00H, 'd', 00H, 'i', 00H, 'o', 00H, ' ', 00H
	DB	'E', 00H, 'n', 00H, 'c', 00H, 'o', 00H, 'd', 00H, 'i', 00H, 'n'
	DB	00H, 'g', 00H, 00H, 00H
	ORG $+2
$SG4294737492 DB 00H, 00H
	ORG $+2
$SG4294737493 DB 'V', 00H, 'i', 00H, 'd', 00H, 'e', 00H, 'o', 00H, 00H, 00H
$SG4294737494 DB 'B', 00H, 'a', 00H, 's', 00H, 'e', 00H, 'H', 00H, 'e', 00H
	DB	'i', 00H, 'g', 00H, 'h', 00H, 't', 00H, 00H, 00H
	ORG $+2
$SG4294737495 DB 'V', 00H, 'i', 00H, 'd', 00H, 'e', 00H, 'o', 00H, 00H, 00H
$SG4294737488 DB 'r', 00H, 'e', 00H, 'c', 00H, 'o', 00H, 'm', 00H, 'm', 00H
	DB	'e', 00H, 'n', 00H, 'd', 00H, 'e', 00H, 'd', 00H, 00H, 00H
$SG4294737489 DB 00H, 00H
	ORG $+2
$SG4294737490 DB 'r', 00H, 'e', 00H, 'c', 00H, 'o', 00H, 'm', 00H, 'm', 00H
	DB	'e', 00H, 'n', 00H, 'd', 00H, 'e', 00H, 'd', 00H, 00H, 00H
$SG4294737480 DB 's', 00H, 'u', 00H, 'p', 00H, 'p', 00H, 'o', 00H, 'r', 00H
	DB	't', 00H, 'e', 00H, 'd', 00H, ' ', 00H, 'a', 00H, 'u', 00H, 'd'
	DB	00H, 'i', 00H, 'o', 00H, ' ', 00H, 'c', 00H, 'o', 00H, 'd', 00H
	DB	'e', 00H, 'c', 00H, 00H, 00H
$SG4294737491 DB 'S', 00H, 'e', 00H, 't', 00H, 't', 00H, 'i', 00H, 'n', 00H
	DB	'g', 00H, 's', 00H, '.', 00H, 'P', 00H, 'u', 00H, 'b', 00H, 'l'
	DB	00H, 'i', 00H, 's', 00H, 'h', 00H, '.', 00H, 'W', 00H, 'a', 00H
	DB	'r', 00H, 'n', 00H, 'i', 00H, 'n', 00H, 'g', 00H, '.', 00H, 'B'
	DB	00H, 'a', 00H, 'd', 00H, 'S', 00H, 'e', 00H, 't', 00H, 't', 00H
	DB	'i', 00H, 'n', 00H, 'g', 00H, 's', 00H, 00H, 00H
	ORG $+2
$SG4294737485 DB 'c', 00H, 'b', 00H, 'r', 00H, 00H, 00H
$SG4294737479 DB 's', 00H, 'u', 00H, 'p', 00H, 'p', 00H, 'o', 00H, 'r', 00H
	DB	't', 00H, 'e', 00H, 'd', 00H, ' ', 00H, 'a', 00H, 'u', 00H, 'd'
	DB	00H, 'i', 00H, 'o', 00H, ' ', 00H, 'c', 00H, 'o', 00H, 'd', 00H
	DB	'e', 00H, 'c', 00H, 00H, 00H
$SG4294737484 DB 'S', 00H, 'e', 00H, 't', 00H, 't', 00H, 'i', 00H, 'n', 00H
	DB	'g', 00H, 's', 00H, '.', 00H, 'P', 00H, 'u', 00H, 'b', 00H, 'l'
	DB	00H, 'i', 00H, 's', 00H, 'h', 00H, '.', 00H, 'W', 00H, 'a', 00H
	DB	'r', 00H, 'n', 00H, 'i', 00H, 'n', 00H, 'g', 00H, '.', 00H, 'U'
	DB	00H, 's', 00H, 'e', 00H, 'C', 00H, 'B', 00H, 'R', 00H, 00H, 00H
$SG4294737486 DB 'r', 00H, 'a', 00H, 't', 00H, 'e', 00H, 'c', 00H, 'o', 00H
	DB	'n', 00H, 't', 00H, 'r', 00H, 'o', 00H, 'l', 00H, 00H, 00H
$SG4294737487 DB 'r', 00H, 'a', 00H, 't', 00H, 'e', 00H, 'c', 00H, 'o', 00H
	DB	'n', 00H, 't', 00H, 'r', 00H, 'o', 00H, 'l', 00H, 00H, 00H
$SG4294737481 DB 'S', 00H, 'e', 00H, 't', 00H, 't', 00H, 'i', 00H, 'n', 00H
	DB	'g', 00H, 's', 00H, '.', 00H, 'P', 00H, 'u', 00H, 'b', 00H, 'l'
	DB	00H, 'i', 00H, 's', 00H, 'h', 00H, '.', 00H, 'W', 00H, 'a', 00H
	DB	'r', 00H, 'n', 00H, 'i', 00H, 'n', 00H, 'g', 00H, '.', 00H, 'M'
	DB	00H, 'a', 00H, 'x', 00H, 'b', 00H, 'i', 00H, 't', 00H, 'r', 00H
	DB	'a', 00H, 't', 00H, 'e', 00H, 00H, 00H
$SG4294737482 DB 'm', 00H, 'a', 00H, 'x', 00H, ' ', 00H, 'b', 00H, 'i', 00H
	DB	't', 00H, 'r', 00H, 'a', 00H, 't', 00H, 'e', 00H, 00H, 00H
$SG4294737483 DB 'm', 00H, 'a', 00H, 'x', 00H, ' ', 00H, 'b', 00H, 'i', 00H
	DB	't', 00H, 'r', 00H, 'a', 00H, 't', 00H, 'e', 00H, 00H, 00H
$SG4294737476 DB '$', 00H, '2', 00H, 00H, 00H
	ORG $+2
$SG4294737477 DB '$', 00H, '1', 00H, 00H, 00H
	ORG $+2
$SG4294737478 DB 'S', 00H, 'e', 00H, 't', 00H, 't', 00H, 'i', 00H, 'n', 00H
	DB	'g', 00H, 's', 00H, '.', 00H, 'P', 00H, 'u', 00H, 'b', 00H, 'l'
	DB	00H, 'i', 00H, 's', 00H, 'h', 00H, '.', 00H, 'W', 00H, 'a', 00H
	DB	'r', 00H, 'n', 00H, 'i', 00H, 'n', 00H, 'g', 00H, '.', 00H, 'U'
	DB	00H, 'n', 00H, 's', 00H, 'u', 00H, 'p', 00H, 'p', 00H, 'o', 00H
	DB	'r', 00H, 't', 00H, 'e', 00H, 'd', 00H, 'A', 00H, 'u', 00H, 'd'
	DB	00H, 'i', 00H, 'o', 00H, 'C', 00H, 'o', 00H, 'd', 00H, 'e', 00H
	DB	'c', 00H, 00H, 00H
	ORG $+2
$SG4294737472 DB 'S', 00H, 'e', 00H, 't', 00H, 't', 00H, 'i', 00H, 'n', 00H
	DB	'g', 00H, 's', 00H, '.', 00H, 'P', 00H, 'u', 00H, 'b', 00H, 'l'
	DB	00H, 'i', 00H, 's', 00H, 'h', 00H, '.', 00H, 'W', 00H, 'a', 00H
	DB	'r', 00H, 'n', 00H, 'i', 00H, 'n', 00H, 'g', 00H, '.', 00H, 'M'
	DB	00H, 'a', 00H, 'x', 00H, 'A', 00H, 'u', 00H, 'd', 00H, 'i', 00H
	DB	'o', 00H, 'b', 00H, 'i', 00H, 't', 00H, 'r', 00H, 'a', 00H, 't'
	DB	00H, 'e', 00H, 00H, 00H
	ORG $+2
$SG4294737473 DB 'm', 00H, 'a', 00H, 'x', 00H, ' ', 00H, 'a', 00H, 'u', 00H
	DB	'd', 00H, 'i', 00H, 'o', 00H, ' ', 00H, 'b', 00H, 'i', 00H, 't'
	DB	00H, 'r', 00H, 'a', 00H, 't', 00H, 'e', 00H, ' ', 00H, 'a', 00H
	DB	'a', 00H, 'c', 00H, 00H, 00H
$SG4294737474 DB 'A', 00H, 'A', 00H, 'C', 00H, 00H, 00H
$SG4294737475 DB 'm', 00H, 'a', 00H, 'x', 00H, ' ', 00H, 'a', 00H, 'u', 00H
	DB	'd', 00H, 'i', 00H, 'o', 00H, ' ', 00H, 'b', 00H, 'i', 00H, 't'
	DB	00H, 'r', 00H, 'a', 00H, 't', 00H, 'e', 00H, ' ', 00H, 'a', 00H
	DB	'a', 00H, 'c', 00H, 00H, 00H
$SG4294737469 DB 'm', 00H, 'a', 00H, 'x', 00H, ' ', 00H, 'a', 00H, 'u', 00H
	DB	'd', 00H, 'i', 00H, 'o', 00H, ' ', 00H, 'b', 00H, 'i', 00H, 't'
	DB	00H, 'r', 00H, 'a', 00H, 't', 00H, 'e', 00H, ' ', 00H, 'm', 00H
	DB	'p', 00H, '3', 00H, 00H, 00H
$SG4294737468 DB 'S', 00H, 'e', 00H, 't', 00H, 't', 00H, 'i', 00H, 'n', 00H
	DB	'g', 00H, 's', 00H, '.', 00H, 'P', 00H, 'u', 00H, 'b', 00H, 'l'
	DB	00H, 'i', 00H, 's', 00H, 'h', 00H, '.', 00H, 'W', 00H, 'a', 00H
	DB	'r', 00H, 'n', 00H, 'i', 00H, 'n', 00H, 'g', 00H, '.', 00H, 'M'
	DB	00H, 'a', 00H, 'x', 00H, 'A', 00H, 'u', 00H, 'd', 00H, 'i', 00H
	DB	'o', 00H, 'b', 00H, 'i', 00H, 't', 00H, 'r', 00H, 'a', 00H, 't'
	DB	00H, 'e', 00H, 00H, 00H
	ORG $+2
$SG4294737470 DB 'M', 00H, 'P', 00H, '3', 00H, 00H, 00H
$SG4294737471 DB 'm', 00H, 'a', 00H, 'x', 00H, ' ', 00H, 'a', 00H, 'u', 00H
	DB	'd', 00H, 'i', 00H, 'o', 00H, ' ', 00H, 'b', 00H, 'i', 00H, 't'
	DB	00H, 'r', 00H, 'a', 00H, 't', 00H, 'e', 00H, ' ', 00H, 'm', 00H
	DB	'p', 00H, '3', 00H, 00H, 00H
$SG4294737464 DB '$', 00H, '1', 00H, 00H, 00H
	ORG $+2
$SG4294737465 DB 'S', 00H, 'e', 00H, 't', 00H, 't', 00H, 'i', 00H, 'n', 00H
	DB	'g', 00H, 's', 00H, '.', 00H, 'V', 00H, 'i', 00H, 'd', 00H, 'e'
	DB	00H, 'o', 00H, '.', 00H, 'A', 00H, 's', 00H, 'p', 00H, 'e', 00H
	DB	'c', 00H, 't', 00H, 'R', 00H, 'a', 00H, 't', 00H, 'i', 00H, 'o'
	DB	00H, 'F', 00H, 'o', 00H, 'r', 00H, 'm', 00H, 'a', 00H, 't', 00H
	DB	00H, 00H
	ORG $+2
$SG4294737466 DB 'v', 00H, 'i', 00H, 'd', 00H, 'e', 00H, 'o', 00H, ' ', 00H
	DB	'a', 00H, 's', 00H, 'p', 00H, 'e', 00H, 'c', 00H, 't', 00H, ' '
	DB	00H, 'r', 00H, 'a', 00H, 't', 00H, 'i', 00H, 'o', 00H, 00H, 00H
	ORG $+2
$SG4294737467 DB 'v', 00H, 'i', 00H, 'd', 00H, 'e', 00H, 'o', 00H, ' ', 00H
	DB	'a', 00H, 's', 00H, 'p', 00H, 'e', 00H, 'c', 00H, 't', 00H, ' '
	DB	00H, 'r', 00H, 'a', 00H, 't', 00H, 'i', 00H, 'o', 00H, 00H, 00H
	ORG $+2
$SG4294737460 DB 'p', 00H, 'r', 00H, 'o', 00H, 'f', 00H, 'i', 00H, 'l', 00H
	DB	'e', 00H, 00H, 00H
$SG4294737461 DB '$', 00H, '1', 00H, 00H, 00H
	ORG $+2
$SG4294737459 DB 'p', 00H, 'r', 00H, 'o', 00H, 'f', 00H, 'i', 00H, 'l', 00H
	DB	'e', 00H, 00H, 00H
$SG4294737453 DB 00H, 00H
	ORG $+2
$SG4294737462 DB 'S', 00H, 'e', 00H, 't', 00H, 't', 00H, 'i', 00H, 'n', 00H
	DB	'g', 00H, 's', 00H, '.', 00H, 'P', 00H, 'u', 00H, 'b', 00H, 'l'
	DB	00H, 'i', 00H, 's', 00H, 'h', 00H, '.', 00H, 'W', 00H, 'a', 00H
	DB	'r', 00H, 'n', 00H, 'i', 00H, 'n', 00H, 'g', 00H, '.', 00H, 'V'
	DB	00H, 'i', 00H, 'd', 00H, 'e', 00H, 'o', 00H, 'A', 00H, 's', 00H
	DB	'p', 00H, 'e', 00H, 'c', 00H, 't', 00H, 'R', 00H, 'a', 00H, 't'
	DB	00H, 'i', 00H, 'o', 00H, 00H, 00H
$SG4294737463 DB '$', 00H, '2', 00H, 00H, 00H
	ORG $+2
$SG4294737456 DB 'k', 00H, 'e', 00H, 'y', 00H, 'i', 00H, 'n', 00H, 't', 00H
	DB	00H, 00H
	ORG $+2
$SG4294737457 DB 'k', 00H, 'e', 00H, 'y', 00H, 'i', 00H, 'n', 00H, 't', 00H
	DB	00H, 00H
	ORG $+2
$SG4294737448 DB 'B', 00H, 'i', 00H, 't', 00H, 'r', 00H, 'a', 00H, 't', 00H
	DB	'e', 00H, 00H, 00H
$SG4294737450 DB 'K', 00H, 'e', 00H, 'y', 00H, 'f', 00H, 'r', 00H, 'a', 00H
	DB	'm', 00H, 'e', 00H, 'I', 00H, 'n', 00H, 't', 00H, 'e', 00H, 'r'
	DB	00H, 'v', 00H, 'a', 00H, 'l', 00H, 00H, 00H
	ORG $+2
$SG4294737458 DB 'S', 00H, 'e', 00H, 't', 00H, 't', 00H, 'i', 00H, 'n', 00H
	DB	'g', 00H, 's', 00H, '.', 00H, 'P', 00H, 'u', 00H, 'b', 00H, 'l'
	DB	00H, 'i', 00H, 's', 00H, 'h', 00H, '.', 00H, 'W', 00H, 'a', 00H
	DB	'r', 00H, 'n', 00H, 'i', 00H, 'n', 00H, 'g', 00H, '.', 00H, 'R'
	DB	00H, 'e', 00H, 'c', 00H, 'o', 00H, 'm', 00H, 'm', 00H, 'e', 00H
	DB	'n', 00H, 'd', 00H, 'M', 00H, 'a', 00H, 'i', 00H, 'n', 00H, 'P'
	DB	00H, 'r', 00H, 'o', 00H, 'f', 00H, 'i', 00H, 'l', 00H, 'e', 00H
	DB	00H, 00H
$SG4294737452 DB 'M', 00H, 'a', 00H, 'x', 00H, 'B', 00H, 'i', 00H, 't', 00H
	DB	'r', 00H, 'a', 00H, 't', 00H, 'e', 00H, 00H, 00H
	ORG $+2
$SG4294737444 DB 'r', 00H, 'e', 00H, 'c', 00H, 'o', 00H, 'm', 00H, 'm', 00H
	DB	'e', 00H, 'n', 00H, 'd', 00H, 'e', 00H, 'd', 00H, 00H, 00H
$SG4294737441 DB 'C', 00H, 'o', 00H, 'd', 00H, 'e', 00H, 'c', 00H, 00H, 00H
$SG4294737454 DB 'S', 00H, 'e', 00H, 't', 00H, 't', 00H, 'i', 00H, 'n', 00H
	DB	'g', 00H, 's', 00H, '.', 00H, 'P', 00H, 'u', 00H, 'b', 00H, 'l'
	DB	00H, 'i', 00H, 's', 00H, 'h', 00H, '.', 00H, 'W', 00H, 'a', 00H
	DB	'r', 00H, 'n', 00H, 'i', 00H, 'n', 00H, 'g', 00H, '.', 00H, 'C'
	DB	00H, 'a', 00H, 'n', 00H, 'O', 00H, 'p', 00H, 't', 00H, 'i', 00H
	DB	'm', 00H, 'i', 00H, 'z', 00H, 'e', 00H, 00H, 00H
	ORG $+2
$SG4294737445 DB 'r', 00H, 'e', 00H, 'c', 00H, 'o', 00H, 'm', 00H, 'm', 00H
	DB	'e', 00H, 'n', 00H, 'd', 00H, 'e', 00H, 'd', 00H, 00H, 00H
$SG4294737425 DB 's', 00H, 'u', 00H, 'p', 00H, 'p', 00H, 'o', 00H, 'r', 00H
	DB	't', 00H, 'e', 00H, 'd', 00H, ' ', 00H, 'a', 00H, 'u', 00H, 'd'
	DB	00H, 'i', 00H, 'o', 00H, ' ', 00H, 'c', 00H, 'o', 00H, 'd', 00H
	DB	'e', 00H, 'c', 00H, 00H, 00H
$SG4294737455 DB 'S', 00H, 'e', 00H, 't', 00H, 't', 00H, 'i', 00H, 'n', 00H
	DB	'g', 00H, 's', 00H, '.', 00H, 'P', 00H, 'u', 00H, 'b', 00H, 'l'
	DB	00H, 'i', 00H, 's', 00H, 'h', 00H, '.', 00H, 'W', 00H, 'a', 00H
	DB	'r', 00H, 'n', 00H, 'i', 00H, 'n', 00H, 'g', 00H, '.', 00H, 'K'
	DB	00H, 'e', 00H, 'y', 00H, 'i', 00H, 'n', 00H, 't', 00H, 00H, 00H
$SG4294737449 DB 'V', 00H, 'i', 00H, 'd', 00H, 'e', 00H, 'o', 00H, ' ', 00H
	DB	'E', 00H, 'n', 00H, 'c', 00H, 'o', 00H, 'd', 00H, 'i', 00H, 'n'
	DB	00H, 'g', 00H, 00H, 00H
	ORG $+2
$SG4294737451 DB 'V', 00H, 'i', 00H, 'd', 00H, 'e', 00H, 'o', 00H, ' ', 00H
	DB	'E', 00H, 'n', 00H, 'c', 00H, 'o', 00H, 'd', 00H, 'i', 00H, 'n'
	DB	00H, 'g', 00H, 00H, 00H
	ORG $+2
$SG4294737446 DB '%', 00H, 'd', 00H, ' ', 00H, '/', 00H, ' ', 00H, '%', 00H
	DB	'd', 00H, 00H, 00H
$SG4294737447 DB 'A', 00H, 'u', 00H, 'd', 00H, 'i', 00H, 'o', 00H, ' ', 00H
	DB	'E', 00H, 'n', 00H, 'c', 00H, 'o', 00H, 'd', 00H, 'i', 00H, 'n'
	DB	00H, 'g', 00H, 00H, 00H
	ORG $+2
$SG4294737440 DB 'A', 00H, 'u', 00H, 'd', 00H, 'i', 00H, 'o', 00H, ' ', 00H
	DB	'E', 00H, 'n', 00H, 'c', 00H, 'o', 00H, 'd', 00H, 'i', 00H, 'n'
	DB	00H, 'g', 00H, 00H, 00H
	ORG $+2
$SG4294737442 DB 'A', 00H, 'A', 00H, 'C', 00H, 00H, 00H
$SG4294737443 DB 'S', 00H, 'e', 00H, 't', 00H, 't', 00H, 'i', 00H, 'n', 00H
	DB	'g', 00H, 's', 00H, '.', 00H, 'P', 00H, 'u', 00H, 'b', 00H, 'l'
	DB	00H, 'i', 00H, 's', 00H, 'h', 00H, '.', 00H, 'O', 00H, 'p', 00H
	DB	't', 00H, 'i', 00H, 'm', 00H, 'i', 00H, 'z', 00H, 'e', 00H, '.'
	DB	00H, 'O', 00H, 'p', 00H, 't', 00H, 'i', 00H, 'm', 00H, 'i', 00H
	DB	'z', 00H, 'a', 00H, 't', 00H, 'i', 00H, 'o', 00H, 'n', 00H, 's'
	DB	00H, 00H, 00H
$SG4294737436 DB 'U', 00H, 's', 00H, 'e', 00H, 'C', 00H, 'B', 00H, 'R', 00H
	DB	00H, 00H
	ORG $+2
$SG4294737437 DB 'r', 00H, 'a', 00H, 't', 00H, 'e', 00H, 'c', 00H, 'o', 00H
	DB	'n', 00H, 't', 00H, 'r', 00H, 'o', 00H, 'l', 00H, 00H, 00H
$SG4294737438 DB 'A', 00H, 'u', 00H, 'd', 00H, 'i', 00H, 'o', 00H, ' ', 00H
	DB	'E', 00H, 'n', 00H, 'c', 00H, 'o', 00H, 'd', 00H, 'i', 00H, 'n'
	DB	00H, 'g', 00H, 00H, 00H
	ORG $+2
$SG4294737439 DB 'B', 00H, 'i', 00H, 't', 00H, 'r', 00H, 'a', 00H, 't', 00H
	DB	'e', 00H, 00H, 00H
$SG4294737432 DB 'S', 00H, 'e', 00H, 't', 00H, 't', 00H, 'i', 00H, 'n', 00H
	DB	'g', 00H, 's', 00H, '.', 00H, 'P', 00H, 'u', 00H, 'b', 00H, 'l'
	DB	00H, 'i', 00H, 's', 00H, 'h', 00H, '.', 00H, 'O', 00H, 'p', 00H
	DB	't', 00H, 'i', 00H, 'm', 00H, 'i', 00H, 'z', 00H, 'e', 00H, '.'
	DB	00H, 'U', 00H, 's', 00H, 'e', 00H, 'C', 00H, 'B', 00H, 'R', 00H
	DB	00H, 00H
	ORG $+2
$SG4294737433 DB 'c', 00H, 'b', 00H, 'r', 00H, 00H, 00H
$SG4294737434 DB 'r', 00H, 'a', 00H, 't', 00H, 'e', 00H, 'c', 00H, 'o', 00H
	DB	'n', 00H, 't', 00H, 'r', 00H, 'o', 00H, 'l', 00H, 00H, 00H
$SG4294737435 DB 'V', 00H, 'i', 00H, 'd', 00H, 'e', 00H, 'o', 00H, ' ', 00H
	DB	'E', 00H, 'n', 00H, 'c', 00H, 'o', 00H, 'd', 00H, 'i', 00H, 'n'
	DB	00H, 'g', 00H, 00H, 00H
	ORG $+2
$SG4294737428 DB 'm', 00H, 'a', 00H, 'x', 00H, ' ', 00H, 'b', 00H, 'i', 00H
	DB	't', 00H, 'r', 00H, 'a', 00H, 't', 00H, 'e', 00H, 00H, 00H
$SG4294737429 DB 'V', 00H, 'i', 00H, 'd', 00H, 'e', 00H, 'o', 00H, ' ', 00H
	DB	'E', 00H, 'n', 00H, 'c', 00H, 'o', 00H, 'd', 00H, 'i', 00H, 'n'
	DB	00H, 'g', 00H, 00H, 00H
	ORG $+2
$SG4294737430 DB 'M', 00H, 'a', 00H, 'x', 00H, 'B', 00H, 'i', 00H, 't', 00H
	DB	'r', 00H, 'a', 00H, 't', 00H, 'e', 00H, 00H, 00H
	ORG $+2
$SG4294737431 DB 'm', 00H, 'a', 00H, 'x', 00H, ' ', 00H, 'b', 00H, 'i', 00H
	DB	't', 00H, 'r', 00H, 'a', 00H, 't', 00H, 'e', 00H, 00H, 00H
$SG4294737426 DB 's', 00H, 'u', 00H, 'p', 00H, 'p', 00H, 'o', 00H, 'r', 00H
	DB	't', 00H, 'e', 00H, 'd', 00H, ' ', 00H, 'a', 00H, 'u', 00H, 'd'
	DB	00H, 'i', 00H, 'o', 00H, ' ', 00H, 'c', 00H, 'o', 00H, 'd', 00H
	DB	'e', 00H, 'c', 00H, 00H, 00H
$SG4294737424 DB 'S', 00H, 'e', 00H, 't', 00H, 't', 00H, 'i', 00H, 'n', 00H
	DB	'g', 00H, 's', 00H, '.', 00H, 'P', 00H, 'u', 00H, 'b', 00H, 'l'
	DB	00H, 'i', 00H, 's', 00H, 'h', 00H, '.', 00H, 'O', 00H, 'p', 00H
	DB	't', 00H, 'i', 00H, 'm', 00H, 'i', 00H, 'z', 00H, 'e', 00H, '.'
	DB	00H, 'U', 00H, 'n', 00H, 's', 00H, 'u', 00H, 'p', 00H, 'p', 00H
	DB	'o', 00H, 'r', 00H, 't', 00H, 'e', 00H, 'd', 00H, 'A', 00H, 'u'
	DB	00H, 'd', 00H, 'i', 00H, 'o', 00H, 'C', 00H, 'o', 00H, 'd', 00H
	DB	'e', 00H, 'c', 00H, 00H, 00H
$SG4294737427 DB 'S', 00H, 'e', 00H, 't', 00H, 't', 00H, 'i', 00H, 'n', 00H
	DB	'g', 00H, 's', 00H, '.', 00H, 'P', 00H, 'u', 00H, 'b', 00H, 'l'
	DB	00H, 'i', 00H, 's', 00H, 'h', 00H, '.', 00H, 'O', 00H, 'p', 00H
	DB	't', 00H, 'i', 00H, 'm', 00H, 'i', 00H, 'z', 00H, 'e', 00H, '.'
	DB	00H, 'M', 00H, 'a', 00H, 'x', 00H, 'b', 00H, 'i', 00H, 't', 00H
	DB	'r', 00H, 'a', 00H, 't', 00H, 'e', 00H, 00H, 00H
	ORG $+2
$SG4294737421 DB 'm', 00H, 'a', 00H, 'x', 00H, ' ', 00H, 'a', 00H, 'u', 00H
	DB	'd', 00H, 'i', 00H, 'o', 00H, ' ', 00H, 'b', 00H, 'i', 00H, 't'
	DB	00H, 'r', 00H, 'a', 00H, 't', 00H, 'e', 00H, ' ', 00H, 'a', 00H
	DB	'a', 00H, 'c', 00H, 00H, 00H
$SG4294737420 DB 'S', 00H, 'e', 00H, 't', 00H, 't', 00H, 'i', 00H, 'n', 00H
	DB	'g', 00H, 's', 00H, '.', 00H, 'P', 00H, 'u', 00H, 'b', 00H, 'l'
	DB	00H, 'i', 00H, 's', 00H, 'h', 00H, '.', 00H, 'O', 00H, 'p', 00H
	DB	't', 00H, 'i', 00H, 'm', 00H, 'i', 00H, 'z', 00H, 'e', 00H, '.'
	DB	00H, 'M', 00H, 'a', 00H, 'x', 00H, 'A', 00H, 'u', 00H, 'd', 00H
	DB	'i', 00H, 'o', 00H, 'b', 00H, 'i', 00H, 't', 00H, 'r', 00H, 'a'
	DB	00H, 't', 00H, 'e', 00H, 00H, 00H
$SG4294737422 DB 'A', 00H, 'A', 00H, 'C', 00H, 00H, 00H
$SG4294737423 DB 'm', 00H, 'a', 00H, 'x', 00H, ' ', 00H, 'a', 00H, 'u', 00H
	DB	'd', 00H, 'i', 00H, 'o', 00H, ' ', 00H, 'b', 00H, 'i', 00H, 't'
	DB	00H, 'r', 00H, 'a', 00H, 't', 00H, 'e', 00H, ' ', 00H, 'a', 00H
	DB	'a', 00H, 'c', 00H, 00H, 00H
$SG4294737416 DB 'S', 00H, 'e', 00H, 't', 00H, 't', 00H, 'i', 00H, 'n', 00H
	DB	'g', 00H, 's', 00H, '.', 00H, 'P', 00H, 'u', 00H, 'b', 00H, 'l'
	DB	00H, 'i', 00H, 's', 00H, 'h', 00H, '.', 00H, 'O', 00H, 'p', 00H
	DB	't', 00H, 'i', 00H, 'm', 00H, 'i', 00H, 'z', 00H, 'e', 00H, '.'
	DB	00H, 'M', 00H, 'a', 00H, 'x', 00H, 'A', 00H, 'u', 00H, 'd', 00H
	DB	'i', 00H, 'o', 00H, 'b', 00H, 'i', 00H, 't', 00H, 'r', 00H, 'a'
	DB	00H, 't', 00H, 'e', 00H, 00H, 00H
$SG4294737417 DB 'm', 00H, 'a', 00H, 'x', 00H, ' ', 00H, 'a', 00H, 'u', 00H
	DB	'd', 00H, 'i', 00H, 'o', 00H, ' ', 00H, 'b', 00H, 'i', 00H, 't'
	DB	00H, 'r', 00H, 'a', 00H, 't', 00H, 'e', 00H, ' ', 00H, 'm', 00H
	DB	'p', 00H, '3', 00H, 00H, 00H
$SG4294737418 DB 'M', 00H, 'P', 00H, '3', 00H, 00H, 00H
$SG4294737419 DB 'm', 00H, 'a', 00H, 'x', 00H, ' ', 00H, 'a', 00H, 'u', 00H
	DB	'd', 00H, 'i', 00H, 'o', 00H, ' ', 00H, 'b', 00H, 'i', 00H, 't'
	DB	00H, 'r', 00H, 'a', 00H, 't', 00H, 'e', 00H, ' ', 00H, 'm', 00H
	DB	'p', 00H, '3', 00H, 00H, 00H
$SG4294737412 DB 'V', 00H, 'i', 00H, 'd', 00H, 'e', 00H, 'o', 00H, ' ', 00H
	DB	'E', 00H, 'n', 00H, 'c', 00H, 'o', 00H, 'd', 00H, 'i', 00H, 'n'
	DB	00H, 'g', 00H, 00H, 00H
	ORG $+2
$SG4294737413 DB 'X', 00H, '2', 00H, '6', 00H, '4', 00H, 'P', 00H, 'r', 00H
	DB	'o', 00H, 'f', 00H, 'i', 00H, 'l', 00H, 'e', 00H, 00H, 00H
$SG4294737414 DB 'h', 00H, 'i', 00H, 'g', 00H, 'h', 00H, 00H, 00H
	ORG $+2
$SG4294737415 DB 'p', 00H, 'r', 00H, 'o', 00H, 'f', 00H, 'i', 00H, 'l', 00H
	DB	'e', 00H, 00H, 00H
$SG4294737408 DB 'K', 00H, 'e', 00H, 'y', 00H, 'f', 00H, 'r', 00H, 'a', 00H
	DB	'm', 00H, 'e', 00H, 'I', 00H, 'n', 00H, 't', 00H, 'e', 00H, 'r'
	DB	00H, 'v', 00H, 'a', 00H, 'l', 00H, 00H, 00H
	ORG $+2
$SG4294737409 DB 'k', 00H, 'e', 00H, 'y', 00H, 'i', 00H, 'n', 00H, 't', 00H
	DB	00H, 00H
	ORG $+2
$SG4294737411 DB 'p', 00H, 'r', 00H, 'o', 00H, 'f', 00H, 'i', 00H, 'l', 00H
	DB	'e', 00H, 00H, 00H
$SG4294737404 DB 'O', 00H, 'p', 00H, 't', 00H, 'i', 00H, 'm', 00H, 'i', 00H
	DB	'z', 00H, 'e', 00H, 00H, 00H
	ORG $+2
$SG4294737410 DB 'S', 00H, 'e', 00H, 't', 00H, 't', 00H, 'i', 00H, 'n', 00H
	DB	'g', 00H, 's', 00H, '.', 00H, 'P', 00H, 'u', 00H, 'b', 00H, 'l'
	DB	00H, 'i', 00H, 's', 00H, 'h', 00H, '.', 00H, 'O', 00H, 'p', 00H
	DB	't', 00H, 'i', 00H, 'm', 00H, 'i', 00H, 'z', 00H, 'e', 00H, '.'
	DB	00H, 'R', 00H, 'e', 00H, 'c', 00H, 'o', 00H, 'm', 00H, 'm', 00H
	DB	'e', 00H, 'n', 00H, 'd', 00H, 'M', 00H, 'a', 00H, 'i', 00H, 'n'
	DB	00H, 'P', 00H, 'r', 00H, 'o', 00H, 'f', 00H, 'i', 00H, 'l', 00H
	DB	'e', 00H, 00H, 00H
	ORG $+2
$SG4294737405 DB 'S', 00H, 'e', 00H, 't', 00H, 't', 00H, 'i', 00H, 'n', 00H
	DB	'g', 00H, 's', 00H, '.', 00H, 'P', 00H, 'u', 00H, 'b', 00H, 'l'
	DB	00H, 'i', 00H, 's', 00H, 'h', 00H, '.', 00H, 'O', 00H, 'p', 00H
	DB	't', 00H, 'i', 00H, 'm', 00H, 'i', 00H, 'z', 00H, 'e', 00H, '.'
	DB	00H, 'K', 00H, 'e', 00H, 'y', 00H, 'i', 00H, 'n', 00H, 't', 00H
	DB	00H, 00H
	ORG $+2
$SG4294737406 DB 'k', 00H, 'e', 00H, 'y', 00H, 'i', 00H, 'n', 00H, 't', 00H
	DB	00H, 00H
	ORG $+2
$SG4294737407 DB 'V', 00H, 'i', 00H, 'd', 00H, 'e', 00H, 'o', 00H, ' ', 00H
	DB	'E', 00H, 'n', 00H, 'c', 00H, 'o', 00H, 'd', 00H, 'i', 00H, 'n'
	DB	00H, 'g', 00H, 00H, 00H
	ORG $+2
$SG4294737400 DB 'V', 00H, 'i', 00H, 'd', 00H, 'e', 00H, 'o', 00H, ' ', 00H
	DB	'E', 00H, 'n', 00H, 'c', 00H, 'o', 00H, 'd', 00H, 'i', 00H, 'n'
	DB	00H, 'g', 00H, 00H, 00H
	ORG $+2
$SG4294737401 DB 'U', 00H, 's', 00H, 'e', 00H, 'C', 00H, 'B', 00H, 'R', 00H
	DB	00H, 00H
	ORG $+2
$SG4294737402 DB 'V', 00H, 'i', 00H, 'd', 00H, 'e', 00H, 'o', 00H, ' ', 00H
	DB	'E', 00H, 'n', 00H, 'c', 00H, 'o', 00H, 'd', 00H, 'i', 00H, 'n'
	DB	00H, 'g', 00H, 00H, 00H
	ORG $+2
$SG4294737403 DB 'U', 00H, 's', 00H, 'e', 00H, 'C', 00H, 'B', 00H, 'R', 00H
	DB	00H, 00H
	ORG $+2
$SG4294737396 DB 'V', 00H, 'i', 00H, 'd', 00H, 'e', 00H, 'o', 00H, ' ', 00H
	DB	'E', 00H, 'n', 00H, 'c', 00H, 'o', 00H, 'd', 00H, 'i', 00H, 'n'
	DB	00H, 'g', 00H, 00H, 00H
	ORG $+2
$SG4294737397 DB 'U', 00H, 's', 00H, 'e', 00H, 'C', 00H, 'B', 00H, 'R', 00H
	DB	00H, 00H
	ORG $+2
$SG4294737398 DB 'V', 00H, 'i', 00H, 'd', 00H, 'e', 00H, 'o', 00H, ' ', 00H
	DB	'E', 00H, 'n', 00H, 'c', 00H, 'o', 00H, 'd', 00H, 'i', 00H, 'n'
	DB	00H, 'g', 00H, 00H, 00H
	ORG $+2
$SG4294737399 DB 'U', 00H, 's', 00H, 'e', 00H, 'C', 00H, 'B', 00H, 'R', 00H
	DB	00H, 00H
	ORG $+2
$SG4294737392 DB 'V', 00H, 'i', 00H, 'd', 00H, 'e', 00H, 'o', 00H, ' ', 00H
	DB	'E', 00H, 'n', 00H, 'c', 00H, 'o', 00H, 'd', 00H, 'i', 00H, 'n'
	DB	00H, 'g', 00H, 00H, 00H
	ORG $+2
$SG4294737393 DB 'M', 00H, 'a', 00H, 'x', 00H, 'B', 00H, 'i', 00H, 't', 00H
	DB	'r', 00H, 'a', 00H, 't', 00H, 'e', 00H, 00H, 00H
	ORG $+2
$SG4294737394 DB 'V', 00H, 'i', 00H, 'd', 00H, 'e', 00H, 'o', 00H, ' ', 00H
	DB	'E', 00H, 'n', 00H, 'c', 00H, 'o', 00H, 'd', 00H, 'i', 00H, 'n'
	DB	00H, 'g', 00H, 00H, 00H
	ORG $+2
$SG4294737395 DB 'U', 00H, 's', 00H, 'e', 00H, 'C', 00H, 'B', 00H, 'R', 00H
	DB	00H, 00H
	ORG $+2
$SG4294737388 DB 'F', 00H, 'o', 00H, 'r', 00H, 'm', 00H, 'a', 00H, 't', 00H
	DB	00H, 00H
	ORG $+2
$SG4294737389 DB 'A', 00H, 'A', 00H, 'C', 00H, 00H, 00H
$SG4294737390 DB 'A', 00H, 'u', 00H, 'd', 00H, 'i', 00H, 'o', 00H, ' ', 00H
	DB	'E', 00H, 'n', 00H, 'c', 00H, 'o', 00H, 'd', 00H, 'i', 00H, 'n'
	DB	00H, 'g', 00H, 00H, 00H
	ORG $+2
$SG4294737391 DB 'C', 00H, 'o', 00H, 'd', 00H, 'e', 00H, 'c', 00H, 00H, 00H
$SG4294737384 DB 'B', 00H, 'i', 00H, 't', 00H, 'r', 00H, 'a', 00H, 't', 00H
	DB	'e', 00H, 00H, 00H
$SG4294737385 DB 'A', 00H, 'u', 00H, 'd', 00H, 'i', 00H, 'o', 00H, ' ', 00H
	DB	'E', 00H, 'n', 00H, 'c', 00H, 'o', 00H, 'd', 00H, 'i', 00H, 'n'
	DB	00H, 'g', 00H, 00H, 00H
	ORG $+2
$SG4294737386 DB 'B', 00H, 'i', 00H, 't', 00H, 'r', 00H, 'a', 00H, 't', 00H
	DB	'e', 00H, 00H, 00H
$SG4294737387 DB 'A', 00H, 'u', 00H, 'd', 00H, 'i', 00H, 'o', 00H, ' ', 00H
	DB	'E', 00H, 'n', 00H, 'c', 00H, 'o', 00H, 'd', 00H, 'i', 00H, 'n'
	DB	00H, 'g', 00H, 00H, 00H
	ORG $+2
$SG4294737380 DB 'K', 00H, 'e', 00H, 'y', 00H, 'f', 00H, 'r', 00H, 'a', 00H
	DB	'm', 00H, 'e', 00H, 'I', 00H, 'n', 00H, 't', 00H, 'e', 00H, 'r'
	DB	00H, 'v', 00H, 'a', 00H, 'l', 00H, 00H, 00H
	ORG $+2
$SG4294737381 DB 'V', 00H, 'i', 00H, 'd', 00H, 'e', 00H, 'o', 00H, ' ', 00H
	DB	'E', 00H, 'n', 00H, 'c', 00H, 'o', 00H, 'd', 00H, 'i', 00H, 'n'
	DB	00H, 'g', 00H, 00H, 00H
	ORG $+2
$SG4294737382 DB 'X', 00H, '2', 00H, '6', 00H, '4', 00H, 'P', 00H, 'r', 00H
	DB	'o', 00H, 'f', 00H, 'i', 00H, 'l', 00H, 'e', 00H, 00H, 00H
$SG4294737383 DB 'A', 00H, 'u', 00H, 'd', 00H, 'i', 00H, 'o', 00H, ' ', 00H
	DB	'E', 00H, 'n', 00H, 'c', 00H, 'o', 00H, 'd', 00H, 'i', 00H, 'n'
	DB	00H, 'g', 00H, 00H, 00H
	ORG $+2
$SG4294737376 DB 'M', 00H, 'o', 00H, 'd', 00H, 'e', 00H, 00H, 00H
	ORG $+2
$SG4294737377 DB 'S', 00H, 'e', 00H, 't', 00H, 't', 00H, 'i', 00H, 'n', 00H
	DB	'g', 00H, 's', 00H, '.', 00H, 'P', 00H, 'u', 00H, 'b', 00H, 'l'
	DB	00H, 'i', 00H, 's', 00H, 'h', 00H, '.', 00H, 'M', 00H, 'o', 00H
	DB	'd', 00H, 'e', 00H, '.', 00H, 'F', 00H, 'i', 00H, 'l', 00H, 'e'
	DB	00H, 'O', 00H, 'n', 00H, 'l', 00H, 'y', 00H, 00H, 00H
	ORG $+2
$SG4294737378 DB 'S', 00H, 'e', 00H, 't', 00H, 't', 00H, 'i', 00H, 'n', 00H
	DB	'g', 00H, 's', 00H, '.', 00H, 'P', 00H, 'u', 00H, 'b', 00H, 'l'
	DB	00H, 'i', 00H, 's', 00H, 'h', 00H, '.', 00H, 'M', 00H, 'o', 00H
	DB	'd', 00H, 'e', 00H, '.', 00H, 'L', 00H, 'i', 00H, 'v', 00H, 'e'
	DB	00H, 'S', 00H, 't', 00H, 'r', 00H, 'e', 00H, 'a', 00H, 'm', 00H
	DB	00H, 00H
	ORG $+2
$SG4294737379 DB 'V', 00H, 'i', 00H, 'd', 00H, 'e', 00H, 'o', 00H, ' ', 00H
	DB	'E', 00H, 'n', 00H, 'c', 00H, 'o', 00H, 'd', 00H, 'i', 00H, 'n'
	DB	00H, 'g', 00H, 00H, 00H
	ORG $+2
$SG4294737372 DB 'P', 00H, 'u', 00H, 'b', 00H, 'l', 00H, 'i', 00H, 's', 00H
	DB	'h', 00H, 00H, 00H
$SG4294737373 DB 'P', 00H, 'l', 00H, 'a', 00H, 'y', 00H, 'P', 00H, 'a', 00H
	DB	't', 00H, 'h', 00H, 00H, 00H
	ORG $+2
$SG4294737374 DB 'C', 00H, 'u', 00H, 's', 00H, 't', 00H, 'o', 00H, 'm', 00H
	DB	00H, 00H
	ORG $+2
$SG4294737375 DB 'P', 00H, 'u', 00H, 'b', 00H, 'l', 00H, 'i', 00H, 's', 00H
	DB	'h', 00H, 00H, 00H
$SG4294737368 DB 'P', 00H, 'u', 00H, 'b', 00H, 'l', 00H, 'i', 00H, 's', 00H
	DB	'h', 00H, 00H, 00H
$SG4294737369 DB 'U', 00H, 'R', 00H, 'L', 00H, 00H, 00H
$SG4294737370 DB 'P', 00H, 'u', 00H, 'b', 00H, 'l', 00H, 'i', 00H, 's', 00H
	DB	'h', 00H, 00H, 00H
$SG4294737371 DB 'U', 00H, 'R', 00H, 'L', 00H, 00H, 00H
$SG4294737364 DB 'P', 00H, 'u', 00H, 'b', 00H, 'l', 00H, 'i', 00H, 's', 00H
	DB	'h', 00H, 00H, 00H
$SG4294737365 DB 'A', 00H, 'u', 00H, 't', 00H, 'o', 00H, 'R', 00H, 'e', 00H
	DB	'c', 00H, 'o', 00H, 'n', 00H, 'n', 00H, 'e', 00H, 'c', 00H, 't'
	DB	00H, 00H, 00H
$SG4294737366 DB 'P', 00H, 'u', 00H, 'b', 00H, 'l', 00H, 'i', 00H, 's', 00H
	DB	'h', 00H, 00H, 00H
$SG4294737367 DB 'L', 00H, 'o', 00H, 'w', 00H, 'L', 00H, 'a', 00H, 't', 00H
	DB	'e', 00H, 'n', 00H, 'c', 00H, 'y', 00H, 'M', 00H, 'o', 00H, 'd'
	DB	00H, 'e', 00H, 00H, 00H
	ORG $+2
$SG4294737360 DB 'P', 00H, 'u', 00H, 'b', 00H, 'l', 00H, 'i', 00H, 's', 00H
	DB	'h', 00H, 00H, 00H
$SG4294737361 DB 'D', 00H, 'e', 00H, 'l', 00H, 'a', 00H, 'y', 00H, 00H, 00H
$SG4294737362 DB 'P', 00H, 'u', 00H, 'b', 00H, 'l', 00H, 'i', 00H, 's', 00H
	DB	'h', 00H, 00H, 00H
$SG4294737363 DB 'A', 00H, 'u', 00H, 't', 00H, 'o', 00H, 'R', 00H, 'e', 00H
	DB	'c', 00H, 'o', 00H, 'n', 00H, 'n', 00H, 'e', 00H, 'c', 00H, 't'
	DB	00H, 'T', 00H, 'i', 00H, 'm', 00H, 'e', 00H, 'o', 00H, 'u', 00H
	DB	't', 00H, 00H, 00H
	ORG $+2
$SG4294737356 DB 'S', 00H, 'a', 00H, 'v', 00H, 'e', 00H, 'T', 00H, 'o', 00H
	DB	'F', 00H, 'i', 00H, 'l', 00H, 'e', 00H, 00H, 00H
	ORG $+2
$SG4294737357 DB 'P', 00H, 'u', 00H, 'b', 00H, 'l', 00H, 'i', 00H, 's', 00H
	DB	'h', 00H, 00H, 00H
$SG4294737358 DB 'K', 00H, 'e', 00H, 'e', 00H, 'p', 00H, 'R', 00H, 'e', 00H
	DB	'c', 00H, 'o', 00H, 'r', 00H, 'd', 00H, 'i', 00H, 'n', 00H, 'g'
	DB	00H, 00H, 00H
$SG4294737359 DB 't', 00H, 'o', 00H, 'o', 00H, 'l', 00H, 't', 00H, 'i', 00H
	DB	'p', 00H, 's', 00H, '_', 00H, 'c', 00H, 'l', 00H, 'a', 00H, 's'
	DB	00H, 's', 00H, '3', 00H, '2', 00H, 00H, 00H
	ORG $+2
$SG4294737352 DB 'P', 00H, 'u', 00H, 'b', 00H, 'l', 00H, 'i', 00H, 's', 00H
	DB	'h', 00H, 00H, 00H
$SG4294737353 DB 'S', 00H, 'a', 00H, 'v', 00H, 'e', 00H, 'P', 00H, 'a', 00H
	DB	't', 00H, 'h', 00H, 00H, 00H
	ORG $+2
$SG4294737354 DB '\', 00H, '.', 00H, 'f', 00H, 'l', 00H, 'v', 00H, 00H, 00H
$SG4294737355 DB 'P', 00H, 'u', 00H, 'b', 00H, 'l', 00H, 'i', 00H, 's', 00H
	DB	'h', 00H, 00H, 00H
$SG4294737346 DB 'R', 00H, 'e', 00H, 'p', 00H, 'l', 00H, 'a', 00H, 'y', 00H
	DB	'B', 00H, 'u', 00H, 'f', 00H, 'f', 00H, 'e', 00H, 'r', 00H, 'S'
	DB	00H, 'a', 00H, 'v', 00H, 'e', 00H, 'P', 00H, 'a', 00H, 't', 00H
	DB	'h', 00H, 00H, 00H
	ORG $+2
$SG4294737348 DB 'S', 00H, 'e', 00H, 't', 00H, 't', 00H, 'i', 00H, 'n', 00H
	DB	'g', 00H, 's', 00H, '.', 00H, 'P', 00H, 'u', 00H, 'b', 00H, 'l'
	DB	00H, 'i', 00H, 's', 00H, 'h', 00H, '.', 00H, 'R', 00H, 'e', 00H
	DB	'p', 00H, 'l', 00H, 'a', 00H, 'y', 00H, 'B', 00H, 'u', 00H, 'f'
	DB	00H, 'f', 00H, 'e', 00H, 'r', 00H, 'T', 00H, 'o', 00H, 'o', 00H
	DB	'l', 00H, 't', 00H, 'i', 00H, 'p', 00H, 00H, 00H
	ORG $+2
$SG4294737349 DB 'P', 00H, 'u', 00H, 'b', 00H, 'l', 00H, 'i', 00H, 's', 00H
	DB	'h', 00H, 00H, 00H
$SG4294737350 DB 'R', 00H, 'e', 00H, 'p', 00H, 'l', 00H, 'a', 00H, 'y', 00H
	DB	'B', 00H, 'u', 00H, 'f', 00H, 'f', 00H, 'e', 00H, 'r', 00H, 'L'
	DB	00H, 'e', 00H, 'n', 00H, 'g', 00H, 't', 00H, 'h', 00H, 00H, 00H
	ORG $+2
$SG4294737345 DB 'P', 00H, 'u', 00H, 'b', 00H, 'l', 00H, 'i', 00H, 's', 00H
	DB	'h', 00H, 00H, 00H
$SG4294737337 DB '\', 00H, 00H, 00H
$SG4294737351 DB 'S', 00H, 'e', 00H, 't', 00H, 't', 00H, 'i', 00H, 'n', 00H
	DB	'g', 00H, 's', 00H, '.', 00H, 'P', 00H, 'u', 00H, 'b', 00H, 'l'
	DB	00H, 'i', 00H, 's', 00H, 'h', 00H, '.', 00H, 'S', 00H, 'a', 00H
	DB	'v', 00H, 'e', 00H, 'P', 00H, 'a', 00H, 't', 00H, 'h', 00H, 'T'
	DB	00H, 'o', 00H, 'o', 00H, 'l', 00H, 't', 00H, 'i', 00H, 'p', 00H
	DB	00H, 00H
	ORG $+2
$SG4294737340 DB 'L', 00H, 'a', 00H, 's', 00H, 't', 00H, 'S', 00H, 'a', 00H
	DB	'v', 00H, 'e', 00H, 'D', 00H, 'i', 00H, 'r', 00H, 00H, 00H
$SG4294737338 DB '/', 00H, 00H, 00H
$SG4294737344 DB 'S', 00H, 'e', 00H, 't', 00H, 't', 00H, 'i', 00H, 'n', 00H
	DB	'g', 00H, 's', 00H, '.', 00H, 'P', 00H, 'u', 00H, 'b', 00H, 'l'
	DB	00H, 'i', 00H, 's', 00H, 'h', 00H, '.', 00H, 'S', 00H, 'a', 00H
	DB	'v', 00H, 'e', 00H, 'P', 00H, 'a', 00H, 't', 00H, 'h', 00H, 'T'
	DB	00H, 'o', 00H, 'o', 00H, 'l', 00H, 't', 00H, 'i', 00H, 'p', 00H
	DB	00H, 00H
	ORG $+2
$SG4294737347 DB '\', 00H, 'R', 00H, 'e', 00H, 'p', 00H, 'l', 00H, 'a', 00H
	DB	'y', 00H, '-', 00H, '$', 00H, 'T', 00H, '.', 00H, 'f', 00H, 'l'
	DB	00H, 'v', 00H, 00H, 00H
	ORG $+2
$SG4294737341 DB 'L', 00H, 'a', 00H, 's', 00H, 't', 00H, 'R', 00H, 'e', 00H
	DB	'p', 00H, 'l', 00H, 'a', 00H, 'y', 00H, 'B', 00H, 'u', 00H, 'f'
	DB	00H, 'f', 00H, 'e', 00H, 'r', 00H, 'S', 00H, 'a', 00H, 'v', 00H
	DB	'e', 00H, 'D', 00H, 'i', 00H, 'r', 00H, 00H, 00H
$SG4294737332 DB '\', 00H, 00H, 00H
$SG4294737342 DB 'M', 00H, 'P', 00H, '4', 00H, ' ', 00H, 'F', 00H, 'i', 00H
	DB	'l', 00H, 'e', 00H, ' ', 00H, '(', 00H, '*', 00H, '.', 00H, 'm'
	DB	00H, 'p', 00H, '4', 00H, ')', 00H, 00H, 00H, '*', 00H, '.', 00H
	DB	'm', 00H, 'p', 00H, '4', 00H, 00H, 00H, 'F', 00H, 'l', 00H, 'a'
	DB	00H, 's', 00H, 'h', 00H, ' ', 00H, 'V', 00H, 'i', 00H, 'd', 00H
	DB	'e', 00H, 'o', 00H, ' ', 00H, 'F', 00H, 'i', 00H, 'l', 00H, 'e'
	DB	00H, ' ', 00H, '(', 00H, '*', 00H, '.', 00H, 'f', 00H, 'l', 00H
	DB	'v', 00H, ')', 00H, 00H, 00H, '*', 00H, '.', 00H, 'f', 00H, 'l'
	DB	00H, 'v', 00H, 00H, 00H, 00H, 00H
	ORG $+2
$SG4294737343 DB 's', 00H, 'e', 00H, 'r', 00H, 'v', 00H, 'e', 00H, 'r', 00H
	DB	's', 00H, 00H, 00H
$SG4294737336 DB 'f', 00H, 'l', 00H, 'v', 00H, 00H, 00H
$SG4294737339 DB 'P', 00H, 'u', 00H, 'b', 00H, 'l', 00H, 'i', 00H, 's', 00H
	DB	'h', 00H, 00H, 00H
$SG4294737333 DB '.', 00H, 'f', 00H, 'l', 00H, 'v', 00H, 00H, 00H
	ORG $+2
$SG4294737334 DB '.', 00H, 'm', 00H, 'p', 00H, '4', 00H, 00H, 00H
	ORG $+2
$SG4294737335 DB 'm', 00H, 'p', 00H, '4', 00H, 00H, 00H
$SG4294737328 DB 'L', 00H, 'a', 00H, 's', 00H, 't', 00H, 'S', 00H, 'a', 00H
	DB	'v', 00H, 'e', 00H, 'D', 00H, 'i', 00H, 'r', 00H, 00H, 00H
$SG4294737329 DB 'L', 00H, 'a', 00H, 's', 00H, 't', 00H, 'R', 00H, 'e', 00H
	DB	'p', 00H, 'l', 00H, 'a', 00H, 'y', 00H, 'B', 00H, 'u', 00H, 'f'
	DB	00H, 'f', 00H, 'e', 00H, 'r', 00H, 'S', 00H, 'a', 00H, 'v', 00H
	DB	'e', 00H, 'D', 00H, 'i', 00H, 'r', 00H, 00H, 00H
$SG4294737330 DB '\', 00H, 00H, 00H
$SG4294737331 DB '/', 00H, 00H, 00H
$SG4294737324 DB '%', 00H, 's', 00H, '/', 00H, 's', 00H, 'e', 00H, 'r', 00H
	DB	'v', 00H, 'i', 00H, 'c', 00H, 'e', 00H, 's', 00H, 00H, 00H
$SG4294737325 DB '/', 00H, 00H, 00H
$SG4294737326 DB '\', 00H, 00H, 00H
$SG4294737327 DB 'P', 00H, 'u', 00H, 'b', 00H, 'l', 00H, 'i', 00H, 's', 00H
	DB	'h', 00H, 00H, 00H
$SG4294737320 DB 's', 00H, 'e', 00H, 'r', 00H, 'v', 00H, 'e', 00H, 'r', 00H
	DB	's', 00H, 00H, 00H
$SG4294737321 DB '%', 00H, 's', 00H, ' ', 00H, '[', 00H, '%', 00H, 's', 00H
	DB	']', 00H, 00H, 00H
$SG4294737322 DB '%', 00H, 's', 00H, ' ', 00H, '[', 00H, '%', 00H, 's', 00H
	DB	']', 00H, 00H, 00H
$SG4294737323 DB 'o', 00H, 'p', 00H, 'e', 00H, 'n', 00H, 00H, 00H
PUBLIC	??$construct@V?$_List_unchecked_iterator@V?$_List_val@U?$_List_simple_types@U?$pair@$$CBV?$basic_string@_WU?$char_traits@_W@std@@V?$allocator@_W@2@@std@@H@std@@@std@@@std@@@std@@V12@@?$allocator@V?$_List_unchecked_iterator@V?$_List_val@U?$_List_simple_types@U?$pair@$$CBV?$basic_string@_WU?$char_traits@_W@std@@V?$allocator@_W@2@@std@@H@std@@@std@@@std@@@std@@@std@@QAEXPAV?$_List_unchecked_iterator@V?$_List_val@U?$_List_simple_types@U?$pair@$$CBV?$basic_string@_WU?$char_traits@_W@std@@V?$allocator@_W@2@@std@@H@std@@@std@@@std@@@1@$$QAV21@@Z ; std::allocator<std::_List_unchecked_iterator<std::_List_val<std::_List_simple_types<std::pair<std::basic_string<wchar_t,std::char_traits<wchar_t>,std::allocator<wchar_t> > const ,int> > > > >::construct<std::_List_unchecked_iterator<std::_List_val<std::_List_simple_types<std::pair<std::basic_string<wchar_t,std::char_traits<wchar_t>,std::allocator<wchar_t> > const ,int> > > >,std::_List_unchecked_iterator<std::_List_val<std::_List_simple_types<std::pair<std::basic_string<wchar_t,std::char_traits<wchar_t>,std::allocator<wchar_t> > const ,int> > > > >
PUBLIC	??$get@$0A@$$QAV?$basic_string@_WU?$char_traits@_W@std@@V?$allocator@_W@2@@std@@@std@@YA$$QAV?$basic_string@_WU?$char_traits@_W@std@@V?$allocator@_W@2@@0@$$QAV?$tuple@$$QAV?$basic_string@_WU?$char_traits@_W@std@@V?$allocator@_W@2@@std@@@0@@Z ; std::get<0,std::basic_string<wchar_t,std::char_traits<wchar_t>,std::allocator<wchar_t> > &&>
PUBLIC	??$move@AAV?$tuple@$$QAV?$basic_string@_WU?$char_traits@_W@std@@V?$allocator@_W@2@@std@@@std@@@std@@YA$$QAV?$tuple@$$QAV?$basic_string@_WU?$char_traits@_W@std@@V?$allocator@_W@2@@std@@@0@AAV10@@Z ; std::move<std::tuple<std::basic_string<wchar_t,std::char_traits<wchar_t>,std::allocator<wchar_t> > &&> &>
PUBLIC	??$construct@V?$_List_unchecked_iterator@V?$_List_val@U?$_List_simple_types@U?$pair@$$CBV?$basic_string@_WU?$char_traits@_W@std@@V?$allocator@_W@2@@std@@H@std@@@std@@@std@@@std@@V12@@?$allocator_traits@V?$allocator@V?$_List_unchecked_iterator@V?$_List_val@U?$_List_simple_types@U?$pair@$$CBV?$basic_string@_WU?$char_traits@_W@std@@V?$allocator@_W@2@@std@@H@std@@@std@@@std@@@std@@@std@@@std@@SAXAAV?$allocator@V?$_List_unchecked_iterator@V?$_List_val@U?$_List_simple_types@U?$pair@$$CBV?$basic_string@_WU?$char_traits@_W@std@@V?$allocator@_W@2@@std@@H@std@@@std@@@std@@@std@@@1@PAV?$_List_unchecked_iterator@V?$_List_val@U?$_List_simple_types@U?$pair@$$CBV?$basic_string@_WU?$char_traits@_W@std@@V?$allocator@_W@2@@std@@H@std@@@std@@@std@@@1@$$QAV31@@Z ; std::allocator_traits<std::allocator<std::_List_unchecked_iterator<std::_List_val<std::_List_simple_types<std::pair<std::basic_string<wchar_t,std::char_traits<wchar_t>,std::allocator<wchar_t> > const ,int> > > > > >::construct<std::_List_unchecked_iterator<std::_List_val<std::_List_simple_types<std::pair<std::basic_string<wchar_t,std::char_traits<wchar_t>,std::allocator<wchar_t> > const ,int> > > >,std::_List_unchecked_iterator<std::_List_val<std::_List_simple_types<std::pair<std::basic_string<wchar_t,std::char_traits<wchar_t>,std::allocator<wchar_t> > const ,int> > > > >
PUBLIC	??$?0V?$tuple@$$QAV?$basic_string@_WU?$char_traits@_W@std@@V?$allocator@_W@2@@std@@@std@@V?$tuple@$$$V@1@$0A@$S@?$pair@$$CBV?$basic_string@_WU?$char_traits@_W@std@@V?$allocator@_W@2@@std@@H@std@@QAE@AAV?$tuple@$$QAV?$basic_string@_WU?$char_traits@_W@std@@V?$allocator@_W@2@@std@@@1@AAV?$tuple@$$$V@1@U?$_Arg_idx@$0A@@1@U?$_Arg_idx@$S@1@@Z ; std::pair<std::basic_string<wchar_t,std::char_traits<wchar_t>,std::allocator<wchar_t> > const ,int>::pair<std::basic_string<wchar_t,std::char_traits<wchar_t>,std::allocator<wchar_t> > const ,int><std::tuple<std::basic_string<wchar_t,std::char_traits<wchar_t>,std::allocator<wchar_t> > &&>,std::tuple<>,0>
PUBLIC	??$forward@$$QAV?$basic_string@_WU?$char_traits@_W@std@@V?$allocator@_W@2@@std@@@std@@YA$$QAV?$basic_string@_WU?$char_traits@_W@std@@V?$allocator@_W@2@@0@AAV10@@Z ; std::forward<std::basic_string<wchar_t,std::char_traits<wchar_t>,std::allocator<wchar_t> > &&>
PUBLIC	?_Get_rest@?$tuple@$$QAV?$basic_string@_WU?$char_traits@_W@std@@V?$allocator@_W@2@@std@@@std@@QAEAAV?$tuple@$$$V@2@XZ ; std::tuple<std::basic_string<wchar_t,std::char_traits<wchar_t>,std::allocator<wchar_t> > &&>::_Get_rest
PUBLIC	??$construct@V?$_List_unchecked_iterator@V?$_List_val@U?$_List_simple_types@U?$pair@$$CBV?$basic_string@_WU?$char_traits@_W@std@@V?$allocator@_W@2@@std@@H@std@@@std@@@std@@@std@@V12@@?$_Wrap_alloc@V?$allocator@V?$_List_unchecked_iterator@V?$_List_val@U?$_List_simple_types@U?$pair@$$CBV?$basic_string@_WU?$char_traits@_W@std@@V?$allocator@_W@2@@std@@H@std@@@std@@@std@@@std@@@std@@@std@@QAEXPAV?$_List_unchecked_iterator@V?$_List_val@U?$_List_simple_types@U?$pair@$$CBV?$basic_string@_WU?$char_traits@_W@std@@V?$allocator@_W@2@@std@@H@std@@@std@@@std@@@1@$$QAV21@@Z ; std::_Wrap_alloc<std::allocator<std::_List_unchecked_iterator<std::_List_val<std::_List_simple_types<std::pair<std::basic_string<wchar_t,std::char_traits<wchar_t>,std::allocator<wchar_t> > const ,int> > > > > >::construct<std::_List_unchecked_iterator<std::_List_val<std::_List_simple_types<std::pair<std::basic_string<wchar_t,std::char_traits<wchar_t>,std::allocator<wchar_t> > const ,int> > > >,std::_List_unchecked_iterator<std::_List_val<std::_List_simple_types<std::pair<std::basic_string<wchar_t,std::char_traits<wchar_t>,std::allocator<wchar_t> > const ,int> > > > >
PUBLIC	??$destroy@V?$_List_unchecked_iterator@V?$_List_val@U?$_List_simple_types@U?$pair@$$CBV?$basic_string@_WU?$char_traits@_W@std@@V?$allocator@_W@2@@std@@H@std@@@std@@@std@@@std@@@?$allocator@V?$_List_unchecked_iterator@V?$_List_val@U?$_List_simple_types@U?$pair@$$CBV?$basic_string@_WU?$char_traits@_W@std@@V?$allocator@_W@2@@std@@H@std@@@std@@@std@@@std@@@std@@QAEXPAV?$_List_unchecked_iterator@V?$_List_val@U?$_List_simple_types@U?$pair@$$CBV?$basic_string@_WU?$char_traits@_W@std@@V?$allocator@_W@2@@std@@H@std@@@std@@@std@@@1@@Z ; std::allocator<std::_List_unchecked_iterator<std::_List_val<std::_List_simple_types<std::pair<std::basic_string<wchar_t,std::char_traits<wchar_t>,std::allocator<wchar_t> > const ,int> > > > >::destroy<std::_List_unchecked_iterator<std::_List_val<std::_List_simple_types<std::pair<std::basic_string<wchar_t,std::char_traits<wchar_t>,std::allocator<wchar_t> > const ,int> > > > >
PUBLIC	??$?0$$QAV?$basic_string@_WU?$char_traits@_W@std@@V?$allocator@_W@2@@std@@$$$V@?$pair@$$CBV?$basic_string@_WU?$char_traits@_W@std@@V?$allocator@_W@2@@std@@H@std@@QAE@Upiecewise_construct_t@1@V?$tuple@$$QAV?$basic_string@_WU?$char_traits@_W@std@@V?$allocator@_W@2@@std@@@1@V?$tuple@$$$V@1@@Z ; std::pair<std::basic_string<wchar_t,std::char_traits<wchar_t>,std::allocator<wchar_t> > const ,int>::pair<std::basic_string<wchar_t,std::char_traits<wchar_t>,std::allocator<wchar_t> > const ,int><std::basic_string<wchar_t,std::char_traits<wchar_t>,std::allocator<wchar_t> > &&>
PUBLIC	??$?0$$QAV?$basic_string@_WU?$char_traits@_W@std@@V?$allocator@_W@2@@std@@PAPAX@?$tuple@$$QAV?$basic_string@_WU?$char_traits@_W@std@@V?$allocator@_W@2@@std@@@std@@QAE@$$QAV01@@Z ; std::tuple<std::basic_string<wchar_t,std::char_traits<wchar_t>,std::allocator<wchar_t> > &&>::tuple<std::basic_string<wchar_t,std::char_traits<wchar_t>,std::allocator<wchar_t> > &&><std::basic_string<wchar_t,std::char_traits<wchar_t>,std::allocator<wchar_t> > &&,void * *>
PUBLIC	?construct@?$allocator@V?$_List_unchecked_iterator@V?$_List_val@U?$_List_simple_types@U?$pair@$$CBV?$basic_string@_WU?$char_traits@_W@std@@V?$allocator@_W@2@@std@@H@std@@@std@@@std@@@std@@@std@@QAEXPAV?$_List_unchecked_iterator@V?$_List_val@U?$_List_simple_types@U?$pair@$$CBV?$basic_string@_WU?$char_traits@_W@std@@V?$allocator@_W@2@@std@@H@std@@@std@@@std@@@2@ABV32@@Z ; std::allocator<std::_List_unchecked_iterator<std::_List_val<std::_List_simple_types<std::pair<std::basic_string<wchar_t,std::char_traits<wchar_t>,std::allocator<wchar_t> > const ,int> > > > >::construct
PUBLIC	??$construct@V?$_List_unchecked_iterator@V?$_List_val@U?$_List_simple_types@U?$pair@$$CBV?$basic_string@_WU?$char_traits@_W@std@@V?$allocator@_W@2@@std@@H@std@@@std@@@std@@@std@@ABV12@@?$allocator_traits@V?$allocator@V?$_List_unchecked_iterator@V?$_List_val@U?$_List_simple_types@U?$pair@$$CBV?$basic_string@_WU?$char_traits@_W@std@@V?$allocator@_W@2@@std@@H@std@@@std@@@std@@@std@@@std@@@std@@SAXAAV?$allocator@V?$_List_unchecked_iterator@V?$_List_val@U?$_List_simple_types@U?$pair@$$CBV?$basic_string@_WU?$char_traits@_W@std@@V?$allocator@_W@2@@std@@H@std@@@std@@@std@@@std@@@1@PAV?$_List_unchecked_iterator@V?$_List_val@U?$_List_simple_types@U?$pair@$$CBV?$basic_string@_WU?$char_traits@_W@std@@V?$allocator@_W@2@@std@@H@std@@@std@@@std@@@1@ABV31@@Z ; std::allocator_traits<std::allocator<std::_List_unchecked_iterator<std::_List_val<std::_List_simple_types<std::pair<std::basic_string<wchar_t,std::char_traits<wchar_t>,std::allocator<wchar_t> > const ,int> > > > > >::construct<std::_List_unchecked_iterator<std::_List_val<std::_List_simple_types<std::pair<std::basic_string<wchar_t,std::char_traits<wchar_t>,std::allocator<wchar_t> > const ,int> > > >,std::_List_unchecked_iterator<std::_List_val<std::_List_simple_types<std::pair<std::basic_string<wchar_t,std::char_traits<wchar_t>,std::allocator<wchar_t> > const ,int> > > > const &>
PUBLIC	??$_Fn@U?$_Wrap_alloc@V?$allocator@V?$_List_unchecked_iterator@V?$_List_val@U?$_List_simple_types@U?$pair@$$CBV?$basic_string@_WU?$char_traits@_W@std@@V?$allocator@_W@2@@std@@H@std@@@std@@@std@@@std@@@std@@@std@@V?$_List_unchecked_iterator@V?$_List_val@U?$_List_simple_types@U?$pair@$$CBV?$basic_string@_WU?$char_traits@_W@std@@V?$allocator@_W@2@@std@@H@std@@@std@@@std@@@2@V32@@_Alloc_construct@std@@SAXHAAU?$_Wrap_alloc@V?$allocator@V?$_List_unchecked_iterator@V?$_List_val@U?$_List_simple_types@U?$pair@$$CBV?$basic_string@_WU?$char_traits@_W@std@@V?$allocator@_W@2@@std@@H@std@@@std@@@std@@@std@@@std@@@1@PAV?$_List_unchecked_iterator@V?$_List_val@U?$_List_simple_types@U?$pair@$$CBV?$basic_string@_WU?$char_traits@_W@std@@V?$allocator@_W@2@@std@@H@std@@@std@@@std@@@1@$$QAV31@@Z ; std::_Alloc_construct::_Fn<std::_Wrap_alloc<std::allocator<std::_List_unchecked_iterator<std::_List_val<std::_List_simple_types<std::pair<std::basic_string<wchar_t,std::char_traits<wchar_t>,std::allocator<wchar_t> > const ,int> > > > > >,std::_List_unchecked_iterator<std::_List_val<std::_List_simple_types<std::pair<std::basic_string<wchar_t,std::char_traits<wchar_t>,std::allocator<wchar_t> > const ,int> > > >,std::_List_unchecked_iterator<std::_List_val<std::_List_simple_types<std::pair<std::basic_string<wchar_t,std::char_traits<wchar_t>,std::allocator<wchar_t> > const ,int> > > > >
PUBLIC	??$destroy@V?$_List_unchecked_iterator@V?$_List_val@U?$_List_simple_types@U?$pair@$$CBV?$basic_string@_WU?$char_traits@_W@std@@V?$allocator@_W@2@@std@@H@std@@@std@@@std@@@std@@@?$allocator_traits@V?$allocator@V?$_List_unchecked_iterator@V?$_List_val@U?$_List_simple_types@U?$pair@$$CBV?$basic_string@_WU?$char_traits@_W@std@@V?$allocator@_W@2@@std@@H@std@@@std@@@std@@@std@@@std@@@std@@SAXAAV?$allocator@V?$_List_unchecked_iterator@V?$_List_val@U?$_List_simple_types@U?$pair@$$CBV?$basic_string@_WU?$char_traits@_W@std@@V?$allocator@_W@2@@std@@H@std@@@std@@@std@@@std@@@1@PAV?$_List_unchecked_iterator@V?$_List_val@U?$_List_simple_types@U?$pair@$$CBV?$basic_string@_WU?$char_traits@_W@std@@V?$allocator@_W@2@@std@@H@std@@@std@@@std@@@1@@Z ; std::allocator_traits<std::allocator<std::_List_unchecked_iterator<std::_List_val<std::_List_simple_types<std::pair<std::basic_string<wchar_t,std::char_traits<wchar_t>,std::allocator<wchar_t> > const ,int> > > > > >::destroy<std::_List_unchecked_iterator<std::_List_val<std::_List_simple_types<std::pair<std::basic_string<wchar_t,std::char_traits<wchar_t>,std::allocator<wchar_t> > const ,int> > > > >
PUBLIC	??$construct@U?$pair@$$CBV?$basic_string@_WU?$char_traits@_W@std@@V?$allocator@_W@2@@std@@H@std@@ABUpiecewise_construct_t@2@V?$tuple@$$QAV?$basic_string@_WU?$char_traits@_W@std@@V?$allocator@_W@2@@std@@@2@V?$tuple@$$$V@2@@?$allocator@U?$_List_node@U?$pair@$$CBV?$basic_string@_WU?$char_traits@_W@std@@V?$allocator@_W@2@@std@@H@std@@PAX@std@@@std@@QAEXPAU?$pair@$$CBV?$basic_string@_WU?$char_traits@_W@std@@V?$allocator@_W@2@@std@@H@1@ABUpiecewise_construct_t@1@$$QAV?$tuple@$$QAV?$basic_string@_WU?$char_traits@_W@std@@V?$allocator@_W@2@@std@@@1@$$QAV?$tuple@$$$V@1@@Z ; std::allocator<std::_List_node<std::pair<std::basic_string<wchar_t,std::char_traits<wchar_t>,std::allocator<wchar_t> > const ,int>,void *> >::construct<std::pair<std::basic_string<wchar_t,std::char_traits<wchar_t>,std::allocator<wchar_t> > const ,int>,std::piecewise_construct_t const &,std::tuple<std::basic_string<wchar_t,std::char_traits<wchar_t>,std::allocator<wchar_t> > &&>,std::tuple<> >
PUBLIC	??$forward@AAU?$_Callable_obj@V<lambda_da5f0f708578e290fee5fc13ec57d23a>@@$0A@@std@@@std@@YAAAU?$_Callable_obj@V<lambda_da5f0f708578e290fee5fc13ec57d23a>@@$0A@@0@AAU10@@Z ; std::forward<std::_Callable_obj<<lambda_da5f0f708578e290fee5fc13ec57d23a>,0> &>
PUBLIC	??$forward@AAU?$_Callable_obj@V<lambda_424e07199e07f172c211b579b41a0f6b>@@$0A@@std@@@std@@YAAAU?$_Callable_obj@V<lambda_424e07199e07f172c211b579b41a0f6b>@@$0A@@0@AAU10@@Z ; std::forward<std::_Callable_obj<<lambda_424e07199e07f172c211b579b41a0f6b>,0> &>
PUBLIC	??$forward@AAU?$_Callable_obj@V<lambda_8499d2186312c49ebbd56f30c74af45d>@@$0A@@std@@@std@@YAAAU?$_Callable_obj@V<lambda_8499d2186312c49ebbd56f30c74af45d>@@$0A@@0@AAU10@@Z ; std::forward<std::_Callable_obj<<lambda_8499d2186312c49ebbd56f30c74af45d>,0> &>
PUBLIC	??$forward@AAU?$_Callable_obj@V<lambda_624bb9d9f3cde644ba29e7729588d586>@@$0A@@std@@@std@@YAAAU?$_Callable_obj@V<lambda_624bb9d9f3cde644ba29e7729588d586>@@$0A@@0@AAU10@@Z ; std::forward<std::_Callable_obj<<lambda_624bb9d9f3cde644ba29e7729588d586>,0> &>
PUBLIC	??$forward@AAU?$_Callable_obj@V<lambda_0a265d9f88e42e1afeaf76e4a6ca41f3>@@$0A@@std@@@std@@YAAAU?$_Callable_obj@V<lambda_0a265d9f88e42e1afeaf76e4a6ca41f3>@@$0A@@0@AAU10@@Z ; std::forward<std::_Callable_obj<<lambda_0a265d9f88e42e1afeaf76e4a6ca41f3>,0> &>
PUBLIC	??$forward@AAU?$_Callable_obj@V<lambda_07b41efe5098b34c18964d3f394ff711>@@$0A@@std@@@std@@YAAAU?$_Callable_obj@V<lambda_07b41efe5098b34c18964d3f394ff711>@@$0A@@0@AAU10@@Z ; std::forward<std::_Callable_obj<<lambda_07b41efe5098b34c18964d3f394ff711>,0> &>
PUBLIC	??$forward@AAU?$_Callable_obj@V<lambda_c4599be8aa20546a4c0f056de45f81e0>@@$0A@@std@@@std@@YAAAU?$_Callable_obj@V<lambda_c4599be8aa20546a4c0f056de45f81e0>@@$0A@@0@AAU10@@Z ; std::forward<std::_Callable_obj<<lambda_c4599be8aa20546a4c0f056de45f81e0>,0> &>
PUBLIC	??$forward@AAU?$_Callable_obj@V<lambda_5b58d388793fe563bc112a2536ab3933>@@$0A@@std@@@std@@YAAAU?$_Callable_obj@V<lambda_5b58d388793fe563bc112a2536ab3933>@@$0A@@0@AAU10@@Z ; std::forward<std::_Callable_obj<<lambda_5b58d388793fe563bc112a2536ab3933>,0> &>
PUBLIC	??$construct@V?$_List_unchecked_iterator@V?$_List_val@U?$_List_simple_types@U?$pair@$$CBV?$basic_string@_WU?$char_traits@_W@std@@V?$allocator@_W@2@@std@@H@std@@@std@@@std@@@std@@ABV12@@?$_Wrap_alloc@V?$allocator@V?$_List_unchecked_iterator@V?$_List_val@U?$_List_simple_types@U?$pair@$$CBV?$basic_string@_WU?$char_traits@_W@std@@V?$allocator@_W@2@@std@@H@std@@@std@@@std@@@std@@@std@@@std@@QAEXPAV?$_List_unchecked_iterator@V?$_List_val@U?$_List_simple_types@U?$pair@$$CBV?$basic_string@_WU?$char_traits@_W@std@@V?$allocator@_W@2@@std@@H@std@@@std@@@std@@@1@ABV21@@Z ; std::_Wrap_alloc<std::allocator<std::_List_unchecked_iterator<std::_List_val<std::_List_simple_types<std::pair<std::basic_string<wchar_t,std::char_traits<wchar_t>,std::allocator<wchar_t> > const ,int> > > > > >::construct<std::_List_unchecked_iterator<std::_List_val<std::_List_simple_types<std::pair<std::basic_string<wchar_t,std::char_traits<wchar_t>,std::allocator<wchar_t> > const ,int> > > >,std::_List_unchecked_iterator<std::_List_val<std::_List_simple_types<std::pair<std::basic_string<wchar_t,std::char_traits<wchar_t>,std::allocator<wchar_t> > const ,int> > > > const &>
PUBLIC	??$construct@V?$_List_unchecked_iterator@V?$_List_val@U?$_List_simple_types@U?$pair@$$CBV?$basic_string@_WU?$char_traits@_W@std@@V?$allocator@_W@2@@std@@H@std@@@std@@@std@@@std@@V12@@?$allocator_traits@U?$_Wrap_alloc@V?$allocator@V?$_List_unchecked_iterator@V?$_List_val@U?$_List_simple_types@U?$pair@$$CBV?$basic_string@_WU?$char_traits@_W@std@@V?$allocator@_W@2@@std@@H@std@@@std@@@std@@@std@@@std@@@std@@@std@@SAXAAU?$_Wrap_alloc@V?$allocator@V?$_List_unchecked_iterator@V?$_List_val@U?$_List_simple_types@U?$pair@$$CBV?$basic_string@_WU?$char_traits@_W@std@@V?$allocator@_W@2@@std@@H@std@@@std@@@std@@@std@@@std@@@1@PAV?$_List_unchecked_iterator@V?$_List_val@U?$_List_simple_types@U?$pair@$$CBV?$basic_string@_WU?$char_traits@_W@std@@V?$allocator@_W@2@@std@@H@std@@@std@@@std@@@1@$$QAV31@@Z ; std::allocator_traits<std::_Wrap_alloc<std::allocator<std::_List_unchecked_iterator<std::_List_val<std::_List_simple_types<std::pair<std::basic_string<wchar_t,std::char_traits<wchar_t>,std::allocator<wchar_t> > const ,int> > > > > > >::construct<std::_List_unchecked_iterator<std::_List_val<std::_List_simple_types<std::pair<std::basic_string<wchar_t,std::char_traits<wchar_t>,std::allocator<wchar_t> > const ,int> > > >,std::_List_unchecked_iterator<std::_List_val<std::_List_simple_types<std::pair<std::basic_string<wchar_t,std::char_traits<wchar_t>,std::allocator<wchar_t> > const ,int> > > > >
PUBLIC	??$forward@V?$_List_unchecked_iterator@V?$_List_val@U?$_List_simple_types@U?$pair@$$CBV?$basic_string@_WU?$char_traits@_W@std@@V?$allocator@_W@2@@std@@H@std@@@std@@@std@@@std@@@std@@YA$$QAV?$_List_unchecked_iterator@V?$_List_val@U?$_List_simple_types@U?$pair@$$CBV?$basic_string@_WU?$char_traits@_W@std@@V?$allocator@_W@2@@std@@H@std@@@std@@@std@@@0@AAV10@@Z ; std::forward<std::_List_unchecked_iterator<std::_List_val<std::_List_simple_types<std::pair<std::basic_string<wchar_t,std::char_traits<wchar_t>,std::allocator<wchar_t> > const ,int> > > > >
PUBLIC	??$destroy@V?$_List_unchecked_iterator@V?$_List_val@U?$_List_simple_types@U?$pair@$$CBV?$basic_string@_WU?$char_traits@_W@std@@V?$allocator@_W@2@@std@@H@std@@@std@@@std@@@std@@@?$_Wrap_alloc@V?$allocator@V?$_List_unchecked_iterator@V?$_List_val@U?$_List_simple_types@U?$pair@$$CBV?$basic_string@_WU?$char_traits@_W@std@@V?$allocator@_W@2@@std@@H@std@@@std@@@std@@@std@@@std@@@std@@QAEXPAV?$_List_unchecked_iterator@V?$_List_val@U?$_List_simple_types@U?$pair@$$CBV?$basic_string@_WU?$char_traits@_W@std@@V?$allocator@_W@2@@std@@H@std@@@std@@@std@@@1@@Z ; std::_Wrap_alloc<std::allocator<std::_List_unchecked_iterator<std::_List_val<std::_List_simple_types<std::pair<std::basic_string<wchar_t,std::char_traits<wchar_t>,std::allocator<wchar_t> > const ,int> > > > > >::destroy<std::_List_unchecked_iterator<std::_List_val<std::_List_simple_types<std::pair<std::basic_string<wchar_t,std::char_traits<wchar_t>,std::allocator<wchar_t> > const ,int> > > > >
PUBLIC	??$construct@U?$pair@$$CBV?$basic_string@_WU?$char_traits@_W@std@@V?$allocator@_W@2@@std@@H@std@@ABUpiecewise_construct_t@2@V?$tuple@$$QAV?$basic_string@_WU?$char_traits@_W@std@@V?$allocator@_W@2@@std@@@2@V?$tuple@$$$V@2@@?$allocator_traits@V?$allocator@U?$_List_node@U?$pair@$$CBV?$basic_string@_WU?$char_traits@_W@std@@V?$allocator@_W@2@@std@@H@std@@PAX@std@@@std@@@std@@SAXAAV?$allocator@U?$_List_node@U?$pair@$$CBV?$basic_string@_WU?$char_traits@_W@std@@V?$allocator@_W@2@@std@@H@std@@PAX@std@@@1@PAU?$pair@$$CBV?$basic_string@_WU?$char_traits@_W@std@@V?$allocator@_W@2@@std@@H@1@ABUpiecewise_construct_t@1@$$QAV?$tuple@$$QAV?$basic_string@_WU?$char_traits@_W@std@@V?$allocator@_W@2@@std@@@1@$$QAV?$tuple@$$$V@1@@Z ; std::allocator_traits<std::allocator<std::_List_node<std::pair<std::basic_string<wchar_t,std::char_traits<wchar_t>,std::allocator<wchar_t> > const ,int>,void *> > >::construct<std::pair<std::basic_string<wchar_t,std::char_traits<wchar_t>,std::allocator<wchar_t> > const ,int>,std::piecewise_construct_t const &,std::tuple<std::basic_string<wchar_t,std::char_traits<wchar_t>,std::allocator<wchar_t> > &&>,std::tuple<> >
PUBLIC	??$_Test_callable@V<lambda_da5f0f708578e290fee5fc13ec57d23a>@@@std@@YA_NAAV<lambda_da5f0f708578e290fee5fc13ec57d23a>@@U?$integral_constant@_N$0A@@0@@Z ; std::_Test_callable<<lambda_da5f0f708578e290fee5fc13ec57d23a> >
PUBLIC	??$_Test_callable@V<lambda_424e07199e07f172c211b579b41a0f6b>@@@std@@YA_NAAV<lambda_424e07199e07f172c211b579b41a0f6b>@@U?$integral_constant@_N$0A@@0@@Z ; std::_Test_callable<<lambda_424e07199e07f172c211b579b41a0f6b> >
PUBLIC	??$_Test_callable@V<lambda_8499d2186312c49ebbd56f30c74af45d>@@@std@@YA_NAAV<lambda_8499d2186312c49ebbd56f30c74af45d>@@U?$integral_constant@_N$0A@@0@@Z ; std::_Test_callable<<lambda_8499d2186312c49ebbd56f30c74af45d> >
PUBLIC	??$_Test_callable@V<lambda_624bb9d9f3cde644ba29e7729588d586>@@@std@@YA_NAAV<lambda_624bb9d9f3cde644ba29e7729588d586>@@U?$integral_constant@_N$0A@@0@@Z ; std::_Test_callable<<lambda_624bb9d9f3cde644ba29e7729588d586> >
PUBLIC	??$_Test_callable@V<lambda_0a265d9f88e42e1afeaf76e4a6ca41f3>@@@std@@YA_NAAV<lambda_0a265d9f88e42e1afeaf76e4a6ca41f3>@@U?$integral_constant@_N$0A@@0@@Z ; std::_Test_callable<<lambda_0a265d9f88e42e1afeaf76e4a6ca41f3> >
PUBLIC	??$_Test_callable@V<lambda_07b41efe5098b34c18964d3f394ff711>@@@std@@YA_NAAV<lambda_07b41efe5098b34c18964d3f394ff711>@@U?$integral_constant@_N$0A@@0@@Z ; std::_Test_callable<<lambda_07b41efe5098b34c18964d3f394ff711> >
PUBLIC	??$_Test_callable@V<lambda_c4599be8aa20546a4c0f056de45f81e0>@@@std@@YA_NAAV<lambda_c4599be8aa20546a4c0f056de45f81e0>@@U?$integral_constant@_N$0A@@0@@Z ; std::_Test_callable<<lambda_c4599be8aa20546a4c0f056de45f81e0> >
PUBLIC	??$_Test_callable@V<lambda_5b58d388793fe563bc112a2536ab3933>@@@std@@YA_NAAV<lambda_5b58d388793fe563bc112a2536ab3933>@@U?$integral_constant@_N$0A@@0@@Z ; std::_Test_callable<<lambda_5b58d388793fe563bc112a2536ab3933> >
PUBLIC	?_Get@?$_Callable_base@V<lambda_da5f0f708578e290fee5fc13ec57d23a>@@$0A@@std@@QAEAAV<lambda_da5f0f708578e290fee5fc13ec57d23a>@@XZ ; std::_Callable_base<<lambda_da5f0f708578e290fee5fc13ec57d23a>,0>::_Get
PUBLIC	??0?$_Callable_base@V<lambda_da5f0f708578e290fee5fc13ec57d23a>@@$0A@@std@@QAE@ABV<lambda_da5f0f708578e290fee5fc13ec57d23a>@@@Z ; std::_Callable_base<<lambda_da5f0f708578e290fee5fc13ec57d23a>,0>::_Callable_base<<lambda_da5f0f708578e290fee5fc13ec57d23a>,0>
PUBLIC	?_Get@?$_Callable_base@V<lambda_424e07199e07f172c211b579b41a0f6b>@@$0A@@std@@QAEAAV<lambda_424e07199e07f172c211b579b41a0f6b>@@XZ ; std::_Callable_base<<lambda_424e07199e07f172c211b579b41a0f6b>,0>::_Get
PUBLIC	??0?$_Callable_base@V<lambda_424e07199e07f172c211b579b41a0f6b>@@$0A@@std@@QAE@ABV<lambda_424e07199e07f172c211b579b41a0f6b>@@@Z ; std::_Callable_base<<lambda_424e07199e07f172c211b579b41a0f6b>,0>::_Callable_base<<lambda_424e07199e07f172c211b579b41a0f6b>,0>
PUBLIC	?_Get@?$_Callable_base@V<lambda_8499d2186312c49ebbd56f30c74af45d>@@$0A@@std@@QAEAAV<lambda_8499d2186312c49ebbd56f30c74af45d>@@XZ ; std::_Callable_base<<lambda_8499d2186312c49ebbd56f30c74af45d>,0>::_Get
PUBLIC	??0?$_Callable_base@V<lambda_8499d2186312c49ebbd56f30c74af45d>@@$0A@@std@@QAE@ABV<lambda_8499d2186312c49ebbd56f30c74af45d>@@@Z ; std::_Callable_base<<lambda_8499d2186312c49ebbd56f30c74af45d>,0>::_Callable_base<<lambda_8499d2186312c49ebbd56f30c74af45d>,0>
PUBLIC	?_Get@?$_Callable_base@V<lambda_624bb9d9f3cde644ba29e7729588d586>@@$0A@@std@@QAEAAV<lambda_624bb9d9f3cde644ba29e7729588d586>@@XZ ; std::_Callable_base<<lambda_624bb9d9f3cde644ba29e7729588d586>,0>::_Get
PUBLIC	??0?$_Callable_base@V<lambda_624bb9d9f3cde644ba29e7729588d586>@@$0A@@std@@QAE@ABV<lambda_624bb9d9f3cde644ba29e7729588d586>@@@Z ; std::_Callable_base<<lambda_624bb9d9f3cde644ba29e7729588d586>,0>::_Callable_base<<lambda_624bb9d9f3cde644ba29e7729588d586>,0>
PUBLIC	?_Get@?$_Callable_base@V<lambda_0a265d9f88e42e1afeaf76e4a6ca41f3>@@$0A@@std@@QAEAAV<lambda_0a265d9f88e42e1afeaf76e4a6ca41f3>@@XZ ; std::_Callable_base<<lambda_0a265d9f88e42e1afeaf76e4a6ca41f3>,0>::_Get
PUBLIC	??0?$_Callable_base@V<lambda_0a265d9f88e42e1afeaf76e4a6ca41f3>@@$0A@@std@@QAE@ABV<lambda_0a265d9f88e42e1afeaf76e4a6ca41f3>@@@Z ; std::_Callable_base<<lambda_0a265d9f88e42e1afeaf76e4a6ca41f3>,0>::_Callable_base<<lambda_0a265d9f88e42e1afeaf76e4a6ca41f3>,0>
PUBLIC	?_Get@?$_Callable_base@V<lambda_07b41efe5098b34c18964d3f394ff711>@@$0A@@std@@QAEAAV<lambda_07b41efe5098b34c18964d3f394ff711>@@XZ ; std::_Callable_base<<lambda_07b41efe5098b34c18964d3f394ff711>,0>::_Get
PUBLIC	??0?$_Callable_base@V<lambda_07b41efe5098b34c18964d3f394ff711>@@$0A@@std@@QAE@ABV<lambda_07b41efe5098b34c18964d3f394ff711>@@@Z ; std::_Callable_base<<lambda_07b41efe5098b34c18964d3f394ff711>,0>::_Callable_base<<lambda_07b41efe5098b34c18964d3f394ff711>,0>
PUBLIC	?_Get@?$_Callable_base@V<lambda_c4599be8aa20546a4c0f056de45f81e0>@@$0A@@std@@QAEAAV<lambda_c4599be8aa20546a4c0f056de45f81e0>@@XZ ; std::_Callable_base<<lambda_c4599be8aa20546a4c0f056de45f81e0>,0>::_Get
PUBLIC	??0?$_Callable_base@V<lambda_c4599be8aa20546a4c0f056de45f81e0>@@$0A@@std@@QAE@ABV<lambda_c4599be8aa20546a4c0f056de45f81e0>@@@Z ; std::_Callable_base<<lambda_c4599be8aa20546a4c0f056de45f81e0>,0>::_Callable_base<<lambda_c4599be8aa20546a4c0f056de45f81e0>,0>
PUBLIC	?_Get@?$_Callable_base@V<lambda_5b58d388793fe563bc112a2536ab3933>@@$0A@@std@@QAEAAV<lambda_5b58d388793fe563bc112a2536ab3933>@@XZ ; std::_Callable_base<<lambda_5b58d388793fe563bc112a2536ab3933>,0>::_Get
PUBLIC	??0?$_Callable_base@V<lambda_5b58d388793fe563bc112a2536ab3933>@@$0A@@std@@QAE@ABV<lambda_5b58d388793fe563bc112a2536ab3933>@@@Z ; std::_Callable_base<<lambda_5b58d388793fe563bc112a2536ab3933>,0>::_Callable_base<<lambda_5b58d388793fe563bc112a2536ab3933>,0>
PUBLIC	??0?$_Callable_base@V<lambda_8499d2186312c49ebbd56f30c74af45d>@@$0A@@std@@QAE@ABU01@@Z ; std::_Callable_base<<lambda_8499d2186312c49ebbd56f30c74af45d>,0>::_Callable_base<<lambda_8499d2186312c49ebbd56f30c74af45d>,0>
PUBLIC	??0?$_Callable_base@V<lambda_07b41efe5098b34c18964d3f394ff711>@@$0A@@std@@QAE@ABU01@@Z ; std::_Callable_base<<lambda_07b41efe5098b34c18964d3f394ff711>,0>::_Callable_base<<lambda_07b41efe5098b34c18964d3f394ff711>,0>
PUBLIC	??_G?$function@$$A6AXXZ@std@@QAEPAXI@Z		; std::function<void __cdecl(void)>::`scalar deleting destructor'
PUBLIC	??$?0U?$_Callable_obj@V<lambda_da5f0f708578e290fee5fc13ec57d23a>@@$0A@@std@@@?$_Callable_obj@V<lambda_da5f0f708578e290fee5fc13ec57d23a>@@$0A@@std@@QAE@$$QAU01@@Z ; std::_Callable_obj<<lambda_da5f0f708578e290fee5fc13ec57d23a>,0>::_Callable_obj<<lambda_da5f0f708578e290fee5fc13ec57d23a>,0><std::_Callable_obj<<lambda_da5f0f708578e290fee5fc13ec57d23a>,0> >
PUBLIC	??$forward@U?$_Callable_obj@V<lambda_da5f0f708578e290fee5fc13ec57d23a>@@$0A@@std@@@std@@YA$$QAU?$_Callable_obj@V<lambda_da5f0f708578e290fee5fc13ec57d23a>@@$0A@@0@AAU10@@Z ; std::forward<std::_Callable_obj<<lambda_da5f0f708578e290fee5fc13ec57d23a>,0> >
PUBLIC	??$?0AAU?$_Callable_obj@V<lambda_da5f0f708578e290fee5fc13ec57d23a>@@$0A@@std@@@?$_Callable_obj@V<lambda_da5f0f708578e290fee5fc13ec57d23a>@@$0A@@std@@QAE@AAU01@@Z ; std::_Callable_obj<<lambda_da5f0f708578e290fee5fc13ec57d23a>,0>::_Callable_obj<<lambda_da5f0f708578e290fee5fc13ec57d23a>,0><std::_Callable_obj<<lambda_da5f0f708578e290fee5fc13ec57d23a>,0> &>
PUBLIC	??$?0U?$_Callable_obj@V<lambda_424e07199e07f172c211b579b41a0f6b>@@$0A@@std@@@?$_Callable_obj@V<lambda_424e07199e07f172c211b579b41a0f6b>@@$0A@@std@@QAE@$$QAU01@@Z ; std::_Callable_obj<<lambda_424e07199e07f172c211b579b41a0f6b>,0>::_Callable_obj<<lambda_424e07199e07f172c211b579b41a0f6b>,0><std::_Callable_obj<<lambda_424e07199e07f172c211b579b41a0f6b>,0> >
PUBLIC	??$forward@U?$_Callable_obj@V<lambda_424e07199e07f172c211b579b41a0f6b>@@$0A@@std@@@std@@YA$$QAU?$_Callable_obj@V<lambda_424e07199e07f172c211b579b41a0f6b>@@$0A@@0@AAU10@@Z ; std::forward<std::_Callable_obj<<lambda_424e07199e07f172c211b579b41a0f6b>,0> >
PUBLIC	??$?0AAU?$_Callable_obj@V<lambda_424e07199e07f172c211b579b41a0f6b>@@$0A@@std@@@?$_Callable_obj@V<lambda_424e07199e07f172c211b579b41a0f6b>@@$0A@@std@@QAE@AAU01@@Z ; std::_Callable_obj<<lambda_424e07199e07f172c211b579b41a0f6b>,0>::_Callable_obj<<lambda_424e07199e07f172c211b579b41a0f6b>,0><std::_Callable_obj<<lambda_424e07199e07f172c211b579b41a0f6b>,0> &>
PUBLIC	??$?0U?$_Callable_obj@V<lambda_8499d2186312c49ebbd56f30c74af45d>@@$0A@@std@@@?$_Callable_obj@V<lambda_8499d2186312c49ebbd56f30c74af45d>@@$0A@@std@@QAE@$$QAU01@@Z ; std::_Callable_obj<<lambda_8499d2186312c49ebbd56f30c74af45d>,0>::_Callable_obj<<lambda_8499d2186312c49ebbd56f30c74af45d>,0><std::_Callable_obj<<lambda_8499d2186312c49ebbd56f30c74af45d>,0> >
PUBLIC	??$forward@U?$_Callable_obj@V<lambda_8499d2186312c49ebbd56f30c74af45d>@@$0A@@std@@@std@@YA$$QAU?$_Callable_obj@V<lambda_8499d2186312c49ebbd56f30c74af45d>@@$0A@@0@AAU10@@Z ; std::forward<std::_Callable_obj<<lambda_8499d2186312c49ebbd56f30c74af45d>,0> >
PUBLIC	??$?0AAU?$_Callable_obj@V<lambda_8499d2186312c49ebbd56f30c74af45d>@@$0A@@std@@@?$_Callable_obj@V<lambda_8499d2186312c49ebbd56f30c74af45d>@@$0A@@std@@QAE@AAU01@@Z ; std::_Callable_obj<<lambda_8499d2186312c49ebbd56f30c74af45d>,0>::_Callable_obj<<lambda_8499d2186312c49ebbd56f30c74af45d>,0><std::_Callable_obj<<lambda_8499d2186312c49ebbd56f30c74af45d>,0> &>
PUBLIC	??$?0U?$_Callable_obj@V<lambda_624bb9d9f3cde644ba29e7729588d586>@@$0A@@std@@@?$_Callable_obj@V<lambda_624bb9d9f3cde644ba29e7729588d586>@@$0A@@std@@QAE@$$QAU01@@Z ; std::_Callable_obj<<lambda_624bb9d9f3cde644ba29e7729588d586>,0>::_Callable_obj<<lambda_624bb9d9f3cde644ba29e7729588d586>,0><std::_Callable_obj<<lambda_624bb9d9f3cde644ba29e7729588d586>,0> >
PUBLIC	??$forward@U?$_Callable_obj@V<lambda_624bb9d9f3cde644ba29e7729588d586>@@$0A@@std@@@std@@YA$$QAU?$_Callable_obj@V<lambda_624bb9d9f3cde644ba29e7729588d586>@@$0A@@0@AAU10@@Z ; std::forward<std::_Callable_obj<<lambda_624bb9d9f3cde644ba29e7729588d586>,0> >
PUBLIC	??$?0AAU?$_Callable_obj@V<lambda_624bb9d9f3cde644ba29e7729588d586>@@$0A@@std@@@?$_Callable_obj@V<lambda_624bb9d9f3cde644ba29e7729588d586>@@$0A@@std@@QAE@AAU01@@Z ; std::_Callable_obj<<lambda_624bb9d9f3cde644ba29e7729588d586>,0>::_Callable_obj<<lambda_624bb9d9f3cde644ba29e7729588d586>,0><std::_Callable_obj<<lambda_624bb9d9f3cde644ba29e7729588d586>,0> &>
PUBLIC	??$?0U?$_Callable_obj@V<lambda_0a265d9f88e42e1afeaf76e4a6ca41f3>@@$0A@@std@@@?$_Callable_obj@V<lambda_0a265d9f88e42e1afeaf76e4a6ca41f3>@@$0A@@std@@QAE@$$QAU01@@Z ; std::_Callable_obj<<lambda_0a265d9f88e42e1afeaf76e4a6ca41f3>,0>::_Callable_obj<<lambda_0a265d9f88e42e1afeaf76e4a6ca41f3>,0><std::_Callable_obj<<lambda_0a265d9f88e42e1afeaf76e4a6ca41f3>,0> >
PUBLIC	??$forward@U?$_Callable_obj@V<lambda_0a265d9f88e42e1afeaf76e4a6ca41f3>@@$0A@@std@@@std@@YA$$QAU?$_Callable_obj@V<lambda_0a265d9f88e42e1afeaf76e4a6ca41f3>@@$0A@@0@AAU10@@Z ; std::forward<std::_Callable_obj<<lambda_0a265d9f88e42e1afeaf76e4a6ca41f3>,0> >
PUBLIC	??$?0AAU?$_Callable_obj@V<lambda_0a265d9f88e42e1afeaf76e4a6ca41f3>@@$0A@@std@@@?$_Callable_obj@V<lambda_0a265d9f88e42e1afeaf76e4a6ca41f3>@@$0A@@std@@QAE@AAU01@@Z ; std::_Callable_obj<<lambda_0a265d9f88e42e1afeaf76e4a6ca41f3>,0>::_Callable_obj<<lambda_0a265d9f88e42e1afeaf76e4a6ca41f3>,0><std::_Callable_obj<<lambda_0a265d9f88e42e1afeaf76e4a6ca41f3>,0> &>
PUBLIC	??$?0U?$_Callable_obj@V<lambda_07b41efe5098b34c18964d3f394ff711>@@$0A@@std@@@?$_Callable_obj@V<lambda_07b41efe5098b34c18964d3f394ff711>@@$0A@@std@@QAE@$$QAU01@@Z ; std::_Callable_obj<<lambda_07b41efe5098b34c18964d3f394ff711>,0>::_Callable_obj<<lambda_07b41efe5098b34c18964d3f394ff711>,0><std::_Callable_obj<<lambda_07b41efe5098b34c18964d3f394ff711>,0> >
PUBLIC	??$forward@U?$_Callable_obj@V<lambda_07b41efe5098b34c18964d3f394ff711>@@$0A@@std@@@std@@YA$$QAU?$_Callable_obj@V<lambda_07b41efe5098b34c18964d3f394ff711>@@$0A@@0@AAU10@@Z ; std::forward<std::_Callable_obj<<lambda_07b41efe5098b34c18964d3f394ff711>,0> >
PUBLIC	??$?0AAU?$_Callable_obj@V<lambda_07b41efe5098b34c18964d3f394ff711>@@$0A@@std@@@?$_Callable_obj@V<lambda_07b41efe5098b34c18964d3f394ff711>@@$0A@@std@@QAE@AAU01@@Z ; std::_Callable_obj<<lambda_07b41efe5098b34c18964d3f394ff711>,0>::_Callable_obj<<lambda_07b41efe5098b34c18964d3f394ff711>,0><std::_Callable_obj<<lambda_07b41efe5098b34c18964d3f394ff711>,0> &>
PUBLIC	??$?0U?$_Callable_obj@V<lambda_c4599be8aa20546a4c0f056de45f81e0>@@$0A@@std@@@?$_Callable_obj@V<lambda_c4599be8aa20546a4c0f056de45f81e0>@@$0A@@std@@QAE@$$QAU01@@Z ; std::_Callable_obj<<lambda_c4599be8aa20546a4c0f056de45f81e0>,0>::_Callable_obj<<lambda_c4599be8aa20546a4c0f056de45f81e0>,0><std::_Callable_obj<<lambda_c4599be8aa20546a4c0f056de45f81e0>,0> >
PUBLIC	??$forward@U?$_Callable_obj@V<lambda_c4599be8aa20546a4c0f056de45f81e0>@@$0A@@std@@@std@@YA$$QAU?$_Callable_obj@V<lambda_c4599be8aa20546a4c0f056de45f81e0>@@$0A@@0@AAU10@@Z ; std::forward<std::_Callable_obj<<lambda_c4599be8aa20546a4c0f056de45f81e0>,0> >
PUBLIC	??$?0AAU?$_Callable_obj@V<lambda_c4599be8aa20546a4c0f056de45f81e0>@@$0A@@std@@@?$_Callable_obj@V<lambda_c4599be8aa20546a4c0f056de45f81e0>@@$0A@@std@@QAE@AAU01@@Z ; std::_Callable_obj<<lambda_c4599be8aa20546a4c0f056de45f81e0>,0>::_Callable_obj<<lambda_c4599be8aa20546a4c0f056de45f81e0>,0><std::_Callable_obj<<lambda_c4599be8aa20546a4c0f056de45f81e0>,0> &>
PUBLIC	??$?0U?$_Callable_obj@V<lambda_5b58d388793fe563bc112a2536ab3933>@@$0A@@std@@@?$_Callable_obj@V<lambda_5b58d388793fe563bc112a2536ab3933>@@$0A@@std@@QAE@$$QAU01@@Z ; std::_Callable_obj<<lambda_5b58d388793fe563bc112a2536ab3933>,0>::_Callable_obj<<lambda_5b58d388793fe563bc112a2536ab3933>,0><std::_Callable_obj<<lambda_5b58d388793fe563bc112a2536ab3933>,0> >
PUBLIC	??$forward@U?$_Callable_obj@V<lambda_5b58d388793fe563bc112a2536ab3933>@@$0A@@std@@@std@@YA$$QAU?$_Callable_obj@V<lambda_5b58d388793fe563bc112a2536ab3933>@@$0A@@0@AAU10@@Z ; std::forward<std::_Callable_obj<<lambda_5b58d388793fe563bc112a2536ab3933>,0> >
PUBLIC	??$?0AAU?$_Callable_obj@V<lambda_5b58d388793fe563bc112a2536ab3933>@@$0A@@std@@@?$_Callable_obj@V<lambda_5b58d388793fe563bc112a2536ab3933>@@$0A@@std@@QAE@AAU01@@Z ; std::_Callable_obj<<lambda_5b58d388793fe563bc112a2536ab3933>,0>::_Callable_obj<<lambda_5b58d388793fe563bc112a2536ab3933>,0><std::_Callable_obj<<lambda_5b58d388793fe563bc112a2536ab3933>,0> &>
PUBLIC	??$_Allocate@V?$_Func_impl@U?$_Callable_obj@V<lambda_da5f0f708578e290fee5fc13ec57d23a>@@$0A@@std@@V?$allocator@V?$_Func_class@_NUServiceIdentifier@@PAVXElement@@@std@@@2@_NUServiceIdentifier@@PAVXElement@@@std@@@std@@YAPAV?$_Func_impl@U?$_Callable_obj@V<lambda_da5f0f708578e290fee5fc13ec57d23a>@@$0A@@std@@V?$allocator@V?$_Func_class@_NUServiceIdentifier@@PAVXElement@@@std@@@2@_NUServiceIdentifier@@PAVXElement@@@0@IPAV10@@Z ; std::_Allocate<std::_Func_impl<std::_Callable_obj<<lambda_da5f0f708578e290fee5fc13ec57d23a>,0>,std::allocator<std::_Func_class<bool,ServiceIdentifier,XElement *> >,bool,ServiceIdentifier,XElement *> >
PUBLIC	??$destroy@V?$_Func_impl@U?$_Callable_obj@V<lambda_da5f0f708578e290fee5fc13ec57d23a>@@$0A@@std@@V?$allocator@V?$_Func_class@_NUServiceIdentifier@@PAVXElement@@@std@@@2@_NUServiceIdentifier@@PAVXElement@@@std@@@?$allocator@V?$_Func_impl@U?$_Callable_obj@V<lambda_da5f0f708578e290fee5fc13ec57d23a>@@$0A@@std@@V?$allocator@V?$_Func_class@_NUServiceIdentifier@@PAVXElement@@@std@@@2@_NUServiceIdentifier@@PAVXElement@@@std@@@std@@QAEXPAV?$_Func_impl@U?$_Callable_obj@V<lambda_da5f0f708578e290fee5fc13ec57d23a>@@$0A@@std@@V?$allocator@V?$_Func_class@_NUServiceIdentifier@@PAVXElement@@@std@@@2@_NUServiceIdentifier@@PAVXElement@@@1@@Z ; std::allocator<std::_Func_impl<std::_Callable_obj<<lambda_da5f0f708578e290fee5fc13ec57d23a>,0>,std::allocator<std::_Func_class<bool,ServiceIdentifier,XElement *> >,bool,ServiceIdentifier,XElement *> >::destroy<std::_Func_impl<std::_Callable_obj<<lambda_da5f0f708578e290fee5fc13ec57d23a>,0>,std::allocator<std::_Func_class<bool,ServiceIdentifier,XElement *> >,bool,ServiceIdentifier,XElement *> >
PUBLIC	??$_ApplyX@_NUServiceIdentifier@@PAVXElement@@@?$_Callable_obj@V<lambda_da5f0f708578e290fee5fc13ec57d23a>@@$0A@@std@@QAE_N$$QAUServiceIdentifier@@$$QAPAVXElement@@@Z ; std::_Callable_obj<<lambda_da5f0f708578e290fee5fc13ec57d23a>,0>::_ApplyX<bool,ServiceIdentifier,XElement *>
PUBLIC	??$move@AAV?$_Func_impl@U?$_Callable_obj@V<lambda_da5f0f708578e290fee5fc13ec57d23a>@@$0A@@std@@V?$allocator@V?$_Func_class@_NUServiceIdentifier@@PAVXElement@@@std@@@2@_NUServiceIdentifier@@PAVXElement@@@std@@@std@@YA$$QAV?$_Func_impl@U?$_Callable_obj@V<lambda_da5f0f708578e290fee5fc13ec57d23a>@@$0A@@std@@V?$allocator@V?$_Func_class@_NUServiceIdentifier@@PAVXElement@@@std@@@2@_NUServiceIdentifier@@PAVXElement@@@0@AAV10@@Z ; std::move<std::_Func_impl<std::_Callable_obj<<lambda_da5f0f708578e290fee5fc13ec57d23a>,0>,std::allocator<std::_Func_class<bool,ServiceIdentifier,XElement *> >,bool,ServiceIdentifier,XElement *> &>
PUBLIC	??$?0V<lambda_da5f0f708578e290fee5fc13ec57d23a>@@@?$_Callable_obj@V<lambda_da5f0f708578e290fee5fc13ec57d23a>@@$0A@@std@@QAE@$$QAV<lambda_da5f0f708578e290fee5fc13ec57d23a>@@@Z ; std::_Callable_obj<<lambda_da5f0f708578e290fee5fc13ec57d23a>,0>::_Callable_obj<<lambda_da5f0f708578e290fee5fc13ec57d23a>,0><<lambda_da5f0f708578e290fee5fc13ec57d23a> >
PUBLIC	??$_Allocate@V?$_Func_impl@U?$_Callable_obj@V<lambda_424e07199e07f172c211b579b41a0f6b>@@$0A@@std@@V?$allocator@V?$_Func_class@X$$$V@std@@@2@X$$$V@std@@@std@@YAPAV?$_Func_impl@U?$_Callable_obj@V<lambda_424e07199e07f172c211b579b41a0f6b>@@$0A@@std@@V?$allocator@V?$_Func_class@X$$$V@std@@@2@X$$$V@0@IPAV10@@Z ; std::_Allocate<std::_Func_impl<std::_Callable_obj<<lambda_424e07199e07f172c211b579b41a0f6b>,0>,std::allocator<std::_Func_class<void> >,void> >
PUBLIC	??$destroy@V?$_Func_impl@U?$_Callable_obj@V<lambda_424e07199e07f172c211b579b41a0f6b>@@$0A@@std@@V?$allocator@V?$_Func_class@X$$$V@std@@@2@X$$$V@std@@@?$allocator@V?$_Func_impl@U?$_Callable_obj@V<lambda_424e07199e07f172c211b579b41a0f6b>@@$0A@@std@@V?$allocator@V?$_Func_class@X$$$V@std@@@2@X$$$V@std@@@std@@QAEXPAV?$_Func_impl@U?$_Callable_obj@V<lambda_424e07199e07f172c211b579b41a0f6b>@@$0A@@std@@V?$allocator@V?$_Func_class@X$$$V@std@@@2@X$$$V@1@@Z ; std::allocator<std::_Func_impl<std::_Callable_obj<<lambda_424e07199e07f172c211b579b41a0f6b>,0>,std::allocator<std::_Func_class<void> >,void> >::destroy<std::_Func_impl<std::_Callable_obj<<lambda_424e07199e07f172c211b579b41a0f6b>,0>,std::allocator<std::_Func_class<void> >,void> >
PUBLIC	??$_ApplyX@X$$$V@?$_Callable_obj@V<lambda_424e07199e07f172c211b579b41a0f6b>@@$0A@@std@@QAEXXZ ; std::_Callable_obj<<lambda_424e07199e07f172c211b579b41a0f6b>,0>::_ApplyX<void>
PUBLIC	??$move@AAV?$_Func_impl@U?$_Callable_obj@V<lambda_424e07199e07f172c211b579b41a0f6b>@@$0A@@std@@V?$allocator@V?$_Func_class@X$$$V@std@@@2@X$$$V@std@@@std@@YA$$QAV?$_Func_impl@U?$_Callable_obj@V<lambda_424e07199e07f172c211b579b41a0f6b>@@$0A@@std@@V?$allocator@V?$_Func_class@X$$$V@std@@@2@X$$$V@0@AAV10@@Z ; std::move<std::_Func_impl<std::_Callable_obj<<lambda_424e07199e07f172c211b579b41a0f6b>,0>,std::allocator<std::_Func_class<void> >,void> &>
PUBLIC	??$?0V<lambda_424e07199e07f172c211b579b41a0f6b>@@@?$_Callable_obj@V<lambda_424e07199e07f172c211b579b41a0f6b>@@$0A@@std@@QAE@$$QAV<lambda_424e07199e07f172c211b579b41a0f6b>@@@Z ; std::_Callable_obj<<lambda_424e07199e07f172c211b579b41a0f6b>,0>::_Callable_obj<<lambda_424e07199e07f172c211b579b41a0f6b>,0><<lambda_424e07199e07f172c211b579b41a0f6b> >
PUBLIC	??$_Allocate@V?$_Func_impl@U?$_Callable_obj@V<lambda_8499d2186312c49ebbd56f30c74af45d>@@$0A@@std@@V?$allocator@V?$_Func_class@X$$$V@std@@@2@X$$$V@std@@@std@@YAPAV?$_Func_impl@U?$_Callable_obj@V<lambda_8499d2186312c49ebbd56f30c74af45d>@@$0A@@std@@V?$allocator@V?$_Func_class@X$$$V@std@@@2@X$$$V@0@IPAV10@@Z ; std::_Allocate<std::_Func_impl<std::_Callable_obj<<lambda_8499d2186312c49ebbd56f30c74af45d>,0>,std::allocator<std::_Func_class<void> >,void> >
PUBLIC	??$destroy@V?$_Func_impl@U?$_Callable_obj@V<lambda_8499d2186312c49ebbd56f30c74af45d>@@$0A@@std@@V?$allocator@V?$_Func_class@X$$$V@std@@@2@X$$$V@std@@@?$allocator@V?$_Func_impl@U?$_Callable_obj@V<lambda_8499d2186312c49ebbd56f30c74af45d>@@$0A@@std@@V?$allocator@V?$_Func_class@X$$$V@std@@@2@X$$$V@std@@@std@@QAEXPAV?$_Func_impl@U?$_Callable_obj@V<lambda_8499d2186312c49ebbd56f30c74af45d>@@$0A@@std@@V?$allocator@V?$_Func_class@X$$$V@std@@@2@X$$$V@1@@Z ; std::allocator<std::_Func_impl<std::_Callable_obj<<lambda_8499d2186312c49ebbd56f30c74af45d>,0>,std::allocator<std::_Func_class<void> >,void> >::destroy<std::_Func_impl<std::_Callable_obj<<lambda_8499d2186312c49ebbd56f30c74af45d>,0>,std::allocator<std::_Func_class<void> >,void> >
PUBLIC	??$_ApplyX@X$$$V@?$_Callable_obj@V<lambda_8499d2186312c49ebbd56f30c74af45d>@@$0A@@std@@QAEXXZ ; std::_Callable_obj<<lambda_8499d2186312c49ebbd56f30c74af45d>,0>::_ApplyX<void>
PUBLIC	??$move@AAV?$_Func_impl@U?$_Callable_obj@V<lambda_8499d2186312c49ebbd56f30c74af45d>@@$0A@@std@@V?$allocator@V?$_Func_class@X$$$V@std@@@2@X$$$V@std@@@std@@YA$$QAV?$_Func_impl@U?$_Callable_obj@V<lambda_8499d2186312c49ebbd56f30c74af45d>@@$0A@@std@@V?$allocator@V?$_Func_class@X$$$V@std@@@2@X$$$V@0@AAV10@@Z ; std::move<std::_Func_impl<std::_Callable_obj<<lambda_8499d2186312c49ebbd56f30c74af45d>,0>,std::allocator<std::_Func_class<void> >,void> &>
PUBLIC	??$?0V<lambda_8499d2186312c49ebbd56f30c74af45d>@@@?$_Callable_obj@V<lambda_8499d2186312c49ebbd56f30c74af45d>@@$0A@@std@@QAE@$$QAV<lambda_8499d2186312c49ebbd56f30c74af45d>@@@Z ; std::_Callable_obj<<lambda_8499d2186312c49ebbd56f30c74af45d>,0>::_Callable_obj<<lambda_8499d2186312c49ebbd56f30c74af45d>,0><<lambda_8499d2186312c49ebbd56f30c74af45d> >
PUBLIC	??$_Allocate@V?$_Func_impl@U?$_Callable_obj@V<lambda_624bb9d9f3cde644ba29e7729588d586>@@$0A@@std@@V?$allocator@V?$_Func_class@X$$$V@std@@@2@X$$$V@std@@@std@@YAPAV?$_Func_impl@U?$_Callable_obj@V<lambda_624bb9d9f3cde644ba29e7729588d586>@@$0A@@std@@V?$allocator@V?$_Func_class@X$$$V@std@@@2@X$$$V@0@IPAV10@@Z ; std::_Allocate<std::_Func_impl<std::_Callable_obj<<lambda_624bb9d9f3cde644ba29e7729588d586>,0>,std::allocator<std::_Func_class<void> >,void> >
PUBLIC	??$destroy@V?$_Func_impl@U?$_Callable_obj@V<lambda_624bb9d9f3cde644ba29e7729588d586>@@$0A@@std@@V?$allocator@V?$_Func_class@X$$$V@std@@@2@X$$$V@std@@@?$allocator@V?$_Func_impl@U?$_Callable_obj@V<lambda_624bb9d9f3cde644ba29e7729588d586>@@$0A@@std@@V?$allocator@V?$_Func_class@X$$$V@std@@@2@X$$$V@std@@@std@@QAEXPAV?$_Func_impl@U?$_Callable_obj@V<lambda_624bb9d9f3cde644ba29e7729588d586>@@$0A@@std@@V?$allocator@V?$_Func_class@X$$$V@std@@@2@X$$$V@1@@Z ; std::allocator<std::_Func_impl<std::_Callable_obj<<lambda_624bb9d9f3cde644ba29e7729588d586>,0>,std::allocator<std::_Func_class<void> >,void> >::destroy<std::_Func_impl<std::_Callable_obj<<lambda_624bb9d9f3cde644ba29e7729588d586>,0>,std::allocator<std::_Func_class<void> >,void> >
PUBLIC	??$_ApplyX@X$$$V@?$_Callable_obj@V<lambda_624bb9d9f3cde644ba29e7729588d586>@@$0A@@std@@QAEXXZ ; std::_Callable_obj<<lambda_624bb9d9f3cde644ba29e7729588d586>,0>::_ApplyX<void>
PUBLIC	??$move@AAV?$_Func_impl@U?$_Callable_obj@V<lambda_624bb9d9f3cde644ba29e7729588d586>@@$0A@@std@@V?$allocator@V?$_Func_class@X$$$V@std@@@2@X$$$V@std@@@std@@YA$$QAV?$_Func_impl@U?$_Callable_obj@V<lambda_624bb9d9f3cde644ba29e7729588d586>@@$0A@@std@@V?$allocator@V?$_Func_class@X$$$V@std@@@2@X$$$V@0@AAV10@@Z ; std::move<std::_Func_impl<std::_Callable_obj<<lambda_624bb9d9f3cde644ba29e7729588d586>,0>,std::allocator<std::_Func_class<void> >,void> &>
PUBLIC	??$?0V<lambda_624bb9d9f3cde644ba29e7729588d586>@@@?$_Callable_obj@V<lambda_624bb9d9f3cde644ba29e7729588d586>@@$0A@@std@@QAE@$$QAV<lambda_624bb9d9f3cde644ba29e7729588d586>@@@Z ; std::_Callable_obj<<lambda_624bb9d9f3cde644ba29e7729588d586>,0>::_Callable_obj<<lambda_624bb9d9f3cde644ba29e7729588d586>,0><<lambda_624bb9d9f3cde644ba29e7729588d586> >
PUBLIC	??$_Allocate@V?$_Func_impl@U?$_Callable_obj@V<lambda_0a265d9f88e42e1afeaf76e4a6ca41f3>@@$0A@@std@@V?$allocator@V?$_Func_class@X$$$V@std@@@2@X$$$V@std@@@std@@YAPAV?$_Func_impl@U?$_Callable_obj@V<lambda_0a265d9f88e42e1afeaf76e4a6ca41f3>@@$0A@@std@@V?$allocator@V?$_Func_class@X$$$V@std@@@2@X$$$V@0@IPAV10@@Z ; std::_Allocate<std::_Func_impl<std::_Callable_obj<<lambda_0a265d9f88e42e1afeaf76e4a6ca41f3>,0>,std::allocator<std::_Func_class<void> >,void> >
PUBLIC	??$destroy@V?$_Func_impl@U?$_Callable_obj@V<lambda_0a265d9f88e42e1afeaf76e4a6ca41f3>@@$0A@@std@@V?$allocator@V?$_Func_class@X$$$V@std@@@2@X$$$V@std@@@?$allocator@V?$_Func_impl@U?$_Callable_obj@V<lambda_0a265d9f88e42e1afeaf76e4a6ca41f3>@@$0A@@std@@V?$allocator@V?$_Func_class@X$$$V@std@@@2@X$$$V@std@@@std@@QAEXPAV?$_Func_impl@U?$_Callable_obj@V<lambda_0a265d9f88e42e1afeaf76e4a6ca41f3>@@$0A@@std@@V?$allocator@V?$_Func_class@X$$$V@std@@@2@X$$$V@1@@Z ; std::allocator<std::_Func_impl<std::_Callable_obj<<lambda_0a265d9f88e42e1afeaf76e4a6ca41f3>,0>,std::allocator<std::_Func_class<void> >,void> >::destroy<std::_Func_impl<std::_Callable_obj<<lambda_0a265d9f88e42e1afeaf76e4a6ca41f3>,0>,std::allocator<std::_Func_class<void> >,void> >
PUBLIC	??$_ApplyX@X$$$V@?$_Callable_obj@V<lambda_0a265d9f88e42e1afeaf76e4a6ca41f3>@@$0A@@std@@QAEXXZ ; std::_Callable_obj<<lambda_0a265d9f88e42e1afeaf76e4a6ca41f3>,0>::_ApplyX<void>
PUBLIC	??$move@AAV?$_Func_impl@U?$_Callable_obj@V<lambda_0a265d9f88e42e1afeaf76e4a6ca41f3>@@$0A@@std@@V?$allocator@V?$_Func_class@X$$$V@std@@@2@X$$$V@std@@@std@@YA$$QAV?$_Func_impl@U?$_Callable_obj@V<lambda_0a265d9f88e42e1afeaf76e4a6ca41f3>@@$0A@@std@@V?$allocator@V?$_Func_class@X$$$V@std@@@2@X$$$V@0@AAV10@@Z ; std::move<std::_Func_impl<std::_Callable_obj<<lambda_0a265d9f88e42e1afeaf76e4a6ca41f3>,0>,std::allocator<std::_Func_class<void> >,void> &>
PUBLIC	??$?0V<lambda_0a265d9f88e42e1afeaf76e4a6ca41f3>@@@?$_Callable_obj@V<lambda_0a265d9f88e42e1afeaf76e4a6ca41f3>@@$0A@@std@@QAE@$$QAV<lambda_0a265d9f88e42e1afeaf76e4a6ca41f3>@@@Z ; std::_Callable_obj<<lambda_0a265d9f88e42e1afeaf76e4a6ca41f3>,0>::_Callable_obj<<lambda_0a265d9f88e42e1afeaf76e4a6ca41f3>,0><<lambda_0a265d9f88e42e1afeaf76e4a6ca41f3> >
PUBLIC	??$_Allocate@V?$_Func_impl@U?$_Callable_obj@V<lambda_07b41efe5098b34c18964d3f394ff711>@@$0A@@std@@V?$allocator@V?$_Func_class@X$$$V@std@@@2@X$$$V@std@@@std@@YAPAV?$_Func_impl@U?$_Callable_obj@V<lambda_07b41efe5098b34c18964d3f394ff711>@@$0A@@std@@V?$allocator@V?$_Func_class@X$$$V@std@@@2@X$$$V@0@IPAV10@@Z ; std::_Allocate<std::_Func_impl<std::_Callable_obj<<lambda_07b41efe5098b34c18964d3f394ff711>,0>,std::allocator<std::_Func_class<void> >,void> >
PUBLIC	??$destroy@V?$_Func_impl@U?$_Callable_obj@V<lambda_07b41efe5098b34c18964d3f394ff711>@@$0A@@std@@V?$allocator@V?$_Func_class@X$$$V@std@@@2@X$$$V@std@@@?$allocator@V?$_Func_impl@U?$_Callable_obj@V<lambda_07b41efe5098b34c18964d3f394ff711>@@$0A@@std@@V?$allocator@V?$_Func_class@X$$$V@std@@@2@X$$$V@std@@@std@@QAEXPAV?$_Func_impl@U?$_Callable_obj@V<lambda_07b41efe5098b34c18964d3f394ff711>@@$0A@@std@@V?$allocator@V?$_Func_class@X$$$V@std@@@2@X$$$V@1@@Z ; std::allocator<std::_Func_impl<std::_Callable_obj<<lambda_07b41efe5098b34c18964d3f394ff711>,0>,std::allocator<std::_Func_class<void> >,void> >::destroy<std::_Func_impl<std::_Callable_obj<<lambda_07b41efe5098b34c18964d3f394ff711>,0>,std::allocator<std::_Func_class<void> >,void> >
PUBLIC	??$_ApplyX@X$$$V@?$_Callable_obj@V<lambda_07b41efe5098b34c18964d3f394ff711>@@$0A@@std@@QAEXXZ ; std::_Callable_obj<<lambda_07b41efe5098b34c18964d3f394ff711>,0>::_ApplyX<void>
PUBLIC	??$move@AAV?$_Func_impl@U?$_Callable_obj@V<lambda_07b41efe5098b34c18964d3f394ff711>@@$0A@@std@@V?$allocator@V?$_Func_class@X$$$V@std@@@2@X$$$V@std@@@std@@YA$$QAV?$_Func_impl@U?$_Callable_obj@V<lambda_07b41efe5098b34c18964d3f394ff711>@@$0A@@std@@V?$allocator@V?$_Func_class@X$$$V@std@@@2@X$$$V@0@AAV10@@Z ; std::move<std::_Func_impl<std::_Callable_obj<<lambda_07b41efe5098b34c18964d3f394ff711>,0>,std::allocator<std::_Func_class<void> >,void> &>
PUBLIC	??$?0V<lambda_07b41efe5098b34c18964d3f394ff711>@@@?$_Callable_obj@V<lambda_07b41efe5098b34c18964d3f394ff711>@@$0A@@std@@QAE@$$QAV<lambda_07b41efe5098b34c18964d3f394ff711>@@@Z ; std::_Callable_obj<<lambda_07b41efe5098b34c18964d3f394ff711>,0>::_Callable_obj<<lambda_07b41efe5098b34c18964d3f394ff711>,0><<lambda_07b41efe5098b34c18964d3f394ff711> >
PUBLIC	??$_Allocate@V?$_Func_impl@U?$_Callable_obj@V<lambda_c4599be8aa20546a4c0f056de45f81e0>@@$0A@@std@@V?$allocator@V?$_Func_class@X$$$V@std@@@2@X$$$V@std@@@std@@YAPAV?$_Func_impl@U?$_Callable_obj@V<lambda_c4599be8aa20546a4c0f056de45f81e0>@@$0A@@std@@V?$allocator@V?$_Func_class@X$$$V@std@@@2@X$$$V@0@IPAV10@@Z ; std::_Allocate<std::_Func_impl<std::_Callable_obj<<lambda_c4599be8aa20546a4c0f056de45f81e0>,0>,std::allocator<std::_Func_class<void> >,void> >
PUBLIC	??$destroy@V?$_Func_impl@U?$_Callable_obj@V<lambda_c4599be8aa20546a4c0f056de45f81e0>@@$0A@@std@@V?$allocator@V?$_Func_class@X$$$V@std@@@2@X$$$V@std@@@?$allocator@V?$_Func_impl@U?$_Callable_obj@V<lambda_c4599be8aa20546a4c0f056de45f81e0>@@$0A@@std@@V?$allocator@V?$_Func_class@X$$$V@std@@@2@X$$$V@std@@@std@@QAEXPAV?$_Func_impl@U?$_Callable_obj@V<lambda_c4599be8aa20546a4c0f056de45f81e0>@@$0A@@std@@V?$allocator@V?$_Func_class@X$$$V@std@@@2@X$$$V@1@@Z ; std::allocator<std::_Func_impl<std::_Callable_obj<<lambda_c4599be8aa20546a4c0f056de45f81e0>,0>,std::allocator<std::_Func_class<void> >,void> >::destroy<std::_Func_impl<std::_Callable_obj<<lambda_c4599be8aa20546a4c0f056de45f81e0>,0>,std::allocator<std::_Func_class<void> >,void> >
PUBLIC	??$_ApplyX@X$$$V@?$_Callable_obj@V<lambda_c4599be8aa20546a4c0f056de45f81e0>@@$0A@@std@@QAEXXZ ; std::_Callable_obj<<lambda_c4599be8aa20546a4c0f056de45f81e0>,0>::_ApplyX<void>
PUBLIC	??$move@AAV?$_Func_impl@U?$_Callable_obj@V<lambda_c4599be8aa20546a4c0f056de45f81e0>@@$0A@@std@@V?$allocator@V?$_Func_class@X$$$V@std@@@2@X$$$V@std@@@std@@YA$$QAV?$_Func_impl@U?$_Callable_obj@V<lambda_c4599be8aa20546a4c0f056de45f81e0>@@$0A@@std@@V?$allocator@V?$_Func_class@X$$$V@std@@@2@X$$$V@0@AAV10@@Z ; std::move<std::_Func_impl<std::_Callable_obj<<lambda_c4599be8aa20546a4c0f056de45f81e0>,0>,std::allocator<std::_Func_class<void> >,void> &>
PUBLIC	??$?0V<lambda_c4599be8aa20546a4c0f056de45f81e0>@@@?$_Callable_obj@V<lambda_c4599be8aa20546a4c0f056de45f81e0>@@$0A@@std@@QAE@$$QAV<lambda_c4599be8aa20546a4c0f056de45f81e0>@@@Z ; std::_Callable_obj<<lambda_c4599be8aa20546a4c0f056de45f81e0>,0>::_Callable_obj<<lambda_c4599be8aa20546a4c0f056de45f81e0>,0><<lambda_c4599be8aa20546a4c0f056de45f81e0> >
PUBLIC	??$_Allocate@V?$_Func_impl@U?$_Callable_obj@V<lambda_5b58d388793fe563bc112a2536ab3933>@@$0A@@std@@V?$allocator@V?$_Func_class@X$$$V@std@@@2@X$$$V@std@@@std@@YAPAV?$_Func_impl@U?$_Callable_obj@V<lambda_5b58d388793fe563bc112a2536ab3933>@@$0A@@std@@V?$allocator@V?$_Func_class@X$$$V@std@@@2@X$$$V@0@IPAV10@@Z ; std::_Allocate<std::_Func_impl<std::_Callable_obj<<lambda_5b58d388793fe563bc112a2536ab3933>,0>,std::allocator<std::_Func_class<void> >,void> >
PUBLIC	??$destroy@V?$_Func_impl@U?$_Callable_obj@V<lambda_5b58d388793fe563bc112a2536ab3933>@@$0A@@std@@V?$allocator@V?$_Func_class@X$$$V@std@@@2@X$$$V@std@@@?$allocator@V?$_Func_impl@U?$_Callable_obj@V<lambda_5b58d388793fe563bc112a2536ab3933>@@$0A@@std@@V?$allocator@V?$_Func_class@X$$$V@std@@@2@X$$$V@std@@@std@@QAEXPAV?$_Func_impl@U?$_Callable_obj@V<lambda_5b58d388793fe563bc112a2536ab3933>@@$0A@@std@@V?$allocator@V?$_Func_class@X$$$V@std@@@2@X$$$V@1@@Z ; std::allocator<std::_Func_impl<std::_Callable_obj<<lambda_5b58d388793fe563bc112a2536ab3933>,0>,std::allocator<std::_Func_class<void> >,void> >::destroy<std::_Func_impl<std::_Callable_obj<<lambda_5b58d388793fe563bc112a2536ab3933>,0>,std::allocator<std::_Func_class<void> >,void> >
PUBLIC	??$_ApplyX@X$$$V@?$_Callable_obj@V<lambda_5b58d388793fe563bc112a2536ab3933>@@$0A@@std@@QAEXXZ ; std::_Callable_obj<<lambda_5b58d388793fe563bc112a2536ab3933>,0>::_ApplyX<void>
PUBLIC	??$move@AAV?$_Func_impl@U?$_Callable_obj@V<lambda_5b58d388793fe563bc112a2536ab3933>@@$0A@@std@@V?$allocator@V?$_Func_class@X$$$V@std@@@2@X$$$V@std@@@std@@YA$$QAV?$_Func_impl@U?$_Callable_obj@V<lambda_5b58d388793fe563bc112a2536ab3933>@@$0A@@std@@V?$allocator@V?$_Func_class@X$$$V@std@@@2@X$$$V@0@AAV10@@Z ; std::move<std::_Func_impl<std::_Callable_obj<<lambda_5b58d388793fe563bc112a2536ab3933>,0>,std::allocator<std::_Func_class<void> >,void> &>
PUBLIC	??$?0V<lambda_5b58d388793fe563bc112a2536ab3933>@@@?$_Callable_obj@V<lambda_5b58d388793fe563bc112a2536ab3933>@@$0A@@std@@QAE@$$QAV<lambda_5b58d388793fe563bc112a2536ab3933>@@@Z ; std::_Callable_obj<<lambda_5b58d388793fe563bc112a2536ab3933>,0>::_Callable_obj<<lambda_5b58d388793fe563bc112a2536ab3933>,0><<lambda_5b58d388793fe563bc112a2536ab3933> >
PUBLIC	??$_Fn@U?$_Wrap_alloc@V?$allocator@V?$_List_unchecked_iterator@V?$_List_val@U?$_List_simple_types@U?$pair@$$CBV?$basic_string@_WU?$char_traits@_W@std@@V?$allocator@_W@2@@std@@H@std@@@std@@@std@@@std@@@std@@@std@@V?$_List_unchecked_iterator@V?$_List_val@U?$_List_simple_types@U?$pair@$$CBV?$basic_string@_WU?$char_traits@_W@std@@V?$allocator@_W@2@@std@@H@std@@@std@@@std@@@2@ABV32@@_Alloc_construct@std@@SAXHAAU?$_Wrap_alloc@V?$allocator@V?$_List_unchecked_iterator@V?$_List_val@U?$_List_simple_types@U?$pair@$$CBV?$basic_string@_WU?$char_traits@_W@std@@V?$allocator@_W@2@@std@@H@std@@@std@@@std@@@std@@@std@@@1@PAV?$_List_unchecked_iterator@V?$_List_val@U?$_List_simple_types@U?$pair@$$CBV?$basic_string@_WU?$char_traits@_W@std@@V?$allocator@_W@2@@std@@H@std@@@std@@@std@@@1@ABV31@@Z ; std::_Alloc_construct::_Fn<std::_Wrap_alloc<std::allocator<std::_List_unchecked_iterator<std::_List_val<std::_List_simple_types<std::pair<std::basic_string<wchar_t,std::char_traits<wchar_t>,std::allocator<wchar_t> > const ,int> > > > > >,std::_List_unchecked_iterator<std::_List_val<std::_List_simple_types<std::pair<std::basic_string<wchar_t,std::char_traits<wchar_t>,std::allocator<wchar_t> > const ,int> > > >,std::_List_unchecked_iterator<std::_List_val<std::_List_simple_types<std::pair<std::basic_string<wchar_t,std::char_traits<wchar_t>,std::allocator<wchar_t> > const ,int> > > > const &>
PUBLIC	??$construct@V?$_List_unchecked_iterator@V?$_List_val@U?$_List_simple_types@U?$pair@$$CBV?$basic_string@_WU?$char_traits@_W@std@@V?$allocator@_W@2@@std@@H@std@@@std@@@std@@@std@@V12@@?$_Wrap_alloc@U?$_Wrap_alloc@V?$allocator@V?$_List_unchecked_iterator@V?$_List_val@U?$_List_simple_types@U?$pair@$$CBV?$basic_string@_WU?$char_traits@_W@std@@V?$allocator@_W@2@@std@@H@std@@@std@@@std@@@std@@@std@@@std@@@std@@QAEXPAV?$_List_unchecked_iterator@V?$_List_val@U?$_List_simple_types@U?$pair@$$CBV?$basic_string@_WU?$char_traits@_W@std@@V?$allocator@_W@2@@std@@H@std@@@std@@@std@@@1@$$QAV21@@Z ; std::_Wrap_alloc<std::_Wrap_alloc<std::allocator<std::_List_unchecked_iterator<std::_List_val<std::_List_simple_types<std::pair<std::basic_string<wchar_t,std::char_traits<wchar_t>,std::allocator<wchar_t> > const ,int> > > > > > >::construct<std::_List_unchecked_iterator<std::_List_val<std::_List_simple_types<std::pair<std::basic_string<wchar_t,std::char_traits<wchar_t>,std::allocator<wchar_t> > const ,int> > > >,std::_List_unchecked_iterator<std::_List_val<std::_List_simple_types<std::pair<std::basic_string<wchar_t,std::char_traits<wchar_t>,std::allocator<wchar_t> > const ,int> > > > >
PUBLIC	??$_Fn@U?$_Wrap_alloc@V?$allocator@V?$_List_unchecked_iterator@V?$_List_val@U?$_List_simple_types@U?$pair@$$CBV?$basic_string@_WU?$char_traits@_W@std@@V?$allocator@_W@2@@std@@H@std@@@std@@@std@@@std@@@std@@@std@@V?$_List_unchecked_iterator@V?$_List_val@U?$_List_simple_types@U?$pair@$$CBV?$basic_string@_WU?$char_traits@_W@std@@V?$allocator@_W@2@@std@@H@std@@@std@@@std@@@2@@_Alloc_destroy@std@@SAXHAAU?$_Wrap_alloc@V?$allocator@V?$_List_unchecked_iterator@V?$_List_val@U?$_List_simple_types@U?$pair@$$CBV?$basic_string@_WU?$char_traits@_W@std@@V?$allocator@_W@2@@std@@H@std@@@std@@@std@@@std@@@std@@@1@PAV?$_List_unchecked_iterator@V?$_List_val@U?$_List_simple_types@U?$pair@$$CBV?$basic_string@_WU?$char_traits@_W@std@@V?$allocator@_W@2@@std@@H@std@@@std@@@std@@@1@@Z ; std::_Alloc_destroy::_Fn<std::_Wrap_alloc<std::allocator<std::_List_unchecked_iterator<std::_List_val<std::_List_simple_types<std::pair<std::basic_string<wchar_t,std::char_traits<wchar_t>,std::allocator<wchar_t> > const ,int> > > > > >,std::_List_unchecked_iterator<std::_List_val<std::_List_simple_types<std::pair<std::basic_string<wchar_t,std::char_traits<wchar_t>,std::allocator<wchar_t> > const ,int> > > > >
PUBLIC	??$destroy@V?$function@$$A6AXXZ@std@@@?$allocator@V?$function@$$A6AXXZ@std@@@std@@QAEXPAV?$function@$$A6AXXZ@1@@Z ; std::allocator<std::function<void __cdecl(void)> >::destroy<std::function<void __cdecl(void)> >
PUBLIC	??$construct@U?$pair@$$CBV?$basic_string@_WU?$char_traits@_W@std@@V?$allocator@_W@2@@std@@H@std@@ABUpiecewise_construct_t@2@V?$tuple@$$QAV?$basic_string@_WU?$char_traits@_W@std@@V?$allocator@_W@2@@std@@@2@V?$tuple@$$$V@2@@?$_Wrap_alloc@V?$allocator@U?$_List_node@U?$pair@$$CBV?$basic_string@_WU?$char_traits@_W@std@@V?$allocator@_W@2@@std@@H@std@@PAX@std@@@std@@@std@@QAEXPAU?$pair@$$CBV?$basic_string@_WU?$char_traits@_W@std@@V?$allocator@_W@2@@std@@H@1@ABUpiecewise_construct_t@1@$$QAV?$tuple@$$QAV?$basic_string@_WU?$char_traits@_W@std@@V?$allocator@_W@2@@std@@@1@$$QAV?$tuple@$$$V@1@@Z ; std::_Wrap_alloc<std::allocator<std::_List_node<std::pair<std::basic_string<wchar_t,std::char_traits<wchar_t>,std::allocator<wchar_t> > const ,int>,void *> > >::construct<std::pair<std::basic_string<wchar_t,std::char_traits<wchar_t>,std::allocator<wchar_t> > const ,int>,std::piecewise_construct_t const &,std::tuple<std::basic_string<wchar_t,std::char_traits<wchar_t>,std::allocator<wchar_t> > &&>,std::tuple<> >
PUBLIC	??$?0V?$_Func_class@_NUServiceIdentifier@@PAVXElement@@@std@@@?$allocator@V?$_Func_impl@U?$_Callable_obj@V<lambda_da5f0f708578e290fee5fc13ec57d23a>@@$0A@@std@@V?$allocator@V?$_Func_class@_NUServiceIdentifier@@PAVXElement@@@std@@@2@_NUServiceIdentifier@@PAVXElement@@@std@@@std@@QAE@ABV?$allocator@V?$_Func_class@_NUServiceIdentifier@@PAVXElement@@@std@@@1@@Z ; std::allocator<std::_Func_impl<std::_Callable_obj<<lambda_da5f0f708578e290fee5fc13ec57d23a>,0>,std::allocator<std::_Func_class<bool,ServiceIdentifier,XElement *> >,bool,ServiceIdentifier,XElement *> >::allocator<std::_Func_impl<std::_Callable_obj<<lambda_da5f0f708578e290fee5fc13ec57d23a>,0>,std::allocator<std::_Func_class<bool,ServiceIdentifier,XElement *> >,bool,ServiceIdentifier,XElement *> ><std::_Func_class<bool,ServiceIdentifier,XElement *> >
PUBLIC	??$_Test_callable@V<lambda_da5f0f708578e290fee5fc13ec57d23a>@@@std@@YA_NAAV<lambda_da5f0f708578e290fee5fc13ec57d23a>@@@Z ; std::_Test_callable<<lambda_da5f0f708578e290fee5fc13ec57d23a> >
PUBLIC	??$?0V?$_Func_class@X$$$V@std@@@?$allocator@V?$_Func_impl@U?$_Callable_obj@V<lambda_424e07199e07f172c211b579b41a0f6b>@@$0A@@std@@V?$allocator@V?$_Func_class@X$$$V@std@@@2@X$$$V@std@@@std@@QAE@ABV?$allocator@V?$_Func_class@X$$$V@std@@@1@@Z ; std::allocator<std::_Func_impl<std::_Callable_obj<<lambda_424e07199e07f172c211b579b41a0f6b>,0>,std::allocator<std::_Func_class<void> >,void> >::allocator<std::_Func_impl<std::_Callable_obj<<lambda_424e07199e07f172c211b579b41a0f6b>,0>,std::allocator<std::_Func_class<void> >,void> ><std::_Func_class<void> >
PUBLIC	??$_Test_callable@V<lambda_424e07199e07f172c211b579b41a0f6b>@@@std@@YA_NAAV<lambda_424e07199e07f172c211b579b41a0f6b>@@@Z ; std::_Test_callable<<lambda_424e07199e07f172c211b579b41a0f6b> >
PUBLIC	??$?0V?$_Func_class@X$$$V@std@@@?$allocator@V?$_Func_impl@U?$_Callable_obj@V<lambda_8499d2186312c49ebbd56f30c74af45d>@@$0A@@std@@V?$allocator@V?$_Func_class@X$$$V@std@@@2@X$$$V@std@@@std@@QAE@ABV?$allocator@V?$_Func_class@X$$$V@std@@@1@@Z ; std::allocator<std::_Func_impl<std::_Callable_obj<<lambda_8499d2186312c49ebbd56f30c74af45d>,0>,std::allocator<std::_Func_class<void> >,void> >::allocator<std::_Func_impl<std::_Callable_obj<<lambda_8499d2186312c49ebbd56f30c74af45d>,0>,std::allocator<std::_Func_class<void> >,void> ><std::_Func_class<void> >
PUBLIC	??$_Test_callable@V<lambda_8499d2186312c49ebbd56f30c74af45d>@@@std@@YA_NAAV<lambda_8499d2186312c49ebbd56f30c74af45d>@@@Z ; std::_Test_callable<<lambda_8499d2186312c49ebbd56f30c74af45d> >
PUBLIC	??$?0V?$_Func_class@X$$$V@std@@@?$allocator@V?$_Func_impl@U?$_Callable_obj@V<lambda_624bb9d9f3cde644ba29e7729588d586>@@$0A@@std@@V?$allocator@V?$_Func_class@X$$$V@std@@@2@X$$$V@std@@@std@@QAE@ABV?$allocator@V?$_Func_class@X$$$V@std@@@1@@Z ; std::allocator<std::_Func_impl<std::_Callable_obj<<lambda_624bb9d9f3cde644ba29e7729588d586>,0>,std::allocator<std::_Func_class<void> >,void> >::allocator<std::_Func_impl<std::_Callable_obj<<lambda_624bb9d9f3cde644ba29e7729588d586>,0>,std::allocator<std::_Func_class<void> >,void> ><std::_Func_class<void> >
PUBLIC	??$_Test_callable@V<lambda_624bb9d9f3cde644ba29e7729588d586>@@@std@@YA_NAAV<lambda_624bb9d9f3cde644ba29e7729588d586>@@@Z ; std::_Test_callable<<lambda_624bb9d9f3cde644ba29e7729588d586> >
PUBLIC	??$?0V?$_Func_class@X$$$V@std@@@?$allocator@V?$_Func_impl@U?$_Callable_obj@V<lambda_0a265d9f88e42e1afeaf76e4a6ca41f3>@@$0A@@std@@V?$allocator@V?$_Func_class@X$$$V@std@@@2@X$$$V@std@@@std@@QAE@ABV?$allocator@V?$_Func_class@X$$$V@std@@@1@@Z ; std::allocator<std::_Func_impl<std::_Callable_obj<<lambda_0a265d9f88e42e1afeaf76e4a6ca41f3>,0>,std::allocator<std::_Func_class<void> >,void> >::allocator<std::_Func_impl<std::_Callable_obj<<lambda_0a265d9f88e42e1afeaf76e4a6ca41f3>,0>,std::allocator<std::_Func_class<void> >,void> ><std::_Func_class<void> >
PUBLIC	??$_Test_callable@V<lambda_0a265d9f88e42e1afeaf76e4a6ca41f3>@@@std@@YA_NAAV<lambda_0a265d9f88e42e1afeaf76e4a6ca41f3>@@@Z ; std::_Test_callable<<lambda_0a265d9f88e42e1afeaf76e4a6ca41f3> >
PUBLIC	??$?0V?$_Func_class@X$$$V@std@@@?$allocator@V?$_Func_impl@U?$_Callable_obj@V<lambda_07b41efe5098b34c18964d3f394ff711>@@$0A@@std@@V?$allocator@V?$_Func_class@X$$$V@std@@@2@X$$$V@std@@@std@@QAE@ABV?$allocator@V?$_Func_class@X$$$V@std@@@1@@Z ; std::allocator<std::_Func_impl<std::_Callable_obj<<lambda_07b41efe5098b34c18964d3f394ff711>,0>,std::allocator<std::_Func_class<void> >,void> >::allocator<std::_Func_impl<std::_Callable_obj<<lambda_07b41efe5098b34c18964d3f394ff711>,0>,std::allocator<std::_Func_class<void> >,void> ><std::_Func_class<void> >
PUBLIC	??$_Test_callable@V<lambda_07b41efe5098b34c18964d3f394ff711>@@@std@@YA_NAAV<lambda_07b41efe5098b34c18964d3f394ff711>@@@Z ; std::_Test_callable<<lambda_07b41efe5098b34c18964d3f394ff711> >
PUBLIC	??$?0V?$_Func_class@X$$$V@std@@@?$allocator@V?$_Func_impl@U?$_Callable_obj@V<lambda_c4599be8aa20546a4c0f056de45f81e0>@@$0A@@std@@V?$allocator@V?$_Func_class@X$$$V@std@@@2@X$$$V@std@@@std@@QAE@ABV?$allocator@V?$_Func_class@X$$$V@std@@@1@@Z ; std::allocator<std::_Func_impl<std::_Callable_obj<<lambda_c4599be8aa20546a4c0f056de45f81e0>,0>,std::allocator<std::_Func_class<void> >,void> >::allocator<std::_Func_impl<std::_Callable_obj<<lambda_c4599be8aa20546a4c0f056de45f81e0>,0>,std::allocator<std::_Func_class<void> >,void> ><std::_Func_class<void> >
PUBLIC	??$_Test_callable@V<lambda_c4599be8aa20546a4c0f056de45f81e0>@@@std@@YA_NAAV<lambda_c4599be8aa20546a4c0f056de45f81e0>@@@Z ; std::_Test_callable<<lambda_c4599be8aa20546a4c0f056de45f81e0> >
PUBLIC	??$?0V?$_Func_class@X$$$V@std@@@?$allocator@V?$_Func_impl@U?$_Callable_obj@V<lambda_5b58d388793fe563bc112a2536ab3933>@@$0A@@std@@V?$allocator@V?$_Func_class@X$$$V@std@@@2@X$$$V@std@@@std@@QAE@ABV?$allocator@V?$_Func_class@X$$$V@std@@@1@@Z ; std::allocator<std::_Func_impl<std::_Callable_obj<<lambda_5b58d388793fe563bc112a2536ab3933>,0>,std::allocator<std::_Func_class<void> >,void> >::allocator<std::_Func_impl<std::_Callable_obj<<lambda_5b58d388793fe563bc112a2536ab3933>,0>,std::allocator<std::_Func_class<void> >,void> ><std::_Func_class<void> >
PUBLIC	??$_Test_callable@V<lambda_5b58d388793fe563bc112a2536ab3933>@@@std@@YA_NAAV<lambda_5b58d388793fe563bc112a2536ab3933>@@@Z ; std::_Test_callable<<lambda_5b58d388793fe563bc112a2536ab3933> >
PUBLIC	?deallocate@?$allocator@V?$_Func_impl@U?$_Callable_obj@V<lambda_da5f0f708578e290fee5fc13ec57d23a>@@$0A@@std@@V?$allocator@V?$_Func_class@_NUServiceIdentifier@@PAVXElement@@@std@@@2@_NUServiceIdentifier@@PAVXElement@@@std@@@std@@QAEXPAV?$_Func_impl@U?$_Callable_obj@V<lambda_da5f0f708578e290fee5fc13ec57d23a>@@$0A@@std@@V?$allocator@V?$_Func_class@_NUServiceIdentifier@@PAVXElement@@@std@@@2@_NUServiceIdentifier@@PAVXElement@@@2@I@Z ; std::allocator<std::_Func_impl<std::_Callable_obj<<lambda_da5f0f708578e290fee5fc13ec57d23a>,0>,std::allocator<std::_Func_class<bool,ServiceIdentifier,XElement *> >,bool,ServiceIdentifier,XElement *> >::deallocate
PUBLIC	??0?$allocator@V?$_Func_impl@U?$_Callable_obj@V<lambda_da5f0f708578e290fee5fc13ec57d23a>@@$0A@@std@@V?$allocator@V?$_Func_class@_NUServiceIdentifier@@PAVXElement@@@std@@@2@_NUServiceIdentifier@@PAVXElement@@@std@@@std@@QAE@ABV01@@Z ; std::allocator<std::_Func_impl<std::_Callable_obj<<lambda_da5f0f708578e290fee5fc13ec57d23a>,0>,std::allocator<std::_Func_class<bool,ServiceIdentifier,XElement *> >,bool,ServiceIdentifier,XElement *> >::allocator<std::_Func_impl<std::_Callable_obj<<lambda_da5f0f708578e290fee5fc13ec57d23a>,0>,std::allocator<std::_Func_class<bool,ServiceIdentifier,XElement *> >,bool,ServiceIdentifier,XElement *> >
PUBLIC	?_Get@?$_Callable_base@V<lambda_da5f0f708578e290fee5fc13ec57d23a>@@$0A@@std@@QBEABV<lambda_da5f0f708578e290fee5fc13ec57d23a>@@XZ ; std::_Callable_base<<lambda_da5f0f708578e290fee5fc13ec57d23a>,0>::_Get
PUBLIC	??0?$_Func_impl@U?$_Callable_obj@V<lambda_da5f0f708578e290fee5fc13ec57d23a>@@$0A@@std@@V?$allocator@V?$_Func_class@_NUServiceIdentifier@@PAVXElement@@@std@@@2@_NUServiceIdentifier@@PAVXElement@@@std@@QAE@$$QAV01@@Z ; std::_Func_impl<std::_Callable_obj<<lambda_da5f0f708578e290fee5fc13ec57d23a>,0>,std::allocator<std::_Func_class<bool,ServiceIdentifier,XElement *> >,bool,ServiceIdentifier,XElement *>::_Func_impl<std::_Callable_obj<<lambda_da5f0f708578e290fee5fc13ec57d23a>,0>,std::allocator<std::_Func_class<bool,ServiceIdentifier,XElement *> >,bool,ServiceIdentifier,XElement *>
PUBLIC	??0?$_Func_impl@U?$_Callable_obj@V<lambda_da5f0f708578e290fee5fc13ec57d23a>@@$0A@@std@@V?$allocator@V?$_Func_class@_NUServiceIdentifier@@PAVXElement@@@std@@@2@_NUServiceIdentifier@@PAVXElement@@@std@@QAE@AAV01@@Z ; std::_Func_impl<std::_Callable_obj<<lambda_da5f0f708578e290fee5fc13ec57d23a>,0>,std::allocator<std::_Func_class<bool,ServiceIdentifier,XElement *> >,bool,ServiceIdentifier,XElement *>::_Func_impl<std::_Callable_obj<<lambda_da5f0f708578e290fee5fc13ec57d23a>,0>,std::allocator<std::_Func_class<bool,ServiceIdentifier,XElement *> >,bool,ServiceIdentifier,XElement *>
PUBLIC	?deallocate@?$allocator@V?$_Func_impl@U?$_Callable_obj@V<lambda_424e07199e07f172c211b579b41a0f6b>@@$0A@@std@@V?$allocator@V?$_Func_class@X$$$V@std@@@2@X$$$V@std@@@std@@QAEXPAV?$_Func_impl@U?$_Callable_obj@V<lambda_424e07199e07f172c211b579b41a0f6b>@@$0A@@std@@V?$allocator@V?$_Func_class@X$$$V@std@@@2@X$$$V@2@I@Z ; std::allocator<std::_Func_impl<std::_Callable_obj<<lambda_424e07199e07f172c211b579b41a0f6b>,0>,std::allocator<std::_Func_class<void> >,void> >::deallocate
PUBLIC	??0?$allocator@V?$_Func_impl@U?$_Callable_obj@V<lambda_424e07199e07f172c211b579b41a0f6b>@@$0A@@std@@V?$allocator@V?$_Func_class@X$$$V@std@@@2@X$$$V@std@@@std@@QAE@ABV01@@Z ; std::allocator<std::_Func_impl<std::_Callable_obj<<lambda_424e07199e07f172c211b579b41a0f6b>,0>,std::allocator<std::_Func_class<void> >,void> >::allocator<std::_Func_impl<std::_Callable_obj<<lambda_424e07199e07f172c211b579b41a0f6b>,0>,std::allocator<std::_Func_class<void> >,void> >
PUBLIC	?_Get@?$_Callable_base@V<lambda_424e07199e07f172c211b579b41a0f6b>@@$0A@@std@@QBEABV<lambda_424e07199e07f172c211b579b41a0f6b>@@XZ ; std::_Callable_base<<lambda_424e07199e07f172c211b579b41a0f6b>,0>::_Get
PUBLIC	??0?$_Func_impl@U?$_Callable_obj@V<lambda_424e07199e07f172c211b579b41a0f6b>@@$0A@@std@@V?$allocator@V?$_Func_class@X$$$V@std@@@2@X$$$V@std@@QAE@$$QAV01@@Z ; std::_Func_impl<std::_Callable_obj<<lambda_424e07199e07f172c211b579b41a0f6b>,0>,std::allocator<std::_Func_class<void> >,void>::_Func_impl<std::_Callable_obj<<lambda_424e07199e07f172c211b579b41a0f6b>,0>,std::allocator<std::_Func_class<void> >,void>
PUBLIC	??0?$_Func_impl@U?$_Callable_obj@V<lambda_424e07199e07f172c211b579b41a0f6b>@@$0A@@std@@V?$allocator@V?$_Func_class@X$$$V@std@@@2@X$$$V@std@@QAE@AAV01@@Z ; std::_Func_impl<std::_Callable_obj<<lambda_424e07199e07f172c211b579b41a0f6b>,0>,std::allocator<std::_Func_class<void> >,void>::_Func_impl<std::_Callable_obj<<lambda_424e07199e07f172c211b579b41a0f6b>,0>,std::allocator<std::_Func_class<void> >,void>
PUBLIC	?deallocate@?$allocator@V?$_Func_impl@U?$_Callable_obj@V<lambda_8499d2186312c49ebbd56f30c74af45d>@@$0A@@std@@V?$allocator@V?$_Func_class@X$$$V@std@@@2@X$$$V@std@@@std@@QAEXPAV?$_Func_impl@U?$_Callable_obj@V<lambda_8499d2186312c49ebbd56f30c74af45d>@@$0A@@std@@V?$allocator@V?$_Func_class@X$$$V@std@@@2@X$$$V@2@I@Z ; std::allocator<std::_Func_impl<std::_Callable_obj<<lambda_8499d2186312c49ebbd56f30c74af45d>,0>,std::allocator<std::_Func_class<void> >,void> >::deallocate
PUBLIC	??0?$allocator@V?$_Func_impl@U?$_Callable_obj@V<lambda_8499d2186312c49ebbd56f30c74af45d>@@$0A@@std@@V?$allocator@V?$_Func_class@X$$$V@std@@@2@X$$$V@std@@@std@@QAE@ABV01@@Z ; std::allocator<std::_Func_impl<std::_Callable_obj<<lambda_8499d2186312c49ebbd56f30c74af45d>,0>,std::allocator<std::_Func_class<void> >,void> >::allocator<std::_Func_impl<std::_Callable_obj<<lambda_8499d2186312c49ebbd56f30c74af45d>,0>,std::allocator<std::_Func_class<void> >,void> >
PUBLIC	?_Get@?$_Callable_base@V<lambda_8499d2186312c49ebbd56f30c74af45d>@@$0A@@std@@QBEABV<lambda_8499d2186312c49ebbd56f30c74af45d>@@XZ ; std::_Callable_base<<lambda_8499d2186312c49ebbd56f30c74af45d>,0>::_Get
PUBLIC	??0?$_Func_impl@U?$_Callable_obj@V<lambda_8499d2186312c49ebbd56f30c74af45d>@@$0A@@std@@V?$allocator@V?$_Func_class@X$$$V@std@@@2@X$$$V@std@@QAE@$$QAV01@@Z ; std::_Func_impl<std::_Callable_obj<<lambda_8499d2186312c49ebbd56f30c74af45d>,0>,std::allocator<std::_Func_class<void> >,void>::_Func_impl<std::_Callable_obj<<lambda_8499d2186312c49ebbd56f30c74af45d>,0>,std::allocator<std::_Func_class<void> >,void>
PUBLIC	??0?$_Func_impl@U?$_Callable_obj@V<lambda_8499d2186312c49ebbd56f30c74af45d>@@$0A@@std@@V?$allocator@V?$_Func_class@X$$$V@std@@@2@X$$$V@std@@QAE@AAV01@@Z ; std::_Func_impl<std::_Callable_obj<<lambda_8499d2186312c49ebbd56f30c74af45d>,0>,std::allocator<std::_Func_class<void> >,void>::_Func_impl<std::_Callable_obj<<lambda_8499d2186312c49ebbd56f30c74af45d>,0>,std::allocator<std::_Func_class<void> >,void>
PUBLIC	?deallocate@?$allocator@V?$_Func_impl@U?$_Callable_obj@V<lambda_624bb9d9f3cde644ba29e7729588d586>@@$0A@@std@@V?$allocator@V?$_Func_class@X$$$V@std@@@2@X$$$V@std@@@std@@QAEXPAV?$_Func_impl@U?$_Callable_obj@V<lambda_624bb9d9f3cde644ba29e7729588d586>@@$0A@@std@@V?$allocator@V?$_Func_class@X$$$V@std@@@2@X$$$V@2@I@Z ; std::allocator<std::_Func_impl<std::_Callable_obj<<lambda_624bb9d9f3cde644ba29e7729588d586>,0>,std::allocator<std::_Func_class<void> >,void> >::deallocate
PUBLIC	??0?$allocator@V?$_Func_impl@U?$_Callable_obj@V<lambda_624bb9d9f3cde644ba29e7729588d586>@@$0A@@std@@V?$allocator@V?$_Func_class@X$$$V@std@@@2@X$$$V@std@@@std@@QAE@ABV01@@Z ; std::allocator<std::_Func_impl<std::_Callable_obj<<lambda_624bb9d9f3cde644ba29e7729588d586>,0>,std::allocator<std::_Func_class<void> >,void> >::allocator<std::_Func_impl<std::_Callable_obj<<lambda_624bb9d9f3cde644ba29e7729588d586>,0>,std::allocator<std::_Func_class<void> >,void> >
PUBLIC	?_Get@?$_Callable_base@V<lambda_624bb9d9f3cde644ba29e7729588d586>@@$0A@@std@@QBEABV<lambda_624bb9d9f3cde644ba29e7729588d586>@@XZ ; std::_Callable_base<<lambda_624bb9d9f3cde644ba29e7729588d586>,0>::_Get
PUBLIC	??0?$_Func_impl@U?$_Callable_obj@V<lambda_624bb9d9f3cde644ba29e7729588d586>@@$0A@@std@@V?$allocator@V?$_Func_class@X$$$V@std@@@2@X$$$V@std@@QAE@$$QAV01@@Z ; std::_Func_impl<std::_Callable_obj<<lambda_624bb9d9f3cde644ba29e7729588d586>,0>,std::allocator<std::_Func_class<void> >,void>::_Func_impl<std::_Callable_obj<<lambda_624bb9d9f3cde644ba29e7729588d586>,0>,std::allocator<std::_Func_class<void> >,void>
PUBLIC	??0?$_Func_impl@U?$_Callable_obj@V<lambda_624bb9d9f3cde644ba29e7729588d586>@@$0A@@std@@V?$allocator@V?$_Func_class@X$$$V@std@@@2@X$$$V@std@@QAE@AAV01@@Z ; std::_Func_impl<std::_Callable_obj<<lambda_624bb9d9f3cde644ba29e7729588d586>,0>,std::allocator<std::_Func_class<void> >,void>::_Func_impl<std::_Callable_obj<<lambda_624bb9d9f3cde644ba29e7729588d586>,0>,std::allocator<std::_Func_class<void> >,void>
PUBLIC	?deallocate@?$allocator@V?$_Func_impl@U?$_Callable_obj@V<lambda_0a265d9f88e42e1afeaf76e4a6ca41f3>@@$0A@@std@@V?$allocator@V?$_Func_class@X$$$V@std@@@2@X$$$V@std@@@std@@QAEXPAV?$_Func_impl@U?$_Callable_obj@V<lambda_0a265d9f88e42e1afeaf76e4a6ca41f3>@@$0A@@std@@V?$allocator@V?$_Func_class@X$$$V@std@@@2@X$$$V@2@I@Z ; std::allocator<std::_Func_impl<std::_Callable_obj<<lambda_0a265d9f88e42e1afeaf76e4a6ca41f3>,0>,std::allocator<std::_Func_class<void> >,void> >::deallocate
PUBLIC	??0?$allocator@V?$_Func_impl@U?$_Callable_obj@V<lambda_0a265d9f88e42e1afeaf76e4a6ca41f3>@@$0A@@std@@V?$allocator@V?$_Func_class@X$$$V@std@@@2@X$$$V@std@@@std@@QAE@ABV01@@Z ; std::allocator<std::_Func_impl<std::_Callable_obj<<lambda_0a265d9f88e42e1afeaf76e4a6ca41f3>,0>,std::allocator<std::_Func_class<void> >,void> >::allocator<std::_Func_impl<std::_Callable_obj<<lambda_0a265d9f88e42e1afeaf76e4a6ca41f3>,0>,std::allocator<std::_Func_class<void> >,void> >
PUBLIC	?_Get@?$_Callable_base@V<lambda_0a265d9f88e42e1afeaf76e4a6ca41f3>@@$0A@@std@@QBEABV<lambda_0a265d9f88e42e1afeaf76e4a6ca41f3>@@XZ ; std::_Callable_base<<lambda_0a265d9f88e42e1afeaf76e4a6ca41f3>,0>::_Get
PUBLIC	??0?$_Func_impl@U?$_Callable_obj@V<lambda_0a265d9f88e42e1afeaf76e4a6ca41f3>@@$0A@@std@@V?$allocator@V?$_Func_class@X$$$V@std@@@2@X$$$V@std@@QAE@$$QAV01@@Z ; std::_Func_impl<std::_Callable_obj<<lambda_0a265d9f88e42e1afeaf76e4a6ca41f3>,0>,std::allocator<std::_Func_class<void> >,void>::_Func_impl<std::_Callable_obj<<lambda_0a265d9f88e42e1afeaf76e4a6ca41f3>,0>,std::allocator<std::_Func_class<void> >,void>
PUBLIC	??0?$_Func_impl@U?$_Callable_obj@V<lambda_0a265d9f88e42e1afeaf76e4a6ca41f3>@@$0A@@std@@V?$allocator@V?$_Func_class@X$$$V@std@@@2@X$$$V@std@@QAE@AAV01@@Z ; std::_Func_impl<std::_Callable_obj<<lambda_0a265d9f88e42e1afeaf76e4a6ca41f3>,0>,std::allocator<std::_Func_class<void> >,void>::_Func_impl<std::_Callable_obj<<lambda_0a265d9f88e42e1afeaf76e4a6ca41f3>,0>,std::allocator<std::_Func_class<void> >,void>
PUBLIC	?deallocate@?$allocator@V?$_Func_impl@U?$_Callable_obj@V<lambda_07b41efe5098b34c18964d3f394ff711>@@$0A@@std@@V?$allocator@V?$_Func_class@X$$$V@std@@@2@X$$$V@std@@@std@@QAEXPAV?$_Func_impl@U?$_Callable_obj@V<lambda_07b41efe5098b34c18964d3f394ff711>@@$0A@@std@@V?$allocator@V?$_Func_class@X$$$V@std@@@2@X$$$V@2@I@Z ; std::allocator<std::_Func_impl<std::_Callable_obj<<lambda_07b41efe5098b34c18964d3f394ff711>,0>,std::allocator<std::_Func_class<void> >,void> >::deallocate
PUBLIC	??0?$allocator@V?$_Func_impl@U?$_Callable_obj@V<lambda_07b41efe5098b34c18964d3f394ff711>@@$0A@@std@@V?$allocator@V?$_Func_class@X$$$V@std@@@2@X$$$V@std@@@std@@QAE@ABV01@@Z ; std::allocator<std::_Func_impl<std::_Callable_obj<<lambda_07b41efe5098b34c18964d3f394ff711>,0>,std::allocator<std::_Func_class<void> >,void> >::allocator<std::_Func_impl<std::_Callable_obj<<lambda_07b41efe5098b34c18964d3f394ff711>,0>,std::allocator<std::_Func_class<void> >,void> >
PUBLIC	?_Get@?$_Callable_base@V<lambda_07b41efe5098b34c18964d3f394ff711>@@$0A@@std@@QBEABV<lambda_07b41efe5098b34c18964d3f394ff711>@@XZ ; std::_Callable_base<<lambda_07b41efe5098b34c18964d3f394ff711>,0>::_Get
PUBLIC	??0?$_Func_impl@U?$_Callable_obj@V<lambda_07b41efe5098b34c18964d3f394ff711>@@$0A@@std@@V?$allocator@V?$_Func_class@X$$$V@std@@@2@X$$$V@std@@QAE@$$QAV01@@Z ; std::_Func_impl<std::_Callable_obj<<lambda_07b41efe5098b34c18964d3f394ff711>,0>,std::allocator<std::_Func_class<void> >,void>::_Func_impl<std::_Callable_obj<<lambda_07b41efe5098b34c18964d3f394ff711>,0>,std::allocator<std::_Func_class<void> >,void>
PUBLIC	??0?$_Func_impl@U?$_Callable_obj@V<lambda_07b41efe5098b34c18964d3f394ff711>@@$0A@@std@@V?$allocator@V?$_Func_class@X$$$V@std@@@2@X$$$V@std@@QAE@AAV01@@Z ; std::_Func_impl<std::_Callable_obj<<lambda_07b41efe5098b34c18964d3f394ff711>,0>,std::allocator<std::_Func_class<void> >,void>::_Func_impl<std::_Callable_obj<<lambda_07b41efe5098b34c18964d3f394ff711>,0>,std::allocator<std::_Func_class<void> >,void>
PUBLIC	?deallocate@?$allocator@V?$_Func_impl@U?$_Callable_obj@V<lambda_c4599be8aa20546a4c0f056de45f81e0>@@$0A@@std@@V?$allocator@V?$_Func_class@X$$$V@std@@@2@X$$$V@std@@@std@@QAEXPAV?$_Func_impl@U?$_Callable_obj@V<lambda_c4599be8aa20546a4c0f056de45f81e0>@@$0A@@std@@V?$allocator@V?$_Func_class@X$$$V@std@@@2@X$$$V@2@I@Z ; std::allocator<std::_Func_impl<std::_Callable_obj<<lambda_c4599be8aa20546a4c0f056de45f81e0>,0>,std::allocator<std::_Func_class<void> >,void> >::deallocate
PUBLIC	??0?$allocator@V?$_Func_impl@U?$_Callable_obj@V<lambda_c4599be8aa20546a4c0f056de45f81e0>@@$0A@@std@@V?$allocator@V?$_Func_class@X$$$V@std@@@2@X$$$V@std@@@std@@QAE@ABV01@@Z ; std::allocator<std::_Func_impl<std::_Callable_obj<<lambda_c4599be8aa20546a4c0f056de45f81e0>,0>,std::allocator<std::_Func_class<void> >,void> >::allocator<std::_Func_impl<std::_Callable_obj<<lambda_c4599be8aa20546a4c0f056de45f81e0>,0>,std::allocator<std::_Func_class<void> >,void> >
PUBLIC	?_Get@?$_Callable_base@V<lambda_c4599be8aa20546a4c0f056de45f81e0>@@$0A@@std@@QBEABV<lambda_c4599be8aa20546a4c0f056de45f81e0>@@XZ ; std::_Callable_base<<lambda_c4599be8aa20546a4c0f056de45f81e0>,0>::_Get
PUBLIC	??0?$_Func_impl@U?$_Callable_obj@V<lambda_c4599be8aa20546a4c0f056de45f81e0>@@$0A@@std@@V?$allocator@V?$_Func_class@X$$$V@std@@@2@X$$$V@std@@QAE@$$QAV01@@Z ; std::_Func_impl<std::_Callable_obj<<lambda_c4599be8aa20546a4c0f056de45f81e0>,0>,std::allocator<std::_Func_class<void> >,void>::_Func_impl<std::_Callable_obj<<lambda_c4599be8aa20546a4c0f056de45f81e0>,0>,std::allocator<std::_Func_class<void> >,void>
PUBLIC	??0?$_Func_impl@U?$_Callable_obj@V<lambda_c4599be8aa20546a4c0f056de45f81e0>@@$0A@@std@@V?$allocator@V?$_Func_class@X$$$V@std@@@2@X$$$V@std@@QAE@AAV01@@Z ; std::_Func_impl<std::_Callable_obj<<lambda_c4599be8aa20546a4c0f056de45f81e0>,0>,std::allocator<std::_Func_class<void> >,void>::_Func_impl<std::_Callable_obj<<lambda_c4599be8aa20546a4c0f056de45f81e0>,0>,std::allocator<std::_Func_class<void> >,void>
PUBLIC	?deallocate@?$allocator@V?$_Func_impl@U?$_Callable_obj@V<lambda_5b58d388793fe563bc112a2536ab3933>@@$0A@@std@@V?$allocator@V?$_Func_class@X$$$V@std@@@2@X$$$V@std@@@std@@QAEXPAV?$_Func_impl@U?$_Callable_obj@V<lambda_5b58d388793fe563bc112a2536ab3933>@@$0A@@std@@V?$allocator@V?$_Func_class@X$$$V@std@@@2@X$$$V@2@I@Z ; std::allocator<std::_Func_impl<std::_Callable_obj<<lambda_5b58d388793fe563bc112a2536ab3933>,0>,std::allocator<std::_Func_class<void> >,void> >::deallocate
PUBLIC	??0?$allocator@V?$_Func_impl@U?$_Callable_obj@V<lambda_5b58d388793fe563bc112a2536ab3933>@@$0A@@std@@V?$allocator@V?$_Func_class@X$$$V@std@@@2@X$$$V@std@@@std@@QAE@ABV01@@Z ; std::allocator<std::_Func_impl<std::_Callable_obj<<lambda_5b58d388793fe563bc112a2536ab3933>,0>,std::allocator<std::_Func_class<void> >,void> >::allocator<std::_Func_impl<std::_Callable_obj<<lambda_5b58d388793fe563bc112a2536ab3933>,0>,std::allocator<std::_Func_class<void> >,void> >
PUBLIC	?_Get@?$_Callable_base@V<lambda_5b58d388793fe563bc112a2536ab3933>@@$0A@@std@@QBEABV<lambda_5b58d388793fe563bc112a2536ab3933>@@XZ ; std::_Callable_base<<lambda_5b58d388793fe563bc112a2536ab3933>,0>::_Get
PUBLIC	??0?$_Func_impl@U?$_Callable_obj@V<lambda_5b58d388793fe563bc112a2536ab3933>@@$0A@@std@@V?$allocator@V?$_Func_class@X$$$V@std@@@2@X$$$V@std@@QAE@$$QAV01@@Z ; std::_Func_impl<std::_Callable_obj<<lambda_5b58d388793fe563bc112a2536ab3933>,0>,std::allocator<std::_Func_class<void> >,void>::_Func_impl<std::_Callable_obj<<lambda_5b58d388793fe563bc112a2536ab3933>,0>,std::allocator<std::_Func_class<void> >,void>
PUBLIC	??0?$_Func_impl@U?$_Callable_obj@V<lambda_5b58d388793fe563bc112a2536ab3933>@@$0A@@std@@V?$allocator@V?$_Func_class@X$$$V@std@@@2@X$$$V@std@@QAE@AAV01@@Z ; std::_Func_impl<std::_Callable_obj<<lambda_5b58d388793fe563bc112a2536ab3933>,0>,std::allocator<std::_Func_class<void> >,void>::_Func_impl<std::_Callable_obj<<lambda_5b58d388793fe563bc112a2536ab3933>,0>,std::allocator<std::_Func_class<void> >,void>
PUBLIC	??1?$_Callable_base@V<lambda_8499d2186312c49ebbd56f30c74af45d>@@$0A@@std@@QAE@XZ ; std::_Callable_base<<lambda_8499d2186312c49ebbd56f30c74af45d>,0>::~_Callable_base<<lambda_8499d2186312c49ebbd56f30c74af45d>,0>
PUBLIC	??1?$_Callable_base@V<lambda_07b41efe5098b34c18964d3f394ff711>@@$0A@@std@@QAE@XZ ; std::_Callable_base<<lambda_07b41efe5098b34c18964d3f394ff711>,0>::~_Callable_base<<lambda_07b41efe5098b34c18964d3f394ff711>,0>
PUBLIC	??0?$_Func_base@_NUServiceIdentifier@@PAVXElement@@@std@@QAE@XZ ; std::_Func_base<bool,ServiceIdentifier,XElement *>::_Func_base<bool,ServiceIdentifier,XElement *>
PUBLIC	??_G?$_Func_impl@U?$_Callable_obj@V<lambda_da5f0f708578e290fee5fc13ec57d23a>@@$0A@@std@@V?$allocator@V?$_Func_class@_NUServiceIdentifier@@PAVXElement@@@std@@@2@_NUServiceIdentifier@@PAVXElement@@@std@@UAEPAXI@Z ; std::_Func_impl<std::_Callable_obj<<lambda_da5f0f708578e290fee5fc13ec57d23a>,0>,std::allocator<std::_Func_class<bool,ServiceIdentifier,XElement *> >,bool,ServiceIdentifier,XElement *>::`scalar deleting destructor'
PUBLIC	??_G?$_Func_impl@U?$_Callable_obj@V<lambda_424e07199e07f172c211b579b41a0f6b>@@$0A@@std@@V?$allocator@V?$_Func_class@X$$$V@std@@@2@X$$$V@std@@UAEPAXI@Z ; std::_Func_impl<std::_Callable_obj<<lambda_424e07199e07f172c211b579b41a0f6b>,0>,std::allocator<std::_Func_class<void> >,void>::`scalar deleting destructor'
PUBLIC	??1?$_Callable_obj@V<lambda_8499d2186312c49ebbd56f30c74af45d>@@$0A@@std@@QAE@XZ ; std::_Callable_obj<<lambda_8499d2186312c49ebbd56f30c74af45d>,0>::~_Callable_obj<<lambda_8499d2186312c49ebbd56f30c74af45d>,0>
PUBLIC	??_G?$_Func_impl@U?$_Callable_obj@V<lambda_8499d2186312c49ebbd56f30c74af45d>@@$0A@@std@@V?$allocator@V?$_Func_class@X$$$V@std@@@2@X$$$V@std@@UAEPAXI@Z ; std::_Func_impl<std::_Callable_obj<<lambda_8499d2186312c49ebbd56f30c74af45d>,0>,std::allocator<std::_Func_class<void> >,void>::`scalar deleting destructor'
PUBLIC	??_G?$_Func_impl@U?$_Callable_obj@V<lambda_624bb9d9f3cde644ba29e7729588d586>@@$0A@@std@@V?$allocator@V?$_Func_class@X$$$V@std@@@2@X$$$V@std@@UAEPAXI@Z ; std::_Func_impl<std::_Callable_obj<<lambda_624bb9d9f3cde644ba29e7729588d586>,0>,std::allocator<std::_Func_class<void> >,void>::`scalar deleting destructor'
PUBLIC	??_G?$_Func_impl@U?$_Callable_obj@V<lambda_0a265d9f88e42e1afeaf76e4a6ca41f3>@@$0A@@std@@V?$allocator@V?$_Func_class@X$$$V@std@@@2@X$$$V@std@@UAEPAXI@Z ; std::_Func_impl<std::_Callable_obj<<lambda_0a265d9f88e42e1afeaf76e4a6ca41f3>,0>,std::allocator<std::_Func_class<void> >,void>::`scalar deleting destructor'
PUBLIC	??1?$_Callable_obj@V<lambda_07b41efe5098b34c18964d3f394ff711>@@$0A@@std@@QAE@XZ ; std::_Callable_obj<<lambda_07b41efe5098b34c18964d3f394ff711>,0>::~_Callable_obj<<lambda_07b41efe5098b34c18964d3f394ff711>,0>
PUBLIC	??_G?$_Func_impl@U?$_Callable_obj@V<lambda_07b41efe5098b34c18964d3f394ff711>@@$0A@@std@@V?$allocator@V?$_Func_class@X$$$V@std@@@2@X$$$V@std@@UAEPAXI@Z ; std::_Func_impl<std::_Callable_obj<<lambda_07b41efe5098b34c18964d3f394ff711>,0>,std::allocator<std::_Func_class<void> >,void>::`scalar deleting destructor'
PUBLIC	??_G?$_Func_impl@U?$_Callable_obj@V<lambda_c4599be8aa20546a4c0f056de45f81e0>@@$0A@@std@@V?$allocator@V?$_Func_class@X$$$V@std@@@2@X$$$V@std@@UAEPAXI@Z ; std::_Func_impl<std::_Callable_obj<<lambda_c4599be8aa20546a4c0f056de45f81e0>,0>,std::allocator<std::_Func_class<void> >,void>::`scalar deleting destructor'
PUBLIC	??_G?$_Func_impl@U?$_Callable_obj@V<lambda_5b58d388793fe563bc112a2536ab3933>@@$0A@@std@@V?$allocator@V?$_Func_class@X$$$V@std@@@2@X$$$V@std@@UAEPAXI@Z ; std::_Func_impl<std::_Callable_obj<<lambda_5b58d388793fe563bc112a2536ab3933>,0>,std::allocator<std::_Func_class<void> >,void>::`scalar deleting destructor'
PUBLIC	?allocate@?$allocator@V?$_Func_impl@U?$_Callable_obj@V<lambda_da5f0f708578e290fee5fc13ec57d23a>@@$0A@@std@@V?$allocator@V?$_Func_class@_NUServiceIdentifier@@PAVXElement@@@std@@@2@_NUServiceIdentifier@@PAVXElement@@@std@@@std@@QAEPAV?$_Func_impl@U?$_Callable_obj@V<lambda_da5f0f708578e290fee5fc13ec57d23a>@@$0A@@std@@V?$allocator@V?$_Func_class@_NUServiceIdentifier@@PAVXElement@@@std@@@2@_NUServiceIdentifier@@PAVXElement@@@2@I@Z ; std::allocator<std::_Func_impl<std::_Callable_obj<<lambda_da5f0f708578e290fee5fc13ec57d23a>,0>,std::allocator<std::_Func_class<bool,ServiceIdentifier,XElement *> >,bool,ServiceIdentifier,XElement *> >::allocate
PUBLIC	??0?$allocator@V?$_Func_impl@U?$_Callable_obj@V<lambda_da5f0f708578e290fee5fc13ec57d23a>@@$0A@@std@@V?$allocator@V?$_Func_class@_NUServiceIdentifier@@PAVXElement@@@std@@@2@_NUServiceIdentifier@@PAVXElement@@@std@@@std@@QAE@XZ ; std::allocator<std::_Func_impl<std::_Callable_obj<<lambda_da5f0f708578e290fee5fc13ec57d23a>,0>,std::allocator<std::_Func_class<bool,ServiceIdentifier,XElement *> >,bool,ServiceIdentifier,XElement *> >::allocator<std::_Func_impl<std::_Callable_obj<<lambda_da5f0f708578e290fee5fc13ec57d23a>,0>,std::allocator<std::_Func_class<bool,ServiceIdentifier,XElement *> >,bool,ServiceIdentifier,XElement *> >
PUBLIC	?_Delete_this@?$_Func_impl@U?$_Callable_obj@V<lambda_da5f0f708578e290fee5fc13ec57d23a>@@$0A@@std@@V?$allocator@V?$_Func_class@_NUServiceIdentifier@@PAVXElement@@@std@@@2@_NUServiceIdentifier@@PAVXElement@@@std@@EAEX_N@Z ; std::_Func_impl<std::_Callable_obj<<lambda_da5f0f708578e290fee5fc13ec57d23a>,0>,std::allocator<std::_Func_class<bool,ServiceIdentifier,XElement *> >,bool,ServiceIdentifier,XElement *>::_Delete_this
PUBLIC	?_Get@?$_Func_impl@U?$_Callable_obj@V<lambda_da5f0f708578e290fee5fc13ec57d23a>@@$0A@@std@@V?$allocator@V?$_Func_class@_NUServiceIdentifier@@PAVXElement@@@std@@@2@_NUServiceIdentifier@@PAVXElement@@@std@@EBEPBXXZ ; std::_Func_impl<std::_Callable_obj<<lambda_da5f0f708578e290fee5fc13ec57d23a>,0>,std::allocator<std::_Func_class<bool,ServiceIdentifier,XElement *> >,bool,ServiceIdentifier,XElement *>::_Get
PUBLIC	?_Target_type@?$_Func_impl@U?$_Callable_obj@V<lambda_da5f0f708578e290fee5fc13ec57d23a>@@$0A@@std@@V?$allocator@V?$_Func_class@_NUServiceIdentifier@@PAVXElement@@@std@@@2@_NUServiceIdentifier@@PAVXElement@@@std@@UBEABVtype_info@@XZ ; std::_Func_impl<std::_Callable_obj<<lambda_da5f0f708578e290fee5fc13ec57d23a>,0>,std::allocator<std::_Func_class<bool,ServiceIdentifier,XElement *> >,bool,ServiceIdentifier,XElement *>::_Target_type
PUBLIC	?_Do_call@?$_Func_impl@U?$_Callable_obj@V<lambda_da5f0f708578e290fee5fc13ec57d23a>@@$0A@@std@@V?$allocator@V?$_Func_class@_NUServiceIdentifier@@PAVXElement@@@std@@@2@_NUServiceIdentifier@@PAVXElement@@@std@@UAE_N$$QAUServiceIdentifier@@$$QAPAVXElement@@@Z ; std::_Func_impl<std::_Callable_obj<<lambda_da5f0f708578e290fee5fc13ec57d23a>,0>,std::allocator<std::_Func_class<bool,ServiceIdentifier,XElement *> >,bool,ServiceIdentifier,XElement *>::_Do_call
PUBLIC	??1?$_Func_impl@U?$_Callable_obj@V<lambda_da5f0f708578e290fee5fc13ec57d23a>@@$0A@@std@@V?$allocator@V?$_Func_class@_NUServiceIdentifier@@PAVXElement@@@std@@@2@_NUServiceIdentifier@@PAVXElement@@@std@@UAE@XZ ; std::_Func_impl<std::_Callable_obj<<lambda_da5f0f708578e290fee5fc13ec57d23a>,0>,std::allocator<std::_Func_class<bool,ServiceIdentifier,XElement *> >,bool,ServiceIdentifier,XElement *>::~_Func_impl<std::_Callable_obj<<lambda_da5f0f708578e290fee5fc13ec57d23a>,0>,std::allocator<std::_Func_class<bool,ServiceIdentifier,XElement *> >,bool,ServiceIdentifier,XElement *>
PUBLIC	?_Move@?$_Func_impl@U?$_Callable_obj@V<lambda_da5f0f708578e290fee5fc13ec57d23a>@@$0A@@std@@V?$allocator@V?$_Func_class@_NUServiceIdentifier@@PAVXElement@@@std@@@2@_NUServiceIdentifier@@PAVXElement@@@std@@UAEPAV?$_Func_base@_NUServiceIdentifier@@PAVXElement@@@2@PAX@Z ; std::_Func_impl<std::_Callable_obj<<lambda_da5f0f708578e290fee5fc13ec57d23a>,0>,std::allocator<std::_Func_class<bool,ServiceIdentifier,XElement *> >,bool,ServiceIdentifier,XElement *>::_Move
PUBLIC	?_Copy@?$_Func_impl@U?$_Callable_obj@V<lambda_da5f0f708578e290fee5fc13ec57d23a>@@$0A@@std@@V?$allocator@V?$_Func_class@_NUServiceIdentifier@@PAVXElement@@@std@@@2@_NUServiceIdentifier@@PAVXElement@@@std@@UAEPAV?$_Func_base@_NUServiceIdentifier@@PAVXElement@@@2@PAX@Z ; std::_Func_impl<std::_Callable_obj<<lambda_da5f0f708578e290fee5fc13ec57d23a>,0>,std::allocator<std::_Func_class<bool,ServiceIdentifier,XElement *> >,bool,ServiceIdentifier,XElement *>::_Copy
PUBLIC	??0?$_Func_impl@U?$_Callable_obj@V<lambda_da5f0f708578e290fee5fc13ec57d23a>@@$0A@@std@@V?$allocator@V?$_Func_class@_NUServiceIdentifier@@PAVXElement@@@std@@@2@_NUServiceIdentifier@@PAVXElement@@@std@@QAE@$$QAV<lambda_da5f0f708578e290fee5fc13ec57d23a>@@ABV?$allocator@V?$_Func_impl@U?$_Callable_obj@V<lambda_da5f0f708578e290fee5fc13ec57d23a>@@$0A@@std@@V?$allocator@V?$_Func_class@_NUServiceIdentifier@@PAVXElement@@@std@@@2@_NUServiceIdentifier@@PAVXElement@@@std@@@1@@Z ; std::_Func_impl<std::_Callable_obj<<lambda_da5f0f708578e290fee5fc13ec57d23a>,0>,std::allocator<std::_Func_class<bool,ServiceIdentifier,XElement *> >,bool,ServiceIdentifier,XElement *>::_Func_impl<std::_Callable_obj<<lambda_da5f0f708578e290fee5fc13ec57d23a>,0>,std::allocator<std::_Func_class<bool,ServiceIdentifier,XElement *> >,bool,ServiceIdentifier,XElement *>
PUBLIC	?allocate@?$allocator@V?$_Func_impl@U?$_Callable_obj@V<lambda_424e07199e07f172c211b579b41a0f6b>@@$0A@@std@@V?$allocator@V?$_Func_class@X$$$V@std@@@2@X$$$V@std@@@std@@QAEPAV?$_Func_impl@U?$_Callable_obj@V<lambda_424e07199e07f172c211b579b41a0f6b>@@$0A@@std@@V?$allocator@V?$_Func_class@X$$$V@std@@@2@X$$$V@2@I@Z ; std::allocator<std::_Func_impl<std::_Callable_obj<<lambda_424e07199e07f172c211b579b41a0f6b>,0>,std::allocator<std::_Func_class<void> >,void> >::allocate
PUBLIC	??0?$allocator@V?$_Func_impl@U?$_Callable_obj@V<lambda_424e07199e07f172c211b579b41a0f6b>@@$0A@@std@@V?$allocator@V?$_Func_class@X$$$V@std@@@2@X$$$V@std@@@std@@QAE@XZ ; std::allocator<std::_Func_impl<std::_Callable_obj<<lambda_424e07199e07f172c211b579b41a0f6b>,0>,std::allocator<std::_Func_class<void> >,void> >::allocator<std::_Func_impl<std::_Callable_obj<<lambda_424e07199e07f172c211b579b41a0f6b>,0>,std::allocator<std::_Func_class<void> >,void> >
PUBLIC	?_Delete_this@?$_Func_impl@U?$_Callable_obj@V<lambda_424e07199e07f172c211b579b41a0f6b>@@$0A@@std@@V?$allocator@V?$_Func_class@X$$$V@std@@@2@X$$$V@std@@EAEX_N@Z ; std::_Func_impl<std::_Callable_obj<<lambda_424e07199e07f172c211b579b41a0f6b>,0>,std::allocator<std::_Func_class<void> >,void>::_Delete_this
PUBLIC	?_Get@?$_Func_impl@U?$_Callable_obj@V<lambda_424e07199e07f172c211b579b41a0f6b>@@$0A@@std@@V?$allocator@V?$_Func_class@X$$$V@std@@@2@X$$$V@std@@EBEPBXXZ ; std::_Func_impl<std::_Callable_obj<<lambda_424e07199e07f172c211b579b41a0f6b>,0>,std::allocator<std::_Func_class<void> >,void>::_Get
PUBLIC	?_Target_type@?$_Func_impl@U?$_Callable_obj@V<lambda_424e07199e07f172c211b579b41a0f6b>@@$0A@@std@@V?$allocator@V?$_Func_class@X$$$V@std@@@2@X$$$V@std@@UBEABVtype_info@@XZ ; std::_Func_impl<std::_Callable_obj<<lambda_424e07199e07f172c211b579b41a0f6b>,0>,std::allocator<std::_Func_class<void> >,void>::_Target_type
PUBLIC	?_Do_call@?$_Func_impl@U?$_Callable_obj@V<lambda_424e07199e07f172c211b579b41a0f6b>@@$0A@@std@@V?$allocator@V?$_Func_class@X$$$V@std@@@2@X$$$V@std@@UAEXXZ ; std::_Func_impl<std::_Callable_obj<<lambda_424e07199e07f172c211b579b41a0f6b>,0>,std::allocator<std::_Func_class<void> >,void>::_Do_call
PUBLIC	??1?$_Func_impl@U?$_Callable_obj@V<lambda_424e07199e07f172c211b579b41a0f6b>@@$0A@@std@@V?$allocator@V?$_Func_class@X$$$V@std@@@2@X$$$V@std@@UAE@XZ ; std::_Func_impl<std::_Callable_obj<<lambda_424e07199e07f172c211b579b41a0f6b>,0>,std::allocator<std::_Func_class<void> >,void>::~_Func_impl<std::_Callable_obj<<lambda_424e07199e07f172c211b579b41a0f6b>,0>,std::allocator<std::_Func_class<void> >,void>
PUBLIC	?_Move@?$_Func_impl@U?$_Callable_obj@V<lambda_424e07199e07f172c211b579b41a0f6b>@@$0A@@std@@V?$allocator@V?$_Func_class@X$$$V@std@@@2@X$$$V@std@@UAEPAV?$_Func_base@X$$$V@2@PAX@Z ; std::_Func_impl<std::_Callable_obj<<lambda_424e07199e07f172c211b579b41a0f6b>,0>,std::allocator<std::_Func_class<void> >,void>::_Move
PUBLIC	?_Copy@?$_Func_impl@U?$_Callable_obj@V<lambda_424e07199e07f172c211b579b41a0f6b>@@$0A@@std@@V?$allocator@V?$_Func_class@X$$$V@std@@@2@X$$$V@std@@UAEPAV?$_Func_base@X$$$V@2@PAX@Z ; std::_Func_impl<std::_Callable_obj<<lambda_424e07199e07f172c211b579b41a0f6b>,0>,std::allocator<std::_Func_class<void> >,void>::_Copy
PUBLIC	??0?$_Func_impl@U?$_Callable_obj@V<lambda_424e07199e07f172c211b579b41a0f6b>@@$0A@@std@@V?$allocator@V?$_Func_class@X$$$V@std@@@2@X$$$V@std@@QAE@$$QAV<lambda_424e07199e07f172c211b579b41a0f6b>@@ABV?$allocator@V?$_Func_impl@U?$_Callable_obj@V<lambda_424e07199e07f172c211b579b41a0f6b>@@$0A@@std@@V?$allocator@V?$_Func_class@X$$$V@std@@@2@X$$$V@std@@@1@@Z ; std::_Func_impl<std::_Callable_obj<<lambda_424e07199e07f172c211b579b41a0f6b>,0>,std::allocator<std::_Func_class<void> >,void>::_Func_impl<std::_Callable_obj<<lambda_424e07199e07f172c211b579b41a0f6b>,0>,std::allocator<std::_Func_class<void> >,void>
PUBLIC	?allocate@?$allocator@V?$_Func_impl@U?$_Callable_obj@V<lambda_8499d2186312c49ebbd56f30c74af45d>@@$0A@@std@@V?$allocator@V?$_Func_class@X$$$V@std@@@2@X$$$V@std@@@std@@QAEPAV?$_Func_impl@U?$_Callable_obj@V<lambda_8499d2186312c49ebbd56f30c74af45d>@@$0A@@std@@V?$allocator@V?$_Func_class@X$$$V@std@@@2@X$$$V@2@I@Z ; std::allocator<std::_Func_impl<std::_Callable_obj<<lambda_8499d2186312c49ebbd56f30c74af45d>,0>,std::allocator<std::_Func_class<void> >,void> >::allocate
PUBLIC	??0?$allocator@V?$_Func_impl@U?$_Callable_obj@V<lambda_8499d2186312c49ebbd56f30c74af45d>@@$0A@@std@@V?$allocator@V?$_Func_class@X$$$V@std@@@2@X$$$V@std@@@std@@QAE@XZ ; std::allocator<std::_Func_impl<std::_Callable_obj<<lambda_8499d2186312c49ebbd56f30c74af45d>,0>,std::allocator<std::_Func_class<void> >,void> >::allocator<std::_Func_impl<std::_Callable_obj<<lambda_8499d2186312c49ebbd56f30c74af45d>,0>,std::allocator<std::_Func_class<void> >,void> >
PUBLIC	?_Delete_this@?$_Func_impl@U?$_Callable_obj@V<lambda_8499d2186312c49ebbd56f30c74af45d>@@$0A@@std@@V?$allocator@V?$_Func_class@X$$$V@std@@@2@X$$$V@std@@EAEX_N@Z ; std::_Func_impl<std::_Callable_obj<<lambda_8499d2186312c49ebbd56f30c74af45d>,0>,std::allocator<std::_Func_class<void> >,void>::_Delete_this
PUBLIC	?_Get@?$_Func_impl@U?$_Callable_obj@V<lambda_8499d2186312c49ebbd56f30c74af45d>@@$0A@@std@@V?$allocator@V?$_Func_class@X$$$V@std@@@2@X$$$V@std@@EBEPBXXZ ; std::_Func_impl<std::_Callable_obj<<lambda_8499d2186312c49ebbd56f30c74af45d>,0>,std::allocator<std::_Func_class<void> >,void>::_Get
PUBLIC	?_Target_type@?$_Func_impl@U?$_Callable_obj@V<lambda_8499d2186312c49ebbd56f30c74af45d>@@$0A@@std@@V?$allocator@V?$_Func_class@X$$$V@std@@@2@X$$$V@std@@UBEABVtype_info@@XZ ; std::_Func_impl<std::_Callable_obj<<lambda_8499d2186312c49ebbd56f30c74af45d>,0>,std::allocator<std::_Func_class<void> >,void>::_Target_type
PUBLIC	?_Do_call@?$_Func_impl@U?$_Callable_obj@V<lambda_8499d2186312c49ebbd56f30c74af45d>@@$0A@@std@@V?$allocator@V?$_Func_class@X$$$V@std@@@2@X$$$V@std@@UAEXXZ ; std::_Func_impl<std::_Callable_obj<<lambda_8499d2186312c49ebbd56f30c74af45d>,0>,std::allocator<std::_Func_class<void> >,void>::_Do_call
PUBLIC	??1?$_Func_impl@U?$_Callable_obj@V<lambda_8499d2186312c49ebbd56f30c74af45d>@@$0A@@std@@V?$allocator@V?$_Func_class@X$$$V@std@@@2@X$$$V@std@@UAE@XZ ; std::_Func_impl<std::_Callable_obj<<lambda_8499d2186312c49ebbd56f30c74af45d>,0>,std::allocator<std::_Func_class<void> >,void>::~_Func_impl<std::_Callable_obj<<lambda_8499d2186312c49ebbd56f30c74af45d>,0>,std::allocator<std::_Func_class<void> >,void>
PUBLIC	?_Move@?$_Func_impl@U?$_Callable_obj@V<lambda_8499d2186312c49ebbd56f30c74af45d>@@$0A@@std@@V?$allocator@V?$_Func_class@X$$$V@std@@@2@X$$$V@std@@UAEPAV?$_Func_base@X$$$V@2@PAX@Z ; std::_Func_impl<std::_Callable_obj<<lambda_8499d2186312c49ebbd56f30c74af45d>,0>,std::allocator<std::_Func_class<void> >,void>::_Move
PUBLIC	?_Copy@?$_Func_impl@U?$_Callable_obj@V<lambda_8499d2186312c49ebbd56f30c74af45d>@@$0A@@std@@V?$allocator@V?$_Func_class@X$$$V@std@@@2@X$$$V@std@@UAEPAV?$_Func_base@X$$$V@2@PAX@Z ; std::_Func_impl<std::_Callable_obj<<lambda_8499d2186312c49ebbd56f30c74af45d>,0>,std::allocator<std::_Func_class<void> >,void>::_Copy
PUBLIC	??0?$_Func_impl@U?$_Callable_obj@V<lambda_8499d2186312c49ebbd56f30c74af45d>@@$0A@@std@@V?$allocator@V?$_Func_class@X$$$V@std@@@2@X$$$V@std@@QAE@$$QAV<lambda_8499d2186312c49ebbd56f30c74af45d>@@ABV?$allocator@V?$_Func_impl@U?$_Callable_obj@V<lambda_8499d2186312c49ebbd56f30c74af45d>@@$0A@@std@@V?$allocator@V?$_Func_class@X$$$V@std@@@2@X$$$V@std@@@1@@Z ; std::_Func_impl<std::_Callable_obj<<lambda_8499d2186312c49ebbd56f30c74af45d>,0>,std::allocator<std::_Func_class<void> >,void>::_Func_impl<std::_Callable_obj<<lambda_8499d2186312c49ebbd56f30c74af45d>,0>,std::allocator<std::_Func_class<void> >,void>
PUBLIC	?allocate@?$allocator@V?$_Func_impl@U?$_Callable_obj@V<lambda_624bb9d9f3cde644ba29e7729588d586>@@$0A@@std@@V?$allocator@V?$_Func_class@X$$$V@std@@@2@X$$$V@std@@@std@@QAEPAV?$_Func_impl@U?$_Callable_obj@V<lambda_624bb9d9f3cde644ba29e7729588d586>@@$0A@@std@@V?$allocator@V?$_Func_class@X$$$V@std@@@2@X$$$V@2@I@Z ; std::allocator<std::_Func_impl<std::_Callable_obj<<lambda_624bb9d9f3cde644ba29e7729588d586>,0>,std::allocator<std::_Func_class<void> >,void> >::allocate
PUBLIC	??0?$allocator@V?$_Func_impl@U?$_Callable_obj@V<lambda_624bb9d9f3cde644ba29e7729588d586>@@$0A@@std@@V?$allocator@V?$_Func_class@X$$$V@std@@@2@X$$$V@std@@@std@@QAE@XZ ; std::allocator<std::_Func_impl<std::_Callable_obj<<lambda_624bb9d9f3cde644ba29e7729588d586>,0>,std::allocator<std::_Func_class<void> >,void> >::allocator<std::_Func_impl<std::_Callable_obj<<lambda_624bb9d9f3cde644ba29e7729588d586>,0>,std::allocator<std::_Func_class<void> >,void> >
PUBLIC	?_Delete_this@?$_Func_impl@U?$_Callable_obj@V<lambda_624bb9d9f3cde644ba29e7729588d586>@@$0A@@std@@V?$allocator@V?$_Func_class@X$$$V@std@@@2@X$$$V@std@@EAEX_N@Z ; std::_Func_impl<std::_Callable_obj<<lambda_624bb9d9f3cde644ba29e7729588d586>,0>,std::allocator<std::_Func_class<void> >,void>::_Delete_this
PUBLIC	?_Get@?$_Func_impl@U?$_Callable_obj@V<lambda_624bb9d9f3cde644ba29e7729588d586>@@$0A@@std@@V?$allocator@V?$_Func_class@X$$$V@std@@@2@X$$$V@std@@EBEPBXXZ ; std::_Func_impl<std::_Callable_obj<<lambda_624bb9d9f3cde644ba29e7729588d586>,0>,std::allocator<std::_Func_class<void> >,void>::_Get
PUBLIC	?_Target_type@?$_Func_impl@U?$_Callable_obj@V<lambda_624bb9d9f3cde644ba29e7729588d586>@@$0A@@std@@V?$allocator@V?$_Func_class@X$$$V@std@@@2@X$$$V@std@@UBEABVtype_info@@XZ ; std::_Func_impl<std::_Callable_obj<<lambda_624bb9d9f3cde644ba29e7729588d586>,0>,std::allocator<std::_Func_class<void> >,void>::_Target_type
PUBLIC	?_Do_call@?$_Func_impl@U?$_Callable_obj@V<lambda_624bb9d9f3cde644ba29e7729588d586>@@$0A@@std@@V?$allocator@V?$_Func_class@X$$$V@std@@@2@X$$$V@std@@UAEXXZ ; std::_Func_impl<std::_Callable_obj<<lambda_624bb9d9f3cde644ba29e7729588d586>,0>,std::allocator<std::_Func_class<void> >,void>::_Do_call
PUBLIC	??1?$_Func_impl@U?$_Callable_obj@V<lambda_624bb9d9f3cde644ba29e7729588d586>@@$0A@@std@@V?$allocator@V?$_Func_class@X$$$V@std@@@2@X$$$V@std@@UAE@XZ ; std::_Func_impl<std::_Callable_obj<<lambda_624bb9d9f3cde644ba29e7729588d586>,0>,std::allocator<std::_Func_class<void> >,void>::~_Func_impl<std::_Callable_obj<<lambda_624bb9d9f3cde644ba29e7729588d586>,0>,std::allocator<std::_Func_class<void> >,void>
PUBLIC	?_Move@?$_Func_impl@U?$_Callable_obj@V<lambda_624bb9d9f3cde644ba29e7729588d586>@@$0A@@std@@V?$allocator@V?$_Func_class@X$$$V@std@@@2@X$$$V@std@@UAEPAV?$_Func_base@X$$$V@2@PAX@Z ; std::_Func_impl<std::_Callable_obj<<lambda_624bb9d9f3cde644ba29e7729588d586>,0>,std::allocator<std::_Func_class<void> >,void>::_Move
PUBLIC	?_Copy@?$_Func_impl@U?$_Callable_obj@V<lambda_624bb9d9f3cde644ba29e7729588d586>@@$0A@@std@@V?$allocator@V?$_Func_class@X$$$V@std@@@2@X$$$V@std@@UAEPAV?$_Func_base@X$$$V@2@PAX@Z ; std::_Func_impl<std::_Callable_obj<<lambda_624bb9d9f3cde644ba29e7729588d586>,0>,std::allocator<std::_Func_class<void> >,void>::_Copy
PUBLIC	??0?$_Func_impl@U?$_Callable_obj@V<lambda_624bb9d9f3cde644ba29e7729588d586>@@$0A@@std@@V?$allocator@V?$_Func_class@X$$$V@std@@@2@X$$$V@std@@QAE@$$QAV<lambda_624bb9d9f3cde644ba29e7729588d586>@@ABV?$allocator@V?$_Func_impl@U?$_Callable_obj@V<lambda_624bb9d9f3cde644ba29e7729588d586>@@$0A@@std@@V?$allocator@V?$_Func_class@X$$$V@std@@@2@X$$$V@std@@@1@@Z ; std::_Func_impl<std::_Callable_obj<<lambda_624bb9d9f3cde644ba29e7729588d586>,0>,std::allocator<std::_Func_class<void> >,void>::_Func_impl<std::_Callable_obj<<lambda_624bb9d9f3cde644ba29e7729588d586>,0>,std::allocator<std::_Func_class<void> >,void>
PUBLIC	?allocate@?$allocator@V?$_Func_impl@U?$_Callable_obj@V<lambda_0a265d9f88e42e1afeaf76e4a6ca41f3>@@$0A@@std@@V?$allocator@V?$_Func_class@X$$$V@std@@@2@X$$$V@std@@@std@@QAEPAV?$_Func_impl@U?$_Callable_obj@V<lambda_0a265d9f88e42e1afeaf76e4a6ca41f3>@@$0A@@std@@V?$allocator@V?$_Func_class@X$$$V@std@@@2@X$$$V@2@I@Z ; std::allocator<std::_Func_impl<std::_Callable_obj<<lambda_0a265d9f88e42e1afeaf76e4a6ca41f3>,0>,std::allocator<std::_Func_class<void> >,void> >::allocate
PUBLIC	??0?$allocator@V?$_Func_impl@U?$_Callable_obj@V<lambda_0a265d9f88e42e1afeaf76e4a6ca41f3>@@$0A@@std@@V?$allocator@V?$_Func_class@X$$$V@std@@@2@X$$$V@std@@@std@@QAE@XZ ; std::allocator<std::_Func_impl<std::_Callable_obj<<lambda_0a265d9f88e42e1afeaf76e4a6ca41f3>,0>,std::allocator<std::_Func_class<void> >,void> >::allocator<std::_Func_impl<std::_Callable_obj<<lambda_0a265d9f88e42e1afeaf76e4a6ca41f3>,0>,std::allocator<std::_Func_class<void> >,void> >
PUBLIC	?_Delete_this@?$_Func_impl@U?$_Callable_obj@V<lambda_0a265d9f88e42e1afeaf76e4a6ca41f3>@@$0A@@std@@V?$allocator@V?$_Func_class@X$$$V@std@@@2@X$$$V@std@@EAEX_N@Z ; std::_Func_impl<std::_Callable_obj<<lambda_0a265d9f88e42e1afeaf76e4a6ca41f3>,0>,std::allocator<std::_Func_class<void> >,void>::_Delete_this
PUBLIC	?_Get@?$_Func_impl@U?$_Callable_obj@V<lambda_0a265d9f88e42e1afeaf76e4a6ca41f3>@@$0A@@std@@V?$allocator@V?$_Func_class@X$$$V@std@@@2@X$$$V@std@@EBEPBXXZ ; std::_Func_impl<std::_Callable_obj<<lambda_0a265d9f88e42e1afeaf76e4a6ca41f3>,0>,std::allocator<std::_Func_class<void> >,void>::_Get
PUBLIC	?_Target_type@?$_Func_impl@U?$_Callable_obj@V<lambda_0a265d9f88e42e1afeaf76e4a6ca41f3>@@$0A@@std@@V?$allocator@V?$_Func_class@X$$$V@std@@@2@X$$$V@std@@UBEABVtype_info@@XZ ; std::_Func_impl<std::_Callable_obj<<lambda_0a265d9f88e42e1afeaf76e4a6ca41f3>,0>,std::allocator<std::_Func_class<void> >,void>::_Target_type
PUBLIC	?_Do_call@?$_Func_impl@U?$_Callable_obj@V<lambda_0a265d9f88e42e1afeaf76e4a6ca41f3>@@$0A@@std@@V?$allocator@V?$_Func_class@X$$$V@std@@@2@X$$$V@std@@UAEXXZ ; std::_Func_impl<std::_Callable_obj<<lambda_0a265d9f88e42e1afeaf76e4a6ca41f3>,0>,std::allocator<std::_Func_class<void> >,void>::_Do_call
PUBLIC	??1?$_Func_impl@U?$_Callable_obj@V<lambda_0a265d9f88e42e1afeaf76e4a6ca41f3>@@$0A@@std@@V?$allocator@V?$_Func_class@X$$$V@std@@@2@X$$$V@std@@UAE@XZ ; std::_Func_impl<std::_Callable_obj<<lambda_0a265d9f88e42e1afeaf76e4a6ca41f3>,0>,std::allocator<std::_Func_class<void> >,void>::~_Func_impl<std::_Callable_obj<<lambda_0a265d9f88e42e1afeaf76e4a6ca41f3>,0>,std::allocator<std::_Func_class<void> >,void>
PUBLIC	?_Move@?$_Func_impl@U?$_Callable_obj@V<lambda_0a265d9f88e42e1afeaf76e4a6ca41f3>@@$0A@@std@@V?$allocator@V?$_Func_class@X$$$V@std@@@2@X$$$V@std@@UAEPAV?$_Func_base@X$$$V@2@PAX@Z ; std::_Func_impl<std::_Callable_obj<<lambda_0a265d9f88e42e1afeaf76e4a6ca41f3>,0>,std::allocator<std::_Func_class<void> >,void>::_Move
PUBLIC	?_Copy@?$_Func_impl@U?$_Callable_obj@V<lambda_0a265d9f88e42e1afeaf76e4a6ca41f3>@@$0A@@std@@V?$allocator@V?$_Func_class@X$$$V@std@@@2@X$$$V@std@@UAEPAV?$_Func_base@X$$$V@2@PAX@Z ; std::_Func_impl<std::_Callable_obj<<lambda_0a265d9f88e42e1afeaf76e4a6ca41f3>,0>,std::allocator<std::_Func_class<void> >,void>::_Copy
PUBLIC	??0?$_Func_impl@U?$_Callable_obj@V<lambda_0a265d9f88e42e1afeaf76e4a6ca41f3>@@$0A@@std@@V?$allocator@V?$_Func_class@X$$$V@std@@@2@X$$$V@std@@QAE@$$QAV<lambda_0a265d9f88e42e1afeaf76e4a6ca41f3>@@ABV?$allocator@V?$_Func_impl@U?$_Callable_obj@V<lambda_0a265d9f88e42e1afeaf76e4a6ca41f3>@@$0A@@std@@V?$allocator@V?$_Func_class@X$$$V@std@@@2@X$$$V@std@@@1@@Z ; std::_Func_impl<std::_Callable_obj<<lambda_0a265d9f88e42e1afeaf76e4a6ca41f3>,0>,std::allocator<std::_Func_class<void> >,void>::_Func_impl<std::_Callable_obj<<lambda_0a265d9f88e42e1afeaf76e4a6ca41f3>,0>,std::allocator<std::_Func_class<void> >,void>
PUBLIC	?allocate@?$allocator@V?$_Func_impl@U?$_Callable_obj@V<lambda_07b41efe5098b34c18964d3f394ff711>@@$0A@@std@@V?$allocator@V?$_Func_class@X$$$V@std@@@2@X$$$V@std@@@std@@QAEPAV?$_Func_impl@U?$_Callable_obj@V<lambda_07b41efe5098b34c18964d3f394ff711>@@$0A@@std@@V?$allocator@V?$_Func_class@X$$$V@std@@@2@X$$$V@2@I@Z ; std::allocator<std::_Func_impl<std::_Callable_obj<<lambda_07b41efe5098b34c18964d3f394ff711>,0>,std::allocator<std::_Func_class<void> >,void> >::allocate
PUBLIC	??0?$allocator@V?$_Func_impl@U?$_Callable_obj@V<lambda_07b41efe5098b34c18964d3f394ff711>@@$0A@@std@@V?$allocator@V?$_Func_class@X$$$V@std@@@2@X$$$V@std@@@std@@QAE@XZ ; std::allocator<std::_Func_impl<std::_Callable_obj<<lambda_07b41efe5098b34c18964d3f394ff711>,0>,std::allocator<std::_Func_class<void> >,void> >::allocator<std::_Func_impl<std::_Callable_obj<<lambda_07b41efe5098b34c18964d3f394ff711>,0>,std::allocator<std::_Func_class<void> >,void> >
PUBLIC	?_Delete_this@?$_Func_impl@U?$_Callable_obj@V<lambda_07b41efe5098b34c18964d3f394ff711>@@$0A@@std@@V?$allocator@V?$_Func_class@X$$$V@std@@@2@X$$$V@std@@EAEX_N@Z ; std::_Func_impl<std::_Callable_obj<<lambda_07b41efe5098b34c18964d3f394ff711>,0>,std::allocator<std::_Func_class<void> >,void>::_Delete_this
PUBLIC	?_Get@?$_Func_impl@U?$_Callable_obj@V<lambda_07b41efe5098b34c18964d3f394ff711>@@$0A@@std@@V?$allocator@V?$_Func_class@X$$$V@std@@@2@X$$$V@std@@EBEPBXXZ ; std::_Func_impl<std::_Callable_obj<<lambda_07b41efe5098b34c18964d3f394ff711>,0>,std::allocator<std::_Func_class<void> >,void>::_Get
PUBLIC	?_Target_type@?$_Func_impl@U?$_Callable_obj@V<lambda_07b41efe5098b34c18964d3f394ff711>@@$0A@@std@@V?$allocator@V?$_Func_class@X$$$V@std@@@2@X$$$V@std@@UBEABVtype_info@@XZ ; std::_Func_impl<std::_Callable_obj<<lambda_07b41efe5098b34c18964d3f394ff711>,0>,std::allocator<std::_Func_class<void> >,void>::_Target_type
PUBLIC	?_Do_call@?$_Func_impl@U?$_Callable_obj@V<lambda_07b41efe5098b34c18964d3f394ff711>@@$0A@@std@@V?$allocator@V?$_Func_class@X$$$V@std@@@2@X$$$V@std@@UAEXXZ ; std::_Func_impl<std::_Callable_obj<<lambda_07b41efe5098b34c18964d3f394ff711>,0>,std::allocator<std::_Func_class<void> >,void>::_Do_call
PUBLIC	??1?$_Func_impl@U?$_Callable_obj@V<lambda_07b41efe5098b34c18964d3f394ff711>@@$0A@@std@@V?$allocator@V?$_Func_class@X$$$V@std@@@2@X$$$V@std@@UAE@XZ ; std::_Func_impl<std::_Callable_obj<<lambda_07b41efe5098b34c18964d3f394ff711>,0>,std::allocator<std::_Func_class<void> >,void>::~_Func_impl<std::_Callable_obj<<lambda_07b41efe5098b34c18964d3f394ff711>,0>,std::allocator<std::_Func_class<void> >,void>
PUBLIC	?_Move@?$_Func_impl@U?$_Callable_obj@V<lambda_07b41efe5098b34c18964d3f394ff711>@@$0A@@std@@V?$allocator@V?$_Func_class@X$$$V@std@@@2@X$$$V@std@@UAEPAV?$_Func_base@X$$$V@2@PAX@Z ; std::_Func_impl<std::_Callable_obj<<lambda_07b41efe5098b34c18964d3f394ff711>,0>,std::allocator<std::_Func_class<void> >,void>::_Move
PUBLIC	?_Copy@?$_Func_impl@U?$_Callable_obj@V<lambda_07b41efe5098b34c18964d3f394ff711>@@$0A@@std@@V?$allocator@V?$_Func_class@X$$$V@std@@@2@X$$$V@std@@UAEPAV?$_Func_base@X$$$V@2@PAX@Z ; std::_Func_impl<std::_Callable_obj<<lambda_07b41efe5098b34c18964d3f394ff711>,0>,std::allocator<std::_Func_class<void> >,void>::_Copy
PUBLIC	??0?$_Func_impl@U?$_Callable_obj@V<lambda_07b41efe5098b34c18964d3f394ff711>@@$0A@@std@@V?$allocator@V?$_Func_class@X$$$V@std@@@2@X$$$V@std@@QAE@$$QAV<lambda_07b41efe5098b34c18964d3f394ff711>@@ABV?$allocator@V?$_Func_impl@U?$_Callable_obj@V<lambda_07b41efe5098b34c18964d3f394ff711>@@$0A@@std@@V?$allocator@V?$_Func_class@X$$$V@std@@@2@X$$$V@std@@@1@@Z ; std::_Func_impl<std::_Callable_obj<<lambda_07b41efe5098b34c18964d3f394ff711>,0>,std::allocator<std::_Func_class<void> >,void>::_Func_impl<std::_Callable_obj<<lambda_07b41efe5098b34c18964d3f394ff711>,0>,std::allocator<std::_Func_class<void> >,void>
PUBLIC	?allocate@?$allocator@V?$_Func_impl@U?$_Callable_obj@V<lambda_c4599be8aa20546a4c0f056de45f81e0>@@$0A@@std@@V?$allocator@V?$_Func_class@X$$$V@std@@@2@X$$$V@std@@@std@@QAEPAV?$_Func_impl@U?$_Callable_obj@V<lambda_c4599be8aa20546a4c0f056de45f81e0>@@$0A@@std@@V?$allocator@V?$_Func_class@X$$$V@std@@@2@X$$$V@2@I@Z ; std::allocator<std::_Func_impl<std::_Callable_obj<<lambda_c4599be8aa20546a4c0f056de45f81e0>,0>,std::allocator<std::_Func_class<void> >,void> >::allocate
PUBLIC	??0?$allocator@V?$_Func_impl@U?$_Callable_obj@V<lambda_c4599be8aa20546a4c0f056de45f81e0>@@$0A@@std@@V?$allocator@V?$_Func_class@X$$$V@std@@@2@X$$$V@std@@@std@@QAE@XZ ; std::allocator<std::_Func_impl<std::_Callable_obj<<lambda_c4599be8aa20546a4c0f056de45f81e0>,0>,std::allocator<std::_Func_class<void> >,void> >::allocator<std::_Func_impl<std::_Callable_obj<<lambda_c4599be8aa20546a4c0f056de45f81e0>,0>,std::allocator<std::_Func_class<void> >,void> >
PUBLIC	?_Delete_this@?$_Func_impl@U?$_Callable_obj@V<lambda_c4599be8aa20546a4c0f056de45f81e0>@@$0A@@std@@V?$allocator@V?$_Func_class@X$$$V@std@@@2@X$$$V@std@@EAEX_N@Z ; std::_Func_impl<std::_Callable_obj<<lambda_c4599be8aa20546a4c0f056de45f81e0>,0>,std::allocator<std::_Func_class<void> >,void>::_Delete_this
PUBLIC	?_Get@?$_Func_impl@U?$_Callable_obj@V<lambda_c4599be8aa20546a4c0f056de45f81e0>@@$0A@@std@@V?$allocator@V?$_Func_class@X$$$V@std@@@2@X$$$V@std@@EBEPBXXZ ; std::_Func_impl<std::_Callable_obj<<lambda_c4599be8aa20546a4c0f056de45f81e0>,0>,std::allocator<std::_Func_class<void> >,void>::_Get
PUBLIC	?_Target_type@?$_Func_impl@U?$_Callable_obj@V<lambda_c4599be8aa20546a4c0f056de45f81e0>@@$0A@@std@@V?$allocator@V?$_Func_class@X$$$V@std@@@2@X$$$V@std@@UBEABVtype_info@@XZ ; std::_Func_impl<std::_Callable_obj<<lambda_c4599be8aa20546a4c0f056de45f81e0>,0>,std::allocator<std::_Func_class<void> >,void>::_Target_type
PUBLIC	?_Do_call@?$_Func_impl@U?$_Callable_obj@V<lambda_c4599be8aa20546a4c0f056de45f81e0>@@$0A@@std@@V?$allocator@V?$_Func_class@X$$$V@std@@@2@X$$$V@std@@UAEXXZ ; std::_Func_impl<std::_Callable_obj<<lambda_c4599be8aa20546a4c0f056de45f81e0>,0>,std::allocator<std::_Func_class<void> >,void>::_Do_call
PUBLIC	??1?$_Func_impl@U?$_Callable_obj@V<lambda_c4599be8aa20546a4c0f056de45f81e0>@@$0A@@std@@V?$allocator@V?$_Func_class@X$$$V@std@@@2@X$$$V@std@@UAE@XZ ; std::_Func_impl<std::_Callable_obj<<lambda_c4599be8aa20546a4c0f056de45f81e0>,0>,std::allocator<std::_Func_class<void> >,void>::~_Func_impl<std::_Callable_obj<<lambda_c4599be8aa20546a4c0f056de45f81e0>,0>,std::allocator<std::_Func_class<void> >,void>
PUBLIC	?_Move@?$_Func_impl@U?$_Callable_obj@V<lambda_c4599be8aa20546a4c0f056de45f81e0>@@$0A@@std@@V?$allocator@V?$_Func_class@X$$$V@std@@@2@X$$$V@std@@UAEPAV?$_Func_base@X$$$V@2@PAX@Z ; std::_Func_impl<std::_Callable_obj<<lambda_c4599be8aa20546a4c0f056de45f81e0>,0>,std::allocator<std::_Func_class<void> >,void>::_Move
PUBLIC	?_Copy@?$_Func_impl@U?$_Callable_obj@V<lambda_c4599be8aa20546a4c0f056de45f81e0>@@$0A@@std@@V?$allocator@V?$_Func_class@X$$$V@std@@@2@X$$$V@std@@UAEPAV?$_Func_base@X$$$V@2@PAX@Z ; std::_Func_impl<std::_Callable_obj<<lambda_c4599be8aa20546a4c0f056de45f81e0>,0>,std::allocator<std::_Func_class<void> >,void>::_Copy
PUBLIC	??0?$_Func_impl@U?$_Callable_obj@V<lambda_c4599be8aa20546a4c0f056de45f81e0>@@$0A@@std@@V?$allocator@V?$_Func_class@X$$$V@std@@@2@X$$$V@std@@QAE@$$QAV<lambda_c4599be8aa20546a4c0f056de45f81e0>@@ABV?$allocator@V?$_Func_impl@U?$_Callable_obj@V<lambda_c4599be8aa20546a4c0f056de45f81e0>@@$0A@@std@@V?$allocator@V?$_Func_class@X$$$V@std@@@2@X$$$V@std@@@1@@Z ; std::_Func_impl<std::_Callable_obj<<lambda_c4599be8aa20546a4c0f056de45f81e0>,0>,std::allocator<std::_Func_class<void> >,void>::_Func_impl<std::_Callable_obj<<lambda_c4599be8aa20546a4c0f056de45f81e0>,0>,std::allocator<std::_Func_class<void> >,void>
PUBLIC	?allocate@?$allocator@V?$_Func_impl@U?$_Callable_obj@V<lambda_5b58d388793fe563bc112a2536ab3933>@@$0A@@std@@V?$allocator@V?$_Func_class@X$$$V@std@@@2@X$$$V@std@@@std@@QAEPAV?$_Func_impl@U?$_Callable_obj@V<lambda_5b58d388793fe563bc112a2536ab3933>@@$0A@@std@@V?$allocator@V?$_Func_class@X$$$V@std@@@2@X$$$V@2@I@Z ; std::allocator<std::_Func_impl<std::_Callable_obj<<lambda_5b58d388793fe563bc112a2536ab3933>,0>,std::allocator<std::_Func_class<void> >,void> >::allocate
PUBLIC	??0?$allocator@V?$_Func_impl@U?$_Callable_obj@V<lambda_5b58d388793fe563bc112a2536ab3933>@@$0A@@std@@V?$allocator@V?$_Func_class@X$$$V@std@@@2@X$$$V@std@@@std@@QAE@XZ ; std::allocator<std::_Func_impl<std::_Callable_obj<<lambda_5b58d388793fe563bc112a2536ab3933>,0>,std::allocator<std::_Func_class<void> >,void> >::allocator<std::_Func_impl<std::_Callable_obj<<lambda_5b58d388793fe563bc112a2536ab3933>,0>,std::allocator<std::_Func_class<void> >,void> >
PUBLIC	?_Delete_this@?$_Func_impl@U?$_Callable_obj@V<lambda_5b58d388793fe563bc112a2536ab3933>@@$0A@@std@@V?$allocator@V?$_Func_class@X$$$V@std@@@2@X$$$V@std@@EAEX_N@Z ; std::_Func_impl<std::_Callable_obj<<lambda_5b58d388793fe563bc112a2536ab3933>,0>,std::allocator<std::_Func_class<void> >,void>::_Delete_this
PUBLIC	?_Get@?$_Func_impl@U?$_Callable_obj@V<lambda_5b58d388793fe563bc112a2536ab3933>@@$0A@@std@@V?$allocator@V?$_Func_class@X$$$V@std@@@2@X$$$V@std@@EBEPBXXZ ; std::_Func_impl<std::_Callable_obj<<lambda_5b58d388793fe563bc112a2536ab3933>,0>,std::allocator<std::_Func_class<void> >,void>::_Get
PUBLIC	?_Target_type@?$_Func_impl@U?$_Callable_obj@V<lambda_5b58d388793fe563bc112a2536ab3933>@@$0A@@std@@V?$allocator@V?$_Func_class@X$$$V@std@@@2@X$$$V@std@@UBEABVtype_info@@XZ ; std::_Func_impl<std::_Callable_obj<<lambda_5b58d388793fe563bc112a2536ab3933>,0>,std::allocator<std::_Func_class<void> >,void>::_Target_type
PUBLIC	?_Do_call@?$_Func_impl@U?$_Callable_obj@V<lambda_5b58d388793fe563bc112a2536ab3933>@@$0A@@std@@V?$allocator@V?$_Func_class@X$$$V@std@@@2@X$$$V@std@@UAEXXZ ; std::_Func_impl<std::_Callable_obj<<lambda_5b58d388793fe563bc112a2536ab3933>,0>,std::allocator<std::_Func_class<void> >,void>::_Do_call
PUBLIC	??1?$_Func_impl@U?$_Callable_obj@V<lambda_5b58d388793fe563bc112a2536ab3933>@@$0A@@std@@V?$allocator@V?$_Func_class@X$$$V@std@@@2@X$$$V@std@@UAE@XZ ; std::_Func_impl<std::_Callable_obj<<lambda_5b58d388793fe563bc112a2536ab3933>,0>,std::allocator<std::_Func_class<void> >,void>::~_Func_impl<std::_Callable_obj<<lambda_5b58d388793fe563bc112a2536ab3933>,0>,std::allocator<std::_Func_class<void> >,void>
PUBLIC	?_Move@?$_Func_impl@U?$_Callable_obj@V<lambda_5b58d388793fe563bc112a2536ab3933>@@$0A@@std@@V?$allocator@V?$_Func_class@X$$$V@std@@@2@X$$$V@std@@UAEPAV?$_Func_base@X$$$V@2@PAX@Z ; std::_Func_impl<std::_Callable_obj<<lambda_5b58d388793fe563bc112a2536ab3933>,0>,std::allocator<std::_Func_class<void> >,void>::_Move
PUBLIC	?_Copy@?$_Func_impl@U?$_Callable_obj@V<lambda_5b58d388793fe563bc112a2536ab3933>@@$0A@@std@@V?$allocator@V?$_Func_class@X$$$V@std@@@2@X$$$V@std@@UAEPAV?$_Func_base@X$$$V@2@PAX@Z ; std::_Func_impl<std::_Callable_obj<<lambda_5b58d388793fe563bc112a2536ab3933>,0>,std::allocator<std::_Func_class<void> >,void>::_Copy
PUBLIC	??0?$_Func_impl@U?$_Callable_obj@V<lambda_5b58d388793fe563bc112a2536ab3933>@@$0A@@std@@V?$allocator@V?$_Func_class@X$$$V@std@@@2@X$$$V@std@@QAE@$$QAV<lambda_5b58d388793fe563bc112a2536ab3933>@@ABV?$allocator@V?$_Func_impl@U?$_Callable_obj@V<lambda_5b58d388793fe563bc112a2536ab3933>@@$0A@@std@@V?$allocator@V?$_Func_class@X$$$V@std@@@2@X$$$V@std@@@1@@Z ; std::_Func_impl<std::_Callable_obj<<lambda_5b58d388793fe563bc112a2536ab3933>,0>,std::allocator<std::_Func_class<void> >,void>::_Func_impl<std::_Callable_obj<<lambda_5b58d388793fe563bc112a2536ab3933>,0>,std::allocator<std::_Func_class<void> >,void>
PUBLIC	?_Set@?$_Func_class@_NUServiceIdentifier@@PAVXElement@@@std@@AAEXPAV?$_Func_base@_NUServiceIdentifier@@PAVXElement@@@2@@Z ; std::_Func_class<bool,ServiceIdentifier,XElement *>::_Set
PUBLIC	??$construct@V?$_List_unchecked_iterator@V?$_List_val@U?$_List_simple_types@U?$pair@$$CBV?$basic_string@_WU?$char_traits@_W@std@@V?$allocator@_W@2@@std@@H@std@@@std@@@std@@@std@@ABV12@@?$allocator_traits@U?$_Wrap_alloc@V?$allocator@V?$_List_unchecked_iterator@V?$_List_val@U?$_List_simple_types@U?$pair@$$CBV?$basic_string@_WU?$char_traits@_W@std@@V?$allocator@_W@2@@std@@H@std@@@std@@@std@@@std@@@std@@@std@@@std@@SAXAAU?$_Wrap_alloc@V?$allocator@V?$_List_unchecked_iterator@V?$_List_val@U?$_List_simple_types@U?$pair@$$CBV?$basic_string@_WU?$char_traits@_W@std@@V?$allocator@_W@2@@std@@H@std@@@std@@@std@@@std@@@std@@@1@PAV?$_List_unchecked_iterator@V?$_List_val@U?$_List_simple_types@U?$pair@$$CBV?$basic_string@_WU?$char_traits@_W@std@@V?$allocator@_W@2@@std@@H@std@@@std@@@std@@@1@ABV31@@Z ; std::allocator_traits<std::_Wrap_alloc<std::allocator<std::_List_unchecked_iterator<std::_List_val<std::_List_simple_types<std::pair<std::basic_string<wchar_t,std::char_traits<wchar_t>,std::allocator<wchar_t> > const ,int> > > > > > >::construct<std::_List_unchecked_iterator<std::_List_val<std::_List_simple_types<std::pair<std::basic_string<wchar_t,std::char_traits<wchar_t>,std::allocator<wchar_t> > const ,int> > > >,std::_List_unchecked_iterator<std::_List_val<std::_List_simple_types<std::pair<std::basic_string<wchar_t,std::char_traits<wchar_t>,std::allocator<wchar_t> > const ,int> > > > const &>
PUBLIC	??$forward@ABV?$_List_unchecked_iterator@V?$_List_val@U?$_List_simple_types@U?$pair@$$CBV?$basic_string@_WU?$char_traits@_W@std@@V?$allocator@_W@2@@std@@H@std@@@std@@@std@@@std@@@std@@YAABV?$_List_unchecked_iterator@V?$_List_val@U?$_List_simple_types@U?$pair@$$CBV?$basic_string@_WU?$char_traits@_W@std@@V?$allocator@_W@2@@std@@H@std@@@std@@@std@@@0@ABV10@@Z ; std::forward<std::_List_unchecked_iterator<std::_List_val<std::_List_simple_types<std::pair<std::basic_string<wchar_t,std::char_traits<wchar_t>,std::allocator<wchar_t> > const ,int> > > > const &>
PUBLIC	??$_Uninit_move@PAV?$_List_unchecked_iterator@V?$_List_val@U?$_List_simple_types@U?$pair@$$CBV?$basic_string@_WU?$char_traits@_W@std@@V?$allocator@_W@2@@std@@H@std@@@std@@@std@@@std@@PAV12@U?$_Wrap_alloc@V?$allocator@V?$_List_unchecked_iterator@V?$_List_val@U?$_List_simple_types@U?$pair@$$CBV?$basic_string@_WU?$char_traits@_W@std@@V?$allocator@_W@2@@std@@H@std@@@std@@@std@@@std@@@std@@@2@V12@@std@@YAPAV?$_List_unchecked_iterator@V?$_List_val@U?$_List_simple_types@U?$pair@$$CBV?$basic_string@_WU?$char_traits@_W@std@@V?$allocator@_W@2@@std@@H@std@@@std@@@std@@@0@PAV10@00AAU?$_Wrap_alloc@U?$_Wrap_alloc@V?$allocator@V?$_List_unchecked_iterator@V?$_List_val@U?$_List_simple_types@U?$pair@$$CBV?$basic_string@_WU?$char_traits@_W@std@@V?$allocator@_W@2@@std@@H@std@@@std@@@std@@@std@@@std@@@std@@@0@0U_Nonscalar_ptr_iterator_tag@0@@Z ; std::_Uninit_move<std::_List_unchecked_iterator<std::_List_val<std::_List_simple_types<std::pair<std::basic_string<wchar_t,std::char_traits<wchar_t>,std::allocator<wchar_t> > const ,int> > > > *,std::_List_unchecked_iterator<std::_List_val<std::_List_simple_types<std::pair<std::basic_string<wchar_t,std::char_traits<wchar_t>,std::allocator<wchar_t> > const ,int> > > > *,std::_Wrap_alloc<std::allocator<std::_List_unchecked_iterator<std::_List_val<std::_List_simple_types<std::pair<std::basic_string<wchar_t,std::char_traits<wchar_t>,std::allocator<wchar_t> > const ,int> > > > > >,std::_List_unchecked_iterator<std::_List_val<std::_List_simple_types<std::pair<std::basic_string<wchar_t,std::char_traits<wchar_t>,std::allocator<wchar_t> > const ,int> > > > >
PUBLIC	??$destroy@V?$_List_unchecked_iterator@V?$_List_val@U?$_List_simple_types@U?$pair@$$CBV?$basic_string@_WU?$char_traits@_W@std@@V?$allocator@_W@2@@std@@H@std@@@std@@@std@@@std@@@?$allocator_traits@U?$_Wrap_alloc@V?$allocator@V?$_List_unchecked_iterator@V?$_List_val@U?$_List_simple_types@U?$pair@$$CBV?$basic_string@_WU?$char_traits@_W@std@@V?$allocator@_W@2@@std@@H@std@@@std@@@std@@@std@@@std@@@std@@@std@@SAXAAU?$_Wrap_alloc@V?$allocator@V?$_List_unchecked_iterator@V?$_List_val@U?$_List_simple_types@U?$pair@$$CBV?$basic_string@_WU?$char_traits@_W@std@@V?$allocator@_W@2@@std@@H@std@@@std@@@std@@@std@@@std@@@1@PAV?$_List_unchecked_iterator@V?$_List_val@U?$_List_simple_types@U?$pair@$$CBV?$basic_string@_WU?$char_traits@_W@std@@V?$allocator@_W@2@@std@@H@std@@@std@@@std@@@1@@Z ; std::allocator_traits<std::_Wrap_alloc<std::allocator<std::_List_unchecked_iterator<std::_List_val<std::_List_simple_types<std::pair<std::basic_string<wchar_t,std::char_traits<wchar_t>,std::allocator<wchar_t> > const ,int> > > > > > >::destroy<std::_List_unchecked_iterator<std::_List_val<std::_List_simple_types<std::pair<std::basic_string<wchar_t,std::char_traits<wchar_t>,std::allocator<wchar_t> > const ,int> > > > >
PUBLIC	??$_Uninit_move@PAV?$function@$$A6AXXZ@std@@PAV12@V?$allocator@V?$function@$$A6AXXZ@std@@@2@V12@@std@@YAPAV?$function@$$A6AXXZ@0@PAV10@00AAU?$_Wrap_alloc@V?$allocator@V?$function@$$A6AXXZ@std@@@std@@@0@0U_Nonscalar_ptr_iterator_tag@0@@Z ; std::_Uninit_move<std::function<void __cdecl(void)> *,std::function<void __cdecl(void)> *,std::allocator<std::function<void __cdecl(void)> >,std::function<void __cdecl(void)> >
PUBLIC	??$_Val_type@PAV?$function@$$A6AXXZ@std@@@std@@YAPAV?$function@$$A6AXXZ@0@PAV10@@Z ; std::_Val_type<std::function<void __cdecl(void)> *>
PUBLIC	??$destroy@V?$function@$$A6AXXZ@std@@@?$allocator_traits@V?$allocator@V?$function@$$A6AXXZ@std@@@std@@@std@@SAXAAV?$allocator@V?$function@$$A6AXXZ@std@@@1@PAV?$function@$$A6AXXZ@1@@Z ; std::allocator_traits<std::allocator<std::function<void __cdecl(void)> > >::destroy<std::function<void __cdecl(void)> >
PUBLIC	??$forward@_N@std@@YA$$QA_NAA_N@Z		; std::forward<bool>
PUBLIC	??$forward@V?$_List_iterator@V?$_List_val@U?$_List_simple_types@U?$pair@$$CBV?$basic_string@_WU?$char_traits@_W@std@@V?$allocator@_W@2@@std@@H@std@@@std@@@std@@@std@@@std@@YA$$QAV?$_List_iterator@V?$_List_val@U?$_List_simple_types@U?$pair@$$CBV?$basic_string@_WU?$char_traits@_W@std@@V?$allocator@_W@2@@std@@H@std@@@std@@@std@@@0@AAV10@@Z ; std::forward<std::_List_iterator<std::_List_val<std::_List_simple_types<std::pair<std::basic_string<wchar_t,std::char_traits<wchar_t>,std::allocator<wchar_t> > const ,int> > > > >
PUBLIC	??$_Buynode@ABUpiecewise_construct_t@std@@V?$tuple@$$QAV?$basic_string@_WU?$char_traits@_W@std@@V?$allocator@_W@2@@std@@@2@V?$tuple@$$$V@2@@?$_List_buy@U?$pair@$$CBV?$basic_string@_WU?$char_traits@_W@std@@V?$allocator@_W@2@@std@@H@std@@V?$allocator@U?$pair@$$CBV?$basic_string@_WU?$char_traits@_W@std@@V?$allocator@_W@2@@std@@H@std@@@2@@std@@QAEPAU?$_List_node@U?$pair@$$CBV?$basic_string@_WU?$char_traits@_W@std@@V?$allocator@_W@2@@std@@H@std@@PAX@1@PAU21@0ABUpiecewise_construct_t@1@$$QAV?$tuple@$$QAV?$basic_string@_WU?$char_traits@_W@std@@V?$allocator@_W@2@@std@@@1@$$QAV?$tuple@$$$V@1@@Z ; std::_List_buy<std::pair<std::basic_string<wchar_t,std::char_traits<wchar_t>,std::allocator<wchar_t> > const ,int>,std::allocator<std::pair<std::basic_string<wchar_t,std::char_traits<wchar_t>,std::allocator<wchar_t> > const ,int> > >::_Buynode<std::piecewise_construct_t const &,std::tuple<std::basic_string<wchar_t,std::char_traits<wchar_t>,std::allocator<wchar_t> > &&>,std::tuple<> >
PUBLIC	??$_Do_alloc@V?$_Func_impl@U?$_Callable_obj@V<lambda_da5f0f708578e290fee5fc13ec57d23a>@@$0A@@std@@V?$allocator@V?$_Func_class@_NUServiceIdentifier@@PAVXElement@@@std@@@2@_NUServiceIdentifier@@PAVXElement@@@std@@V<lambda_da5f0f708578e290fee5fc13ec57d23a>@@V?$allocator@V?$_Func_class@_NUServiceIdentifier@@PAVXElement@@@std@@@2@@?$_Func_class@_NUServiceIdentifier@@PAVXElement@@@std@@AAEX$$QAV<lambda_da5f0f708578e290fee5fc13ec57d23a>@@V?$allocator@V?$_Func_class@_NUServiceIdentifier@@PAVXElement@@@std@@@1@@Z ; std::_Func_class<bool,ServiceIdentifier,XElement *>::_Do_alloc<std::_Func_impl<std::_Callable_obj<<lambda_da5f0f708578e290fee5fc13ec57d23a>,0>,std::allocator<std::_Func_class<bool,ServiceIdentifier,XElement *> >,bool,ServiceIdentifier,XElement *>,<lambda_da5f0f708578e290fee5fc13ec57d23a>,std::allocator<std::_Func_class<bool,ServiceIdentifier,XElement *> > >
PUBLIC	??$construct@UServiceIdentifier@@AAU1@@?$allocator@UServiceIdentifier@@@std@@QAEXPAUServiceIdentifier@@AAU2@@Z ; std::allocator<ServiceIdentifier>::construct<ServiceIdentifier,ServiceIdentifier &>
PUBLIC	??$_Do_alloc@V?$_Func_impl@U?$_Callable_obj@V<lambda_424e07199e07f172c211b579b41a0f6b>@@$0A@@std@@V?$allocator@V?$_Func_class@X$$$V@std@@@2@X$$$V@std@@V<lambda_424e07199e07f172c211b579b41a0f6b>@@V?$allocator@V?$_Func_class@X$$$V@std@@@2@@?$_Func_class@X$$$V@std@@AAEX$$QAV<lambda_424e07199e07f172c211b579b41a0f6b>@@V?$allocator@V?$_Func_class@X$$$V@std@@@1@@Z ; std::_Func_class<void>::_Do_alloc<std::_Func_impl<std::_Callable_obj<<lambda_424e07199e07f172c211b579b41a0f6b>,0>,std::allocator<std::_Func_class<void> >,void>,<lambda_424e07199e07f172c211b579b41a0f6b>,std::allocator<std::_Func_class<void> > >
PUBLIC	??$_Do_alloc@V?$_Func_impl@U?$_Callable_obj@V<lambda_8499d2186312c49ebbd56f30c74af45d>@@$0A@@std@@V?$allocator@V?$_Func_class@X$$$V@std@@@2@X$$$V@std@@V<lambda_8499d2186312c49ebbd56f30c74af45d>@@V?$allocator@V?$_Func_class@X$$$V@std@@@2@@?$_Func_class@X$$$V@std@@AAEX$$QAV<lambda_8499d2186312c49ebbd56f30c74af45d>@@V?$allocator@V?$_Func_class@X$$$V@std@@@1@@Z ; std::_Func_class<void>::_Do_alloc<std::_Func_impl<std::_Callable_obj<<lambda_8499d2186312c49ebbd56f30c74af45d>,0>,std::allocator<std::_Func_class<void> >,void>,<lambda_8499d2186312c49ebbd56f30c74af45d>,std::allocator<std::_Func_class<void> > >
PUBLIC	??$_Do_alloc@V?$_Func_impl@U?$_Callable_obj@V<lambda_624bb9d9f3cde644ba29e7729588d586>@@$0A@@std@@V?$allocator@V?$_Func_class@X$$$V@std@@@2@X$$$V@std@@V<lambda_624bb9d9f3cde644ba29e7729588d586>@@V?$allocator@V?$_Func_class@X$$$V@std@@@2@@?$_Func_class@X$$$V@std@@AAEX$$QAV<lambda_624bb9d9f3cde644ba29e7729588d586>@@V?$allocator@V?$_Func_class@X$$$V@std@@@1@@Z ; std::_Func_class<void>::_Do_alloc<std::_Func_impl<std::_Callable_obj<<lambda_624bb9d9f3cde644ba29e7729588d586>,0>,std::allocator<std::_Func_class<void> >,void>,<lambda_624bb9d9f3cde644ba29e7729588d586>,std::allocator<std::_Func_class<void> > >
PUBLIC	??$_Do_alloc@V?$_Func_impl@U?$_Callable_obj@V<lambda_0a265d9f88e42e1afeaf76e4a6ca41f3>@@$0A@@std@@V?$allocator@V?$_Func_class@X$$$V@std@@@2@X$$$V@std@@V<lambda_0a265d9f88e42e1afeaf76e4a6ca41f3>@@V?$allocator@V?$_Func_class@X$$$V@std@@@2@@?$_Func_class@X$$$V@std@@AAEX$$QAV<lambda_0a265d9f88e42e1afeaf76e4a6ca41f3>@@V?$allocator@V?$_Func_class@X$$$V@std@@@1@@Z ; std::_Func_class<void>::_Do_alloc<std::_Func_impl<std::_Callable_obj<<lambda_0a265d9f88e42e1afeaf76e4a6ca41f3>,0>,std::allocator<std::_Func_class<void> >,void>,<lambda_0a265d9f88e42e1afeaf76e4a6ca41f3>,std::allocator<std::_Func_class<void> > >
PUBLIC	??$_Do_alloc@V?$_Func_impl@U?$_Callable_obj@V<lambda_07b41efe5098b34c18964d3f394ff711>@@$0A@@std@@V?$allocator@V?$_Func_class@X$$$V@std@@@2@X$$$V@std@@V<lambda_07b41efe5098b34c18964d3f394ff711>@@V?$allocator@V?$_Func_class@X$$$V@std@@@2@@?$_Func_class@X$$$V@std@@AAEX$$QAV<lambda_07b41efe5098b34c18964d3f394ff711>@@V?$allocator@V?$_Func_class@X$$$V@std@@@1@@Z ; std::_Func_class<void>::_Do_alloc<std::_Func_impl<std::_Callable_obj<<lambda_07b41efe5098b34c18964d3f394ff711>,0>,std::allocator<std::_Func_class<void> >,void>,<lambda_07b41efe5098b34c18964d3f394ff711>,std::allocator<std::_Func_class<void> > >
PUBLIC	??$_Do_alloc@V?$_Func_impl@U?$_Callable_obj@V<lambda_c4599be8aa20546a4c0f056de45f81e0>@@$0A@@std@@V?$allocator@V?$_Func_class@X$$$V@std@@@2@X$$$V@std@@V<lambda_c4599be8aa20546a4c0f056de45f81e0>@@V?$allocator@V?$_Func_class@X$$$V@std@@@2@@?$_Func_class@X$$$V@std@@AAEX$$QAV<lambda_c4599be8aa20546a4c0f056de45f81e0>@@V?$allocator@V?$_Func_class@X$$$V@std@@@1@@Z ; std::_Func_class<void>::_Do_alloc<std::_Func_impl<std::_Callable_obj<<lambda_c4599be8aa20546a4c0f056de45f81e0>,0>,std::allocator<std::_Func_class<void> >,void>,<lambda_c4599be8aa20546a4c0f056de45f81e0>,std::allocator<std::_Func_class<void> > >
PUBLIC	??$_Do_alloc@V?$_Func_impl@U?$_Callable_obj@V<lambda_5b58d388793fe563bc112a2536ab3933>@@$0A@@std@@V?$allocator@V?$_Func_class@X$$$V@std@@@2@X$$$V@std@@V<lambda_5b58d388793fe563bc112a2536ab3933>@@V?$allocator@V?$_Func_class@X$$$V@std@@@2@@?$_Func_class@X$$$V@std@@AAEX$$QAV<lambda_5b58d388793fe563bc112a2536ab3933>@@V?$allocator@V?$_Func_class@X$$$V@std@@@1@@Z ; std::_Func_class<void>::_Do_alloc<std::_Func_impl<std::_Callable_obj<<lambda_5b58d388793fe563bc112a2536ab3933>,0>,std::allocator<std::_Func_class<void> >,void>,<lambda_5b58d388793fe563bc112a2536ab3933>,std::allocator<std::_Func_class<void> > >
PUBLIC	?max_size@?$allocator@U?$_List_node@U?$pair@$$CBV?$basic_string@_WU?$char_traits@_W@std@@V?$allocator@_W@2@@std@@H@std@@PAX@std@@@std@@QBEIXZ ; std::allocator<std::_List_node<std::pair<std::basic_string<wchar_t,std::char_traits<wchar_t>,std::allocator<wchar_t> > const ,int>,void *> >::max_size
PUBLIC	?max_size@?$allocator_traits@V?$allocator@U?$_List_node@U?$pair@$$CBV?$basic_string@_WU?$char_traits@_W@std@@V?$allocator@_W@2@@std@@H@std@@PAX@std@@@std@@@std@@SAIABV?$allocator@U?$_List_node@U?$pair@$$CBV?$basic_string@_WU?$char_traits@_W@std@@V?$allocator@_W@2@@std@@H@std@@PAX@std@@@2@@Z ; std::allocator_traits<std::allocator<std::_List_node<std::pair<std::basic_string<wchar_t,std::char_traits<wchar_t>,std::allocator<wchar_t> > const ,int>,void *> > >::max_size
PUBLIC	?max_size@?$_Wrap_alloc@V?$allocator@U?$_List_node@U?$pair@$$CBV?$basic_string@_WU?$char_traits@_W@std@@V?$allocator@_W@2@@std@@H@std@@PAX@std@@@std@@@std@@QBEIXZ ; std::_Wrap_alloc<std::allocator<std::_List_node<std::pair<std::basic_string<wchar_t,std::char_traits<wchar_t>,std::allocator<wchar_t> > const ,int>,void *> > >::max_size
PUBLIC	?max_size@?$list@U?$pair@$$CBV?$basic_string@_WU?$char_traits@_W@std@@V?$allocator@_W@2@@std@@H@std@@V?$allocator@U?$pair@$$CBV?$basic_string@_WU?$char_traits@_W@std@@V?$allocator@_W@2@@std@@H@std@@@2@@std@@QBEIXZ ; std::list<std::pair<std::basic_string<wchar_t,std::char_traits<wchar_t>,std::allocator<wchar_t> > const ,int>,std::allocator<std::pair<std::basic_string<wchar_t,std::char_traits<wchar_t>,std::allocator<wchar_t> > const ,int> > >::max_size
PUBLIC	??0?$allocator@V?$_Func_class@_NUServiceIdentifier@@PAVXElement@@@std@@@std@@QAE@ABV01@@Z ; std::allocator<std::_Func_class<bool,ServiceIdentifier,XElement *> >::allocator<std::_Func_class<bool,ServiceIdentifier,XElement *> >
PUBLIC	?_Incsize@?$list@U?$pair@$$CBV?$basic_string@_WU?$char_traits@_W@std@@V?$allocator@_W@2@@std@@H@std@@V?$allocator@U?$pair@$$CBV?$basic_string@_WU?$char_traits@_W@std@@V?$allocator@_W@2@@std@@H@std@@@2@@std@@QAEXI@Z ; std::list<std::pair<std::basic_string<wchar_t,std::char_traits<wchar_t>,std::allocator<wchar_t> > const ,int>,std::allocator<std::pair<std::basic_string<wchar_t,std::char_traits<wchar_t>,std::allocator<wchar_t> > const ,int> > >::_Incsize
PUBLIC	??1?$pair@$$CBV?$basic_string@_WU?$char_traits@_W@std@@V?$allocator@_W@2@@std@@H@std@@QAE@XZ ; std::pair<std::basic_string<wchar_t,std::char_traits<wchar_t>,std::allocator<wchar_t> > const ,int>::~pair<std::basic_string<wchar_t,std::char_traits<wchar_t>,std::allocator<wchar_t> > const ,int>
PUBLIC	??_G?$pair@$$CBV?$basic_string@_WU?$char_traits@_W@std@@V?$allocator@_W@2@@std@@H@std@@QAEPAXI@Z ; std::pair<std::basic_string<wchar_t,std::char_traits<wchar_t>,std::allocator<wchar_t> > const ,int>::`scalar deleting destructor'
PUBLIC	??$construct@V?$_List_unchecked_iterator@V?$_List_val@U?$_List_simple_types@U?$pair@$$CBV?$basic_string@_WU?$char_traits@_W@std@@V?$allocator@_W@2@@std@@H@std@@@std@@@std@@@std@@ABV12@@?$_Wrap_alloc@U?$_Wrap_alloc@V?$allocator@V?$_List_unchecked_iterator@V?$_List_val@U?$_List_simple_types@U?$pair@$$CBV?$basic_string@_WU?$char_traits@_W@std@@V?$allocator@_W@2@@std@@H@std@@@std@@@std@@@std@@@std@@@std@@@std@@QAEXPAV?$_List_unchecked_iterator@V?$_List_val@U?$_List_simple_types@U?$pair@$$CBV?$basic_string@_WU?$char_traits@_W@std@@V?$allocator@_W@2@@std@@H@std@@@std@@@std@@@1@ABV21@@Z ; std::_Wrap_alloc<std::_Wrap_alloc<std::allocator<std::_List_unchecked_iterator<std::_List_val<std::_List_simple_types<std::pair<std::basic_string<wchar_t,std::char_traits<wchar_t>,std::allocator<wchar_t> > const ,int> > > > > > >::construct<std::_List_unchecked_iterator<std::_List_val<std::_List_simple_types<std::pair<std::basic_string<wchar_t,std::char_traits<wchar_t>,std::allocator<wchar_t> > const ,int> > > >,std::_List_unchecked_iterator<std::_List_val<std::_List_simple_types<std::pair<std::basic_string<wchar_t,std::char_traits<wchar_t>,std::allocator<wchar_t> > const ,int> > > > const &>
PUBLIC	??$construct@PAU?$_List_node@U?$pair@$$CBV?$basic_string@_WU?$char_traits@_W@std@@V?$allocator@_W@2@@std@@H@std@@PAX@std@@AAPAU12@@?$allocator@U?$_List_node@U?$pair@$$CBV?$basic_string@_WU?$char_traits@_W@std@@V?$allocator@_W@2@@std@@H@std@@PAX@std@@@std@@QAEXPAPAU?$_List_node@U?$pair@$$CBV?$basic_string@_WU?$char_traits@_W@std@@V?$allocator@_W@2@@std@@H@std@@PAX@1@AAPAU21@@Z ; std::allocator<std::_List_node<std::pair<std::basic_string<wchar_t,std::char_traits<wchar_t>,std::allocator<wchar_t> > const ,int>,void *> >::construct<std::_List_node<std::pair<std::basic_string<wchar_t,std::char_traits<wchar_t>,std::allocator<wchar_t> > const ,int>,void *> *,std::_List_node<std::pair<std::basic_string<wchar_t,std::char_traits<wchar_t>,std::allocator<wchar_t> > const ,int>,void *> * &>
PUBLIC	??$_Rechecked@PAV?$_List_unchecked_iterator@V?$_List_val@U?$_List_simple_types@U?$pair@$$CBV?$basic_string@_WU?$char_traits@_W@std@@V?$allocator@_W@2@@std@@H@std@@@std@@@std@@@std@@PAV12@@std@@YAAAPAV?$_List_unchecked_iterator@V?$_List_val@U?$_List_simple_types@U?$pair@$$CBV?$basic_string@_WU?$char_traits@_W@std@@V?$allocator@_W@2@@std@@H@std@@@std@@@std@@@0@AAPAV10@PAV10@@Z ; std::_Rechecked<std::_List_unchecked_iterator<std::_List_val<std::_List_simple_types<std::pair<std::basic_string<wchar_t,std::char_traits<wchar_t>,std::allocator<wchar_t> > const ,int> > > > *,std::_List_unchecked_iterator<std::_List_val<std::_List_simple_types<std::pair<std::basic_string<wchar_t,std::char_traits<wchar_t>,std::allocator<wchar_t> > const ,int> > > > *>
PUBLIC	??$_Uninit_move@PAV?$_List_unchecked_iterator@V?$_List_val@U?$_List_simple_types@U?$pair@$$CBV?$basic_string@_WU?$char_traits@_W@std@@V?$allocator@_W@2@@std@@H@std@@@std@@@std@@@std@@PAV12@U?$_Wrap_alloc@U?$_Wrap_alloc@V?$allocator@V?$_List_unchecked_iterator@V?$_List_val@U?$_List_simple_types@U?$pair@$$CBV?$basic_string@_WU?$char_traits@_W@std@@V?$allocator@_W@2@@std@@H@std@@@std@@@std@@@std@@@std@@@std@@@2@@std@@YAPAV?$_List_unchecked_iterator@V?$_List_val@U?$_List_simple_types@U?$pair@$$CBV?$basic_string@_WU?$char_traits@_W@std@@V?$allocator@_W@2@@std@@H@std@@@std@@@std@@@0@PAV10@00AAU?$_Wrap_alloc@U?$_Wrap_alloc@V?$allocator@V?$_List_unchecked_iterator@V?$_List_val@U?$_List_simple_types@U?$pair@$$CBV?$basic_string@_WU?$char_traits@_W@std@@V?$allocator@_W@2@@std@@H@std@@@std@@@std@@@std@@@std@@@std@@@0@@Z ; std::_Uninit_move<std::_List_unchecked_iterator<std::_List_val<std::_List_simple_types<std::pair<std::basic_string<wchar_t,std::char_traits<wchar_t>,std::allocator<wchar_t> > const ,int> > > > *,std::_List_unchecked_iterator<std::_List_val<std::_List_simple_types<std::pair<std::basic_string<wchar_t,std::char_traits<wchar_t>,std::allocator<wchar_t> > const ,int> > > > *,std::_Wrap_alloc<std::_Wrap_alloc<std::allocator<std::_List_unchecked_iterator<std::_List_val<std::_List_simple_types<std::pair<std::basic_string<wchar_t,std::char_traits<wchar_t>,std::allocator<wchar_t> > const ,int> > > > > > > >
