; Listing generated by Microsoft (R) Optimizing Compiler Version 18.00.21005.1 

	TITLE	F:\songmm_moon_stone_obs\OBS\Source\SettingsGeneral.cpp
	.686P
	.XMM
	include listing.inc
	.model	flat

INCLUDELIB OLDNAMES

PUBLIC	??_R4SettingsGeneral@@6B@			; SettingsGeneral::`RTTI Complete Object Locator'
PUBLIC	??_R3SettingsGeneral@@8				; SettingsGeneral::`RTTI Class Hierarchy Descriptor'
PUBLIC	??_R2SettingsGeneral@@8				; SettingsGeneral::`RTTI Base Class Array'
PUBLIC	??_R0?AVSettingsGeneral@@@8			; SettingsGeneral `RTTI Type Descriptor'
PUBLIC	??_R1A@?0A@EA@SettingsGeneral@@8		; SettingsGeneral::`RTTI Base Class Descriptor at (0,-1,0,64)'
PUBLIC	??_7SettingsGeneral@@6B@			; SettingsGeneral::`vftable'
EXTRN	__imp_?GetLocaleNativeName@@YGPAULocaleNativeName@@PB_W@Z:PROC
EXTRN	__imp__MoveFileW@8:PROC
EXTRN	__imp_?SetFilePath@ConfigFile@@QAEXPB_W@Z:PROC
EXTRN	__imp_?SaveAs@ConfigFile@@QAEHPB_W@Z:PROC
;	COMDAT ??_7SettingsGeneral@@6B@
CONST	SEGMENT
??_7SettingsGeneral@@6B@ DD FLAT:??_R4SettingsGeneral@@6B@ ; SettingsGeneral::`vftable'
	DD	FLAT:??_ESettingsGeneral@@UAEPAXI@Z
	DD	FLAT:?GetCategory@SettingsGeneral@@UBEPB_WXZ
	DD	FLAT:?CreatePane@SettingsGeneral@@UAEPAUHWND__@@PAU2@@Z
	DD	FLAT:?DestroyPane@SettingsGeneral@@UAEXXZ
	DD	FLAT:?ProcMessage@SettingsGeneral@@UAEHIIJ@Z
	DD	FLAT:?ApplySettings@SettingsGeneral@@UAEXXZ
	DD	FLAT:?CancelSettings@SettingsGeneral@@UAEXXZ
	DD	FLAT:?HasDefaults@SettingsGeneral@@UBE_NXZ
	DD	FLAT:?SetDefaults@SettingsPane@@UAEXXZ
	DD	FLAT:?OptimizeSettings@SettingsPane@@UAEXXZ
CONST	ENDS
;	COMDAT ??_R1A@?0A@EA@SettingsGeneral@@8
rdata$r	SEGMENT
??_R1A@?0A@EA@SettingsGeneral@@8 DD FLAT:??_R0?AVSettingsGeneral@@@8 ; SettingsGeneral::`RTTI Base Class Descriptor at (0,-1,0,64)'
	DD	01H
	DD	00H
	DD	0ffffffffH
	DD	00H
	DD	040H
	DD	FLAT:??_R3SettingsGeneral@@8
rdata$r	ENDS
;	COMDAT ??_R0?AVSettingsGeneral@@@8
data$r	SEGMENT
??_R0?AVSettingsGeneral@@@8 DD FLAT:??_7type_info@@6B@	; SettingsGeneral `RTTI Type Descriptor'
	DD	00H
	DB	'.?AVSettingsGeneral@@', 00H
data$r	ENDS
;	COMDAT ??_R2SettingsGeneral@@8
rdata$r	SEGMENT
??_R2SettingsGeneral@@8 DD FLAT:??_R1A@?0A@EA@SettingsGeneral@@8 ; SettingsGeneral::`RTTI Base Class Array'
	DD	FLAT:??_R1A@?0A@EA@SettingsPane@@8
rdata$r	ENDS
;	COMDAT ??_R3SettingsGeneral@@8
rdata$r	SEGMENT
??_R3SettingsGeneral@@8 DD 00H				; SettingsGeneral::`RTTI Class Hierarchy Descriptor'
	DD	00H
	DD	02H
	DD	FLAT:??_R2SettingsGeneral@@8
rdata$r	ENDS
;	COMDAT ??_R4SettingsGeneral@@6B@
rdata$r	SEGMENT
??_R4SettingsGeneral@@6B@ DD 00H			; SettingsGeneral::`RTTI Complete Object Locator'
	DD	00H
	DD	00H
	DD	FLAT:??_R0?AVSettingsGeneral@@@8
	DD	FLAT:??_R3SettingsGeneral@@8
$SG4294746164 DB 'S', 00H, 'h', 00H, 'o', 00H, 'w', 00H, 'N', 00H, 'o', 00H
	DB	't', 00H, 'i', 00H, 'f', 00H, 'i', 00H, 'c', 00H, 'a', 00H, 't'
	DB	00H, 'i', 00H, 'o', 00H, 'n', 00H, 'A', 00H, 'r', 00H, 'e', 00H
	DB	'a', 00H, 'I', 00H, 'c', 00H, 'o', 00H, 'n', 00H, 00H, 00H
	ORG $+2
$SG4294746165 DB 'S', 00H, 'e', 00H, 't', 00H, 't', 00H, 'i', 00H, 'n', 00H
	DB	'g', 00H, 's', 00H, '.', 00H, 'G', 00H, 'e', 00H, 'n', 00H, 'e'
	DB	00H, 'r', 00H, 'a', 00H, 'l', 00H, 00H, 00H
	ORG $+2
$SG4294746160 DB 'E', 00H, 'n', 00H, 'a', 00H, 'b', 00H, 'l', 00H, 'e', 00H
	DB	'P', 00H, 'r', 00H, 'o', 00H, 'j', 00H, 'e', 00H, 'c', 00H, 't'
	DB	00H, 'o', 00H, 'r', 00H, 'C', 00H, 'u', 00H, 'r', 00H, 's', 00H
	DB	'o', 00H, 'r', 00H, 00H, 00H
$SG4294746161 DB 'G', 00H, 'e', 00H, 'n', 00H, 'e', 00H, 'r', 00H, 'a', 00H
	DB	'l', 00H, 00H, 00H
$SG4294746162 DB 'M', 00H, 'i', 00H, 'n', 00H, 'i', 00H, 'm', 00H, 'i', 00H
	DB	'z', 00H, 'e', 00H, 'T', 00H, 'o', 00H, 'N', 00H, 'o', 00H, 't'
	DB	00H, 'i', 00H, 'f', 00H, 'i', 00H, 'c', 00H, 'a', 00H, 't', 00H
	DB	'i', 00H, 'o', 00H, 'n', 00H, 'A', 00H, 'r', 00H, 'e', 00H, 'a'
	DB	00H, 00H, 00H
	ORG $+2
$SG4294746163 DB 'G', 00H, 'e', 00H, 'n', 00H, 'e', 00H, 'r', 00H, 'a', 00H
	DB	'l', 00H, 00H, 00H
$SG4294746156 DB 'L', 00H, 'a', 00H, 'n', 00H, 'g', 00H, 'u', 00H, 'a', 00H
	DB	'g', 00H, 'e', 00H, 00H, 00H
	ORG $+2
$SG4294746157 DB 'G', 00H, 'e', 00H, 'n', 00H, 'e', 00H, 'r', 00H, 'a', 00H
	DB	'l', 00H, 00H, 00H
$SG4294746158 DB 'S', 00H, 'h', 00H, 'o', 00H, 'w', 00H, 'L', 00H, 'o', 00H
	DB	'g', 00H, 'W', 00H, 'i', 00H, 'n', 00H, 'd', 00H, 'o', 00H, 'w'
	DB	00H, 'O', 00H, 'n', 00H, 'L', 00H, 'a', 00H, 'u', 00H, 'n', 00H
	DB	'c', 00H, 'h', 00H, 00H, 00H
$SG4294746159 DB 'G', 00H, 'e', 00H, 'n', 00H, 'e', 00H, 'r', 00H, 'a', 00H
	DB	'l', 00H, 00H, 00H
$SG4294746152 DB 'G', 00H, 'e', 00H, 'n', 00H, 'e', 00H, 'r', 00H, 'a', 00H
	DB	'l', 00H, 00H, 00H
$SG4294746153 DB 'P', 00H, 'r', 00H, 'o', 00H, 'f', 00H, 'i', 00H, 'l', 00H
	DB	'e', 00H, 00H, 00H
$SG4294746154 DB 'l', 00H, 'o', 00H, 'c', 00H, 'a', 00H, 'l', 00H, 'e', 00H
	DB	'/', 00H, '*', 00H, '.', 00H, 't', 00H, 'x', 00H, 't', 00H, 00H
	DB	00H
	ORG $+2
$SG4294746155 DB 'G', 00H, 'e', 00H, 'n', 00H, 'e', 00H, 'r', 00H, 'a', 00H
	DB	'l', 00H, 00H, 00H
$SG4294746148 DB 'G', 00H, 'e', 00H, 'n', 00H, 'e', 00H, 'r', 00H, 'a', 00H
	DB	'l', 00H, 00H, 00H
$SG4294746149 DB 'M', 00H, 'i', 00H, 'n', 00H, 'i', 00H, 'm', 00H, 'i', 00H
	DB	'z', 00H, 'e', 00H, 'T', 00H, 'o', 00H, 'N', 00H, 'o', 00H, 't'
	DB	00H, 'i', 00H, 'f', 00H, 'i', 00H, 'c', 00H, 'a', 00H, 't', 00H
	DB	'i', 00H, 'o', 00H, 'n', 00H, 'A', 00H, 'r', 00H, 'e', 00H, 'a'
	DB	00H, 00H, 00H
	ORG $+2
$SG4294746150 DB 'G', 00H, 'e', 00H, 'n', 00H, 'e', 00H, 'r', 00H, 'a', 00H
	DB	'l', 00H, 00H, 00H
$SG4294746151 DB 'S', 00H, 'h', 00H, 'o', 00H, 'w', 00H, 'N', 00H, 'o', 00H
	DB	't', 00H, 'i', 00H, 'f', 00H, 'i', 00H, 'c', 00H, 'a', 00H, 't'
	DB	00H, 'i', 00H, 'o', 00H, 'n', 00H, 'A', 00H, 'r', 00H, 'e', 00H
	DB	'a', 00H, 'I', 00H, 'c', 00H, 'o', 00H, 'n', 00H, 00H, 00H
	ORG $+2
$SG4294746144 DB 'G', 00H, 'e', 00H, 'n', 00H, 'e', 00H, 'r', 00H, 'a', 00H
	DB	'l', 00H, 00H, 00H
$SG4294746145 DB 'S', 00H, 'h', 00H, 'o', 00H, 'w', 00H, 'L', 00H, 'o', 00H
	DB	'g', 00H, 'W', 00H, 'i', 00H, 'n', 00H, 'd', 00H, 'o', 00H, 'w'
	DB	00H, 'O', 00H, 'n', 00H, 'L', 00H, 'a', 00H, 'u', 00H, 'n', 00H
	DB	'c', 00H, 'h', 00H, 00H, 00H
$SG4294746146 DB 'G', 00H, 'e', 00H, 'n', 00H, 'e', 00H, 'r', 00H, 'a', 00H
	DB	'l', 00H, 00H, 00H
$SG4294746147 DB 'E', 00H, 'n', 00H, 'a', 00H, 'b', 00H, 'l', 00H, 'e', 00H
	DB	'P', 00H, 'r', 00H, 'o', 00H, 'j', 00H, 'e', 00H, 'c', 00H, 't'
	DB	00H, 'o', 00H, 'r', 00H, 'C', 00H, 'u', 00H, 'r', 00H, 's', 00H
	DB	'o', 00H, 'r', 00H, 00H, 00H
$SG4294746140 DB 'P', 00H, 'r', 00H, 'o', 00H, 'f', 00H, 'i', 00H, 'l', 00H
	DB	'e', 00H, 00H, 00H
$SG4294746141 DB 'G', 00H, 'e', 00H, 'n', 00H, 'e', 00H, 'r', 00H, 'a', 00H
	DB	'l', 00H, 00H, 00H
$SG4294746142 DB 'P', 00H, 'r', 00H, 'o', 00H, 'f', 00H, 'i', 00H, 'l', 00H
	DB	'e', 00H, 00H, 00H
$SG4294746143 DB 'S', 00H, 'e', 00H, 't', 00H, 't', 00H, 'i', 00H, 'n', 00H
	DB	'g', 00H, 's', 00H, '.', 00H, 'G', 00H, 'e', 00H, 'n', 00H, 'e'
	DB	00H, 'r', 00H, 'a', 00H, 'l', 00H, '.', 00H, 'R', 00H, 'e', 00H
	DB	's', 00H, 't', 00H, 'a', 00H, 'r', 00H, 't', 00H, 00H, 00H
	ORG $+2
$SG4294746136 DB '.', 00H, 'i', 00H, 'n', 00H, 'i', 00H, 00H, 00H
	ORG $+2
$SG4294746137 DB '\', 00H, 'p', 00H, 'r', 00H, 'o', 00H, 'f', 00H, 'i', 00H
	DB	'l', 00H, 'e', 00H, 's', 00H, '\', 00H, 00H, 00H
	ORG $+2
$SG4294746138 DB 'S', 00H, 'e', 00H, 't', 00H, 't', 00H, 'i', 00H, 'n', 00H
	DB	'g', 00H, 's', 00H, '.', 00H, 'G', 00H, 'e', 00H, 'n', 00H, 'e'
	DB	00H, 'r', 00H, 'a', 00H, 'l', 00H, '.', 00H, 'I', 00H, 'n', 00H
	DB	'v', 00H, 'a', 00H, 'l', 00H, 'i', 00H, 'd', 00H, 'N', 00H, 'a'
	DB	00H, 'm', 00H, 'e', 00H, 00H, 00H
	ORG $+2
$SG4294746139 DB 'G', 00H, 'e', 00H, 'n', 00H, 'e', 00H, 'r', 00H, 'a', 00H
	DB	'l', 00H, 00H, 00H
$SG4294746132 DB 'G', 00H, 'e', 00H, 'n', 00H, 'e', 00H, 'r', 00H, 'a', 00H
	DB	'l', 00H, 00H, 00H
$SG4294746133 DB 'P', 00H, 'r', 00H, 'o', 00H, 'f', 00H, 'i', 00H, 'l', 00H
	DB	'e', 00H, 00H, 00H
$SG4294746134 DB 'S', 00H, 'e', 00H, 't', 00H, 't', 00H, 'i', 00H, 'n', 00H
	DB	'g', 00H, 's', 00H, '.', 00H, 'I', 00H, 'n', 00H, 'f', 00H, 'o'
	DB	00H, 00H, 00H
$SG4294746135 DB 'E', 00H, 'r', 00H, 'r', 00H, 'o', 00H, 'r', 00H, ' ', 00H
	DB	'-', 00H, ' ', 00H, 'u', 00H, 'n', 00H, 'a', 00H, 'b', 00H, 'l'
	DB	00H, 'e', 00H, ' ', 00H, 't', 00H, 'o', 00H, ' ', 00H, 'o', 00H
	DB	'p', 00H, 'e', 00H, 'n', 00H, ' ', 00H, 'i', 00H, 'n', 00H, 'i'
	DB	00H, ' ', 00H, 'f', 00H, 'i', 00H, 'l', 00H, 'e', 00H, 00H, 00H
$SG4294746128 DB '.', 00H, 'i', 00H, 'n', 00H, 'i', 00H, 00H, 00H
	ORG $+2
$SG4294746129 DB '\', 00H, 'p', 00H, 'r', 00H, 'o', 00H, 'f', 00H, 'i', 00H
	DB	'l', 00H, 'e', 00H, 's', 00H, '\', 00H, 00H, 00H
	ORG $+2
$SG4294746130 DB 'G', 00H, 'e', 00H, 'n', 00H, 'e', 00H, 'r', 00H, 'a', 00H
	DB	'l', 00H, 00H, 00H
$SG4294746131 DB 'P', 00H, 'r', 00H, 'o', 00H, 'f', 00H, 'i', 00H, 'l', 00H
	DB	'e', 00H, 00H, 00H
$SG4294746126 DB '.', 00H, 'i', 00H, 'n', 00H, 'i', 00H, 00H, 00H
	ORG $+2
$SG4294746124 DB 'E', 00H, 'r', 00H, 'r', 00H, 'o', 00H, 'r', 00H, ' ', 00H
	DB	'-', 00H, ' ', 00H, 'u', 00H, 'n', 00H, 'a', 00H, 'b', 00H, 'l'
	DB	00H, 'e', 00H, ' ', 00H, 't', 00H, 'o', 00H, ' ', 00H, 'c', 00H
	DB	'r', 00H, 'e', 00H, 'a', 00H, 't', 00H, 'e', 00H, ' ', 00H, 'n'
	DB	00H, 'e', 00H, 'w', 00H, ' ', 00H, 'p', 00H, 'r', 00H, 'o', 00H
	DB	'f', 00H, 'i', 00H, 'l', 00H, 'e', 00H, ',', 00H, ' ', 00H, 'c'
	DB	00H, 'o', 00H, 'u', 00H, 'l', 00H, 'd', 00H, ' ', 00H, 'n', 00H
	DB	'o', 00H, 't', 00H, ' ', 00H, 'c', 00H, 'r', 00H, 'e', 00H, 'a'
	DB	00H, 't', 00H, 'e', 00H, ' ', 00H, 'f', 00H, 'i', 00H, 'l', 00H
	DB	'e', 00H, 00H, 00H
$SG4294746125 DB 'S', 00H, 'e', 00H, 't', 00H, 't', 00H, 'i', 00H, 'n', 00H
	DB	'g', 00H, 's', 00H, '.', 00H, 'G', 00H, 'e', 00H, 'n', 00H, 'e'
	DB	00H, 'r', 00H, 'a', 00H, 'l', 00H, '.', 00H, 'P', 00H, 'r', 00H
	DB	'o', 00H, 'f', 00H, 'i', 00H, 'l', 00H, 'e', 00H, 'E', 00H, 'x'
	DB	00H, 'i', 00H, 's', 00H, 't', 00H, 's', 00H, 00H, 00H
	ORG $+2
$SG4294746127 DB '\', 00H, 'p', 00H, 'r', 00H, 'o', 00H, 'f', 00H, 'i', 00H
	DB	'l', 00H, 'e', 00H, 's', 00H, '\', 00H, 00H, 00H
	ORG $+2
$SG4294746120 DB 'G', 00H, 'e', 00H, 'n', 00H, 'e', 00H, 'r', 00H, 'a', 00H
	DB	'l', 00H, 00H, 00H
$SG4294746121 DB 'P', 00H, 'r', 00H, 'o', 00H, 'f', 00H, 'i', 00H, 'l', 00H
	DB	'e', 00H, 00H, 00H
$SG4294746122 DB 'G', 00H, 'e', 00H, 'n', 00H, 'e', 00H, 'r', 00H, 'a', 00H
	DB	'l', 00H, 00H, 00H
$SG4294746123 DB 'P', 00H, 'r', 00H, 'o', 00H, 'f', 00H, 'i', 00H, 'l', 00H
	DB	'e', 00H, 00H, 00H
$SG4294746116 DB '\', 00H, 'p', 00H, 'r', 00H, 'o', 00H, 'f', 00H, 'i', 00H
	DB	'l', 00H, 'e', 00H, 's', 00H, '\', 00H, 00H, 00H
	ORG $+2
$SG4294746117 DB 'D', 00H, 'e', 00H, 'l', 00H, 'e', 00H, 't', 00H, 'e', 00H
	DB	'C', 00H, 'o', 00H, 'n', 00H, 'f', 00H, 'i', 00H, 'r', 00H, 'm'
	DB	00H, '.', 00H, 'T', 00H, 'i', 00H, 't', 00H, 'l', 00H, 'e', 00H
	DB	00H, 00H
$SG4294746118 DB '$', 00H, '1', 00H, 00H, 00H
	ORG $+2
$SG4294746119 DB 'S', 00H, 'e', 00H, 't', 00H, 't', 00H, 'i', 00H, 'n', 00H
	DB	'g', 00H, 's', 00H, '.', 00H, 'G', 00H, 'e', 00H, 'n', 00H, 'e'
	DB	00H, 'r', 00H, 'a', 00H, 'l', 00H, '.', 00H, 'C', 00H, 'o', 00H
	DB	'n', 00H, 'f', 00H, 'i', 00H, 'r', 00H, 'm', 00H, 'D', 00H, 'e'
	DB	00H, 'l', 00H, 'e', 00H, 't', 00H, 'e', 00H, 00H, 00H
	ORG $+2
$SG4294746115 DB '.', 00H, 'i', 00H, 'n', 00H, 'i', 00H, 00H, 00H
PUBLIC	?ProcMessage@SettingsGeneral@@UAEHIIJ@Z		; SettingsGeneral::ProcMessage
PUBLIC	?HasDefaults@SettingsGeneral@@UBE_NXZ		; SettingsGeneral::HasDefaults
PUBLIC	?CancelSettings@SettingsGeneral@@UAEXXZ		; SettingsGeneral::CancelSettings
PUBLIC	?ApplySettings@SettingsGeneral@@UAEXXZ		; SettingsGeneral::ApplySettings
PUBLIC	?DestroyPane@SettingsGeneral@@UAEXXZ		; SettingsGeneral::DestroyPane
PUBLIC	?CreatePane@SettingsGeneral@@UAEPAUHWND__@@PAU2@@Z ; SettingsGeneral::CreatePane
PUBLIC	?GetCategory@SettingsGeneral@@UBEPB_WXZ		; SettingsGeneral::GetCategory
PUBLIC	??1SettingsGeneral@@UAE@XZ			; SettingsGeneral::~SettingsGeneral
PUBLIC	??_GSettingsGeneral@@UAEPAXI@Z			; SettingsGeneral::`scalar deleting destructor'
PUBLIC	?IsValidFileName@@YAHPB_W@Z			; IsValidFileName
PUBLIC	??0SettingsGeneral@@QAE@XZ			; SettingsGeneral::SettingsGeneral
EXTRN	??_ESettingsGeneral@@UAEPAXI@Z:PROC		; SettingsGeneral::`vector deleting destructor'
	ALIGN	4

__Tuple_alloc DB 01H DUP (?)
_BSS	ENDS
;	COMDAT ?$S1@?1??GetCategory@SettingsGeneral@@UBEPB_WXZ@4IA
_BSS	SEGMENT
?$S1@?1??GetCategory@SettingsGeneral@@UBEPB_WXZ@4IA DD 01H DUP (?) ; S1<`template-parameter-2',SettingsGeneral::tCategory,unsigned int, ?? &>
_BSS	ENDS
;	COMDAT ?name@?1??GetCategory@SettingsGeneral@@UBEPB_WXZ@4PB_WB
_BSS	SEGMENT
?name@?1??GetCategory@SettingsGeneral@@UBEPB_WXZ@4PB_WB DD 01H DUP (?) ; `SettingsGeneral::GetCategory'::`2'::name
	ALIGN	4

_ignore	DB	01H DUP (?)
	ALIGN	4

_allocator_arg DB 01H DUP (?)
	ALIGN	4

_piecewise_construct DB 01H DUP (?)
_BSS	ENDS
_piecewise_construct$initializer$ DD FLAT:??__Epiecewise_construct@std@@YAXXZ
_allocator_arg$initializer$ DD FLAT:??__Eallocator_arg@std@@YAXXZ
_ignore$initializer$ DD FLAT:??__Eignore@std@@YAXXZ
__Tuple_alloc$initializer$ DD FLAT:??__E_Tuple_alloc@std@@YAXXZ
; Function compile flags: /Odtp
; File f:\songmm_moon_stone_obs\obs\source\settingsgeneral.cpp
;	COMDAT ??0SettingsGeneral@@QAE@XZ
_TEXT	SEGMENT
_this$ = -4						; size = 4
??0SettingsGeneral@@QAE@XZ PROC				; SettingsGeneral::SettingsGeneral, COMDAT
; _this$ = ecx

; 55   : {

	push	ebp
	mov	ebp, esp
	push	ecx
	mov	DWORD PTR _this$[ebp], ecx
	mov	ecx, DWORD PTR _this$[ebp]
	call	DWORD PTR __imp_??0SettingsPane@@QAE@XZ
	mov	eax, DWORD PTR _this$[ebp]
	mov	DWORD PTR [eax], OFFSET ??_7SettingsGeneral@@6B@

; 56   : }

	mov	eax, DWORD PTR _this$[ebp]
	mov	esp, ebp
	pop	ebp
	ret	0
??0SettingsGeneral@@QAE@XZ ENDP				; SettingsGeneral::SettingsGeneral
_TEXT	ENDS
; Function compile flags: /Odtp
; File d:\vs2013\vc\include\utility
;	COMDAT ??__Epiecewise_construct@std@@YAXXZ
text$di	SEGMENT
$T1 = -1						; size = 1
??__Epiecewise_construct@std@@YAXXZ PROC		; std::`dynamic initializer for 'piecewise_construct'', COMDAT

; 70   : 	piecewise_construct_t();

	push	ebp
	mov	ebp, esp
	push	ecx
	xor	eax, eax
	mov	BYTE PTR $T1[ebp], al
	mov	esp, ebp
	pop	ebp
	ret	0
??__Epiecewise_construct@std@@YAXXZ ENDP		; std::`dynamic initializer for 'piecewise_construct''
text$di	ENDS
; Function compile flags: /Odtp
; File d:\vs2013\vc\include\xutility
;	COMDAT ??__Eallocator_arg@std@@YAXXZ
text$di	SEGMENT
$T1 = -1						; size = 1
??__Eallocator_arg@std@@YAXXZ PROC			; std::`dynamic initializer for 'allocator_arg'', COMDAT

; 3451 : const allocator_arg_t allocator_arg = allocator_arg_t();

	push	ebp
	mov	ebp, esp
	push	ecx
	xor	eax, eax
	mov	BYTE PTR $T1[ebp], al
	mov	esp, ebp
	pop	ebp
	ret	0
??__Eallocator_arg@std@@YAXXZ ENDP			; std::`dynamic initializer for 'allocator_arg''
text$di	ENDS
; Function compile flags: /Odtp
; File d:\vs2013\vc\include\tuple
;	COMDAT ??__Eignore@std@@YAXXZ
text$di	SEGMENT
??__Eignore@std@@YAXXZ PROC				; std::`dynamic initializer for 'ignore'', COMDAT

; 59   : const _Ignore ignore;

	push	ebp
	mov	ebp, esp
	mov	ecx, OFFSET _ignore
	call	??0_Ignore@std@@QAE@XZ			; std::_Ignore::_Ignore
	pop	ebp
	ret	0
??__Eignore@std@@YAXXZ ENDP				; std::`dynamic initializer for 'ignore''
text$di	ENDS
; Function compile flags: /Odtp
; File d:\vs2013\vc\include\tuple
;	COMDAT ??__E_Tuple_alloc@std@@YAXXZ
text$di	SEGMENT
$T1 = -1						; size = 1
??__E_Tuple_alloc@std@@YAXXZ PROC			; std::`dynamic initializer for '_Tuple_alloc'', COMDAT

; 66   : const _Tuple_alloc_t _Tuple_alloc = _Tuple_alloc_t();

	push	ebp
	mov	ebp, esp
	push	ecx
	xor	eax, eax
	mov	BYTE PTR $T1[ebp], al
	mov	esp, ebp
	pop	ebp
	ret	0
??__E_Tuple_alloc@std@@YAXXZ ENDP			; std::`dynamic initializer for '_Tuple_alloc''
text$di	ENDS
; Function compile flags: /Odtp
; File f:\songmm_moon_stone_obs\obs\source\settingsgeneral.cpp
;	COMDAT ?IsValidFileName@@YAHPB_W@Z
_TEXT	SEGMENT
_lpTemp$ = -4						; size = 4
_lpFileName$ = 8					; size = 4
?IsValidFileName@@YAHPB_W@Z PROC			; IsValidFileName, COMDAT

; 26   : {

	push	ebp
	mov	ebp, esp
	push	ecx

; 27   :     if(!lpFileName || !*lpFileName)

	cmp	DWORD PTR _lpFileName$[ebp], 0
	je	SHORT $LN6@IsValidFil
	mov	eax, DWORD PTR _lpFileName$[ebp]
	movzx	ecx, WORD PTR [eax]
	test	ecx, ecx
	jne	SHORT $LN7@IsValidFil
$LN6@IsValidFil:

; 28   :         return FALSE;

	xor	eax, eax
	jmp	SHORT $LN8@IsValidFil
$LN7@IsValidFil:

; 29   : 
; 30   :     CTSTR lpTemp = lpFileName;

	mov	edx, DWORD PTR _lpFileName$[ebp]
	mov	DWORD PTR _lpTemp$[ebp], edx
$LN5@IsValidFil:

; 31   : 
; 32   :     do 
; 33   :     {
; 34   :         if( *lpTemp == '\\' ||
; 35   :             *lpTemp == '/'  ||
; 36   :             *lpTemp == ':'  ||
; 37   :             *lpTemp == '*'  ||
; 38   :             *lpTemp == '?'  ||
; 39   :             *lpTemp == '"'  ||
; 40   :             *lpTemp == '<'  ||
; 41   :             *lpTemp == '>')

	mov	eax, DWORD PTR _lpTemp$[ebp]
	movzx	ecx, WORD PTR [eax]
	cmp	ecx, 92					; 0000005cH
	je	SHORT $LN1@IsValidFil
	mov	edx, DWORD PTR _lpTemp$[ebp]
	movzx	eax, WORD PTR [edx]
	cmp	eax, 47					; 0000002fH
	je	SHORT $LN1@IsValidFil
	mov	ecx, DWORD PTR _lpTemp$[ebp]
	movzx	edx, WORD PTR [ecx]
	cmp	edx, 58					; 0000003aH
	je	SHORT $LN1@IsValidFil
	mov	eax, DWORD PTR _lpTemp$[ebp]
	movzx	ecx, WORD PTR [eax]
	cmp	ecx, 42					; 0000002aH
	je	SHORT $LN1@IsValidFil
	mov	edx, DWORD PTR _lpTemp$[ebp]
	movzx	eax, WORD PTR [edx]
	cmp	eax, 63					; 0000003fH
	je	SHORT $LN1@IsValidFil
	mov	ecx, DWORD PTR _lpTemp$[ebp]
	movzx	edx, WORD PTR [ecx]
	cmp	edx, 34					; 00000022H
	je	SHORT $LN1@IsValidFil
	mov	eax, DWORD PTR _lpTemp$[ebp]
	movzx	ecx, WORD PTR [eax]
	cmp	ecx, 60					; 0000003cH
	je	SHORT $LN1@IsValidFil
	mov	edx, DWORD PTR _lpTemp$[ebp]
	movzx	eax, WORD PTR [edx]
	cmp	eax, 62					; 0000003eH
	jne	SHORT $LN4@IsValidFil
$LN1@IsValidFil:

; 42   :         {
; 43   :             return FALSE;

	xor	eax, eax
	jmp	SHORT $LN8@IsValidFil
$LN4@IsValidFil:

; 44   :         }
; 45   :     } while (*++lpTemp);

	mov	ecx, DWORD PTR _lpTemp$[ebp]
	add	ecx, 2
	mov	DWORD PTR _lpTemp$[ebp], ecx
	mov	edx, DWORD PTR _lpTemp$[ebp]
	movzx	eax, WORD PTR [edx]
	test	eax, eax
	jne	SHORT $LN5@IsValidFil

; 46   : 
; 47   :     return TRUE;

	mov	eax, 1
$LN8@IsValidFil:

; 48   : }

	mov	esp, ebp
	pop	ebp
	ret	0
?IsValidFileName@@YAHPB_W@Z ENDP			; IsValidFileName
_TEXT	ENDS
; Function compile flags: /Odtp
;	COMDAT ??_GSettingsGeneral@@UAEPAXI@Z
_TEXT	SEGMENT
_this$ = -4						; size = 4
___flags$ = 8						; size = 4
??_GSettingsGeneral@@UAEPAXI@Z PROC			; SettingsGeneral::`scalar deleting destructor', COMDAT
; _this$ = ecx
	push	ebp
	mov	ebp, esp
	push	ecx
	mov	DWORD PTR _this$[ebp], ecx
	mov	ecx, DWORD PTR _this$[ebp]
	call	??1SettingsGeneral@@UAE@XZ		; SettingsGeneral::~SettingsGeneral
	mov	eax, DWORD PTR ___flags$[ebp]
	and	eax, 1
	je	SHORT $LN1@scalar
	mov	ecx, DWORD PTR _this$[ebp]
	push	ecx
	call	??3@YAXPAX@Z				; operator delete
	add	esp, 4
$LN1@scalar:
	mov	eax, DWORD PTR _this$[ebp]
	mov	esp, ebp
	pop	ebp
	ret	4
??_GSettingsGeneral@@UAEPAXI@Z ENDP			; SettingsGeneral::`scalar deleting destructor'
_TEXT	ENDS
; Function compile flags: /Odtp
; File f:\songmm_moon_stone_obs\obs\source\settingsgeneral.cpp
;	COMDAT ??1SettingsGeneral@@UAE@XZ
_TEXT	SEGMENT
_this$ = -4						; size = 4
??1SettingsGeneral@@UAE@XZ PROC				; SettingsGeneral::~SettingsGeneral, COMDAT
; _this$ = ecx

; 59   : {

	push	ebp
	mov	ebp, esp
	push	ecx
	mov	DWORD PTR _this$[ebp], ecx
	mov	eax, DWORD PTR _this$[ebp]
	mov	DWORD PTR [eax], OFFSET ??_7SettingsGeneral@@6B@

; 60   : }

	mov	ecx, DWORD PTR _this$[ebp]
	call	DWORD PTR __imp_??1SettingsPane@@UAE@XZ
	mov	esp, ebp
	pop	ebp
	ret	0
??1SettingsGeneral@@UAE@XZ ENDP				; SettingsGeneral::~SettingsGeneral
_TEXT	ENDS
; Function compile flags: /Odtp
; File f:\songmm_moon_stone_obs\obs\source\settingsgeneral.cpp
;	COMDAT ?GetCategory@SettingsGeneral@@UBEPB_WXZ
_TEXT	SEGMENT
_this$ = -4						; size = 4
?GetCategory@SettingsGeneral@@UBEPB_WXZ PROC		; SettingsGeneral::GetCategory, COMDAT
; _this$ = ecx

; 63   : {

	push	ebp
	mov	ebp, esp
	push	ecx
	mov	DWORD PTR _this$[ebp], ecx

; 64   :     static CTSTR name = Str("Settings.General");

	mov	eax, DWORD PTR ?$S1@?1??GetCategory@SettingsGeneral@@UBEPB_WXZ@4IA
	and	eax, 1
	jne	SHORT $LN1@GetCategor
	mov	ecx, DWORD PTR ?$S1@?1??GetCategory@SettingsGeneral@@UBEPB_WXZ@4IA
	or	ecx, 1
	mov	DWORD PTR ?$S1@?1??GetCategory@SettingsGeneral@@UBEPB_WXZ@4IA, ecx
	push	OFFSET $SG4294746165
	mov	edx, DWORD PTR __imp_?locale@@3PAVLocaleStringLookup@@A
	mov	ecx, DWORD PTR [edx]
	call	DWORD PTR __imp_?LookupString@LocaleStringLookup@@QAEPB_WPB_W@Z
	mov	DWORD PTR ?name@?1??GetCategory@SettingsGeneral@@UBEPB_WXZ@4PB_WB, eax
$LN1@GetCategor:

; 65   :     return name;

	mov	eax, DWORD PTR ?name@?1??GetCategory@SettingsGeneral@@UBEPB_WXZ@4PB_WB

; 66   : }

	mov	esp, ebp
	pop	ebp
	ret	0
?GetCategory@SettingsGeneral@@UBEPB_WXZ ENDP		; SettingsGeneral::GetCategory
_TEXT	ENDS
; Function compile flags: /Odtp
; File f:\songmm_moon_stone_obs\obs\source\settingsgeneral.cpp
;	COMDAT ?CreatePane@SettingsGeneral@@UAEPAUHWND__@@PAU2@@Z
_TEXT	SEGMENT
_this$ = -4						; size = 4
_parentHwnd$ = 8					; size = 4
?CreatePane@SettingsGeneral@@UAEPAUHWND__@@PAU2@@Z PROC	; SettingsGeneral::CreatePane, COMDAT
; _this$ = ecx

; 69   : {

	push	ebp
	mov	ebp, esp
	push	ecx
	mov	DWORD PTR _this$[ebp], ecx

; 70   :     hwnd = OBSCreateDialog(hinstMain, MAKEINTRESOURCE(IDD_SETTINGS_GENERAL), parentHwnd, (DLGPROC)DialogProc, (LPARAM)this);

	mov	eax, DWORD PTR _this$[ebp]
	push	eax
	mov	ecx, DWORD PTR __imp_?DialogProc@SettingsPane@@SGHPAUHWND__@@IIJ@Z
	push	ecx
	mov	edx, DWORD PTR _parentHwnd$[ebp]
	push	edx
	push	117					; 00000075H
	mov	eax, DWORD PTR ?hinstMain@@3PAUHINSTANCE__@@A ; hinstMain
	push	eax
	call	DWORD PTR __imp_?OBSCreateDialog@@YAPAUHWND__@@PAUHINSTANCE__@@PB_WPAU1@P6GH2IIJ@ZJ@Z
	add	esp, 20					; 00000014H
	mov	ecx, DWORD PTR _this$[ebp]
	mov	DWORD PTR [ecx+4], eax

; 71   :     return hwnd;

	mov	edx, DWORD PTR _this$[ebp]
	mov	eax, DWORD PTR [edx+4]

; 72   : }

	mov	esp, ebp
	pop	ebp
	ret	4
?CreatePane@SettingsGeneral@@UAEPAUHWND__@@PAU2@@Z ENDP	; SettingsGeneral::CreatePane
_TEXT	ENDS
; Function compile flags: /Odtp
; File f:\songmm_moon_stone_obs\obs\source\settingsgeneral.cpp
;	COMDAT ?DestroyPane@SettingsGeneral@@UAEXXZ
_TEXT	SEGMENT
_this$ = -4						; size = 4
?DestroyPane@SettingsGeneral@@UAEXXZ PROC		; SettingsGeneral::DestroyPane, COMDAT
; _this$ = ecx

; 75   : {

	push	ebp
	mov	ebp, esp
	push	ecx
	mov	DWORD PTR _this$[ebp], ecx

; 76   :     DestroyWindow(hwnd);

	mov	eax, DWORD PTR _this$[ebp]
	mov	ecx, DWORD PTR [eax+4]
	push	ecx
	call	DWORD PTR __imp__DestroyWindow@4

; 77   :     hwnd = NULL;

	mov	edx, DWORD PTR _this$[ebp]
	mov	DWORD PTR [edx+4], 0

; 78   : }

	mov	esp, ebp
	pop	ebp
	ret	0
?DestroyPane@SettingsGeneral@@UAEXXZ ENDP		; SettingsGeneral::DestroyPane
_TEXT	ENDS
; Function compile flags: /Odtp
; File f:\songmm_moon_stone_obs\obs\source\settingsgeneral.cpp
;	COMDAT ?ApplySettings@SettingsGeneral@@UAEXXZ
_TEXT	SEGMENT
_strLanguageCode$1 = -40				; size = 8
_hwndTemp$ = -32					; size = 4
_curSel$ = -28						; size = 4
tv179 = -24						; size = 4
tv157 = -20						; size = 4
tv135 = -16						; size = 4
tv78 = -12						; size = 4
_this$ = -8						; size = 4
_showLogWindowOnLaunch$ = -3				; size = 1
_bMinimizeToNotificationArea$ = -2			; size = 1
_bShowNotificationAreaIcon$ = -1			; size = 1
?ApplySettings@SettingsGeneral@@UAEXXZ PROC		; SettingsGeneral::ApplySettings, COMDAT
; _this$ = ecx

; 81   : {

	push	ebp
	mov	ebp, esp
	sub	esp, 40					; 00000028H
	mov	DWORD PTR _this$[ebp], ecx

; 82   :     //--------------------------------------------------
; 83   : 
; 84   :     bool bShowNotificationAreaIcon = SendMessage(GetDlgItem(hwnd, IDC_NOTIFICATIONICON), BM_GETCHECK, 0, 0) == BST_CHECKED;

	push	0
	push	0
	push	240					; 000000f0H
	push	1041					; 00000411H
	mov	eax, DWORD PTR _this$[ebp]
	mov	ecx, DWORD PTR [eax+4]
	push	ecx
	call	DWORD PTR __imp__GetDlgItem@8
	push	eax
	call	DWORD PTR __imp__SendMessageW@16
	cmp	eax, 1
	jne	SHORT $LN6@ApplySetti
	mov	DWORD PTR tv78[ebp], 1
	jmp	SHORT $LN7@ApplySetti
$LN6@ApplySetti:
	mov	DWORD PTR tv78[ebp], 0
$LN7@ApplySetti:
	mov	dl, BYTE PTR tv78[ebp]
	mov	BYTE PTR _bShowNotificationAreaIcon$[ebp], dl

; 85   :     AppConfig->SetInt(TEXT("General"), TEXT("ShowNotificationAreaIcon"), bShowNotificationAreaIcon);

	movzx	eax, BYTE PTR _bShowNotificationAreaIcon$[ebp]
	push	eax
	push	OFFSET $SG4294746164
	push	OFFSET $SG4294746163
	mov	ecx, DWORD PTR ?AppConfig@@3PAVConfigFile@@A ; AppConfig
	call	DWORD PTR __imp_?SetInt@ConfigFile@@QAEXPB_W0H@Z

; 86   :     if (bShowNotificationAreaIcon)

	movzx	ecx, BYTE PTR _bShowNotificationAreaIcon$[ebp]
	test	ecx, ecx
	je	SHORT $LN3@ApplySetti

; 87   :         App->ShowNotificationAreaIcon();

	mov	ecx, DWORD PTR ?App@@3PAVOBS@@A		; App
	call	?ShowNotificationAreaIcon@OBS@@QAEHXZ	; OBS::ShowNotificationAreaIcon

; 88   :     else

	jmp	SHORT $LN2@ApplySetti
$LN3@ApplySetti:

; 89   :         App->HideNotificationAreaIcon();

	mov	ecx, DWORD PTR ?App@@3PAVOBS@@A		; App
	call	?HideNotificationAreaIcon@OBS@@QAEHXZ	; OBS::HideNotificationAreaIcon
$LN2@ApplySetti:

; 90   : 
; 91   :     bool bMinimizeToNotificationArea = SendMessage(GetDlgItem(hwnd, IDC_MINIZENOTIFICATION), BM_GETCHECK, 0, 0) == BST_CHECKED;

	push	0
	push	0
	push	240					; 000000f0H
	push	1099					; 0000044bH
	mov	edx, DWORD PTR _this$[ebp]
	mov	eax, DWORD PTR [edx+4]
	push	eax
	call	DWORD PTR __imp__GetDlgItem@8
	push	eax
	call	DWORD PTR __imp__SendMessageW@16
	cmp	eax, 1
	jne	SHORT $LN8@ApplySetti
	mov	DWORD PTR tv135[ebp], 1
	jmp	SHORT $LN9@ApplySetti
$LN8@ApplySetti:
	mov	DWORD PTR tv135[ebp], 0
$LN9@ApplySetti:
	mov	cl, BYTE PTR tv135[ebp]
	mov	BYTE PTR _bMinimizeToNotificationArea$[ebp], cl

; 92   :     AppConfig->SetInt(TEXT("General"), TEXT("MinimizeToNotificationArea"), bMinimizeToNotificationArea);

	movzx	edx, BYTE PTR _bMinimizeToNotificationArea$[ebp]
	push	edx
	push	OFFSET $SG4294746162
	push	OFFSET $SG4294746161
	mov	ecx, DWORD PTR ?AppConfig@@3PAVConfigFile@@A ; AppConfig
	call	DWORD PTR __imp_?SetInt@ConfigFile@@QAEXPB_W0H@Z

; 93   :     
; 94   :     App->bEnableProjectorCursor = (SendMessage(GetDlgItem(hwnd, IDC_ENABLEPROJECTORCURSOR), BM_GETCHECK, 0, 0) == BST_CHECKED);

	push	0
	push	0
	push	240					; 000000f0H
	push	1161					; 00000489H
	mov	eax, DWORD PTR _this$[ebp]
	mov	ecx, DWORD PTR [eax+4]
	push	ecx
	call	DWORD PTR __imp__GetDlgItem@8
	push	eax
	call	DWORD PTR __imp__SendMessageW@16
	cmp	eax, 1
	jne	SHORT $LN10@ApplySetti
	mov	DWORD PTR tv157[ebp], 1
	jmp	SHORT $LN11@ApplySetti
$LN10@ApplySetti:
	mov	DWORD PTR tv157[ebp], 0
$LN11@ApplySetti:
	mov	edx, DWORD PTR ?App@@3PAVOBS@@A		; App
	mov	al, BYTE PTR tv157[ebp]
	mov	BYTE PTR [edx+710], al

; 95   :     GlobalConfig->SetInt(L"General", L"EnableProjectorCursor", App->bEnableProjectorCursor);

	mov	ecx, DWORD PTR ?App@@3PAVOBS@@A		; App
	movzx	edx, BYTE PTR [ecx+710]
	push	edx
	push	OFFSET $SG4294746160
	push	OFFSET $SG4294746159
	mov	ecx, DWORD PTR ?GlobalConfig@@3PAVConfigFile@@A ; GlobalConfig
	call	DWORD PTR __imp_?SetInt@ConfigFile@@QAEXPB_W0H@Z

; 96   : 
; 97   :     bool showLogWindowOnLaunch = SendMessage(GetDlgItem(hwnd, IDC_SHOWLOGWINDOWONLAUNCH), BM_GETCHECK, 0, 0) == BST_CHECKED;

	push	0
	push	0
	push	240					; 000000f0H
	push	1174					; 00000496H
	mov	eax, DWORD PTR _this$[ebp]
	mov	ecx, DWORD PTR [eax+4]
	push	ecx
	call	DWORD PTR __imp__GetDlgItem@8
	push	eax
	call	DWORD PTR __imp__SendMessageW@16
	cmp	eax, 1
	jne	SHORT $LN12@ApplySetti
	mov	DWORD PTR tv179[ebp], 1
	jmp	SHORT $LN13@ApplySetti
$LN12@ApplySetti:
	mov	DWORD PTR tv179[ebp], 0
$LN13@ApplySetti:
	mov	dl, BYTE PTR tv179[ebp]
	mov	BYTE PTR _showLogWindowOnLaunch$[ebp], dl

; 98   :     GlobalConfig->SetInt(L"General", L"ShowLogWindowOnLaunch", showLogWindowOnLaunch);

	movzx	eax, BYTE PTR _showLogWindowOnLaunch$[ebp]
	push	eax
	push	OFFSET $SG4294746158
	push	OFFSET $SG4294746157
	mov	ecx, DWORD PTR ?GlobalConfig@@3PAVConfigFile@@A ; GlobalConfig
	call	DWORD PTR __imp_?SetInt@ConfigFile@@QAEXPB_W0H@Z

; 99   : 
; 100  :     HWND hwndTemp = GetDlgItem(hwnd, IDC_LANGUAGE);

	push	1028					; 00000404H
	mov	ecx, DWORD PTR _this$[ebp]
	mov	edx, DWORD PTR [ecx+4]
	push	edx
	call	DWORD PTR __imp__GetDlgItem@8
	mov	DWORD PTR _hwndTemp$[ebp], eax

; 101  :     int curSel = (int)SendMessage(hwndTemp, CB_GETCURSEL, 0, 0);

	push	0
	push	0
	push	327					; 00000147H
	mov	eax, DWORD PTR _hwndTemp$[ebp]
	push	eax
	call	DWORD PTR __imp__SendMessageW@16
	mov	DWORD PTR _curSel$[ebp], eax

; 102  :     if(curSel != CB_ERR)

	cmp	DWORD PTR _curSel$[ebp], -1
	je	SHORT $LN4@ApplySetti

; 103  :     {
; 104  :         String strLanguageCode = (CTSTR)SendMessage(hwndTemp, CB_GETITEMDATA, curSel, 0);

	push	0
	mov	ecx, DWORD PTR _curSel$[ebp]
	push	ecx
	push	336					; 00000150H
	mov	edx, DWORD PTR _hwndTemp$[ebp]
	push	edx
	call	DWORD PTR __imp__SendMessageW@16
	push	eax
	lea	ecx, DWORD PTR _strLanguageCode$1[ebp]
	call	DWORD PTR __imp_??0String@@QAE@PB_W@Z

; 105  :         GlobalConfig->SetString(TEXT("General"), TEXT("Language"), strLanguageCode);

	lea	ecx, DWORD PTR _strLanguageCode$1[ebp]
	call	DWORD PTR __imp_??BString@@QBEPA_WXZ
	push	eax
	push	OFFSET $SG4294746156
	push	OFFSET $SG4294746155
	mov	ecx, DWORD PTR ?GlobalConfig@@3PAVConfigFile@@A ; GlobalConfig
	call	DWORD PTR __imp_?SetString@ConfigFile@@QAEXPB_W00@Z

; 106  :     }

	lea	ecx, DWORD PTR _strLanguageCode$1[ebp]
	call	DWORD PTR __imp_??1String@@QAE@XZ
$LN4@ApplySetti:

; 107  : }

	mov	esp, ebp
	pop	ebp
	ret	0
?ApplySettings@SettingsGeneral@@UAEXXZ ENDP		; SettingsGeneral::ApplySettings
_TEXT	ENDS
; Function compile flags: /Odtp
; File f:\songmm_moon_stone_obs\obs\source\settingsgeneral.cpp
;	COMDAT ?CancelSettings@SettingsGeneral@@UAEXXZ
_TEXT	SEGMENT
_this$ = -4						; size = 4
?CancelSettings@SettingsGeneral@@UAEXXZ PROC		; SettingsGeneral::CancelSettings, COMDAT
; _this$ = ecx

; 110  : {

	push	ebp
	mov	ebp, esp
	push	ecx
	mov	DWORD PTR _this$[ebp], ecx

; 111  : }

	mov	esp, ebp
	pop	ebp
	ret	0
?CancelSettings@SettingsGeneral@@UAEXXZ ENDP		; SettingsGeneral::CancelSettings
_TEXT	ENDS
; Function compile flags: /Odtp
; File f:\songmm_moon_stone_obs\obs\source\settingsgeneral.cpp
;	COMDAT ?HasDefaults@SettingsGeneral@@UBE_NXZ
_TEXT	SEGMENT
_this$ = -4						; size = 4
?HasDefaults@SettingsGeneral@@UBE_NXZ PROC		; SettingsGeneral::HasDefaults, COMDAT
; _this$ = ecx

; 114  : {

	push	ebp
	mov	ebp, esp
	push	ecx
	mov	DWORD PTR _this$[ebp], ecx

; 115  :     return false;

	xor	al, al

; 116  : }

	mov	esp, ebp
	pop	ebp
	ret	0
?HasDefaults@SettingsGeneral@@UBE_NXZ ENDP		; SettingsGeneral::HasDefaults
_TEXT	ENDS
; Function compile flags: /Odtp
; File f:\songmm_moon_stone_obs\obs\source\settingsgeneral.cpp
;	COMDAT ?ProcMessage@SettingsGeneral@@UAEHIIJ@Z
_TEXT	SEGMENT
_hwndTemp$1 = -844					; size = 4
$T2 = -840						; size = 8
$T3 = -832						; size = 8
$T4 = -824						; size = 8
_strCurProfile$5 = -816					; size = 8
_curProfile$6 = -808					; size = 8
_strCurProfile$7 = -800					; size = 8
_id$8 = -792						; size = 4
_numItems$9 = -788					; size = 4
_id$10 = -784						; size = 4
_numItems$11 = -780					; size = 4
$T12 = -776						; size = 4
$T13 = -772						; size = 4
_numItems$14 = -768					; size = 4
_strConfirm$15 = -764					; size = 8
_numItems$16 = -756					; size = 4
_strCurProfilePath$17 = -752				; size = 8
_langCode$18 = -744					; size = 8
_numItems$19 = -736					; size = 4
_strCurProfile$20 = -732				; size = 8
_strProfile$21 = -724					; size = 8
_strProfilePath$22 = -716				; size = 8
tv341 = -708						; size = 4
tv735 = -704						; size = 4
tv293 = -700						; size = 4
_strCurProfile$23 = -696				; size = 8
_id$24 = -688						; size = 4
_profileList$25 = -684					; size = 8
tv318 = -676						; size = 4
tv264 = -672						; size = 4
tv64 = -668						; size = 4
tv248 = -664						; size = 4
tv557 = -660						; size = 4
tv216 = -656						; size = 4
tv539 = -652						; size = 4
_id$26 = -648						; size = 4
tv335 = -644						; size = 4
tv287 = -640						; size = 4
tv311 = -636						; size = 4
tv941 = -632						; size = 4
tv270 = -628						; size = 4
_curID$27 = -624					; size = 4
tv782 = -620						; size = 4
_strCurProfilePath$28 = -616				; size = 8
_strText$29 = -608					; size = 8
_langInfo$30 = -600					; size = 4
_hFind$31 = -596					; size = 4
_cb$32 = -592						; size = 4
_strProfilePath$33 = -588				; size = 8
tv359 = -580						; size = 4
_strProfile$34 = -576					; size = 8
_i$35 = -568						; size = 4
_hwndProfileList$36 = -564				; size = 4
_i$37 = -560						; size = 4
_id$38 = -556						; size = 4
_bMinimizeToNotificationArea$39 = -551			; size = 1
_bShowNotificationAreaIcon$40 = -550			; size = 1
_showLogWindowOnLaunch$41 = -549			; size = 1
_hwndProfileList$42 = -548				; size = 4
_hwndTemp$43 = -544					; size = 4
_bRenaming$44 = -537					; size = 1
_this$ = -536						; size = 4
_ofd$45 = -532						; size = 528
__$ArrayPad$ = -4					; size = 4
_message$ = 8						; size = 4
_wParam$ = 12						; size = 4
_lParam$ = 16						; size = 4
?ProcMessage@SettingsGeneral@@UAEHIIJ@Z PROC		; SettingsGeneral::ProcMessage, COMDAT
; _this$ = ecx

; 119  : {

	push	ebp
	mov	ebp, esp
	sub	esp, 844				; 0000034cH
	mov	eax, DWORD PTR ___security_cookie
	xor	eax, ebp
	mov	DWORD PTR __$ArrayPad$[ebp], eax
	mov	DWORD PTR _this$[ebp], ecx

; 120  :     switch(message)

	mov	eax, DWORD PTR _message$[ebp]
	mov	DWORD PTR tv64[ebp], eax
	cmp	DWORD PTR tv64[ebp], 272		; 00000110H
	je	SHORT $LN52@ProcMessag
	cmp	DWORD PTR tv64[ebp], 273		; 00000111H
	je	$LN40@ProcMessag
	jmp	$LN53@ProcMessag
$LN52@ProcMessag:

; 121  :     {
; 122  :         case WM_INITDIALOG:
; 123  :             {
; 124  :                 LocalizeWindow(hwnd);

	push	0
	mov	ecx, DWORD PTR _this$[ebp]
	mov	edx, DWORD PTR [ecx+4]
	push	edx
	call	DWORD PTR __imp_?LocalizeWindow@@YAXPAUHWND__@@PAVLocaleStringLookup@@@Z
	add	esp, 8

; 125  : 
; 126  :                 //----------------------------------------------
; 127  : 
; 128  :                 HWND hwndTemp = GetDlgItem(hwnd, IDC_LANGUAGE);

	push	1028					; 00000404H
	mov	eax, DWORD PTR _this$[ebp]
	mov	ecx, DWORD PTR [eax+4]
	push	ecx
	call	DWORD PTR __imp__GetDlgItem@8
	mov	DWORD PTR _hwndTemp$43[ebp], eax

; 129  : 
; 130  :                 OSFindData ofd;
; 131  :                 HANDLE hFind;
; 132  :                 if(hFind = OSFindFirstFile(TEXT("locale/*.txt"), ofd))

	lea	edx, DWORD PTR _ofd$45[ebp]
	push	edx
	push	OFFSET $SG4294746154
	call	DWORD PTR __imp_?OSFindFirstFile@@YGPAXPB_WAAUOSFindData@@@Z
	mov	DWORD PTR _hFind$31[ebp], eax
	cmp	DWORD PTR _hFind$31[ebp], 0
	je	$LN51@ProcMessag
$LN50@ProcMessag:

; 133  :                 {
; 134  :                     do 
; 135  :                     {
; 136  :                         if(ofd.bDirectory) continue;

	cmp	DWORD PTR _ofd$45[ebp+520], 0
	je	SHORT $LN47@ProcMessag
	jmp	$LN49@ProcMessag
$LN47@ProcMessag:

; 137  : 
; 138  :                         String langCode = GetPathFileName(ofd.fileName);

	push	0
	lea	eax, DWORD PTR _ofd$45[ebp]
	push	eax
	lea	ecx, DWORD PTR _langCode$18[ebp]
	push	ecx
	call	DWORD PTR __imp_?GetPathFileName@@YA?AVString@@PB_WH@Z
	add	esp, 12					; 0000000cH

; 139  : 
; 140  :                         LocaleNativeName *langInfo = GetLocaleNativeName(langCode);

	lea	ecx, DWORD PTR _langCode$18[ebp]
	call	DWORD PTR __imp_??BString@@QBEPA_WXZ
	push	eax
	call	DWORD PTR __imp_?GetLocaleNativeName@@YGPAULocaleNativeName@@PB_W@Z
	mov	DWORD PTR _langInfo$30[ebp], eax

; 141  :                         if(langInfo)

	cmp	DWORD PTR _langInfo$30[ebp], 0
	je	$LN46@ProcMessag

; 142  :                         {
; 143  :                             UINT id = (UINT)SendMessage(hwndTemp, CB_ADDSTRING, 0, (LPARAM)langInfo->lpNative);

	mov	edx, DWORD PTR _langInfo$30[ebp]
	mov	eax, DWORD PTR [edx+4]
	push	eax
	push	0
	push	323					; 00000143H
	mov	ecx, DWORD PTR _hwndTemp$43[ebp]
	push	ecx
	call	DWORD PTR __imp__SendMessageW@16
	mov	DWORD PTR _id$26[ebp], eax

; 144  :                             SendMessage(hwndTemp, CB_SETITEMDATA, id, (LPARAM)langInfo->lpCode);

	mov	edx, DWORD PTR _langInfo$30[ebp]
	mov	eax, DWORD PTR [edx]
	push	eax
	mov	ecx, DWORD PTR _id$26[ebp]
	push	ecx
	push	337					; 00000151H
	mov	edx, DWORD PTR _hwndTemp$43[ebp]
	push	edx
	call	DWORD PTR __imp__SendMessageW@16

; 145  : 
; 146  :                             if(App->strLanguage.CompareI(langCode))

	lea	ecx, DWORD PTR _langCode$18[ebp]
	call	DWORD PTR __imp_??BString@@QBEPA_WXZ
	push	eax
	mov	ecx, DWORD PTR ?App@@3PAVOBS@@A		; App
	add	ecx, 612				; 00000264H
	call	DWORD PTR __imp_?CompareI@String@@QBEHPB_W@Z
	test	eax, eax
	je	SHORT $LN46@ProcMessag

; 147  :                                 SendMessage(hwndTemp, CB_SETCURSEL, id, 0);

	push	0
	mov	eax, DWORD PTR _id$26[ebp]
	push	eax
	push	334					; 0000014eH
	mov	ecx, DWORD PTR _hwndTemp$43[ebp]
	push	ecx
	call	DWORD PTR __imp__SendMessageW@16
$LN46@ProcMessag:

; 148  :                         }
; 149  :                     } while(OSFindNextFile(hFind, ofd));

	lea	ecx, DWORD PTR _langCode$18[ebp]
	call	DWORD PTR __imp_??1String@@QAE@XZ
$LN49@ProcMessag:
	lea	edx, DWORD PTR _ofd$45[ebp]
	push	edx
	mov	eax, DWORD PTR _hFind$31[ebp]
	push	eax
	call	DWORD PTR __imp_?OSFindNextFile@@YGHPAXAAUOSFindData@@@Z
	test	eax, eax
	jne	$LN50@ProcMessag

; 150  : 
; 151  :                     OSFindClose(hFind);

	mov	ecx, DWORD PTR _hFind$31[ebp]
	push	ecx
	call	DWORD PTR __imp_?OSFindClose@@YGXPAX@Z
$LN51@ProcMessag:

; 152  :                 }
; 153  : 
; 154  :                 //----------------------------------------------
; 155  : 
; 156  :                 String strCurProfile = GlobalConfig->GetString(TEXT("General"), TEXT("Profile"));

	push	0
	push	OFFSET $SG4294746153
	push	OFFSET $SG4294746152
	lea	edx, DWORD PTR _strCurProfile$7[ebp]
	push	edx
	mov	ecx, DWORD PTR ?GlobalConfig@@3PAVConfigFile@@A ; GlobalConfig
	call	DWORD PTR __imp_?GetString@ConfigFile@@QAE?AVString@@PB_W00@Z

; 157  : 
; 158  :                 hwndTemp = GetDlgItem(hwnd, IDC_PROFILE);

	push	1030					; 00000406H
	mov	eax, DWORD PTR _this$[ebp]
	mov	ecx, DWORD PTR [eax+4]
	push	ecx
	call	DWORD PTR __imp__GetDlgItem@8
	mov	DWORD PTR _hwndTemp$43[ebp], eax

; 159  : 
; 160  :                 StringList profileList;

	lea	ecx, DWORD PTR _profileList$25[ebp]
	call	DWORD PTR __imp_??0StringList@@QAE@XZ

; 161  :                 App->GetProfiles(profileList);

	lea	edx, DWORD PTR _profileList$25[ebp]
	push	edx
	call	?GetProfiles@OBS@@SAXAAVStringList@@@Z	; OBS::GetProfiles
	add	esp, 4

; 162  : 
; 163  :                 for(UINT i=0; i<profileList.Num(); i++)

	mov	DWORD PTR _i$35[ebp], 0
	jmp	SHORT $LN44@ProcMessag
$LN43@ProcMessag:
	mov	eax, DWORD PTR _i$35[ebp]
	add	eax, 1
	mov	DWORD PTR _i$35[ebp], eax
$LN44@ProcMessag:
	lea	ecx, DWORD PTR _profileList$25[ebp]
	call	DWORD PTR __imp_?Num@?$List@VString@@@@QBEIXZ
	cmp	DWORD PTR _i$35[ebp], eax
	jae	$LN42@ProcMessag

; 164  :                 {
; 165  :                     UINT id = (UINT)SendMessage(hwndTemp, CB_ADDSTRING, 0, (LPARAM)profileList[i].Array());

	mov	ecx, DWORD PTR _i$35[ebp]
	push	ecx
	lea	ecx, DWORD PTR _profileList$25[ebp]
	call	DWORD PTR __imp_??A?$List@VString@@@@QAEAAVString@@I@Z
	mov	ecx, eax
	call	DWORD PTR __imp_?Array@String@@QBEPA_WXZ
	push	eax
	push	0
	push	323					; 00000143H
	mov	edx, DWORD PTR _hwndTemp$43[ebp]
	push	edx
	call	DWORD PTR __imp__SendMessageW@16
	mov	DWORD PTR _id$8[ebp], eax

; 166  :                     if(profileList[i].CompareI(strCurProfile))

	lea	ecx, DWORD PTR _strCurProfile$7[ebp]
	call	DWORD PTR __imp_??BString@@QBEPA_WXZ
	push	eax
	mov	eax, DWORD PTR _i$35[ebp]
	push	eax
	lea	ecx, DWORD PTR _profileList$25[ebp]
	call	DWORD PTR __imp_??A?$List@VString@@@@QAEAAVString@@I@Z
	mov	ecx, eax
	call	DWORD PTR __imp_?CompareI@String@@QBEHPB_W@Z
	test	eax, eax
	je	SHORT $LN41@ProcMessag

; 167  :                         SendMessage(hwndTemp, CB_SETCURSEL, id, 0);

	push	0
	mov	ecx, DWORD PTR _id$8[ebp]
	push	ecx
	push	334					; 0000014eH
	mov	edx, DWORD PTR _hwndTemp$43[ebp]
	push	edx
	call	DWORD PTR __imp__SendMessageW@16
$LN41@ProcMessag:

; 168  :                 }

	jmp	$LN43@ProcMessag
$LN42@ProcMessag:

; 169  : 
; 170  :                 EnableWindow(hwndTemp, !App->bRunning);

	mov	eax, DWORD PTR ?App@@3PAVOBS@@A		; App
	movzx	ecx, BYTE PTR [eax+622]
	test	ecx, ecx
	jne	SHORT $LN57@ProcMessag
	mov	DWORD PTR tv216[ebp], 1
	jmp	SHORT $LN58@ProcMessag
$LN57@ProcMessag:
	mov	DWORD PTR tv216[ebp], 0
$LN58@ProcMessag:
	mov	edx, DWORD PTR tv216[ebp]
	push	edx
	mov	eax, DWORD PTR _hwndTemp$43[ebp]
	push	eax
	call	DWORD PTR __imp__EnableWindow@8

; 171  : 
; 172  :                 EnableWindow(GetDlgItem(hwnd, IDC_ADD),     FALSE);

	push	0
	push	1054					; 0000041eH
	mov	ecx, DWORD PTR _this$[ebp]
	mov	edx, DWORD PTR [ecx+4]
	push	edx
	call	DWORD PTR __imp__GetDlgItem@8
	push	eax
	call	DWORD PTR __imp__EnableWindow@8

; 173  :                 EnableWindow(GetDlgItem(hwnd, IDC_RENAME),  FALSE);

	push	0
	push	1060					; 00000424H
	mov	eax, DWORD PTR _this$[ebp]
	mov	ecx, DWORD PTR [eax+4]
	push	ecx
	call	DWORD PTR __imp__GetDlgItem@8
	push	eax
	call	DWORD PTR __imp__EnableWindow@8

; 174  : 
; 175  :                 UINT numItems = (UINT)SendMessage(hwndTemp, CB_GETCOUNT, 0, 0);

	push	0
	push	0
	push	326					; 00000146H
	mov	edx, DWORD PTR _hwndTemp$43[ebp]
	push	edx
	call	DWORD PTR __imp__SendMessageW@16
	mov	DWORD PTR _numItems$9[ebp], eax

; 176  :                 EnableWindow(GetDlgItem(hwnd, IDC_REMOVE),  (numItems > 1) && !App->bRunning);

	cmp	DWORD PTR _numItems$9[ebp], 1
	jbe	SHORT $LN59@ProcMessag
	mov	eax, DWORD PTR ?App@@3PAVOBS@@A		; App
	movzx	ecx, BYTE PTR [eax+622]
	test	ecx, ecx
	jne	SHORT $LN59@ProcMessag
	mov	DWORD PTR tv248[ebp], 1
	jmp	SHORT $LN60@ProcMessag
$LN59@ProcMessag:
	mov	DWORD PTR tv248[ebp], 0
$LN60@ProcMessag:
	mov	edx, DWORD PTR tv248[ebp]
	push	edx
	push	1055					; 0000041fH
	mov	eax, DWORD PTR _this$[ebp]
	mov	ecx, DWORD PTR [eax+4]
	push	ecx
	call	DWORD PTR __imp__GetDlgItem@8
	push	eax
	call	DWORD PTR __imp__EnableWindow@8

; 177  : 
; 178  :                 //----------------------------------------------
; 179  : 
; 180  :                 bool bShowNotificationAreaIcon = AppConfig->GetInt(TEXT("General"), TEXT("ShowNotificationAreaIcon"), 0) != 0;

	push	0
	push	OFFSET $SG4294746151
	push	OFFSET $SG4294746150
	mov	ecx, DWORD PTR ?AppConfig@@3PAVConfigFile@@A ; AppConfig
	call	DWORD PTR __imp_?GetInt@ConfigFile@@QAEHPB_W0H@Z
	test	eax, eax
	je	SHORT $LN61@ProcMessag
	mov	DWORD PTR tv264[ebp], 1
	jmp	SHORT $LN62@ProcMessag
$LN61@ProcMessag:
	mov	DWORD PTR tv264[ebp], 0
$LN62@ProcMessag:
	mov	dl, BYTE PTR tv264[ebp]
	mov	BYTE PTR _bShowNotificationAreaIcon$40[ebp], dl

; 181  :                 SendMessage(GetDlgItem(hwnd, IDC_NOTIFICATIONICON), BM_SETCHECK, bShowNotificationAreaIcon ? BST_CHECKED : BST_UNCHECKED, 0);

	movzx	eax, BYTE PTR _bShowNotificationAreaIcon$40[ebp]
	test	eax, eax
	je	SHORT $LN63@ProcMessag
	mov	DWORD PTR tv270[ebp], 1
	jmp	SHORT $LN64@ProcMessag
$LN63@ProcMessag:
	mov	DWORD PTR tv270[ebp], 0
$LN64@ProcMessag:
	push	0
	mov	ecx, DWORD PTR tv270[ebp]
	push	ecx
	push	241					; 000000f1H
	push	1041					; 00000411H
	mov	edx, DWORD PTR _this$[ebp]
	mov	eax, DWORD PTR [edx+4]
	push	eax
	call	DWORD PTR __imp__GetDlgItem@8
	push	eax
	call	DWORD PTR __imp__SendMessageW@16

; 182  : 
; 183  :                 bool bMinimizeToNotificationArea = AppConfig->GetInt(TEXT("General"), TEXT("MinimizeToNotificationArea"), 0) != 0;

	push	0
	push	OFFSET $SG4294746149
	push	OFFSET $SG4294746148
	mov	ecx, DWORD PTR ?AppConfig@@3PAVConfigFile@@A ; AppConfig
	call	DWORD PTR __imp_?GetInt@ConfigFile@@QAEHPB_W0H@Z
	test	eax, eax
	je	SHORT $LN65@ProcMessag
	mov	DWORD PTR tv287[ebp], 1
	jmp	SHORT $LN66@ProcMessag
$LN65@ProcMessag:
	mov	DWORD PTR tv287[ebp], 0
$LN66@ProcMessag:
	mov	cl, BYTE PTR tv287[ebp]
	mov	BYTE PTR _bMinimizeToNotificationArea$39[ebp], cl

; 184  :                 SendMessage(GetDlgItem(hwnd, IDC_MINIZENOTIFICATION), BM_SETCHECK, bMinimizeToNotificationArea ? BST_CHECKED : BST_UNCHECKED, 0);

	movzx	edx, BYTE PTR _bMinimizeToNotificationArea$39[ebp]
	test	edx, edx
	je	SHORT $LN67@ProcMessag
	mov	DWORD PTR tv293[ebp], 1
	jmp	SHORT $LN68@ProcMessag
$LN67@ProcMessag:
	mov	DWORD PTR tv293[ebp], 0
$LN68@ProcMessag:
	push	0
	mov	eax, DWORD PTR tv293[ebp]
	push	eax
	push	241					; 000000f1H
	push	1099					; 0000044bH
	mov	ecx, DWORD PTR _this$[ebp]
	mov	edx, DWORD PTR [ecx+4]
	push	edx
	call	DWORD PTR __imp__GetDlgItem@8
	push	eax
	call	DWORD PTR __imp__SendMessageW@16

; 185  : 
; 186  :                 //----------------------------------------------
; 187  : 
; 188  :                 App->bEnableProjectorCursor = GlobalConfig->GetInt(L"General", L"EnableProjectorCursor", 1) != 0;

	push	1
	push	OFFSET $SG4294746147
	push	OFFSET $SG4294746146
	mov	ecx, DWORD PTR ?GlobalConfig@@3PAVConfigFile@@A ; GlobalConfig
	call	DWORD PTR __imp_?GetInt@ConfigFile@@QAEHPB_W0H@Z
	test	eax, eax
	je	SHORT $LN69@ProcMessag
	mov	DWORD PTR tv311[ebp], 1
	jmp	SHORT $LN70@ProcMessag
$LN69@ProcMessag:
	mov	DWORD PTR tv311[ebp], 0
$LN70@ProcMessag:
	mov	eax, DWORD PTR ?App@@3PAVOBS@@A		; App
	mov	cl, BYTE PTR tv311[ebp]
	mov	BYTE PTR [eax+710], cl

; 189  :                 SendMessage(GetDlgItem(hwnd, IDC_ENABLEPROJECTORCURSOR), BM_SETCHECK,
; 190  :                         App->bEnableProjectorCursor ? BST_CHECKED : BST_UNCHECKED, 0);

	mov	edx, DWORD PTR ?App@@3PAVOBS@@A		; App
	movzx	eax, BYTE PTR [edx+710]
	test	eax, eax
	je	SHORT $LN71@ProcMessag
	mov	DWORD PTR tv318[ebp], 1
	jmp	SHORT $LN72@ProcMessag
$LN71@ProcMessag:
	mov	DWORD PTR tv318[ebp], 0
$LN72@ProcMessag:
	push	0
	mov	ecx, DWORD PTR tv318[ebp]
	push	ecx
	push	241					; 000000f1H
	push	1161					; 00000489H
	mov	edx, DWORD PTR _this$[ebp]
	mov	eax, DWORD PTR [edx+4]
	push	eax
	call	DWORD PTR __imp__GetDlgItem@8
	push	eax
	call	DWORD PTR __imp__SendMessageW@16

; 191  : 
; 192  :                 //----------------------------------------------
; 193  : 
; 194  :                 bool showLogWindowOnLaunch = GlobalConfig->GetInt(TEXT("General"), TEXT("ShowLogWindowOnLaunch")) != 0;

	push	0
	push	OFFSET $SG4294746145
	push	OFFSET $SG4294746144
	mov	ecx, DWORD PTR ?GlobalConfig@@3PAVConfigFile@@A ; GlobalConfig
	call	DWORD PTR __imp_?GetInt@ConfigFile@@QAEHPB_W0H@Z
	test	eax, eax
	je	SHORT $LN73@ProcMessag
	mov	DWORD PTR tv335[ebp], 1
	jmp	SHORT $LN74@ProcMessag
$LN73@ProcMessag:
	mov	DWORD PTR tv335[ebp], 0
$LN74@ProcMessag:
	mov	cl, BYTE PTR tv335[ebp]
	mov	BYTE PTR _showLogWindowOnLaunch$41[ebp], cl

; 195  :                 SendMessage(GetDlgItem(hwnd, IDC_SHOWLOGWINDOWONLAUNCH), BM_SETCHECK, showLogWindowOnLaunch ? BST_CHECKED : BST_UNCHECKED, 0);

	movzx	edx, BYTE PTR _showLogWindowOnLaunch$41[ebp]
	test	edx, edx
	je	SHORT $LN75@ProcMessag
	mov	DWORD PTR tv341[ebp], 1
	jmp	SHORT $LN76@ProcMessag
$LN75@ProcMessag:
	mov	DWORD PTR tv341[ebp], 0
$LN76@ProcMessag:
	push	0
	mov	eax, DWORD PTR tv341[ebp]
	push	eax
	push	241					; 000000f1H
	push	1174					; 00000496H
	mov	ecx, DWORD PTR _this$[ebp]
	mov	edx, DWORD PTR [ecx+4]
	push	edx
	call	DWORD PTR __imp__GetDlgItem@8
	push	eax
	call	DWORD PTR __imp__SendMessageW@16

; 196  : 
; 197  :                 //----------------------------------------------
; 198  : 
; 199  :                 SetChangedSettings(false);

	push	0
	mov	ecx, DWORD PTR _this$[ebp]
	call	DWORD PTR __imp_?SetChangedSettings@SettingsPane@@IAEX_N@Z

; 200  :                 return TRUE;

	mov	DWORD PTR $T13[ebp], 1
	lea	ecx, DWORD PTR _profileList$25[ebp]
	call	DWORD PTR __imp_??1StringList@@QAE@XZ
	lea	ecx, DWORD PTR _strCurProfile$7[ebp]
	call	DWORD PTR __imp_??1String@@QAE@XZ
	mov	eax, DWORD PTR $T13[ebp]
	jmp	$LN55@ProcMessag
$LN40@ProcMessag:

; 201  :             }
; 202  : 
; 203  :         case WM_COMMAND:
; 204  :             switch(LOWORD(wParam))

	movzx	eax, WORD PTR _wParam$[ebp]
	mov	DWORD PTR tv359[ebp], eax
	mov	ecx, DWORD PTR tv359[ebp]
	sub	ecx, 1028				; 00000404H
	mov	DWORD PTR tv359[ebp], ecx
	cmp	DWORD PTR tv359[ebp], 146		; 00000092H
	ja	$LN53@ProcMessag
	mov	edx, DWORD PTR tv359[ebp]
	movzx	eax, BYTE PTR $LN87@ProcMessag[edx]
	jmp	DWORD PTR $LN88@ProcMessag[eax*4]
$LN37@ProcMessag:

; 205  :             {
; 206  :                 case IDC_LANGUAGE:
; 207  :                     {
; 208  :                         if(HIWORD(wParam) != CBN_SELCHANGE)

	mov	ecx, DWORD PTR _wParam$[ebp]
	shr	ecx, 16					; 00000010H
	movzx	edx, cx
	cmp	edx, 1
	je	SHORT $LN36@ProcMessag

; 209  :                             break;

	jmp	$LN53@ProcMessag
$LN36@ProcMessag:

; 210  : 
; 211  :                         HWND hwndTemp = (HWND)lParam;

	mov	eax, DWORD PTR _lParam$[ebp]
	mov	DWORD PTR _hwndTemp$1[ebp], eax

; 212  : 
; 213  :                         SetWindowText(GetDlgItem(hwnd, IDC_INFO), Str("Settings.General.Restart"));

	push	OFFSET $SG4294746143
	mov	ecx, DWORD PTR __imp_?locale@@3PAVLocaleStringLookup@@A
	mov	ecx, DWORD PTR [ecx]
	call	DWORD PTR __imp_?LookupString@LocaleStringLookup@@QAEPB_WPB_W@Z
	push	eax
	push	1029					; 00000405H
	mov	edx, DWORD PTR _this$[ebp]
	mov	eax, DWORD PTR [edx+4]
	push	eax
	call	DWORD PTR __imp__GetDlgItem@8
	push	eax
	call	DWORD PTR __imp__SetWindowTextW@8

; 214  :                         ShowWindow(GetDlgItem(hwnd, IDC_INFO), SW_SHOW);

	push	5
	push	1029					; 00000405H
	mov	ecx, DWORD PTR _this$[ebp]
	mov	edx, DWORD PTR [ecx+4]
	push	edx
	call	DWORD PTR __imp__GetDlgItem@8
	push	eax
	call	DWORD PTR __imp__ShowWindow@8

; 215  :                         SetChangedSettings(true);

	push	1
	mov	ecx, DWORD PTR _this$[ebp]
	call	DWORD PTR __imp_?SetChangedSettings@SettingsPane@@IAEX_N@Z

; 216  :                         break;

	jmp	$LN53@ProcMessag
$LN35@ProcMessag:

; 217  :                     }
; 218  : 
; 219  :                 case IDC_PROFILE:
; 220  :                     if (App->bRunning)

	mov	eax, DWORD PTR ?App@@3PAVOBS@@A		; App
	movzx	ecx, BYTE PTR [eax+622]
	test	ecx, ecx
	je	$LN34@ProcMessag

; 221  :                     {
; 222  :                         HWND cb = (HWND)lParam;

	mov	edx, DWORD PTR _lParam$[ebp]
	mov	DWORD PTR _cb$32[ebp], edx

; 223  :                         String curProfile = GlobalConfig->GetString(TEXT("General"), TEXT("Profile"));

	push	0
	push	OFFSET $SG4294746142
	push	OFFSET $SG4294746141
	lea	eax, DWORD PTR _curProfile$6[ebp]
	push	eax
	mov	ecx, DWORD PTR ?GlobalConfig@@3PAVConfigFile@@A ; GlobalConfig
	call	DWORD PTR __imp_?GetString@ConfigFile@@QAE?AVString@@PB_W00@Z

; 224  :                         UINT numItems = (UINT)SendMessage(cb, CB_GETCOUNT, 0, 0);

	push	0
	push	0
	push	326					; 00000146H
	mov	ecx, DWORD PTR _cb$32[ebp]
	push	ecx
	call	DWORD PTR __imp__SendMessageW@16
	mov	DWORD PTR _numItems$16[ebp], eax

; 225  :                         for (UINT i = 0; i < numItems; i++)

	mov	DWORD PTR _i$37[ebp], 0
	jmp	SHORT $LN33@ProcMessag
$LN32@ProcMessag:
	mov	edx, DWORD PTR _i$37[ebp]
	add	edx, 1
	mov	DWORD PTR _i$37[ebp], edx
$LN33@ProcMessag:
	mov	eax, DWORD PTR _i$37[ebp]
	cmp	eax, DWORD PTR _numItems$16[ebp]
	jae	SHORT $LN31@ProcMessag

; 226  :                         {
; 227  :                             if (GetCBText(cb, i).Compare(curProfile))

	lea	ecx, DWORD PTR _curProfile$6[ebp]
	call	DWORD PTR __imp_??BString@@QBEPA_WXZ
	push	eax
	mov	ecx, DWORD PTR _i$37[ebp]
	push	ecx
	mov	edx, DWORD PTR _cb$32[ebp]
	push	edx
	lea	eax, DWORD PTR $T4[ebp]
	push	eax
	call	DWORD PTR __imp_?GetCBText@@YA?AVString@@PAUHWND__@@I@Z
	add	esp, 12					; 0000000cH
	mov	ecx, eax
	call	DWORD PTR __imp_?Compare@String@@QBEHPB_W@Z
	mov	DWORD PTR $T12[ebp], eax
	lea	ecx, DWORD PTR $T4[ebp]
	call	DWORD PTR __imp_??1String@@QAE@XZ
	cmp	DWORD PTR $T12[ebp], 0
	je	SHORT $LN30@ProcMessag

; 228  :                                 SendMessage(cb, CB_SETCURSEL, i, 0);

	push	0
	mov	ecx, DWORD PTR _i$37[ebp]
	push	ecx
	push	334					; 0000014eH
	mov	edx, DWORD PTR _cb$32[ebp]
	push	edx
	call	DWORD PTR __imp__SendMessageW@16
$LN30@ProcMessag:

; 229  :                         }

	jmp	$LN32@ProcMessag
$LN31@ProcMessag:

; 230  :                         break;

	lea	ecx, DWORD PTR _curProfile$6[ebp]
	call	DWORD PTR __imp_??1String@@QAE@XZ
	jmp	$LN53@ProcMessag
$LN34@ProcMessag:

; 231  :                     }
; 232  : 
; 233  :                     if(HIWORD(wParam) == CBN_EDITCHANGE)

	mov	eax, DWORD PTR _wParam$[ebp]
	shr	eax, 16					; 00000010H
	movzx	ecx, ax
	cmp	ecx, 5
	jne	$LN29@ProcMessag

; 234  :                     {
; 235  :                         String strText = GetEditText((HWND)lParam).KillSpaces();

	mov	edx, DWORD PTR _lParam$[ebp]
	push	edx
	lea	eax, DWORD PTR $T2[ebp]
	push	eax
	call	DWORD PTR __imp_?GetEditText@@YA?AVString@@PAUHWND__@@@Z
	add	esp, 8
	mov	ecx, eax
	call	DWORD PTR __imp_?KillSpaces@String@@QAEAAV1@XZ
	push	eax
	lea	ecx, DWORD PTR _strText$29[ebp]
	call	DWORD PTR __imp_??0String@@QAE@ABV0@@Z
	lea	ecx, DWORD PTR $T2[ebp]
	call	DWORD PTR __imp_??1String@@QAE@XZ

; 236  : 
; 237  :                         EnableWindow(GetDlgItem(hwnd, IDC_REMOVE),  FALSE);

	push	0
	push	1055					; 0000041fH
	mov	ecx, DWORD PTR _this$[ebp]
	mov	edx, DWORD PTR [ecx+4]
	push	edx
	call	DWORD PTR __imp__GetDlgItem@8
	push	eax
	call	DWORD PTR __imp__EnableWindow@8

; 238  : 
; 239  :                         if(strText.IsValid())

	lea	ecx, DWORD PTR _strText$29[ebp]
	call	DWORD PTR __imp_?IsValid@String@@QBEHXZ
	test	eax, eax
	je	$LN28@ProcMessag

; 240  :                         {
; 241  :                             if(IsValidFileName(strText))

	lea	ecx, DWORD PTR _strText$29[ebp]
	call	DWORD PTR __imp_??BString@@QBEPA_WXZ
	push	eax
	call	?IsValidFileName@@YAHPB_W@Z		; IsValidFileName
	add	esp, 4
	test	eax, eax
	je	$LN27@ProcMessag

; 242  :                             {
; 243  :                                 String strCurProfile = GlobalConfig->GetString(TEXT("General"), TEXT("Profile"));

	push	0
	push	OFFSET $SG4294746140
	push	OFFSET $SG4294746139
	lea	eax, DWORD PTR _strCurProfile$5[ebp]
	push	eax
	mov	ecx, DWORD PTR ?GlobalConfig@@3PAVConfigFile@@A ; GlobalConfig
	call	DWORD PTR __imp_?GetString@ConfigFile@@QAE?AVString@@PB_W00@Z

; 244  : 
; 245  :                                 UINT id = (UINT)SendMessage((HWND)lParam, CB_FINDSTRINGEXACT, -1, (LPARAM)strText.Array());

	lea	ecx, DWORD PTR _strText$29[ebp]
	call	DWORD PTR __imp_?Array@String@@QBEPA_WXZ
	push	eax
	push	-1
	push	344					; 00000158H
	mov	ecx, DWORD PTR _lParam$[ebp]
	push	ecx
	call	DWORD PTR __imp__SendMessageW@16
	mov	DWORD PTR _id$24[ebp], eax

; 246  :                                 EnableWindow(GetDlgItem(hwnd, IDC_ADD),     (id == CB_ERR));

	cmp	DWORD PTR _id$24[ebp], -1
	jne	SHORT $LN77@ProcMessag
	mov	DWORD PTR tv539[ebp], 1
	jmp	SHORT $LN78@ProcMessag
$LN77@ProcMessag:
	mov	DWORD PTR tv539[ebp], 0
$LN78@ProcMessag:
	mov	edx, DWORD PTR tv539[ebp]
	push	edx
	push	1054					; 0000041eH
	mov	eax, DWORD PTR _this$[ebp]
	mov	ecx, DWORD PTR [eax+4]
	push	ecx
	call	DWORD PTR __imp__GetDlgItem@8
	push	eax
	call	DWORD PTR __imp__EnableWindow@8

; 247  :                                 EnableWindow(GetDlgItem(hwnd, IDC_RENAME),  (id == CB_ERR) || strCurProfile.CompareI(strText));

	cmp	DWORD PTR _id$24[ebp], -1
	je	SHORT $LN79@ProcMessag
	lea	ecx, DWORD PTR _strText$29[ebp]
	call	DWORD PTR __imp_??BString@@QBEPA_WXZ
	push	eax
	lea	ecx, DWORD PTR _strCurProfile$5[ebp]
	call	DWORD PTR __imp_?CompareI@String@@QBEHPB_W@Z
	test	eax, eax
	jne	SHORT $LN79@ProcMessag
	mov	DWORD PTR tv557[ebp], 0
	jmp	SHORT $LN80@ProcMessag
$LN79@ProcMessag:
	mov	DWORD PTR tv557[ebp], 1
$LN80@ProcMessag:
	mov	edx, DWORD PTR tv557[ebp]
	push	edx
	push	1060					; 00000424H
	mov	eax, DWORD PTR _this$[ebp]
	mov	ecx, DWORD PTR [eax+4]
	push	ecx
	call	DWORD PTR __imp__GetDlgItem@8
	push	eax
	call	DWORD PTR __imp__EnableWindow@8

; 248  : 
; 249  :                                 ShowWindow(GetDlgItem(hwnd, IDC_INFO), SW_HIDE);

	push	0
	push	1029					; 00000405H
	mov	edx, DWORD PTR _this$[ebp]
	mov	eax, DWORD PTR [edx+4]
	push	eax
	call	DWORD PTR __imp__GetDlgItem@8
	push	eax
	call	DWORD PTR __imp__ShowWindow@8

; 250  :                                 break;

	lea	ecx, DWORD PTR _strCurProfile$5[ebp]
	call	DWORD PTR __imp_??1String@@QAE@XZ
	lea	ecx, DWORD PTR _strText$29[ebp]
	call	DWORD PTR __imp_??1String@@QAE@XZ
	jmp	$LN53@ProcMessag
$LN27@ProcMessag:

; 251  :                             }
; 252  : 
; 253  :                             SetWindowText(GetDlgItem(hwnd, IDC_INFO), Str("Settings.General.InvalidName"));

	push	OFFSET $SG4294746138
	mov	ecx, DWORD PTR __imp_?locale@@3PAVLocaleStringLookup@@A
	mov	ecx, DWORD PTR [ecx]
	call	DWORD PTR __imp_?LookupString@LocaleStringLookup@@QAEPB_WPB_W@Z
	push	eax
	push	1029					; 00000405H
	mov	edx, DWORD PTR _this$[ebp]
	mov	eax, DWORD PTR [edx+4]
	push	eax
	call	DWORD PTR __imp__GetDlgItem@8
	push	eax
	call	DWORD PTR __imp__SetWindowTextW@8

; 254  :                             ShowWindow(GetDlgItem(hwnd, IDC_INFO), SW_SHOW);

	push	5
	push	1029					; 00000405H
	mov	ecx, DWORD PTR _this$[ebp]
	mov	edx, DWORD PTR [ecx+4]
	push	edx
	call	DWORD PTR __imp__GetDlgItem@8
	push	eax
	call	DWORD PTR __imp__ShowWindow@8

; 255  :                         }
; 256  :                         else

	jmp	SHORT $LN26@ProcMessag
$LN28@ProcMessag:

; 257  :                             ShowWindow(GetDlgItem(hwnd, IDC_INFO), SW_HIDE);

	push	0
	push	1029					; 00000405H
	mov	eax, DWORD PTR _this$[ebp]
	mov	ecx, DWORD PTR [eax+4]
	push	ecx
	call	DWORD PTR __imp__GetDlgItem@8
	push	eax
	call	DWORD PTR __imp__ShowWindow@8
$LN26@ProcMessag:

; 258  : 
; 259  :                         EnableWindow(GetDlgItem(hwnd, IDC_ADD),     FALSE);

	push	0
	push	1054					; 0000041eH
	mov	edx, DWORD PTR _this$[ebp]
	mov	eax, DWORD PTR [edx+4]
	push	eax
	call	DWORD PTR __imp__GetDlgItem@8
	push	eax
	call	DWORD PTR __imp__EnableWindow@8

; 260  :                         EnableWindow(GetDlgItem(hwnd, IDC_RENAME),  FALSE);

	push	0
	push	1060					; 00000424H
	mov	ecx, DWORD PTR _this$[ebp]
	mov	edx, DWORD PTR [ecx+4]
	push	edx
	call	DWORD PTR __imp__GetDlgItem@8
	push	eax
	call	DWORD PTR __imp__EnableWindow@8

; 261  :                     }

	lea	ecx, DWORD PTR _strText$29[ebp]
	call	DWORD PTR __imp_??1String@@QAE@XZ
	jmp	$LN25@ProcMessag
$LN29@ProcMessag:

; 262  :                     else if(HIWORD(wParam) == CBN_SELCHANGE)

	mov	eax, DWORD PTR _wParam$[ebp]
	shr	eax, 16					; 00000010H
	movzx	ecx, ax
	cmp	ecx, 1
	jne	$LN25@ProcMessag

; 263  :                     {
; 264  :                         EnableWindow(GetDlgItem(hwnd, IDC_ADD),     FALSE);

	push	0
	push	1054					; 0000041eH
	mov	edx, DWORD PTR _this$[ebp]
	mov	eax, DWORD PTR [edx+4]
	push	eax
	call	DWORD PTR __imp__GetDlgItem@8
	push	eax
	call	DWORD PTR __imp__EnableWindow@8

; 265  :                         EnableWindow(GetDlgItem(hwnd, IDC_RENAME),  FALSE);

	push	0
	push	1060					; 00000424H
	mov	ecx, DWORD PTR _this$[ebp]
	mov	edx, DWORD PTR [ecx+4]
	push	edx
	call	DWORD PTR __imp__GetDlgItem@8
	push	eax
	call	DWORD PTR __imp__EnableWindow@8

; 266  : 
; 267  :                         String strProfile = GetCBText((HWND)lParam);

	push	-1
	mov	eax, DWORD PTR _lParam$[ebp]
	push	eax
	lea	ecx, DWORD PTR _strProfile$21[ebp]
	push	ecx
	call	DWORD PTR __imp_?GetCBText@@YA?AVString@@PAUHWND__@@I@Z
	add	esp, 12					; 0000000cH

; 268  :                         String strProfilePath;

	lea	ecx, DWORD PTR _strProfilePath$22[ebp]
	call	DWORD PTR __imp_??0String@@QAE@XZ

; 269  :                         strProfilePath << lpAppDataPath << TEXT("\\profiles\\") << strProfile << TEXT(".ini");

	push	OFFSET $SG4294746136
	lea	edx, DWORD PTR _strProfile$21[ebp]
	push	edx
	push	OFFSET $SG4294746137
	push	OFFSET ?lpAppDataPath@@3PA_WA		; lpAppDataPath
	lea	ecx, DWORD PTR _strProfilePath$22[ebp]
	call	DWORD PTR __imp_??6String@@QAEAAV0@PB_W@Z
	mov	ecx, eax
	call	DWORD PTR __imp_??6String@@QAEAAV0@PB_W@Z
	mov	ecx, eax
	call	DWORD PTR __imp_??6String@@QAEAAV0@ABV0@@Z
	mov	ecx, eax
	call	DWORD PTR __imp_??6String@@QAEAAV0@PB_W@Z

; 270  : 
; 271  :                         if(!AppConfig->Open(strProfilePath))

	push	0
	lea	ecx, DWORD PTR _strProfilePath$22[ebp]
	call	DWORD PTR __imp_??BString@@QBEPA_WXZ
	push	eax
	mov	ecx, DWORD PTR ?AppConfig@@3PAVConfigFile@@A ; AppConfig
	call	DWORD PTR __imp_?Open@ConfigFile@@QAEHPB_WH@Z
	test	eax, eax
	jne	SHORT $LN23@ProcMessag

; 272  :                         {
; 273  :                             OBSMessageBox(hwnd, TEXT("Error - unable to open ini file"), NULL, 0);

	push	0
	push	0
	push	OFFSET $SG4294746135
	mov	eax, DWORD PTR _this$[ebp]
	mov	ecx, DWORD PTR [eax+4]
	push	ecx
	call	DWORD PTR __imp_?OBSMessageBox@@YAHPAUHWND__@@PB_W1I@Z
	add	esp, 16					; 00000010H

; 274  :                             break;

	lea	ecx, DWORD PTR _strProfilePath$22[ebp]
	call	DWORD PTR __imp_??1String@@QAE@XZ
	lea	ecx, DWORD PTR _strProfile$21[ebp]
	call	DWORD PTR __imp_??1String@@QAE@XZ
	jmp	$LN53@ProcMessag
$LN23@ProcMessag:

; 275  :                         }
; 276  : 
; 277  :                         App->ReloadIniSettings();

	mov	ecx, DWORD PTR ?App@@3PAVOBS@@A		; App
	call	?ReloadIniSettings@OBS@@AAEXXZ		; OBS::ReloadIniSettings

; 278  : 
; 279  :                         SetWindowText(GetDlgItem(hwnd, IDC_INFO), Str("Settings.Info"));

	push	OFFSET $SG4294746134
	mov	edx, DWORD PTR __imp_?locale@@3PAVLocaleStringLookup@@A
	mov	ecx, DWORD PTR [edx]
	call	DWORD PTR __imp_?LookupString@LocaleStringLookup@@QAEPB_WPB_W@Z
	push	eax
	push	1029					; 00000405H
	mov	eax, DWORD PTR _this$[ebp]
	mov	ecx, DWORD PTR [eax+4]
	push	ecx
	call	DWORD PTR __imp__GetDlgItem@8
	push	eax
	call	DWORD PTR __imp__SetWindowTextW@8

; 280  :                         ShowWindow(GetDlgItem(hwnd, IDC_INFO), SW_SHOW);

	push	5
	push	1029					; 00000405H
	mov	edx, DWORD PTR _this$[ebp]
	mov	eax, DWORD PTR [edx+4]
	push	eax
	call	DWORD PTR __imp__GetDlgItem@8
	push	eax
	call	DWORD PTR __imp__ShowWindow@8

; 281  : 
; 282  :                         GlobalConfig->SetString(TEXT("General"), TEXT("Profile"), strProfile);

	lea	ecx, DWORD PTR _strProfile$21[ebp]
	call	DWORD PTR __imp_??BString@@QBEPA_WXZ
	push	eax
	push	OFFSET $SG4294746133
	push	OFFSET $SG4294746132
	mov	ecx, DWORD PTR ?GlobalConfig@@3PAVConfigFile@@A ; GlobalConfig
	call	DWORD PTR __imp_?SetString@ConfigFile@@QAEXPB_W00@Z

; 283  :                         App->ResetProfileMenu();

	call	?ResetProfileMenu@OBS@@CAXXZ		; OBS::ResetProfileMenu

; 284  :                         App->ResetApplicationName();

	call	?ResetApplicationName@OBS@@CAXXZ	; OBS::ResetApplicationName

; 285  :                         App->UpdateNotificationAreaIcon();

	mov	ecx, DWORD PTR ?App@@3PAVOBS@@A		; App
	call	?UpdateNotificationAreaIcon@OBS@@QAEHXZ	; OBS::UpdateNotificationAreaIcon

; 286  : 
; 287  :                         UINT numItems = (UINT)SendMessage(GetDlgItem(hwnd, IDC_PROFILE), CB_GETCOUNT, 0, 0);

	push	0
	push	0
	push	326					; 00000146H
	push	1030					; 00000406H
	mov	ecx, DWORD PTR _this$[ebp]
	mov	edx, DWORD PTR [ecx+4]
	push	edx
	call	DWORD PTR __imp__GetDlgItem@8
	push	eax
	call	DWORD PTR __imp__SendMessageW@16
	mov	DWORD PTR _numItems$14[ebp], eax

; 288  :                         EnableWindow(GetDlgItem(hwnd, IDC_REMOVE),  (numItems > 1));

	cmp	DWORD PTR _numItems$14[ebp], 1
	jbe	SHORT $LN81@ProcMessag
	mov	DWORD PTR tv735[ebp], 1
	jmp	SHORT $LN82@ProcMessag
$LN81@ProcMessag:
	mov	DWORD PTR tv735[ebp], 0
$LN82@ProcMessag:
	mov	eax, DWORD PTR tv735[ebp]
	push	eax
	push	1055					; 0000041fH
	mov	ecx, DWORD PTR _this$[ebp]
	mov	edx, DWORD PTR [ecx+4]
	push	edx
	call	DWORD PTR __imp__GetDlgItem@8
	push	eax
	call	DWORD PTR __imp__EnableWindow@8

; 289  : 
; 290  :                         App->ResizeWindow(false);

	push	0
	mov	ecx, DWORD PTR ?App@@3PAVOBS@@A		; App
	call	?ResizeWindow@OBS@@QAEX_N@Z		; OBS::ResizeWindow

; 291  :                     }

	lea	ecx, DWORD PTR _strProfilePath$22[ebp]
	call	DWORD PTR __imp_??1String@@QAE@XZ
	lea	ecx, DWORD PTR _strProfile$21[ebp]
	call	DWORD PTR __imp_??1String@@QAE@XZ
$LN25@ProcMessag:

; 292  :                     break;

	jmp	$LN53@ProcMessag
$LN22@ProcMessag:

; 293  :                 case IDC_RENAME:
; 294  :                 case IDC_ADD:
; 295  :                     if (App->bRunning)

	mov	eax, DWORD PTR ?App@@3PAVOBS@@A		; App
	movzx	ecx, BYTE PTR [eax+622]
	test	ecx, ecx
	je	SHORT $LN21@ProcMessag

; 296  :                         break;

	jmp	$LN53@ProcMessag
$LN21@ProcMessag:

; 297  : 
; 298  :                     if(HIWORD(wParam) == BN_CLICKED)

	mov	edx, DWORD PTR _wParam$[ebp]
	shr	edx, 16					; 00000010H
	movzx	eax, dx
	test	eax, eax
	jne	$LN20@ProcMessag

; 299  :                     {
; 300  :                         HWND hwndProfileList = GetDlgItem(hwnd, IDC_PROFILE);

	push	1030					; 00000406H
	mov	ecx, DWORD PTR _this$[ebp]
	mov	edx, DWORD PTR [ecx+4]
	push	edx
	call	DWORD PTR __imp__GetDlgItem@8
	mov	DWORD PTR _hwndProfileList$42[ebp], eax

; 301  :                         String strProfile = GetEditText(hwndProfileList).KillSpaces();

	mov	eax, DWORD PTR _hwndProfileList$42[ebp]
	push	eax
	lea	ecx, DWORD PTR $T3[ebp]
	push	ecx
	call	DWORD PTR __imp_?GetEditText@@YA?AVString@@PAUHWND__@@@Z
	add	esp, 8
	mov	ecx, eax
	call	DWORD PTR __imp_?KillSpaces@String@@QAEAAV1@XZ
	push	eax
	lea	ecx, DWORD PTR _strProfile$34[ebp]
	call	DWORD PTR __imp_??0String@@QAE@ABV0@@Z
	lea	ecx, DWORD PTR $T3[ebp]
	call	DWORD PTR __imp_??1String@@QAE@XZ

; 302  :                         SetWindowText(hwndProfileList, strProfile);

	lea	ecx, DWORD PTR _strProfile$34[ebp]
	call	DWORD PTR __imp_??BString@@QBEPA_WXZ
	push	eax
	mov	edx, DWORD PTR _hwndProfileList$42[ebp]
	push	edx
	call	DWORD PTR __imp__SetWindowTextW@8

; 303  : 
; 304  :                         if(strProfile.IsEmpty())

	lea	ecx, DWORD PTR _strProfile$34[ebp]
	call	DWORD PTR __imp_?IsEmpty@String@@QBEHXZ
	test	eax, eax
	je	SHORT $LN19@ProcMessag

; 305  :                             break;

	lea	ecx, DWORD PTR _strProfile$34[ebp]
	call	DWORD PTR __imp_??1String@@QAE@XZ
	jmp	$LN53@ProcMessag
$LN19@ProcMessag:

; 306  : 
; 307  :                         bool bRenaming = (LOWORD(wParam) == IDC_RENAME);

	movzx	eax, WORD PTR _wParam$[ebp]
	cmp	eax, 1060				; 00000424H
	jne	SHORT $LN83@ProcMessag
	mov	DWORD PTR tv782[ebp], 1
	jmp	SHORT $LN84@ProcMessag
$LN83@ProcMessag:
	mov	DWORD PTR tv782[ebp], 0
$LN84@ProcMessag:
	mov	cl, BYTE PTR tv782[ebp]
	mov	BYTE PTR _bRenaming$44[ebp], cl

; 308  : 
; 309  :                         String strCurProfile = GlobalConfig->GetString(TEXT("General"), TEXT("Profile"));

	push	0
	push	OFFSET $SG4294746131
	push	OFFSET $SG4294746130
	lea	edx, DWORD PTR _strCurProfile$23[ebp]
	push	edx
	mov	ecx, DWORD PTR ?GlobalConfig@@3PAVConfigFile@@A ; GlobalConfig
	call	DWORD PTR __imp_?GetString@ConfigFile@@QAE?AVString@@PB_W00@Z

; 310  :                         String strCurProfilePath;

	lea	ecx, DWORD PTR _strCurProfilePath$28[ebp]
	call	DWORD PTR __imp_??0String@@QAE@XZ

; 311  :                         strCurProfilePath << lpAppDataPath << TEXT("\\profiles\\") << strCurProfile << TEXT(".ini");

	push	OFFSET $SG4294746128
	lea	eax, DWORD PTR _strCurProfile$23[ebp]
	push	eax
	push	OFFSET $SG4294746129
	push	OFFSET ?lpAppDataPath@@3PA_WA		; lpAppDataPath
	lea	ecx, DWORD PTR _strCurProfilePath$28[ebp]
	call	DWORD PTR __imp_??6String@@QAEAAV0@PB_W@Z
	mov	ecx, eax
	call	DWORD PTR __imp_??6String@@QAEAAV0@PB_W@Z
	mov	ecx, eax
	call	DWORD PTR __imp_??6String@@QAEAAV0@ABV0@@Z
	mov	ecx, eax
	call	DWORD PTR __imp_??6String@@QAEAAV0@PB_W@Z

; 312  : 
; 313  :                         String strProfilePath;

	lea	ecx, DWORD PTR _strProfilePath$33[ebp]
	call	DWORD PTR __imp_??0String@@QAE@XZ

; 314  :                         strProfilePath << lpAppDataPath << TEXT("\\profiles\\") << strProfile << TEXT(".ini");

	push	OFFSET $SG4294746126
	lea	ecx, DWORD PTR _strProfile$34[ebp]
	push	ecx
	push	OFFSET $SG4294746127
	push	OFFSET ?lpAppDataPath@@3PA_WA		; lpAppDataPath
	lea	ecx, DWORD PTR _strProfilePath$33[ebp]
	call	DWORD PTR __imp_??6String@@QAEAAV0@PB_W@Z
	mov	ecx, eax
	call	DWORD PTR __imp_??6String@@QAEAAV0@PB_W@Z
	mov	ecx, eax
	call	DWORD PTR __imp_??6String@@QAEAAV0@ABV0@@Z
	mov	ecx, eax
	call	DWORD PTR __imp_??6String@@QAEAAV0@PB_W@Z

; 315  : 
; 316  :                         if((!bRenaming || !strProfilePath.CompareI(strCurProfilePath)) && OSFileExists(strProfilePath))

	movzx	edx, BYTE PTR _bRenaming$44[ebp]
	test	edx, edx
	je	SHORT $LN17@ProcMessag
	lea	ecx, DWORD PTR _strCurProfilePath$28[ebp]
	call	DWORD PTR __imp_??BString@@QBEPA_WXZ
	push	eax
	lea	ecx, DWORD PTR _strProfilePath$33[ebp]
	call	DWORD PTR __imp_?CompareI@String@@QBEHPB_W@Z
	test	eax, eax
	jne	SHORT $LN18@ProcMessag
$LN17@ProcMessag:
	lea	ecx, DWORD PTR _strProfilePath$33[ebp]
	call	DWORD PTR __imp_??BString@@QBEPA_WXZ
	push	eax
	call	DWORD PTR __imp_?OSFileExists@@YGHPB_W@Z
	test	eax, eax
	je	SHORT $LN18@ProcMessag

; 317  :                             OBSMessageBox(hwnd, Str("Settings.General.ProfileExists"), NULL, 0);

	push	0
	push	0
	push	OFFSET $SG4294746125
	mov	eax, DWORD PTR __imp_?locale@@3PAVLocaleStringLookup@@A
	mov	ecx, DWORD PTR [eax]
	call	DWORD PTR __imp_?LookupString@LocaleStringLookup@@QAEPB_WPB_W@Z
	push	eax
	mov	ecx, DWORD PTR _this$[ebp]
	mov	edx, DWORD PTR [ecx+4]
	push	edx
	call	DWORD PTR __imp_?OBSMessageBox@@YAHPAUHWND__@@PB_W1I@Z
	add	esp, 16					; 00000010H

; 318  :                         else

	jmp	$LN16@ProcMessag
$LN18@ProcMessag:

; 319  :                         {
; 320  :                             if(bRenaming)

	movzx	eax, BYTE PTR _bRenaming$44[ebp]
	test	eax, eax
	je	$LN15@ProcMessag

; 321  :                             {
; 322  :                                 if(!MoveFile(strCurProfilePath, strProfilePath))

	lea	ecx, DWORD PTR _strProfilePath$33[ebp]
	call	DWORD PTR __imp_??BString@@QBEPA_WXZ
	push	eax
	lea	ecx, DWORD PTR _strCurProfilePath$28[ebp]
	call	DWORD PTR __imp_??BString@@QBEPA_WXZ
	push	eax
	call	DWORD PTR __imp__MoveFileW@8
	test	eax, eax
	jne	SHORT $LN14@ProcMessag

; 323  :                                     break;

	lea	ecx, DWORD PTR _strProfilePath$33[ebp]
	call	DWORD PTR __imp_??1String@@QAE@XZ
	lea	ecx, DWORD PTR _strCurProfilePath$28[ebp]
	call	DWORD PTR __imp_??1String@@QAE@XZ
	lea	ecx, DWORD PTR _strCurProfile$23[ebp]
	call	DWORD PTR __imp_??1String@@QAE@XZ
	lea	ecx, DWORD PTR _strProfile$34[ebp]
	call	DWORD PTR __imp_??1String@@QAE@XZ
	jmp	$LN53@ProcMessag
$LN14@ProcMessag:

; 324  : 
; 325  :                                 AppConfig->SetFilePath(strProfilePath);

	lea	ecx, DWORD PTR _strProfilePath$33[ebp]
	call	DWORD PTR __imp_??BString@@QBEPA_WXZ
	push	eax
	mov	ecx, DWORD PTR ?AppConfig@@3PAVConfigFile@@A ; AppConfig
	call	DWORD PTR __imp_?SetFilePath@ConfigFile@@QAEXPB_W@Z

; 326  : 
; 327  :                                 UINT curID = (UINT)SendMessage(hwndProfileList, CB_FINDSTRINGEXACT, -1, (LPARAM)strCurProfile.Array());

	lea	ecx, DWORD PTR _strCurProfile$23[ebp]
	call	DWORD PTR __imp_?Array@String@@QBEPA_WXZ
	push	eax
	push	-1
	push	344					; 00000158H
	mov	ecx, DWORD PTR _hwndProfileList$42[ebp]
	push	ecx
	call	DWORD PTR __imp__SendMessageW@16
	mov	DWORD PTR _curID$27[ebp], eax

; 328  :                                 if(curID != CB_ERR)

	cmp	DWORD PTR _curID$27[ebp], -1
	je	SHORT $LN13@ProcMessag

; 329  :                                     SendMessage(hwndProfileList, CB_DELETESTRING, curID, 0);

	push	0
	mov	edx, DWORD PTR _curID$27[ebp]
	push	edx
	push	324					; 00000144H
	mov	eax, DWORD PTR _hwndProfileList$42[ebp]
	push	eax
	call	DWORD PTR __imp__SendMessageW@16
$LN13@ProcMessag:

; 330  :                             }
; 331  :                             else

	jmp	SHORT $LN12@ProcMessag
$LN15@ProcMessag:

; 332  :                             {
; 333  :                                 if(!AppConfig->SaveAs(strProfilePath))

	lea	ecx, DWORD PTR _strProfilePath$33[ebp]
	call	DWORD PTR __imp_??BString@@QBEPA_WXZ
	push	eax
	mov	ecx, DWORD PTR ?AppConfig@@3PAVConfigFile@@A ; AppConfig
	call	DWORD PTR __imp_?SaveAs@ConfigFile@@QAEHPB_W@Z
	test	eax, eax
	jne	SHORT $LN12@ProcMessag

; 334  :                                 {
; 335  :                                     OBSMessageBox(hwnd, TEXT("Error - unable to create new profile, could not create file"), NULL, 0);

	push	0
	push	0
	push	OFFSET $SG4294746124
	mov	ecx, DWORD PTR _this$[ebp]
	mov	edx, DWORD PTR [ecx+4]
	push	edx
	call	DWORD PTR __imp_?OBSMessageBox@@YAHPAUHWND__@@PB_W1I@Z
	add	esp, 16					; 00000010H

; 336  :                                     break;

	lea	ecx, DWORD PTR _strProfilePath$33[ebp]
	call	DWORD PTR __imp_??1String@@QAE@XZ
	lea	ecx, DWORD PTR _strCurProfilePath$28[ebp]
	call	DWORD PTR __imp_??1String@@QAE@XZ
	lea	ecx, DWORD PTR _strCurProfile$23[ebp]
	call	DWORD PTR __imp_??1String@@QAE@XZ
	lea	ecx, DWORD PTR _strProfile$34[ebp]
	call	DWORD PTR __imp_??1String@@QAE@XZ
	jmp	$LN53@ProcMessag
$LN12@ProcMessag:

; 337  :                                 }
; 338  :                             }
; 339  : 
; 340  :                             UINT id = (UINT)SendMessage(hwndProfileList, CB_ADDSTRING, 0, (LPARAM)strProfile.Array());

	lea	ecx, DWORD PTR _strProfile$34[ebp]
	call	DWORD PTR __imp_?Array@String@@QBEPA_WXZ
	push	eax
	push	0
	push	323					; 00000143H
	mov	eax, DWORD PTR _hwndProfileList$42[ebp]
	push	eax
	call	DWORD PTR __imp__SendMessageW@16
	mov	DWORD PTR _id$10[ebp], eax

; 341  :                             SendMessage(hwndProfileList, CB_SETCURSEL, id, 0);

	push	0
	mov	ecx, DWORD PTR _id$10[ebp]
	push	ecx
	push	334					; 0000014eH
	mov	edx, DWORD PTR _hwndProfileList$42[ebp]
	push	edx
	call	DWORD PTR __imp__SendMessageW@16

; 342  :                             GlobalConfig->SetString(TEXT("General"), TEXT("Profile"), strProfile);

	lea	ecx, DWORD PTR _strProfile$34[ebp]
	call	DWORD PTR __imp_??BString@@QBEPA_WXZ
	push	eax
	push	OFFSET $SG4294746123
	push	OFFSET $SG4294746122
	mov	ecx, DWORD PTR ?GlobalConfig@@3PAVConfigFile@@A ; GlobalConfig
	call	DWORD PTR __imp_?SetString@ConfigFile@@QAEXPB_W00@Z

; 343  : 
; 344  :                             UINT numItems = (UINT)SendMessage(hwndProfileList, CB_GETCOUNT, 0, 0);

	push	0
	push	0
	push	326					; 00000146H
	mov	eax, DWORD PTR _hwndProfileList$42[ebp]
	push	eax
	call	DWORD PTR __imp__SendMessageW@16
	mov	DWORD PTR _numItems$19[ebp], eax

; 345  :                             EnableWindow(GetDlgItem(hwnd, IDC_REMOVE),  (numItems > 1));

	cmp	DWORD PTR _numItems$19[ebp], 1
	jbe	SHORT $LN85@ProcMessag
	mov	DWORD PTR tv941[ebp], 1
	jmp	SHORT $LN86@ProcMessag
$LN85@ProcMessag:
	mov	DWORD PTR tv941[ebp], 0
$LN86@ProcMessag:
	mov	ecx, DWORD PTR tv941[ebp]
	push	ecx
	push	1055					; 0000041fH
	mov	edx, DWORD PTR _this$[ebp]
	mov	eax, DWORD PTR [edx+4]
	push	eax
	call	DWORD PTR __imp__GetDlgItem@8
	push	eax
	call	DWORD PTR __imp__EnableWindow@8

; 346  :                             EnableWindow(GetDlgItem(hwnd, IDC_RENAME),  FALSE);

	push	0
	push	1060					; 00000424H
	mov	ecx, DWORD PTR _this$[ebp]
	mov	edx, DWORD PTR [ecx+4]
	push	edx
	call	DWORD PTR __imp__GetDlgItem@8
	push	eax
	call	DWORD PTR __imp__EnableWindow@8

; 347  :                             EnableWindow(GetDlgItem(hwnd, IDC_ADD),     FALSE);

	push	0
	push	1054					; 0000041eH
	mov	eax, DWORD PTR _this$[ebp]
	mov	ecx, DWORD PTR [eax+4]
	push	ecx
	call	DWORD PTR __imp__GetDlgItem@8
	push	eax
	call	DWORD PTR __imp__EnableWindow@8

; 348  : 
; 349  :                             App->ResetProfileMenu();

	call	?ResetProfileMenu@OBS@@CAXXZ		; OBS::ResetProfileMenu

; 350  :                             App->ResetApplicationName();

	call	?ResetApplicationName@OBS@@CAXXZ	; OBS::ResetApplicationName
$LN16@ProcMessag:

; 351  :                         }
; 352  :                     }

	lea	ecx, DWORD PTR _strProfilePath$33[ebp]
	call	DWORD PTR __imp_??1String@@QAE@XZ
	lea	ecx, DWORD PTR _strCurProfilePath$28[ebp]
	call	DWORD PTR __imp_??1String@@QAE@XZ
	lea	ecx, DWORD PTR _strCurProfile$23[ebp]
	call	DWORD PTR __imp_??1String@@QAE@XZ
	lea	ecx, DWORD PTR _strProfile$34[ebp]
	call	DWORD PTR __imp_??1String@@QAE@XZ
$LN20@ProcMessag:

; 353  :                     break;

	jmp	$LN53@ProcMessag
$LN10@ProcMessag:

; 354  : 
; 355  :                 case IDC_REMOVE:
; 356  :                     if (App->bRunning)

	mov	edx, DWORD PTR ?App@@3PAVOBS@@A		; App
	movzx	eax, BYTE PTR [edx+622]
	test	eax, eax
	je	SHORT $LN9@ProcMessag

; 357  :                         break;

	jmp	$LN53@ProcMessag
$LN9@ProcMessag:

; 358  : 
; 359  :                     {
; 360  :                         HWND hwndProfileList = GetDlgItem(hwnd, IDC_PROFILE);

	push	1030					; 00000406H
	mov	ecx, DWORD PTR _this$[ebp]
	mov	edx, DWORD PTR [ecx+4]
	push	edx
	call	DWORD PTR __imp__GetDlgItem@8
	mov	DWORD PTR _hwndProfileList$36[ebp], eax

; 361  : 
; 362  :                         String strCurProfile = GlobalConfig->GetString(TEXT("General"), TEXT("Profile"));

	push	0
	push	OFFSET $SG4294746121
	push	OFFSET $SG4294746120
	lea	eax, DWORD PTR _strCurProfile$20[ebp]
	push	eax
	mov	ecx, DWORD PTR ?GlobalConfig@@3PAVConfigFile@@A ; GlobalConfig
	call	DWORD PTR __imp_?GetString@ConfigFile@@QAE?AVString@@PB_W00@Z

; 363  : 
; 364  :                         UINT numItems = (UINT)SendMessage(hwndProfileList, CB_GETCOUNT, 0, 0);

	push	0
	push	0
	push	326					; 00000146H
	mov	ecx, DWORD PTR _hwndProfileList$36[ebp]
	push	ecx
	call	DWORD PTR __imp__SendMessageW@16
	mov	DWORD PTR _numItems$11[ebp], eax

; 365  : 
; 366  :                         String strConfirm = Str("Settings.General.ConfirmDelete");

	push	OFFSET $SG4294746119
	mov	edx, DWORD PTR __imp_?locale@@3PAVLocaleStringLookup@@A
	mov	ecx, DWORD PTR [edx]
	call	DWORD PTR __imp_?LookupString@LocaleStringLookup@@QAEPB_WPB_W@Z
	push	eax
	lea	ecx, DWORD PTR _strConfirm$15[ebp]
	call	DWORD PTR __imp_??0String@@QAE@PB_W@Z

; 367  :                         strConfirm.FindReplace(TEXT("$1"), strCurProfile);

	lea	ecx, DWORD PTR _strCurProfile$20[ebp]
	call	DWORD PTR __imp_??BString@@QBEPA_WXZ
	push	eax
	push	OFFSET $SG4294746118
	lea	ecx, DWORD PTR _strConfirm$15[ebp]
	call	DWORD PTR __imp_?FindReplace@String@@QAEAAV1@PB_W0@Z

; 368  :                         if(OBSMessageBox(hwnd, strConfirm, Str("DeleteConfirm.Title"), MB_YESNO) == IDYES)

	push	4
	push	OFFSET $SG4294746117
	mov	eax, DWORD PTR __imp_?locale@@3PAVLocaleStringLookup@@A
	mov	ecx, DWORD PTR [eax]
	call	DWORD PTR __imp_?LookupString@LocaleStringLookup@@QAEPB_WPB_W@Z
	push	eax
	lea	ecx, DWORD PTR _strConfirm$15[ebp]
	call	DWORD PTR __imp_??BString@@QBEPA_WXZ
	push	eax
	mov	ecx, DWORD PTR _this$[ebp]
	mov	edx, DWORD PTR [ecx+4]
	push	edx
	call	DWORD PTR __imp_?OBSMessageBox@@YAHPAUHWND__@@PB_W1I@Z
	add	esp, 16					; 00000010H
	cmp	eax, 6
	jne	$LN8@ProcMessag

; 369  :                         {
; 370  :                             UINT id = (UINT)SendMessage(hwndProfileList, CB_FINDSTRINGEXACT, -1, (LPARAM)strCurProfile.Array());

	lea	ecx, DWORD PTR _strCurProfile$20[ebp]
	call	DWORD PTR __imp_?Array@String@@QBEPA_WXZ
	push	eax
	push	-1
	push	344					; 00000158H
	mov	eax, DWORD PTR _hwndProfileList$36[ebp]
	push	eax
	call	DWORD PTR __imp__SendMessageW@16
	mov	DWORD PTR _id$38[ebp], eax

; 371  :                             if(id != CB_ERR)

	cmp	DWORD PTR _id$38[ebp], -1
	je	$LN8@ProcMessag

; 372  :                             {
; 373  :                                 SendMessage(hwndProfileList, CB_DELETESTRING, id, 0);

	push	0
	mov	ecx, DWORD PTR _id$38[ebp]
	push	ecx
	push	324					; 00000144H
	mov	edx, DWORD PTR _hwndProfileList$36[ebp]
	push	edx
	call	DWORD PTR __imp__SendMessageW@16

; 374  :                                 if(id == numItems-1)

	mov	eax, DWORD PTR _numItems$11[ebp]
	sub	eax, 1
	cmp	DWORD PTR _id$38[ebp], eax
	jne	SHORT $LN6@ProcMessag

; 375  :                                     id--;

	mov	ecx, DWORD PTR _id$38[ebp]
	sub	ecx, 1
	mov	DWORD PTR _id$38[ebp], ecx
$LN6@ProcMessag:

; 376  : 
; 377  :                                 SendMessage(hwndProfileList, CB_SETCURSEL, id, 0);

	push	0
	mov	edx, DWORD PTR _id$38[ebp]
	push	edx
	push	334					; 0000014eH
	mov	eax, DWORD PTR _hwndProfileList$36[ebp]
	push	eax
	call	DWORD PTR __imp__SendMessageW@16

; 378  :                                 DialogProc(hwnd, WM_COMMAND, MAKEWPARAM(IDC_PROFILE, CBN_SELCHANGE), (LPARAM)hwndProfileList);

	mov	ecx, DWORD PTR _hwndProfileList$36[ebp]
	push	ecx
	push	66566					; 00010406H
	push	273					; 00000111H
	mov	edx, DWORD PTR _this$[ebp]
	mov	eax, DWORD PTR [edx+4]
	push	eax
	call	DWORD PTR __imp_?DialogProc@SettingsPane@@SGHPAUHWND__@@IIJ@Z

; 379  : 
; 380  :                                 String strCurProfilePath;

	lea	ecx, DWORD PTR _strCurProfilePath$17[ebp]
	call	DWORD PTR __imp_??0String@@QAE@XZ

; 381  :                                 strCurProfilePath << lpAppDataPath << TEXT("\\profiles\\") << strCurProfile << TEXT(".ini");

	push	OFFSET $SG4294746115
	lea	ecx, DWORD PTR _strCurProfile$20[ebp]
	push	ecx
	push	OFFSET $SG4294746116
	push	OFFSET ?lpAppDataPath@@3PA_WA		; lpAppDataPath
	lea	ecx, DWORD PTR _strCurProfilePath$17[ebp]
	call	DWORD PTR __imp_??6String@@QAEAAV0@PB_W@Z
	mov	ecx, eax
	call	DWORD PTR __imp_??6String@@QAEAAV0@PB_W@Z
	mov	ecx, eax
	call	DWORD PTR __imp_??6String@@QAEAAV0@ABV0@@Z
	mov	ecx, eax
	call	DWORD PTR __imp_??6String@@QAEAAV0@PB_W@Z

; 382  :                                 OSDeleteFile(strCurProfilePath);

	lea	ecx, DWORD PTR _strCurProfilePath$17[ebp]
	call	DWORD PTR __imp_??BString@@QBEPA_WXZ
	push	eax
	call	DWORD PTR __imp_?OSDeleteFile@@YGHPB_W@Z

; 383  : 
; 384  :                                 App->ResetProfileMenu();

	call	?ResetProfileMenu@OBS@@CAXXZ		; OBS::ResetProfileMenu

; 385  :                             }

	lea	ecx, DWORD PTR _strCurProfilePath$17[ebp]
	call	DWORD PTR __imp_??1String@@QAE@XZ
$LN8@ProcMessag:

; 386  :                         }
; 387  : 
; 388  :                         break;

	lea	ecx, DWORD PTR _strConfirm$15[ebp]
	call	DWORD PTR __imp_??1String@@QAE@XZ
	lea	ecx, DWORD PTR _strCurProfile$20[ebp]
	call	DWORD PTR __imp_??1String@@QAE@XZ
	jmp	$LN53@ProcMessag
$LN5@ProcMessag:

; 389  :                     }
; 390  :                 case IDC_NOTIFICATIONICON:
; 391  :                     if (SendMessage(GetDlgItem(hwnd, IDC_NOTIFICATIONICON), BM_GETCHECK, 0, 0) == BST_UNCHECKED)

	push	0
	push	0
	push	240					; 000000f0H
	push	1041					; 00000411H
	mov	edx, DWORD PTR _this$[ebp]
	mov	eax, DWORD PTR [edx+4]
	push	eax
	call	DWORD PTR __imp__GetDlgItem@8
	push	eax
	call	DWORD PTR __imp__SendMessageW@16
	test	eax, eax
	jne	SHORT $LN4@ProcMessag

; 392  :                     {
; 393  :                         SendMessage(GetDlgItem(hwnd, IDC_MINIZENOTIFICATION), BM_SETCHECK, BST_UNCHECKED, 0);

	push	0
	push	0
	push	241					; 000000f1H
	push	1099					; 0000044bH
	mov	ecx, DWORD PTR _this$[ebp]
	mov	edx, DWORD PTR [ecx+4]
	push	edx
	call	DWORD PTR __imp__GetDlgItem@8
	push	eax
	call	DWORD PTR __imp__SendMessageW@16
$LN4@ProcMessag:

; 394  :                     }
; 395  :                     SetChangedSettings(true);

	push	1
	mov	ecx, DWORD PTR _this$[ebp]
	call	DWORD PTR __imp_?SetChangedSettings@SettingsPane@@IAEX_N@Z

; 396  :                     break;

	jmp	SHORT $LN53@ProcMessag
$LN3@ProcMessag:

; 397  : 
; 398  :                 case IDC_MINIZENOTIFICATION:
; 399  :                     if (SendMessage(GetDlgItem(hwnd, IDC_MINIZENOTIFICATION), BM_GETCHECK, 0, 0) == BST_CHECKED)

	push	0
	push	0
	push	240					; 000000f0H
	push	1099					; 0000044bH
	mov	eax, DWORD PTR _this$[ebp]
	mov	ecx, DWORD PTR [eax+4]
	push	ecx
	call	DWORD PTR __imp__GetDlgItem@8
	push	eax
	call	DWORD PTR __imp__SendMessageW@16
	cmp	eax, 1
	jne	SHORT $LN2@ProcMessag

; 400  :                     {
; 401  :                         SendMessage(GetDlgItem(hwnd, IDC_NOTIFICATIONICON), BM_SETCHECK, BST_CHECKED, 0);

	push	0
	push	1
	push	241					; 000000f1H
	push	1041					; 00000411H
	mov	edx, DWORD PTR _this$[ebp]
	mov	eax, DWORD PTR [edx+4]
	push	eax
	call	DWORD PTR __imp__GetDlgItem@8
	push	eax
	call	DWORD PTR __imp__SendMessageW@16
$LN2@ProcMessag:

; 402  :                     }
; 403  :                     SetChangedSettings(true);

	push	1
	mov	ecx, DWORD PTR _this$[ebp]
	call	DWORD PTR __imp_?SetChangedSettings@SettingsPane@@IAEX_N@Z

; 404  :                     break;

	jmp	SHORT $LN53@ProcMessag
$LN1@ProcMessag:

; 405  : 
; 406  :                 case IDC_ENABLEPROJECTORCURSOR:
; 407  :                 case IDC_SHOWLOGWINDOWONLAUNCH:
; 408  :                     SetChangedSettings(true);

	push	1
	mov	ecx, DWORD PTR _this$[ebp]
	call	DWORD PTR __imp_?SetChangedSettings@SettingsPane@@IAEX_N@Z
$LN53@ProcMessag:

; 409  :                     break;
; 410  :             }
; 411  : 
; 412  :     }
; 413  :     return FALSE;

	xor	eax, eax
$LN55@ProcMessag:

; 414  : }

	mov	ecx, DWORD PTR __$ArrayPad$[ebp]
	xor	ecx, ebp
	call	@__security_check_cookie@4
	mov	esp, ebp
	pop	ebp
	ret	12					; 0000000cH
	npad	3
$LN88@ProcMessag:
	DD	$LN37@ProcMessag
	DD	$LN35@ProcMessag
	DD	$LN5@ProcMessag
	DD	$LN22@ProcMessag
	DD	$LN10@ProcMessag
	DD	$LN3@ProcMessag
	DD	$LN1@ProcMessag
	DD	$LN53@ProcMessag
$LN87@ProcMessag:
	DB	0
	DB	7
	DB	1
	DB	7
	DB	7
	DB	7
	DB	7
	DB	7
	DB	7
	DB	7
	DB	7
	DB	7
	DB	7
	DB	2
	DB	7
	DB	7
	DB	7
	DB	7
	DB	7
	DB	7
	DB	7
	DB	7
	DB	7
	DB	7
	DB	7
	DB	7
	DB	3
	DB	4
	DB	7
	DB	7
	DB	7
	DB	7
	DB	3
	DB	7
	DB	7
	DB	7
	DB	7
	DB	7
	DB	7
	DB	7
	DB	7
	DB	7
	DB	7
	DB	7
	DB	7
	DB	7
	DB	7
	DB	7
	DB	7
	DB	7
	DB	7
	DB	7
	DB	7
	DB	7
	DB	7
	DB	7
	DB	7
	DB	7
	DB	7
	DB	7
	DB	7
	DB	7
	DB	7
	DB	7
	DB	7
	DB	7
	DB	7
	DB	7
	DB	7
	DB	7
	DB	7
	DB	5
	DB	7
	DB	7
	DB	7
	DB	7
	DB	7
	DB	7
	DB	7
	DB	7
	DB	7
	DB	7
	DB	7
	DB	7
	DB	7
	DB	7
	DB	7
	DB	7
	DB	7
	DB	7
	DB	7
	DB	7
	DB	7
	DB	7
	DB	7
	DB	7
	DB	7
	DB	7
	DB	7
	DB	7
	DB	7
	DB	7
	DB	7
	DB	7
	DB	7
	DB	7
	DB	7
	DB	7
	DB	7
	DB	7
	DB	7
	DB	7
	DB	7
	DB	7
	DB	7
	DB	7
	DB	7
	DB	7
	DB	7
	DB	7
	DB	7
	DB	7
	DB	7
	DB	7
	DB	7
	DB	7
	DB	7
	DB	7
	DB	7
	DB	7
	DB	7
	DB	7
	DB	7
	DB	6
	DB	7
	DB	7
	DB	7
	DB	7
	DB	7
	DB	7
	DB	7
	DB	7
	DB	7
	DB	7
	DB	7
	DB	7
	DB	6
?ProcMessage@SettingsGeneral@@UAEHIIJ@Z ENDP		; SettingsGeneral::ProcMessage
_TEXT	ENDS
END
