; Listing generated by Microsoft (R) Optimizing Compiler Version 18.00.21005.1 

	TITLE	F:\songmm_moon_stone_obs\OBS\Source\TextOutputSource.cpp
	.686P
	.XMM
	include listing.inc
	.model	flat

INCLUDELIB OLDNAMES

PUBLIC	??_R3Brush@Gdiplus@@8				; Gdiplus::Brush::`RTTI Class Hierarchy Descriptor'
PUBLIC	??_R4Brush@Gdiplus@@6B@				; Gdiplus::Brush::`RTTI Complete Object Locator'
PUBLIC	??_R2Brush@Gdiplus@@8				; Gdiplus::Brush::`RTTI Base Class Array'
PUBLIC	??_7Bitmap@Gdiplus@@6B@				; Gdiplus::Bitmap::`vftable'
PUBLIC	??_R2Bitmap@Gdiplus@@8				; Gdiplus::Bitmap::`RTTI Base Class Array'
PUBLIC	??_R0?AVSolidBrush@Gdiplus@@@8			; Gdiplus::SolidBrush `RTTI Type Descriptor'
PUBLIC	??_R1A@?0A@EA@TextOutputSource@@8		; TextOutputSource::`RTTI Base Class Descriptor at (0,-1,0,64)'
PUBLIC	??_7SolidBrush@Gdiplus@@6B@			; Gdiplus::SolidBrush::`vftable'
PUBLIC	??_7TextOutputSource@@6B@			; TextOutputSource::`vftable'
PUBLIC	??_R1A@?0A@EA@Brush@Gdiplus@@8			; Gdiplus::Brush::`RTTI Base Class Descriptor at (0,-1,0,64)'
PUBLIC	??_R4Bitmap@Gdiplus@@6B@			; Gdiplus::Bitmap::`RTTI Complete Object Locator'
PUBLIC	??_R4TextOutputSource@@6B@			; TextOutputSource::`RTTI Complete Object Locator'
PUBLIC	??_R3Bitmap@Gdiplus@@8				; Gdiplus::Bitmap::`RTTI Class Hierarchy Descriptor'
PUBLIC	??_7Brush@Gdiplus@@6B@				; Gdiplus::Brush::`vftable'
PUBLIC	??_R0?AVBitmap@Gdiplus@@@8			; Gdiplus::Bitmap `RTTI Type Descriptor'
PUBLIC	??_R1A@?0A@EA@Bitmap@Gdiplus@@8			; Gdiplus::Bitmap::`RTTI Base Class Descriptor at (0,-1,0,64)'
PUBLIC	??_R4SolidBrush@Gdiplus@@6B@			; Gdiplus::SolidBrush::`RTTI Complete Object Locator'
PUBLIC	??_R3SolidBrush@Gdiplus@@8			; Gdiplus::SolidBrush::`RTTI Class Hierarchy Descriptor'
PUBLIC	??_R1A@?0A@EA@SolidBrush@Gdiplus@@8		; Gdiplus::SolidBrush::`RTTI Base Class Descriptor at (0,-1,0,64)'
PUBLIC	??_R3TextOutputSource@@8			; TextOutputSource::`RTTI Class Hierarchy Descriptor'
PUBLIC	??_R0?AVTextOutputSource@@@8			; TextOutputSource `RTTI Type Descriptor'
PUBLIC	??_R0?AVBrush@Gdiplus@@@8			; Gdiplus::Brush `RTTI Type Descriptor'
PUBLIC	??_R2SolidBrush@Gdiplus@@8			; Gdiplus::SolidBrush::`RTTI Base Class Array'
PUBLIC	??_R2TextOutputSource@@8			; TextOutputSource::`RTTI Base Class Array'
PUBLIC	??_C@_1MC@FLMNODJI@?$AAT?$AAe?$AAx?$AAt?$AAS?$AAo?$AAu?$AAr?$AAc?$AAe?$AA?3?$AA?3?$AAU?$AAp?$AAd?$AAa?$AAt?$AAe?$AAT?$AAe?$AAx?$AAt?$AAu?$AAr?$AAe?$AA?3?$AA?5?$AAc?$AAo?$AAu?$AAl?$AAd@ ; `string'
PUBLIC	??_C@_1M@KAKMLIHO@?$AAA?$AAr?$AAi?$AAa?$AAl?$AA?$AA@ ; `string'
PUBLIC	??_C@_15BNMMKFOH@?$AA?6?$AA?$AN?$AA?$AA@	; `string'
PUBLIC	??_C@_13LBAGMAIH@?$AA?6?$AA?$AA@		; `string'
PUBLIC	??_C@_1GM@LBANKIPA@?$AAT?$AAe?$AAx?$AAt?$AAS?$AAo?$AAu?$AAr?$AAc?$AAe?$AA?3?$AA?3?$AAU?$AAp?$AAd?$AAa?$AAt?$AAe?$AAT?$AAe?$AAx?$AAt?$AAu?$AAr?$AAe?$AA?3?$AA?5?$AAG?$AAr?$AAa?$AAp?$AAh@ ; `string'
PUBLIC	??_C@_1IO@LNGIDPGF@?$AAT?$AAe?$AAx?$AAt?$AAS?$AAo?$AAu?$AAr?$AAc?$AAe?$AA?3?$AA?3?$AAU?$AAp?$AAd?$AAa?$AAt?$AAe?$AAT?$AAe?$AAx?$AAt?$AAu?$AAr?$AAe?$AA?3?$AA?5?$AAG?$AAd?$AAi?$AAp?$AAl@ ; `string'
PUBLIC	??_C@_1GI@IMEHDNAB@?$AAT?$AAe?$AAx?$AAt?$AAS?$AAo?$AAu?$AAr?$AAc?$AAe?$AA?3?$AA?3?$AAU?$AAp?$AAd?$AAa?$AAt?$AAe?$AAT?$AAe?$AAx?$AAt?$AAu?$AAr?$AAe?$AA?3?$AA?5?$AAc?$AAo?$AAu?$AAl?$AAd@ ; `string'
PUBLIC	??_C@_1HG@DMEJMMLD@?$AAT?$AAe?$AAx?$AAt?$AAS?$AAo?$AAu?$AAr?$AAc?$AAe?$AA?3?$AA?3?$AAU?$AAp?$AAd?$AAa?$AAt?$AAe?$AAT?$AAe?$AAx?$AAt?$AAu?$AAr?$AAe?$AA?3?$AA?5?$AAG?$AAr?$AAa?$AAp?$AAh@ ; `string'
PUBLIC	??_C@_19BPOEAIEI@?$AAf?$AAo?$AAn?$AAt?$AA?$AA@	; `string'
PUBLIC	??_C@_1CE@HAFKHHGD@?$AAU?$AAs?$AAi?$AAn?$AAg?$AA?5?$AAt?$AAe?$AAx?$AAt?$AA?5?$AAo?$AAu?$AAt?$AAp?$AAu?$AAt?$AA?$AA@ ; `string'
PUBLIC	??_C@_1BI@IBCEPOLC@?$AAt?$AAe?$AAx?$AAt?$AAO?$AAp?$AAa?$AAc?$AAi?$AAt?$AAy?$AA?$AA@ ; `string'
PUBLIC	??_C@_1BC@JNDEGBLF@?$AAf?$AAo?$AAn?$AAt?$AAS?$AAi?$AAz?$AAe?$AA?$AA@ ; `string'
PUBLIC	??_C@_19LNOFOKG@?$AAb?$AAo?$AAl?$AAd?$AA?$AA@	; `string'
PUBLIC	??_C@_1BI@DNMBKHIA@?$AAs?$AAc?$AAr?$AAo?$AAl?$AAl?$AAS?$AAp?$AAe?$AAe?$AAd?$AA?$AA@ ; `string'
PUBLIC	??_C@_19EOACODOG@?$AAw?$AAr?$AAa?$AAp?$AA?$AA@	; `string'
PUBLIC	??_C@_1O@JEIKJABP@?$AAi?$AAt?$AAa?$AAl?$AAi?$AAc?$AA?$AA@ ; `string'
PUBLIC	??_C@_1BE@PNICDMNG@?$AAu?$AAn?$AAd?$AAe?$AAr?$AAl?$AAi?$AAn?$AAe?$AA?$AA@ ; `string'
PUBLIC	??_C@_1BG@IFAPLEM@?$AAs?$AAc?$AAr?$AAo?$AAl?$AAl?$AAM?$AAo?$AAd?$AAe?$AA?$AA@ ; `string'
PUBLIC	??_C@_1BO@GHNBFLDK@?$AAu?$AAs?$AAe?$AAT?$AAe?$AAx?$AAt?$AAE?$AAx?$AAt?$AAe?$AAn?$AAt?$AAs?$AA?$AA@ ; `string'
PUBLIC	??_C@_1BC@PBGLJJCL@?$AAv?$AAe?$AAr?$AAt?$AAi?$AAc?$AAa?$AAl?$AA?$AA@ ; `string'
PUBLIC	??_C@_1BK@NAHGECGB@?$AAe?$AAx?$AAt?$AAe?$AAn?$AAt?$AAH?$AAe?$AAi?$AAg?$AAh?$AAt?$AA?$AA@ ; `string'
PUBLIC	??_C@_1BI@JPNOLMK@?$AAe?$AAx?$AAt?$AAe?$AAn?$AAt?$AAW?$AAi?$AAd?$AAt?$AAh?$AA?$AA@ ; `string'
PUBLIC	??_C@_19HMOGJADO@?$AAf?$AAi?$AAl?$AAe?$AA?$AA@	; `string'
PUBLIC	??_C@_1M@PNKKPJEL@?$AAa?$AAl?$AAi?$AAg?$AAn?$AA?$AA@ ; `string'
PUBLIC	??_C@_19KODKOACD@?$AAm?$AAo?$AAd?$AAe?$AA?$AA@	; `string'
PUBLIC	??_C@_19HIPAKEND@?$AAt?$AAe?$AAx?$AAt?$AA?$AA@	; `string'
PUBLIC	??_C@_1BG@BEGLIKF@?$AAb?$AAa?$AAs?$AAe?$AAS?$AAi?$AAz?$AAe?$AAC?$AAX?$AA?$AA@ ; `string'
PUBLIC	??_C@_1BO@KLLAJFB@?$AAp?$AAo?$AAi?$AAn?$AAt?$AAF?$AAi?$AAl?$AAt?$AAe?$AAr?$AAi?$AAn?$AAg?$AA?$AA@ ; `string'
PUBLIC	??_C@_1BG@EHEODNMJ@?$AAu?$AAs?$AAe?$AAO?$AAu?$AAt?$AAl?$AAi?$AAn?$AAe?$AA?$AA@ ; `string'
PUBLIC	??_C@_1BG@LJPKNPMA@?$AAb?$AAa?$AAs?$AAe?$AAS?$AAi?$AAz?$AAe?$AAC?$AAY?$AA?$AA@ ; `string'
PUBLIC	??_C@_1BI@JFNINKMC@?$AAo?$AAu?$AAt?$AAl?$AAi?$AAn?$AAe?$AAS?$AAi?$AAz?$AAe?$AA?$AA@ ; `string'
PUBLIC	??_C@_1BK@EELFPFLI@?$AAo?$AAu?$AAt?$AAl?$AAi?$AAn?$AAe?$AAC?$AAo?$AAl?$AAo?$AAr?$AA?$AA@ ; `string'
PUBLIC	??_C@_1CA@OHOPANAE@?$AAb?$AAa?$AAc?$AAk?$AAg?$AAr?$AAo?$AAu?$AAn?$AAd?$AAC?$AAo?$AAl?$AAo?$AAr?$AA?$AA@ ; `string'
PUBLIC	??_C@_1BO@DHAIDPLE@?$AAo?$AAu?$AAt?$AAl?$AAi?$AAn?$AAe?$AAO?$AAp?$AAa?$AAc?$AAi?$AAt?$AAy?$AA?$AA@ ; `string'
PUBLIC	??_C@_1CE@NEPAKLHC@?$AAb?$AAa?$AAc?$AAk?$AAg?$AAr?$AAo?$AAu?$AAn?$AAd?$AAO?$AAp?$AAa?$AAc?$AAi?$AAt?$AAy?$AA?$AA@ ; `string'
EXTRN	__imp_?SetColor@Shader@@QAEXPAXABUVect4@@@Z:PROC
EXTRN	__imp_?GetElement@?$List@VString@@@@QAEAAVString@@I@Z:PROC
EXTRN	__imp_?InsertString@String@@QAEXIPB_W@Z:PROC
EXTRN	__imp_?SetFloat@XElement@@QAEXPB_WM@Z:PROC
EXTRN	__imp__EnumFontFamiliesExW@20:PROC
EXTRN	__imp__GdipCreateFontFromDC@8:PROC
EXTRN	__imp__GdipSetPenLineJoin@8:PROC
EXTRN	__imp__GdipDeleteStringFormat@4:PROC
EXTRN	__imp__GdipCreatePen1@16:PROC
EXTRN	__imp__GdipSetStringFormatTrimming@8:PROC
EXTRN	__imp__GdipCreatePath@8:PROC
EXTRN	__imp__GdipStringFormatGetGenericTypographic@4:PROC
EXTRN	__imp__GdipFillPath@12:PROC
EXTRN	__imp__GdipCreateFontFromLogfontW@12:PROC
EXTRN	__imp__GdipFillRectangle@24:PROC
EXTRN	__imp__GdipSetCompositingMode@8:PROC
EXTRN	__imp__GdipDrawString@28:PROC
EXTRN	__imp__GdipCloneStringFormat@8:PROC
EXTRN	__imp__GdipClonePath@8:PROC
EXTRN	__imp__GdipDeletePath@4:PROC
EXTRN	__imp__GdipGetFontSize@8:PROC
EXTRN	__imp__GdipAddPathString@32:PROC
EXTRN	__imp__GdipCreateSolidFill@8:PROC
EXTRN	__imp__GdipDeleteFontFamily@4:PROC
EXTRN	__imp__GdipGetFamily@8:PROC
EXTRN	__imp__GdipGraphicsClear@8:PROC
EXTRN	__imp__GdipSetStringFormatAlign@8:PROC
EXTRN	__imp__GdipGetImageGraphicsContext@8:PROC
EXTRN	__imp__GdipGetFontStyle@8:PROC
EXTRN	__imp__GdipCreateBitmapFromScan0@24:PROC
EXTRN	__imp__GdipDeleteFont@4:PROC
EXTRN	__imp__GdipDrawPath@12:PROC
EXTRN	__imp__GdipSetTextRenderingHint@8:PROC
EXTRN	__imp__GdipSetStringFormatLineAlign@8:PROC
EXTRN	__imp__GdipMeasureString@36:PROC
EXTRN	__imp__GdipCreateFontFromLogfontA@12:PROC
EXTRN	__imp__GdipCloneBrush@8:PROC
EXTRN	__imp__GdipDeletePen@4:PROC
EXTRN	__imp__GdipDeleteBrush@4:PROC
EXTRN	__imp__GdipSetStringFormatFlags@8:PROC
EXTRN	__imp__GetObjectA@12:PROC
EXTRN	__imp_?FindValueIndexI@StringList@@QBEIPB_W@Z:PROC
EXTRN	__imp_??0Vect4@@QAE@MMMM@Z:PROC
EXTRN	__imp_??4Vect4@@QAEAAU0@M@Z:PROC
;	COMDAT ?bInitializedDialog@?1??ConfigureTextProc@@YGHPAUHWND__@@IIJ@Z@4_NA
_BSS	SEGMENT
?bInitializedDialog@?1??ConfigureTextProc@@YGHPAUHWND__@@IIJ@Z@4_NA DB 01H DUP (?) ; `ConfigureTextProc'::`2'::bInitializedDialog
_GenericSansSerifFontFamilyBuffer DB 08H DUP (?)
_GenericTypographicStringFormatBuffer DB 08H DUP (?)
_GenericDefaultStringFormatBuffer DB 08H DUP (?)
_GenericMonospaceFontFamilyBuffer DB 08H DUP (?)
_GenericSerifFontFamilyBuffer DB 08H DUP (?)
_BSS	ENDS
;	COMDAT ??_C@_1CE@NEPAKLHC@?$AAb?$AAa?$AAc?$AAk?$AAg?$AAr?$AAo?$AAu?$AAn?$AAd?$AAO?$AAp?$AAa?$AAc?$AAi?$AAt?$AAy?$AA?$AA@
CONST	SEGMENT
??_C@_1CE@NEPAKLHC@?$AAb?$AAa?$AAc?$AAk?$AAg?$AAr?$AAo?$AAu?$AAn?$AAd?$AAO?$AAp?$AAa?$AAc?$AAi?$AAt?$AAy?$AA?$AA@ DB 'b'
	DB	00H, 'a', 00H, 'c', 00H, 'k', 00H, 'g', 00H, 'r', 00H, 'o', 00H
	DB	'u', 00H, 'n', 00H, 'd', 00H, 'O', 00H, 'p', 00H, 'a', 00H, 'c'
	DB	00H, 'i', 00H, 't', 00H, 'y', 00H, 00H, 00H	; `string'
CONST	ENDS
;	COMDAT ??_C@_1BO@DHAIDPLE@?$AAo?$AAu?$AAt?$AAl?$AAi?$AAn?$AAe?$AAO?$AAp?$AAa?$AAc?$AAi?$AAt?$AAy?$AA?$AA@
CONST	SEGMENT
??_C@_1BO@DHAIDPLE@?$AAo?$AAu?$AAt?$AAl?$AAi?$AAn?$AAe?$AAO?$AAp?$AAa?$AAc?$AAi?$AAt?$AAy?$AA?$AA@ DB 'o'
	DB	00H, 'u', 00H, 't', 00H, 'l', 00H, 'i', 00H, 'n', 00H, 'e', 00H
	DB	'O', 00H, 'p', 00H, 'a', 00H, 'c', 00H, 'i', 00H, 't', 00H, 'y'
	DB	00H, 00H, 00H				; `string'
CONST	ENDS
;	COMDAT ??_C@_1CA@OHOPANAE@?$AAb?$AAa?$AAc?$AAk?$AAg?$AAr?$AAo?$AAu?$AAn?$AAd?$AAC?$AAo?$AAl?$AAo?$AAr?$AA?$AA@
CONST	SEGMENT
??_C@_1CA@OHOPANAE@?$AAb?$AAa?$AAc?$AAk?$AAg?$AAr?$AAo?$AAu?$AAn?$AAd?$AAC?$AAo?$AAl?$AAo?$AAr?$AA?$AA@ DB 'b'
	DB	00H, 'a', 00H, 'c', 00H, 'k', 00H, 'g', 00H, 'r', 00H, 'o', 00H
	DB	'u', 00H, 'n', 00H, 'd', 00H, 'C', 00H, 'o', 00H, 'l', 00H, 'o'
	DB	00H, 'r', 00H, 00H, 00H			; `string'
CONST	ENDS
;	COMDAT ??_C@_1BK@EELFPFLI@?$AAo?$AAu?$AAt?$AAl?$AAi?$AAn?$AAe?$AAC?$AAo?$AAl?$AAo?$AAr?$AA?$AA@
CONST	SEGMENT
??_C@_1BK@EELFPFLI@?$AAo?$AAu?$AAt?$AAl?$AAi?$AAn?$AAe?$AAC?$AAo?$AAl?$AAo?$AAr?$AA?$AA@ DB 'o'
	DB	00H, 'u', 00H, 't', 00H, 'l', 00H, 'i', 00H, 'n', 00H, 'e', 00H
	DB	'C', 00H, 'o', 00H, 'l', 00H, 'o', 00H, 'r', 00H, 00H, 00H ; `string'
CONST	ENDS
;	COMDAT ??_C@_1BI@JFNINKMC@?$AAo?$AAu?$AAt?$AAl?$AAi?$AAn?$AAe?$AAS?$AAi?$AAz?$AAe?$AA?$AA@
CONST	SEGMENT
??_C@_1BI@JFNINKMC@?$AAo?$AAu?$AAt?$AAl?$AAi?$AAn?$AAe?$AAS?$AAi?$AAz?$AAe?$AA?$AA@ DB 'o'
	DB	00H, 'u', 00H, 't', 00H, 'l', 00H, 'i', 00H, 'n', 00H, 'e', 00H
	DB	'S', 00H, 'i', 00H, 'z', 00H, 'e', 00H, 00H, 00H ; `string'
CONST	ENDS
;	COMDAT ??_C@_1BG@LJPKNPMA@?$AAb?$AAa?$AAs?$AAe?$AAS?$AAi?$AAz?$AAe?$AAC?$AAY?$AA?$AA@
CONST	SEGMENT
??_C@_1BG@LJPKNPMA@?$AAb?$AAa?$AAs?$AAe?$AAS?$AAi?$AAz?$AAe?$AAC?$AAY?$AA?$AA@ DB 'b'
	DB	00H, 'a', 00H, 's', 00H, 'e', 00H, 'S', 00H, 'i', 00H, 'z', 00H
	DB	'e', 00H, 'C', 00H, 'Y', 00H, 00H, 00H	; `string'
CONST	ENDS
;	COMDAT ??_C@_1BG@EHEODNMJ@?$AAu?$AAs?$AAe?$AAO?$AAu?$AAt?$AAl?$AAi?$AAn?$AAe?$AA?$AA@
CONST	SEGMENT
??_C@_1BG@EHEODNMJ@?$AAu?$AAs?$AAe?$AAO?$AAu?$AAt?$AAl?$AAi?$AAn?$AAe?$AA?$AA@ DB 'u'
	DB	00H, 's', 00H, 'e', 00H, 'O', 00H, 'u', 00H, 't', 00H, 'l', 00H
	DB	'i', 00H, 'n', 00H, 'e', 00H, 00H, 00H	; `string'
CONST	ENDS
;	COMDAT ??_C@_1BO@KLLAJFB@?$AAp?$AAo?$AAi?$AAn?$AAt?$AAF?$AAi?$AAl?$AAt?$AAe?$AAr?$AAi?$AAn?$AAg?$AA?$AA@
CONST	SEGMENT
??_C@_1BO@KLLAJFB@?$AAp?$AAo?$AAi?$AAn?$AAt?$AAF?$AAi?$AAl?$AAt?$AAe?$AAr?$AAi?$AAn?$AAg?$AA?$AA@ DB 'p'
	DB	00H, 'o', 00H, 'i', 00H, 'n', 00H, 't', 00H, 'F', 00H, 'i', 00H
	DB	'l', 00H, 't', 00H, 'e', 00H, 'r', 00H, 'i', 00H, 'n', 00H, 'g'
	DB	00H, 00H, 00H				; `string'
CONST	ENDS
;	COMDAT ??_C@_1BG@BEGLIKF@?$AAb?$AAa?$AAs?$AAe?$AAS?$AAi?$AAz?$AAe?$AAC?$AAX?$AA?$AA@
CONST	SEGMENT
??_C@_1BG@BEGLIKF@?$AAb?$AAa?$AAs?$AAe?$AAS?$AAi?$AAz?$AAe?$AAC?$AAX?$AA?$AA@ DB 'b'
	DB	00H, 'a', 00H, 's', 00H, 'e', 00H, 'S', 00H, 'i', 00H, 'z', 00H
	DB	'e', 00H, 'C', 00H, 'X', 00H, 00H, 00H	; `string'
CONST	ENDS
;	COMDAT ??_C@_19HIPAKEND@?$AAt?$AAe?$AAx?$AAt?$AA?$AA@
CONST	SEGMENT
??_C@_19HIPAKEND@?$AAt?$AAe?$AAx?$AAt?$AA?$AA@ DB 't', 00H, 'e', 00H, 'x', 00H
	DB	't', 00H, 00H, 00H				; `string'
CONST	ENDS
;	COMDAT ??_C@_19KODKOACD@?$AAm?$AAo?$AAd?$AAe?$AA?$AA@
CONST	SEGMENT
??_C@_19KODKOACD@?$AAm?$AAo?$AAd?$AAe?$AA?$AA@ DB 'm', 00H, 'o', 00H, 'd', 00H
	DB	'e', 00H, 00H, 00H				; `string'
CONST	ENDS
;	COMDAT ??_C@_1M@PNKKPJEL@?$AAa?$AAl?$AAi?$AAg?$AAn?$AA?$AA@
CONST	SEGMENT
??_C@_1M@PNKKPJEL@?$AAa?$AAl?$AAi?$AAg?$AAn?$AA?$AA@ DB 'a', 00H, 'l', 00H
	DB	'i', 00H, 'g', 00H, 'n', 00H, 00H, 00H	; `string'
CONST	ENDS
;	COMDAT ??_C@_19HMOGJADO@?$AAf?$AAi?$AAl?$AAe?$AA?$AA@
CONST	SEGMENT
??_C@_19HMOGJADO@?$AAf?$AAi?$AAl?$AAe?$AA?$AA@ DB 'f', 00H, 'i', 00H, 'l', 00H
	DB	'e', 00H, 00H, 00H				; `string'
CONST	ENDS
;	COMDAT ??_C@_1BI@JPNOLMK@?$AAe?$AAx?$AAt?$AAe?$AAn?$AAt?$AAW?$AAi?$AAd?$AAt?$AAh?$AA?$AA@
CONST	SEGMENT
??_C@_1BI@JPNOLMK@?$AAe?$AAx?$AAt?$AAe?$AAn?$AAt?$AAW?$AAi?$AAd?$AAt?$AAh?$AA?$AA@ DB 'e'
	DB	00H, 'x', 00H, 't', 00H, 'e', 00H, 'n', 00H, 't', 00H, 'W', 00H
	DB	'i', 00H, 'd', 00H, 't', 00H, 'h', 00H, 00H, 00H ; `string'
CONST	ENDS
;	COMDAT ??_C@_1BK@NAHGECGB@?$AAe?$AAx?$AAt?$AAe?$AAn?$AAt?$AAH?$AAe?$AAi?$AAg?$AAh?$AAt?$AA?$AA@
CONST	SEGMENT
??_C@_1BK@NAHGECGB@?$AAe?$AAx?$AAt?$AAe?$AAn?$AAt?$AAH?$AAe?$AAi?$AAg?$AAh?$AAt?$AA?$AA@ DB 'e'
	DB	00H, 'x', 00H, 't', 00H, 'e', 00H, 'n', 00H, 't', 00H, 'H', 00H
	DB	'e', 00H, 'i', 00H, 'g', 00H, 'h', 00H, 't', 00H, 00H, 00H ; `string'
CONST	ENDS
;	COMDAT ??_C@_1BC@PBGLJJCL@?$AAv?$AAe?$AAr?$AAt?$AAi?$AAc?$AAa?$AAl?$AA?$AA@
CONST	SEGMENT
??_C@_1BC@PBGLJJCL@?$AAv?$AAe?$AAr?$AAt?$AAi?$AAc?$AAa?$AAl?$AA?$AA@ DB 'v'
	DB	00H, 'e', 00H, 'r', 00H, 't', 00H, 'i', 00H, 'c', 00H, 'a', 00H
	DB	'l', 00H, 00H, 00H				; `string'
CONST	ENDS
;	COMDAT ??_C@_1BO@GHNBFLDK@?$AAu?$AAs?$AAe?$AAT?$AAe?$AAx?$AAt?$AAE?$AAx?$AAt?$AAe?$AAn?$AAt?$AAs?$AA?$AA@
CONST	SEGMENT
??_C@_1BO@GHNBFLDK@?$AAu?$AAs?$AAe?$AAT?$AAe?$AAx?$AAt?$AAE?$AAx?$AAt?$AAe?$AAn?$AAt?$AAs?$AA?$AA@ DB 'u'
	DB	00H, 's', 00H, 'e', 00H, 'T', 00H, 'e', 00H, 'x', 00H, 't', 00H
	DB	'E', 00H, 'x', 00H, 't', 00H, 'e', 00H, 'n', 00H, 't', 00H, 's'
	DB	00H, 00H, 00H				; `string'
CONST	ENDS
;	COMDAT ??_C@_1BG@IFAPLEM@?$AAs?$AAc?$AAr?$AAo?$AAl?$AAl?$AAM?$AAo?$AAd?$AAe?$AA?$AA@
CONST	SEGMENT
??_C@_1BG@IFAPLEM@?$AAs?$AAc?$AAr?$AAo?$AAl?$AAl?$AAM?$AAo?$AAd?$AAe?$AA?$AA@ DB 's'
	DB	00H, 'c', 00H, 'r', 00H, 'o', 00H, 'l', 00H, 'l', 00H, 'M', 00H
	DB	'o', 00H, 'd', 00H, 'e', 00H, 00H, 00H	; `string'
CONST	ENDS
;	COMDAT ??_C@_1BE@PNICDMNG@?$AAu?$AAn?$AAd?$AAe?$AAr?$AAl?$AAi?$AAn?$AAe?$AA?$AA@
CONST	SEGMENT
??_C@_1BE@PNICDMNG@?$AAu?$AAn?$AAd?$AAe?$AAr?$AAl?$AAi?$AAn?$AAe?$AA?$AA@ DB 'u'
	DB	00H, 'n', 00H, 'd', 00H, 'e', 00H, 'r', 00H, 'l', 00H, 'i', 00H
	DB	'n', 00H, 'e', 00H, 00H, 00H			; `string'
CONST	ENDS
;	COMDAT ??_C@_1O@JEIKJABP@?$AAi?$AAt?$AAa?$AAl?$AAi?$AAc?$AA?$AA@
CONST	SEGMENT
??_C@_1O@JEIKJABP@?$AAi?$AAt?$AAa?$AAl?$AAi?$AAc?$AA?$AA@ DB 'i', 00H, 't'
	DB	00H, 'a', 00H, 'l', 00H, 'i', 00H, 'c', 00H, 00H, 00H ; `string'
CONST	ENDS
;	COMDAT ??_C@_19EOACODOG@?$AAw?$AAr?$AAa?$AAp?$AA?$AA@
CONST	SEGMENT
??_C@_19EOACODOG@?$AAw?$AAr?$AAa?$AAp?$AA?$AA@ DB 'w', 00H, 'r', 00H, 'a', 00H
	DB	'p', 00H, 00H, 00H				; `string'
CONST	ENDS
;	COMDAT ??_C@_1BI@DNMBKHIA@?$AAs?$AAc?$AAr?$AAo?$AAl?$AAl?$AAS?$AAp?$AAe?$AAe?$AAd?$AA?$AA@
CONST	SEGMENT
??_C@_1BI@DNMBKHIA@?$AAs?$AAc?$AAr?$AAo?$AAl?$AAl?$AAS?$AAp?$AAe?$AAe?$AAd?$AA?$AA@ DB 's'
	DB	00H, 'c', 00H, 'r', 00H, 'o', 00H, 'l', 00H, 'l', 00H, 'S', 00H
	DB	'p', 00H, 'e', 00H, 'e', 00H, 'd', 00H, 00H, 00H ; `string'
CONST	ENDS
;	COMDAT ??_C@_19LNOFOKG@?$AAb?$AAo?$AAl?$AAd?$AA?$AA@
CONST	SEGMENT
??_C@_19LNOFOKG@?$AAb?$AAo?$AAl?$AAd?$AA?$AA@ DB 'b', 00H, 'o', 00H, 'l', 00H
	DB	'd', 00H, 00H, 00H				; `string'
CONST	ENDS
;	COMDAT ??_C@_1BC@JNDEGBLF@?$AAf?$AAo?$AAn?$AAt?$AAS?$AAi?$AAz?$AAe?$AA?$AA@
CONST	SEGMENT
??_C@_1BC@JNDEGBLF@?$AAf?$AAo?$AAn?$AAt?$AAS?$AAi?$AAz?$AAe?$AA?$AA@ DB 'f'
	DB	00H, 'o', 00H, 'n', 00H, 't', 00H, 'S', 00H, 'i', 00H, 'z', 00H
	DB	'e', 00H, 00H, 00H				; `string'
CONST	ENDS
;	COMDAT ??_C@_1BI@IBCEPOLC@?$AAt?$AAe?$AAx?$AAt?$AAO?$AAp?$AAa?$AAc?$AAi?$AAt?$AAy?$AA?$AA@
CONST	SEGMENT
??_C@_1BI@IBCEPOLC@?$AAt?$AAe?$AAx?$AAt?$AAO?$AAp?$AAa?$AAc?$AAi?$AAt?$AAy?$AA?$AA@ DB 't'
	DB	00H, 'e', 00H, 'x', 00H, 't', 00H, 'O', 00H, 'p', 00H, 'a', 00H
	DB	'c', 00H, 'i', 00H, 't', 00H, 'y', 00H, 00H, 00H ; `string'
CONST	ENDS
;	COMDAT ??_C@_1CE@HAFKHHGD@?$AAU?$AAs?$AAi?$AAn?$AAg?$AA?5?$AAt?$AAe?$AAx?$AAt?$AA?5?$AAo?$AAu?$AAt?$AAp?$AAu?$AAt?$AA?$AA@
CONST	SEGMENT
??_C@_1CE@HAFKHHGD@?$AAU?$AAs?$AAi?$AAn?$AAg?$AA?5?$AAt?$AAe?$AAx?$AAt?$AA?5?$AAo?$AAu?$AAt?$AAp?$AAu?$AAt?$AA?$AA@ DB 'U'
	DB	00H, 's', 00H, 'i', 00H, 'n', 00H, 'g', 00H, ' ', 00H, 't', 00H
	DB	'e', 00H, 'x', 00H, 't', 00H, ' ', 00H, 'o', 00H, 'u', 00H, 't'
	DB	00H, 'p', 00H, 'u', 00H, 't', 00H, 00H, 00H	; `string'
CONST	ENDS
;	COMDAT ??_C@_19BPOEAIEI@?$AAf?$AAo?$AAn?$AAt?$AA?$AA@
CONST	SEGMENT
??_C@_19BPOEAIEI@?$AAf?$AAo?$AAn?$AAt?$AA?$AA@ DB 'f', 00H, 'o', 00H, 'n', 00H
	DB	't', 00H, 00H, 00H				; `string'
CONST	ENDS
;	COMDAT ??_C@_1HG@DMEJMMLD@?$AAT?$AAe?$AAx?$AAt?$AAS?$AAo?$AAu?$AAr?$AAc?$AAe?$AA?3?$AA?3?$AAU?$AAp?$AAd?$AAa?$AAt?$AAe?$AAT?$AAe?$AAx?$AAt?$AAu?$AAr?$AAe?$AA?3?$AA?5?$AAG?$AAr?$AAa?$AAp?$AAh@
CONST	SEGMENT
??_C@_1HG@DMEJMMLD@?$AAT?$AAe?$AAx?$AAt?$AAS?$AAo?$AAu?$AAr?$AAc?$AAe?$AA?3?$AA?3?$AAU?$AAp?$AAd?$AAa?$AAt?$AAe?$AAT?$AAe?$AAx?$AAt?$AAu?$AAr?$AAe?$AA?3?$AA?5?$AAG?$AAr?$AAa?$AAp?$AAh@ DB 'T'
	DB	00H, 'e', 00H, 'x', 00H, 't', 00H, 'S', 00H, 'o', 00H, 'u', 00H
	DB	'r', 00H, 'c', 00H, 'e', 00H, ':', 00H, ':', 00H, 'U', 00H, 'p'
	DB	00H, 'd', 00H, 'a', 00H, 't', 00H, 'e', 00H, 'T', 00H, 'e', 00H
	DB	'x', 00H, 't', 00H, 'u', 00H, 'r', 00H, 'e', 00H, ':', 00H, ' '
	DB	00H, 'G', 00H, 'r', 00H, 'a', 00H, 'p', 00H, 'h', 00H, 'i', 00H
	DB	'c', 00H, 's', 00H, ':', 00H, ':', 00H, 'D', 00H, 'r', 00H, 'a'
	DB	00H, 'w', 00H, 'S', 00H, 't', 00H, 'r', 00H, 'i', 00H, 'n', 00H
	DB	'g', 00H, ' ', 00H, 'f', 00H, 'a', 00H, 'i', 00H, 'l', 00H, 'e'
	DB	00H, 'd', 00H, ':', 00H, ' ', 00H, '%', 00H, 'u', 00H, 00H, 00H ; `string'
CONST	ENDS
;	COMDAT ??_C@_1GI@IMEHDNAB@?$AAT?$AAe?$AAx?$AAt?$AAS?$AAo?$AAu?$AAr?$AAc?$AAe?$AA?3?$AA?3?$AAU?$AAp?$AAd?$AAa?$AAt?$AAe?$AAT?$AAe?$AAx?$AAt?$AAu?$AAr?$AAe?$AA?3?$AA?5?$AAc?$AAo?$AAu?$AAl?$AAd@
CONST	SEGMENT
??_C@_1GI@IMEHDNAB@?$AAT?$AAe?$AAx?$AAt?$AAS?$AAo?$AAu?$AAr?$AAc?$AAe?$AA?3?$AA?3?$AAU?$AAp?$AAd?$AAa?$AAt?$AAe?$AAT?$AAe?$AAx?$AAt?$AAu?$AAr?$AAe?$AA?3?$AA?5?$AAc?$AAo?$AAu?$AAl?$AAd@ DB 'T'
	DB	00H, 'e', 00H, 'x', 00H, 't', 00H, 'S', 00H, 'o', 00H, 'u', 00H
	DB	'r', 00H, 'c', 00H, 'e', 00H, ':', 00H, ':', 00H, 'U', 00H, 'p'
	DB	00H, 'd', 00H, 'a', 00H, 't', 00H, 'e', 00H, 'T', 00H, 'e', 00H
	DB	'x', 00H, 't', 00H, 'u', 00H, 'r', 00H, 'e', 00H, ':', 00H, ' '
	DB	00H, 'c', 00H, 'o', 00H, 'u', 00H, 'l', 00H, 'd', 00H, ' ', 00H
	DB	'n', 00H, 'o', 00H, 't', 00H, ' ', 00H, 'c', 00H, 'r', 00H, 'e'
	DB	00H, 'a', 00H, 't', 00H, 'e', 00H, ' ', 00H, 't', 00H, 'e', 00H
	DB	'x', 00H, 't', 00H, 'u', 00H, 'r', 00H, 'e', 00H, 00H, 00H ; `string'
CONST	ENDS
;	COMDAT ??_C@_1IO@LNGIDPGF@?$AAT?$AAe?$AAx?$AAt?$AAS?$AAo?$AAu?$AAr?$AAc?$AAe?$AA?3?$AA?3?$AAU?$AAp?$AAd?$AAa?$AAt?$AAe?$AAT?$AAe?$AAx?$AAt?$AAu?$AAr?$AAe?$AA?3?$AA?5?$AAG?$AAd?$AAi?$AAp?$AAl@
CONST	SEGMENT
??_C@_1IO@LNGIDPGF@?$AAT?$AAe?$AAx?$AAt?$AAS?$AAo?$AAu?$AAr?$AAc?$AAe?$AA?3?$AA?3?$AAU?$AAp?$AAd?$AAa?$AAt?$AAe?$AAT?$AAe?$AAx?$AAt?$AAu?$AAr?$AAe?$AA?3?$AA?5?$AAG?$AAd?$AAi?$AAp?$AAl@ DB 'T'
	DB	00H, 'e', 00H, 'x', 00H, 't', 00H, 'S', 00H, 'o', 00H, 'u', 00H
	DB	'r', 00H, 'c', 00H, 'e', 00H, ':', 00H, ':', 00H, 'U', 00H, 'p'
	DB	00H, 'd', 00H, 'a', 00H, 't', 00H, 'e', 00H, 'T', 00H, 'e', 00H
	DB	'x', 00H, 't', 00H, 'u', 00H, 'r', 00H, 'e', 00H, ':', 00H, ' '
	DB	00H, 'G', 00H, 'd', 00H, 'i', 00H, 'p', 00H, 'l', 00H, 'u', 00H
	DB	's', 00H, ':', 00H, ':', 00H, 'G', 00H, 'r', 00H, 'a', 00H, 'p'
	DB	00H, 'h', 00H, 'i', 00H, 'c', 00H, 's', 00H, ':', 00H, ':', 00H
	DB	'M', 00H, 'e', 00H, 'a', 00H, 's', 00H, 'u', 00H, 'r', 00H, 'e'
	DB	00H, 'S', 00H, 't', 00H, 'r', 00H, 'i', 00H, 'n', 00H, 'g', 00H
	DB	' ', 00H, 'f', 00H, 'a', 00H, 'i', 00H, 'l', 00H, 'e', 00H, 'd'
	DB	00H, ':', 00H, ' ', 00H, '%', 00H, 'u', 00H, 00H, 00H ; `string'
CONST	ENDS
;	COMDAT ??_C@_1GM@LBANKIPA@?$AAT?$AAe?$AAx?$AAt?$AAS?$AAo?$AAu?$AAr?$AAc?$AAe?$AA?3?$AA?3?$AAU?$AAp?$AAd?$AAa?$AAt?$AAe?$AAT?$AAe?$AAx?$AAt?$AAu?$AAr?$AAe?$AA?3?$AA?5?$AAG?$AAr?$AAa?$AAp?$AAh@
CONST	SEGMENT
??_C@_1GM@LBANKIPA@?$AAT?$AAe?$AAx?$AAt?$AAS?$AAo?$AAu?$AAr?$AAc?$AAe?$AA?3?$AA?3?$AAU?$AAp?$AAd?$AAa?$AAt?$AAe?$AAT?$AAe?$AAx?$AAt?$AAu?$AAr?$AAe?$AA?3?$AA?5?$AAG?$AAr?$AAa?$AAp?$AAh@ DB 'T'
	DB	00H, 'e', 00H, 'x', 00H, 't', 00H, 'S', 00H, 'o', 00H, 'u', 00H
	DB	'r', 00H, 'c', 00H, 'e', 00H, ':', 00H, ':', 00H, 'U', 00H, 'p'
	DB	00H, 'd', 00H, 'a', 00H, 't', 00H, 'e', 00H, 'T', 00H, 'e', 00H
	DB	'x', 00H, 't', 00H, 'u', 00H, 'r', 00H, 'e', 00H, ':', 00H, ' '
	DB	00H, 'G', 00H, 'r', 00H, 'a', 00H, 'p', 00H, 'h', 00H, 'i', 00H
	DB	'c', 00H, 's', 00H, ':', 00H, ':', 00H, 'C', 00H, 'l', 00H, 'e'
	DB	00H, 'a', 00H, 'r', 00H, ' ', 00H, 'f', 00H, 'a', 00H, 'i', 00H
	DB	'l', 00H, 'e', 00H, 'd', 00H, ':', 00H, ' ', 00H, '%', 00H, 'u'
	DB	00H, 00H, 00H				; `string'
CONST	ENDS
;	COMDAT ??_C@_13LBAGMAIH@?$AA?6?$AA?$AA@
CONST	SEGMENT
??_C@_13LBAGMAIH@?$AA?6?$AA?$AA@ DB 0aH, 00H, 00H, 00H	; `string'
CONST	ENDS
;	COMDAT ??_C@_15BNMMKFOH@?$AA?6?$AA?$AN?$AA?$AA@
CONST	SEGMENT
??_C@_15BNMMKFOH@?$AA?6?$AA?$AN?$AA?$AA@ DB 0aH, 00H, 0dH, 00H, 00H, 00H ; `string'
CONST	ENDS
;	COMDAT ??_C@_1M@KAKMLIHO@?$AAA?$AAr?$AAi?$AAa?$AAl?$AA?$AA@
CONST	SEGMENT
??_C@_1M@KAKMLIHO@?$AAA?$AAr?$AAi?$AAa?$AAl?$AA?$AA@ DB 'A', 00H, 'r', 00H
	DB	'i', 00H, 'a', 00H, 'l', 00H, 00H, 00H	; `string'
CONST	ENDS
;	COMDAT ??_C@_1MC@FLMNODJI@?$AAT?$AAe?$AAx?$AAt?$AAS?$AAo?$AAu?$AAr?$AAc?$AAe?$AA?3?$AA?3?$AAU?$AAp?$AAd?$AAa?$AAt?$AAe?$AAT?$AAe?$AAx?$AAt?$AAu?$AAr?$AAe?$AA?3?$AA?5?$AAc?$AAo?$AAu?$AAl?$AAd@
CONST	SEGMENT
??_C@_1MC@FLMNODJI@?$AAT?$AAe?$AAx?$AAt?$AAS?$AAo?$AAu?$AAr?$AAc?$AAe?$AA?3?$AA?3?$AAU?$AAp?$AAd?$AAa?$AAt?$AAe?$AAT?$AAe?$AAx?$AAt?$AAu?$AAr?$AAe?$AA?3?$AA?5?$AAc?$AAo?$AAu?$AAl?$AAd@ DB 'T'
	DB	00H, 'e', 00H, 'x', 00H, 't', 00H, 'S', 00H, 'o', 00H, 'u', 00H
	DB	'r', 00H, 'c', 00H, 'e', 00H, ':', 00H, ':', 00H, 'U', 00H, 'p'
	DB	00H, 'd', 00H, 'a', 00H, 't', 00H, 'e', 00H, 'T', 00H, 'e', 00H
	DB	'x', 00H, 't', 00H, 'u', 00H, 'r', 00H, 'e', 00H, ':', 00H, ' '
	DB	00H, 'c', 00H, 'o', 00H, 'u', 00H, 'l', 00H, 'd', 00H, ' ', 00H
	DB	'n', 00H, 'o', 00H, 't', 00H, ' ', 00H, 'o', 00H, 'p', 00H, 'e'
	DB	00H, 'n', 00H, ' ', 00H, 's', 00H, 'p', 00H, 'e', 00H, 'c', 00H
	DB	'i', 00H, 'f', 00H, 'i', 00H, 'e', 00H, 'd', 00H, ' ', 00H, 'f'
	DB	00H, 'i', 00H, 'l', 00H, 'e', 00H, ' ', 00H, '(', 00H, 'i', 00H
	DB	'n', 00H, 'v', 00H, 'a', 00H, 'l', 00H, 'i', 00H, 'd', 00H, ' '
	DB	00H, 'f', 00H, 'i', 00H, 'l', 00H, 'e', 00H, ' ', 00H, 'n', 00H
	DB	'a', 00H, 'm', 00H, 'e', 00H, ' ', 00H, 'o', 00H, 'r', 00H, ' '
	DB	00H, 'a', 00H, 'c', 00H, 'c', 00H, 'e', 00H, 's', 00H, 's', 00H
	DB	' ', 00H, 'v', 00H, 'i', 00H, 'o', 00H, 'l', 00H, 'a', 00H, 't'
	DB	00H, 'i', 00H, 'o', 00H, 'n', 00H, ')', 00H, 00H, 00H ; `string'
CONST	ENDS
;	COMDAT ??_R2TextOutputSource@@8
rdata$r	SEGMENT
??_R2TextOutputSource@@8 DD FLAT:??_R1A@?0A@EA@TextOutputSource@@8 ; TextOutputSource::`RTTI Base Class Array'
	DD	FLAT:??_R1A@?0A@EA@ImageSource@@8
rdata$r	ENDS
;	COMDAT ??_R2SolidBrush@Gdiplus@@8
rdata$r	SEGMENT
??_R2SolidBrush@Gdiplus@@8 DD FLAT:??_R1A@?0A@EA@SolidBrush@Gdiplus@@8 ; Gdiplus::SolidBrush::`RTTI Base Class Array'
	DD	FLAT:??_R1A@?0A@EA@Brush@Gdiplus@@8
	DD	FLAT:??_R13?0A@EA@GdiplusBase@Gdiplus@@8
rdata$r	ENDS
;	COMDAT ??_R0?AVBrush@Gdiplus@@@8
data$r	SEGMENT
??_R0?AVBrush@Gdiplus@@@8 DD FLAT:??_7type_info@@6B@	; Gdiplus::Brush `RTTI Type Descriptor'
	DD	00H
	DB	'.?AVBrush@Gdiplus@@', 00H
data$r	ENDS
;	COMDAT ??_R0?AVTextOutputSource@@@8
data$r	SEGMENT
??_R0?AVTextOutputSource@@@8 DD FLAT:??_7type_info@@6B@	; TextOutputSource `RTTI Type Descriptor'
	DD	00H
	DB	'.?AVTextOutputSource@@', 00H
data$r	ENDS
;	COMDAT ??_R3TextOutputSource@@8
rdata$r	SEGMENT
??_R3TextOutputSource@@8 DD 00H				; TextOutputSource::`RTTI Class Hierarchy Descriptor'
	DD	00H
	DD	02H
	DD	FLAT:??_R2TextOutputSource@@8
rdata$r	ENDS
;	COMDAT ??_R1A@?0A@EA@SolidBrush@Gdiplus@@8
rdata$r	SEGMENT
??_R1A@?0A@EA@SolidBrush@Gdiplus@@8 DD FLAT:??_R0?AVSolidBrush@Gdiplus@@@8 ; Gdiplus::SolidBrush::`RTTI Base Class Descriptor at (0,-1,0,64)'
	DD	02H
	DD	00H
	DD	0ffffffffH
	DD	00H
	DD	040H
	DD	FLAT:??_R3SolidBrush@Gdiplus@@8
rdata$r	ENDS
;	COMDAT ??_R3SolidBrush@Gdiplus@@8
rdata$r	SEGMENT
??_R3SolidBrush@Gdiplus@@8 DD 00H			; Gdiplus::SolidBrush::`RTTI Class Hierarchy Descriptor'
	DD	00H
	DD	03H
	DD	FLAT:??_R2SolidBrush@Gdiplus@@8
rdata$r	ENDS
;	COMDAT ??_R4SolidBrush@Gdiplus@@6B@
rdata$r	SEGMENT
??_R4SolidBrush@Gdiplus@@6B@ DD 00H			; Gdiplus::SolidBrush::`RTTI Complete Object Locator'
	DD	00H
	DD	00H
	DD	FLAT:??_R0?AVSolidBrush@Gdiplus@@@8
	DD	FLAT:??_R3SolidBrush@Gdiplus@@8
rdata$r	ENDS
;	COMDAT ??_R1A@?0A@EA@Bitmap@Gdiplus@@8
rdata$r	SEGMENT
??_R1A@?0A@EA@Bitmap@Gdiplus@@8 DD FLAT:??_R0?AVBitmap@Gdiplus@@@8 ; Gdiplus::Bitmap::`RTTI Base Class Descriptor at (0,-1,0,64)'
	DD	02H
	DD	00H
	DD	0ffffffffH
	DD	00H
	DD	040H
	DD	FLAT:??_R3Bitmap@Gdiplus@@8
rdata$r	ENDS
;	COMDAT ??_R0?AVBitmap@Gdiplus@@@8
data$r	SEGMENT
??_R0?AVBitmap@Gdiplus@@@8 DD FLAT:??_7type_info@@6B@	; Gdiplus::Bitmap `RTTI Type Descriptor'
	DD	00H
	DB	'.?AVBitmap@Gdiplus@@', 00H
data$r	ENDS
;	COMDAT ??_7Brush@Gdiplus@@6B@
CONST	SEGMENT
??_7Brush@Gdiplus@@6B@ DD FLAT:??_R4Brush@Gdiplus@@6B@	; Gdiplus::Brush::`vftable'
	DD	FLAT:??_EBrush@Gdiplus@@UAEPAXI@Z
	DD	FLAT:?Clone@Brush@Gdiplus@@UBEPAV12@XZ
CONST	ENDS
;	COMDAT ??_R3Bitmap@Gdiplus@@8
rdata$r	SEGMENT
??_R3Bitmap@Gdiplus@@8 DD 00H				; Gdiplus::Bitmap::`RTTI Class Hierarchy Descriptor'
	DD	00H
	DD	03H
	DD	FLAT:??_R2Bitmap@Gdiplus@@8
rdata$r	ENDS
;	COMDAT ??_R4TextOutputSource@@6B@
rdata$r	SEGMENT
??_R4TextOutputSource@@6B@ DD 00H			; TextOutputSource::`RTTI Complete Object Locator'
	DD	00H
	DD	00H
	DD	FLAT:??_R0?AVTextOutputSource@@@8
	DD	FLAT:??_R3TextOutputSource@@8
rdata$r	ENDS
;	COMDAT ??_R4Bitmap@Gdiplus@@6B@
rdata$r	SEGMENT
??_R4Bitmap@Gdiplus@@6B@ DD 00H				; Gdiplus::Bitmap::`RTTI Complete Object Locator'
	DD	00H
	DD	00H
	DD	FLAT:??_R0?AVBitmap@Gdiplus@@@8
	DD	FLAT:??_R3Bitmap@Gdiplus@@8
rdata$r	ENDS
;	COMDAT ??_R1A@?0A@EA@Brush@Gdiplus@@8
rdata$r	SEGMENT
??_R1A@?0A@EA@Brush@Gdiplus@@8 DD FLAT:??_R0?AVBrush@Gdiplus@@@8 ; Gdiplus::Brush::`RTTI Base Class Descriptor at (0,-1,0,64)'
	DD	01H
	DD	00H
	DD	0ffffffffH
	DD	00H
	DD	040H
	DD	FLAT:??_R3Brush@Gdiplus@@8
rdata$r	ENDS
;	COMDAT ??_7TextOutputSource@@6B@
CONST	SEGMENT
??_7TextOutputSource@@6B@ DD FLAT:??_R4TextOutputSource@@6B@ ; TextOutputSource::`vftable'
	DD	FLAT:??_ETextOutputSource@@UAEPAXI@Z
	DD	FLAT:?Preprocess@TextOutputSource@@UAEXXZ
	DD	FLAT:?Tick@TextOutputSource@@UAEXM@Z
	DD	FLAT:?Render@TextOutputSource@@UAEXABUVect2@@0@Z
	DD	FLAT:?GetSize@TextOutputSource@@UBE?AUVect2@@XZ
	DD	FLAT:?UpdateSettings@TextOutputSource@@UAEXXZ
	DD	FLAT:?BeginScene@ImageSource@@UAEXXZ
	DD	FLAT:?EndScene@ImageSource@@UAEXXZ
	DD	FLAT:?GlobalSourceLeaveScene@ImageSource@@UAEXXZ
	DD	FLAT:?GlobalSourceEnterScene@ImageSource@@UAEXXZ
	DD	FLAT:?SetFloat@TextOutputSource@@UAEXPB_WM@Z
	DD	FLAT:?SetInt@TextOutputSource@@UAEXPB_WH@Z
	DD	FLAT:?SetString@TextOutputSource@@UAEXPB_W0@Z
	DD	FLAT:?SetVector@ImageSource@@UAEXPB_WABUVect@@@Z
	DD	FLAT:?SetVector2@ImageSource@@UAEXPB_WABUVect2@@@Z
	DD	FLAT:?SetVector4@ImageSource@@UAEXPB_WABUVect4@@@Z
	DD	FLAT:?SetMatrix@ImageSource@@UAEXPB_WABUMatrix@@@Z
	DD	FLAT:?GetFloat@ImageSource@@UBE_NPB_WAAM@Z
	DD	FLAT:?GetInt@ImageSource@@UBE_NPB_WAAH@Z
	DD	FLAT:?GetString@ImageSource@@UBE_NPB_WAAVString@@@Z
	DD	FLAT:?GetVector@ImageSource@@UBE_NPB_WAAUVect@@@Z
	DD	FLAT:?GetVector2@ImageSource@@UBE_NPB_WAAUVect2@@@Z
	DD	FLAT:?GetVector4@ImageSource@@UBE_NPB_WAAUVect4@@@Z
	DD	FLAT:?GetMatrix@ImageSource@@UBE_NPB_WAAUMatrix@@@Z
CONST	ENDS
;	COMDAT ??_7SolidBrush@Gdiplus@@6B@
CONST	SEGMENT
??_7SolidBrush@Gdiplus@@6B@ DD FLAT:??_R4SolidBrush@Gdiplus@@6B@ ; Gdiplus::SolidBrush::`vftable'
	DD	FLAT:??_ESolidBrush@Gdiplus@@UAEPAXI@Z
	DD	FLAT:?Clone@Brush@Gdiplus@@UBEPAV12@XZ
CONST	ENDS
;	COMDAT ??_R1A@?0A@EA@TextOutputSource@@8
rdata$r	SEGMENT
??_R1A@?0A@EA@TextOutputSource@@8 DD FLAT:??_R0?AVTextOutputSource@@@8 ; TextOutputSource::`RTTI Base Class Descriptor at (0,-1,0,64)'
	DD	01H
	DD	00H
	DD	0ffffffffH
	DD	00H
	DD	040H
	DD	FLAT:??_R3TextOutputSource@@8
rdata$r	ENDS
;	COMDAT ??_R0?AVSolidBrush@Gdiplus@@@8
data$r	SEGMENT
??_R0?AVSolidBrush@Gdiplus@@@8 DD FLAT:??_7type_info@@6B@ ; Gdiplus::SolidBrush `RTTI Type Descriptor'
	DD	00H
	DB	'.?AVSolidBrush@Gdiplus@@', 00H
data$r	ENDS
;	COMDAT ??_R2Bitmap@Gdiplus@@8
rdata$r	SEGMENT
??_R2Bitmap@Gdiplus@@8 DD FLAT:??_R1A@?0A@EA@Bitmap@Gdiplus@@8 ; Gdiplus::Bitmap::`RTTI Base Class Array'
	DD	FLAT:??_R1A@?0A@EA@Image@Gdiplus@@8
	DD	FLAT:??_R13?0A@EA@GdiplusBase@Gdiplus@@8
rdata$r	ENDS
;	COMDAT ??_7Bitmap@Gdiplus@@6B@
CONST	SEGMENT
??_7Bitmap@Gdiplus@@6B@ DD FLAT:??_R4Bitmap@Gdiplus@@6B@ ; Gdiplus::Bitmap::`vftable'
	DD	FLAT:??_EBitmap@Gdiplus@@UAEPAXI@Z
	DD	FLAT:?Clone@Image@Gdiplus@@UAEPAV12@XZ
CONST	ENDS
;	COMDAT ??_R2Brush@Gdiplus@@8
rdata$r	SEGMENT
??_R2Brush@Gdiplus@@8 DD FLAT:??_R1A@?0A@EA@Brush@Gdiplus@@8 ; Gdiplus::Brush::`RTTI Base Class Array'
	DD	FLAT:??_R13?0A@EA@GdiplusBase@Gdiplus@@8
rdata$r	ENDS
;	COMDAT ??_R4Brush@Gdiplus@@6B@
rdata$r	SEGMENT
??_R4Brush@Gdiplus@@6B@ DD 00H				; Gdiplus::Brush::`RTTI Complete Object Locator'
	DD	00H
	DD	00H
	DD	FLAT:??_R0?AVBrush@Gdiplus@@@8
	DD	FLAT:??_R3Brush@Gdiplus@@8
rdata$r	ENDS
;	COMDAT ??_R3Brush@Gdiplus@@8
rdata$r	SEGMENT
??_R3Brush@Gdiplus@@8 DD 00H				; Gdiplus::Brush::`RTTI Class Hierarchy Descriptor'
	DD	00H
	DD	02H
	DD	FLAT:??_R2Brush@Gdiplus@@8
$SG4294722748 DB 'f', 00H, 'o', 00H, 'n', 00H, 't', 00H, 00H, 00H
	ORG $+2
$SG4294722744 DB 't', 00H, 'e', 00H, 'x', 00H, 't', 00H, 'O', 00H, 'p', 00H
	DB	'a', 00H, 'c', 00H, 'i', 00H, 't', 00H, 'y', 00H, 00H, 00H
$SG4294722745 DB 'c', 00H, 'o', 00H, 'l', 00H, 'o', 00H, 'r', 00H, 00H, 00H
$SG4294722746 DB 'f', 00H, 'o', 00H, 'n', 00H, 't', 00H, 'S', 00H, 'i', 00H
	DB	'z', 00H, 'e', 00H, 00H, 00H
	ORG $+2
$SG4294722747 DB 'A', 00H, 'r', 00H, 'i', 00H, 'a', 00H, 'l', 00H, 00H, 00H
$SG4294722740 DB 'u', 00H, 'n', 00H, 'd', 00H, 'e', 00H, 'r', 00H, 'l', 00H
	DB	'i', 00H, 'n', 00H, 'e', 00H, 00H, 00H
$SG4294722741 DB 'i', 00H, 't', 00H, 'a', 00H, 'l', 00H, 'i', 00H, 'c', 00H
	DB	00H, 00H
	ORG $+2
$SG4294722742 DB 'b', 00H, 'o', 00H, 'l', 00H, 'd', 00H, 00H, 00H
	ORG $+2
$SG4294722743 DB 's', 00H, 'c', 00H, 'r', 00H, 'o', 00H, 'l', 00H, 'l', 00H
	DB	'S', 00H, 'p', 00H, 'e', 00H, 'e', 00H, 'd', 00H, 00H, 00H
$SG4294722736 DB 'b', 00H, 'a', 00H, 'c', 00H, 'k', 00H, 'g', 00H, 'r', 00H
	DB	'o', 00H, 'u', 00H, 'n', 00H, 'd', 00H, 'O', 00H, 'p', 00H, 'a'
	DB	00H, 'c', 00H, 'i', 00H, 't', 00H, 'y', 00H, 00H, 00H
$SG4294722737 DB 'b', 00H, 'a', 00H, 'c', 00H, 'k', 00H, 'g', 00H, 'r', 00H
	DB	'o', 00H, 'u', 00H, 'n', 00H, 'd', 00H, 'C', 00H, 'o', 00H, 'l'
	DB	00H, 'o', 00H, 'r', 00H, 00H, 00H
$SG4294722738 DB 'p', 00H, 'o', 00H, 'i', 00H, 'n', 00H, 't', 00H, 'F', 00H
	DB	'i', 00H, 'l', 00H, 't', 00H, 'e', 00H, 'r', 00H, 'i', 00H, 'n'
	DB	00H, 'g', 00H, 00H, 00H
	ORG $+2
$SG4294722739 DB 'v', 00H, 'e', 00H, 'r', 00H, 't', 00H, 'i', 00H, 'c', 00H
	DB	'a', 00H, 'l', 00H, 00H, 00H
	ORG $+2
$SG4294722732 DB 'o', 00H, 'u', 00H, 't', 00H, 'l', 00H, 'i', 00H, 'n', 00H
	DB	'e', 00H, 'O', 00H, 'p', 00H, 'a', 00H, 'c', 00H, 'i', 00H, 't'
	DB	00H, 'y', 00H, 00H, 00H
	ORG $+2
$SG4294722733 DB 'o', 00H, 'u', 00H, 't', 00H, 'l', 00H, 'i', 00H, 'n', 00H
	DB	'e', 00H, 'C', 00H, 'o', 00H, 'l', 00H, 'o', 00H, 'r', 00H, 00H
	DB	00H
	ORG $+2
$SG4294722734 DB 'o', 00H, 'u', 00H, 't', 00H, 'l', 00H, 'i', 00H, 'n', 00H
	DB	'e', 00H, 'S', 00H, 'i', 00H, 'z', 00H, 'e', 00H, 00H, 00H
$SG4294722735 DB 'u', 00H, 's', 00H, 'e', 00H, 'O', 00H, 'u', 00H, 't', 00H
	DB	'l', 00H, 'i', 00H, 'n', 00H, 'e', 00H, 00H, 00H
	ORG $+2
$SG4294722728 DB 'e', 00H, 'x', 00H, 't', 00H, 'e', 00H, 'n', 00H, 't', 00H
	DB	'H', 00H, 'e', 00H, 'i', 00H, 'g', 00H, 'h', 00H, 't', 00H, 00H
	DB	00H
	ORG $+2
$SG4294722729 DB 'e', 00H, 'x', 00H, 't', 00H, 'e', 00H, 'n', 00H, 't', 00H
	DB	'W', 00H, 'i', 00H, 'd', 00H, 't', 00H, 'h', 00H, 00H, 00H
$SG4294722730 DB 'v', 00H, 'e', 00H, 'r', 00H, 't', 00H, 'i', 00H, 'c', 00H
	DB	'a', 00H, 'l', 00H, 00H, 00H
	ORG $+2
$SG4294722731 DB 'u', 00H, 's', 00H, 'e', 00H, 'T', 00H, 'e', 00H, 'x', 00H
	DB	't', 00H, 'E', 00H, 'x', 00H, 't', 00H, 'e', 00H, 'n', 00H, 't'
	DB	00H, 's', 00H, 00H, 00H
	ORG $+2
$SG4294722724 DB 'S', 00H, 'o', 00H, 'u', 00H, 'r', 00H, 'c', 00H, 'e', 00H
	DB	's', 00H, '.', 00H, 'T', 00H, 'e', 00H, 'x', 00H, 't', 00H, 'S'
	DB	00H, 'o', 00H, 'u', 00H, 'r', 00H, 'c', 00H, 'e', 00H, '.', 00H
	DB	'C', 00H, 'e', 00H, 'n', 00H, 't', 00H, 'e', 00H, 'r', 00H, 00H
	DB	00H
$SG4294722725 DB 'S', 00H, 'o', 00H, 'u', 00H, 'r', 00H, 'c', 00H, 'e', 00H
	DB	's', 00H, '.', 00H, 'T', 00H, 'e', 00H, 'x', 00H, 't', 00H, 'S'
	DB	00H, 'o', 00H, 'u', 00H, 'r', 00H, 'c', 00H, 'e', 00H, '.', 00H
	DB	'L', 00H, 'e', 00H, 'f', 00H, 't', 00H, 00H, 00H
$SG4294722726 DB 's', 00H, 'c', 00H, 'r', 00H, 'o', 00H, 'l', 00H, 'l', 00H
	DB	'M', 00H, 'o', 00H, 'd', 00H, 'e', 00H, 00H, 00H
	ORG $+2
$SG4294722727 DB 'w', 00H, 'r', 00H, 'a', 00H, 'p', 00H, 00H, 00H
	ORG $+2
$SG4294722720 DB 't', 00H, 'e', 00H, 'x', 00H, 't', 00H, 00H, 00H
	ORG $+2
$SG4294722721 DB 'm', 00H, 'o', 00H, 'd', 00H, 'e', 00H, 00H, 00H
	ORG $+2
$SG4294722722 DB 'a', 00H, 'l', 00H, 'i', 00H, 'g', 00H, 'n', 00H, 00H, 00H
$SG4294722723 DB 'S', 00H, 'o', 00H, 'u', 00H, 'r', 00H, 'c', 00H, 'e', 00H
	DB	's', 00H, '.', 00H, 'T', 00H, 'e', 00H, 'x', 00H, 't', 00H, 'S'
	DB	00H, 'o', 00H, 'u', 00H, 'r', 00H, 'c', 00H, 'e', 00H, '.', 00H
	DB	'R', 00H, 'i', 00H, 'g', 00H, 'h', 00H, 't', 00H, 00H, 00H
	ORG $+2
$SG4294722716 DB 'b', 00H, 'a', 00H, 'c', 00H, 'k', 00H, 'g', 00H, 'r', 00H
	DB	'o', 00H, 'u', 00H, 'n', 00H, 'd', 00H, 'C', 00H, 'o', 00H, 'l'
	DB	00H, 'o', 00H, 'r', 00H, 00H, 00H
$SG4294722717 DB 'o', 00H, 'u', 00H, 't', 00H, 'l', 00H, 'i', 00H, 'n', 00H
	DB	'e', 00H, 'C', 00H, 'o', 00H, 'l', 00H, 'o', 00H, 'r', 00H, 00H
	DB	00H
	ORG $+2
$SG4294722718 DB 'f', 00H, 'o', 00H, 'n', 00H, 't', 00H, 00H, 00H
	ORG $+2
$SG4294722719 DB 'f', 00H, 'i', 00H, 'l', 00H, 'e', 00H, 00H, 00H
	ORG $+2
$SG4294722712 DB 'e', 00H, 'x', 00H, 't', 00H, 'e', 00H, 'n', 00H, 't', 00H
	DB	'H', 00H, 'e', 00H, 'i', 00H, 'g', 00H, 'h', 00H, 't', 00H, 00H
	DB	00H
	ORG $+2
$SG4294722713 DB 'e', 00H, 'x', 00H, 't', 00H, 'e', 00H, 'n', 00H, 't', 00H
	DB	'W', 00H, 'i', 00H, 'd', 00H, 't', 00H, 'h', 00H, 00H, 00H
$SG4294722714 DB 'f', 00H, 'o', 00H, 'n', 00H, 't', 00H, 'S', 00H, 'i', 00H
	DB	'z', 00H, 'e', 00H, 00H, 00H
	ORG $+2
$SG4294722715 DB 'c', 00H, 'o', 00H, 'l', 00H, 'o', 00H, 'r', 00H, 00H, 00H
$SG4294722708 DB 'o', 00H, 'u', 00H, 't', 00H, 'l', 00H, 'i', 00H, 'n', 00H
	DB	'e', 00H, 'S', 00H, 'i', 00H, 'z', 00H, 'e', 00H, 00H, 00H
$SG4294722709 DB 'b', 00H, 'a', 00H, 'c', 00H, 'k', 00H, 'g', 00H, 'r', 00H
	DB	'o', 00H, 'u', 00H, 'n', 00H, 'd', 00H, 'O', 00H, 'p', 00H, 'a'
	DB	00H, 'c', 00H, 'i', 00H, 't', 00H, 'y', 00H, 00H, 00H
$SG4294722710 DB 'o', 00H, 'u', 00H, 't', 00H, 'l', 00H, 'i', 00H, 'n', 00H
	DB	'e', 00H, 'O', 00H, 'p', 00H, 'a', 00H, 'c', 00H, 'i', 00H, 't'
	DB	00H, 'y', 00H, 00H, 00H
	ORG $+2
$SG4294722711 DB 't', 00H, 'e', 00H, 'x', 00H, 't', 00H, 'O', 00H, 'p', 00H
	DB	'a', 00H, 'c', 00H, 'i', 00H, 't', 00H, 'y', 00H, 00H, 00H
$SG4294722704 DB 'u', 00H, 'n', 00H, 'd', 00H, 'e', 00H, 'r', 00H, 'l', 00H
	DB	'i', 00H, 'n', 00H, 'e', 00H, 00H, 00H
$SG4294722705 DB 'i', 00H, 't', 00H, 'a', 00H, 'l', 00H, 'i', 00H, 'c', 00H
	DB	00H, 00H
	ORG $+2
$SG4294722706 DB 'b', 00H, 'o', 00H, 'l', 00H, 'd', 00H, 00H, 00H
	ORG $+2
$SG4294722707 DB 's', 00H, 'c', 00H, 'r', 00H, 'o', 00H, 'l', 00H, 'l', 00H
	DB	'S', 00H, 'p', 00H, 'e', 00H, 'e', 00H, 'd', 00H, 00H, 00H
$SG4294722700 DB 'u', 00H, 's', 00H, 'e', 00H, 'O', 00H, 'u', 00H, 't', 00H
	DB	'l', 00H, 'i', 00H, 'n', 00H, 'e', 00H, 00H, 00H
	ORG $+2
$SG4294722701 DB 's', 00H, 'c', 00H, 'r', 00H, 'o', 00H, 'l', 00H, 'l', 00H
	DB	'M', 00H, 'o', 00H, 'd', 00H, 'e', 00H, 00H, 00H
	ORG $+2
$SG4294722702 DB 'w', 00H, 'r', 00H, 'a', 00H, 'p', 00H, 00H, 00H
	ORG $+2
$SG4294722703 DB 'v', 00H, 'e', 00H, 'r', 00H, 't', 00H, 'i', 00H, 'c', 00H
	DB	'a', 00H, 'l', 00H, 00H, 00H
	ORG $+2
$SG4294722696 DB 't', 00H, 'e', 00H, 'x', 00H, 't', 00H, 00H, 00H
	ORG $+2
$SG4294722697 DB 'f', 00H, 'i', 00H, 'l', 00H, 'e', 00H, 00H, 00H
	ORG $+2
$SG4294722698 DB 'a', 00H, 'l', 00H, 'i', 00H, 'g', 00H, 'n', 00H, 00H, 00H
$SG4294722699 DB 'u', 00H, 's', 00H, 'e', 00H, 'T', 00H, 'e', 00H, 'x', 00H
	DB	't', 00H, 'E', 00H, 'x', 00H, 't', 00H, 'e', 00H, 'n', 00H, 't'
	DB	00H, 's', 00H, 00H, 00H
	ORG $+2
$SG4294722692 DB 'f', 00H, 'i', 00H, 'l', 00H, 'e', 00H, 00H, 00H
	ORG $+2
$SG4294722693 DB 'T', 00H, 'e', 00H, 'x', 00H, 't', 00H, ' ', 00H, 'F', 00H
	DB	'i', 00H, 'l', 00H, 'e', 00H, 's', 00H, ' ', 00H, '(', 00H, '*'
	DB	00H, '.', 00H, 't', 00H, 'x', 00H, 't', 00H, ')', 00H, 00H, 00H
	DB	'*', 00H, '.', 00H, 't', 00H, 'x', 00H, 't', 00H, 00H, 00H, 00H
	DB	00H
$SG4294722694 DB 'm', 00H, 'o', 00H, 'd', 00H, 'e', 00H, 00H, 00H
	ORG $+2
$SG4294722695 DB 'm', 00H, 'o', 00H, 'd', 00H, 'e', 00H, 00H, 00H
	ORG $+2
$SG4294722688 DB '$', 00H, '1', 00H, 00H, 00H
	ORG $+2
$SG4294722687 DB 'A', 00H, 'r', 00H, 'i', 00H, 'a', 00H, 'l', 00H, 00H, 00H
$SG4294722689 DB 'S', 00H, 'o', 00H, 'u', 00H, 'r', 00H, 'c', 00H, 'e', 00H
	DB	's', 00H, '.', 00H, 'T', 00H, 'e', 00H, 'x', 00H, 't', 00H, 'S'
	DB	00H, 'o', 00H, 'u', 00H, 'r', 00H, 'c', 00H, 'e', 00H, '.', 00H
	DB	'F', 00H, 'i', 00H, 'l', 00H, 'e', 00H, 'N', 00H, 'o', 00H, 't'
	DB	00H, 'F', 00H, 'o', 00H, 'u', 00H, 'n', 00H, 'd', 00H, 00H, 00H
$SG4294722690 DB '$', 00H, '1', 00H, 00H, 00H
	ORG $+2
$SG4294722691 DB 'S', 00H, 'o', 00H, 'u', 00H, 'r', 00H, 'c', 00H, 'e', 00H
	DB	's', 00H, '.', 00H, 'T', 00H, 'e', 00H, 'x', 00H, 't', 00H, 'S'
	DB	00H, 'o', 00H, 'u', 00H, 'r', 00H, 'c', 00H, 'e', 00H, '.', 00H
	DB	'F', 00H, 'o', 00H, 'n', 00H, 't', 00H, 'N', 00H, 'o', 00H, 't'
	DB	00H, 'F', 00H, 'o', 00H, 'u', 00H, 'n', 00H, 'd', 00H, 00H, 00H
$SG4294722684 DB 'b', 00H, 'a', 00H, 's', 00H, 'e', 00H, 'S', 00H, 'i', 00H
	DB	'z', 00H, 'e', 00H, 'C', 00H, 'X', 00H, 00H, 00H
	ORG $+2
$SG4294722685 DB '$', 00H, '1', 00H, 00H, 00H
	ORG $+2
$SG4294722686 DB 'S', 00H, 'o', 00H, 'u', 00H, 'r', 00H, 'c', 00H, 'e', 00H
	DB	's', 00H, '.', 00H, 'T', 00H, 'e', 00H, 'x', 00H, 't', 00H, 'S'
	DB	00H, 'o', 00H, 'u', 00H, 'r', 00H, 'c', 00H, 'e', 00H, '.', 00H
	DB	'F', 00H, 'o', 00H, 'n', 00H, 't', 00H, 'N', 00H, 'o', 00H, 't'
	DB	00H, 'F', 00H, 'o', 00H, 'u', 00H, 'n', 00H, 'd', 00H, 00H, 00H
$SG4294722680 DB 'f', 00H, 'o', 00H, 'n', 00H, 't', 00H, 'S', 00H, 'i', 00H
	DB	'z', 00H, 'e', 00H, 00H, 00H
	ORG $+2
$SG4294722681 DB 'c', 00H, 'o', 00H, 'l', 00H, 'o', 00H, 'r', 00H, 00H, 00H
$SG4294722682 DB 'f', 00H, 'o', 00H, 'n', 00H, 't', 00H, 00H, 00H
	ORG $+2
$SG4294722683 DB 'b', 00H, 'a', 00H, 's', 00H, 'e', 00H, 'S', 00H, 'i', 00H
	DB	'z', 00H, 'e', 00H, 'C', 00H, 'Y', 00H, 00H, 00H
	ORG $+2
$SG4294722676 DB 'i', 00H, 't', 00H, 'a', 00H, 'l', 00H, 'i', 00H, 'c', 00H
	DB	00H, 00H
	ORG $+2
$SG4294722677 DB 'b', 00H, 'o', 00H, 'l', 00H, 'd', 00H, 00H, 00H
	ORG $+2
$SG4294722678 DB 's', 00H, 'c', 00H, 'r', 00H, 'o', 00H, 'l', 00H, 'l', 00H
	DB	'S', 00H, 'p', 00H, 'e', 00H, 'e', 00H, 'd', 00H, 00H, 00H
$SG4294722679 DB 't', 00H, 'e', 00H, 'x', 00H, 't', 00H, 'O', 00H, 'p', 00H
	DB	'a', 00H, 'c', 00H, 'i', 00H, 't', 00H, 'y', 00H, 00H, 00H
$SG4294722672 DB 'u', 00H, 'n', 00H, 'd', 00H, 'e', 00H, 'r', 00H, 'l', 00H
	DB	'i', 00H, 'n', 00H, 'e', 00H, 00H, 00H
$SG4294722673 DB 's', 00H, 'c', 00H, 'r', 00H, 'o', 00H, 'l', 00H, 'l', 00H
	DB	'M', 00H, 'o', 00H, 'd', 00H, 'e', 00H, 00H, 00H
	ORG $+2
$SG4294722674 DB 'w', 00H, 'r', 00H, 'a', 00H, 'p', 00H, 00H, 00H
	ORG $+2
$SG4294722675 DB 'v', 00H, 'e', 00H, 'r', 00H, 't', 00H, 'i', 00H, 'c', 00H
	DB	'a', 00H, 'l', 00H, 00H, 00H
	ORG $+2
$SG4294722668 DB 'u', 00H, 's', 00H, 'e', 00H, 'O', 00H, 'u', 00H, 't', 00H
	DB	'l', 00H, 'i', 00H, 'n', 00H, 'e', 00H, 00H, 00H
	ORG $+2
$SG4294722669 DB 'b', 00H, 'a', 00H, 'c', 00H, 'k', 00H, 'g', 00H, 'r', 00H
	DB	'o', 00H, 'u', 00H, 'n', 00H, 'd', 00H, 'O', 00H, 'p', 00H, 'a'
	DB	00H, 'c', 00H, 'i', 00H, 't', 00H, 'y', 00H, 00H, 00H
$SG4294722670 DB 'b', 00H, 'a', 00H, 'c', 00H, 'k', 00H, 'g', 00H, 'r', 00H
	DB	'o', 00H, 'u', 00H, 'n', 00H, 'd', 00H, 'C', 00H, 'o', 00H, 'l'
	DB	00H, 'o', 00H, 'r', 00H, 00H, 00H
$SG4294722671 DB 'p', 00H, 'o', 00H, 'i', 00H, 'n', 00H, 't', 00H, 'F', 00H
	DB	'i', 00H, 'l', 00H, 't', 00H, 'e', 00H, 'r', 00H, 'i', 00H, 'n'
	DB	00H, 'g', 00H, 00H, 00H
	ORG $+2
$SG4294722664 DB 'u', 00H, 's', 00H, 'e', 00H, 'T', 00H, 'e', 00H, 'x', 00H
	DB	't', 00H, 'E', 00H, 'x', 00H, 't', 00H, 'e', 00H, 'n', 00H, 't'
	DB	00H, 's', 00H, 00H, 00H
	ORG $+2
$SG4294722665 DB 'o', 00H, 'u', 00H, 't', 00H, 'l', 00H, 'i', 00H, 'n', 00H
	DB	'e', 00H, 'O', 00H, 'p', 00H, 'a', 00H, 'c', 00H, 'i', 00H, 't'
	DB	00H, 'y', 00H, 00H, 00H
	ORG $+2
$SG4294722666 DB 'o', 00H, 'u', 00H, 't', 00H, 'l', 00H, 'i', 00H, 'n', 00H
	DB	'e', 00H, 'S', 00H, 'i', 00H, 'z', 00H, 'e', 00H, 00H, 00H
$SG4294722667 DB 'o', 00H, 'u', 00H, 't', 00H, 'l', 00H, 'i', 00H, 'n', 00H
	DB	'e', 00H, 'C', 00H, 'o', 00H, 'l', 00H, 'o', 00H, 'r', 00H, 00H
	DB	00H
	ORG $+2
$SG4294722660 DB 'f', 00H, 'i', 00H, 'l', 00H, 'e', 00H, 00H, 00H
	ORG $+2
$SG4294722661 DB 'a', 00H, 'l', 00H, 'i', 00H, 'g', 00H, 'n', 00H, 00H, 00H
$SG4294722662 DB 'e', 00H, 'x', 00H, 't', 00H, 'e', 00H, 'n', 00H, 't', 00H
	DB	'H', 00H, 'e', 00H, 'i', 00H, 'g', 00H, 'h', 00H, 't', 00H, 00H
	DB	00H
	ORG $+2
$SG4294722663 DB 'e', 00H, 'x', 00H, 't', 00H, 'e', 00H, 'n', 00H, 't', 00H
	DB	'W', 00H, 'i', 00H, 'd', 00H, 't', 00H, 'h', 00H, 00H, 00H
$SG4294722656 DB 'd', 00H, 'a', 00H, 't', 00H, 'a', 00H, 00H, 00H
	ORG $+2
$SG4294722658 DB 'm', 00H, 'o', 00H, 'd', 00H, 'e', 00H, 00H, 00H
	ORG $+2
$SG4294722657 DB 'C', 00H, 'o', 00H, 'n', 00H, 'f', 00H, 'i', 00H, 'g', 00H
	DB	'u', 00H, 'r', 00H, 'e', 00H, 'T', 00H, 'e', 00H, 'x', 00H, 't'
	DB	00H, 'S', 00H, 'o', 00H, 'u', 00H, 'r', 00H, 'c', 00H, 'e', 00H
	DB	':', 00H, ' ', 00H, 'N', 00H, 'U', 00H, 'L', 00H, 'L', 00H, ' '
	DB	00H, 'e', 00H, 'l', 00H, 'e', 00H, 'm', 00H, 'e', 00H, 'n', 00H
	DB	't', 00H, 00H, 00H
$SG4294722659 DB 't', 00H, 'e', 00H, 'x', 00H, 't', 00H, 00H, 00H
	ORG $+2
$SG4294722653 DB 'c', 00H, 'y', 00H, 00H, 00H
	ORG $+2
$SG4294722654 DB 'c', 00H, 'x', 00H, 00H, 00H
	ORG $+2
$SG4294722655 DB 'd', 00H, 'a', 00H, 't', 00H, 'a', 00H, 00H, 00H
PUBLIC	??$forward@U?$default_delete@VSamplerState@@@std@@@std@@YA$$QAU?$default_delete@VSamplerState@@@0@AAU10@@Z ; std::forward<std::default_delete<SamplerState> >
PUBLIC	??$move@AAV?$unique_ptr@VSamplerState@@U?$default_delete@VSamplerState@@@std@@@std@@@std@@YA$$QAV?$unique_ptr@VSamplerState@@U?$default_delete@VSamplerState@@@std@@@0@AAV10@@Z ; std::move<std::unique_ptr<SamplerState,std::default_delete<SamplerState> > &>
PUBLIC	??0?$default_delete@VSamplerState@@@std@@QAE@XZ	; std::default_delete<SamplerState>::default_delete<SamplerState>
PUBLIC	?get_deleter@?$_Unique_ptr_base@VSamplerState@@U?$default_delete@VSamplerState@@@std@@$00@std@@QAEAAU?$default_delete@VSamplerState@@@2@XZ ; std::_Unique_ptr_base<SamplerState,std::default_delete<SamplerState>,1>::get_deleter
PUBLIC	??0?$_Unique_ptr_base@VSamplerState@@U?$default_delete@VSamplerState@@@std@@$00@std@@QAE@PAVSamplerState@@@Z ; std::_Unique_ptr_base<SamplerState,std::default_delete<SamplerState>,1>::_Unique_ptr_base<SamplerState,std::default_delete<SamplerState>,1>
PUBLIC	??R?$default_delete@VSamplerState@@@std@@QBEXPAVSamplerState@@@Z ; std::default_delete<SamplerState>::operator()
PUBLIC	?reset@?$unique_ptr@VSamplerState@@U?$default_delete@VSamplerState@@@std@@@std@@QAEXPAVSamplerState@@@Z ; std::unique_ptr<SamplerState,std::default_delete<SamplerState> >::reset
PUBLIC	?release@?$unique_ptr@VSamplerState@@U?$default_delete@VSamplerState@@@std@@@std@@QAEPAVSamplerState@@XZ ; std::unique_ptr<SamplerState,std::default_delete<SamplerState> >::release
PUBLIC	??B?$unique_ptr@VSamplerState@@U?$default_delete@VSamplerState@@@std@@@std@@QBE_NXZ ; std::unique_ptr<SamplerState,std::default_delete<SamplerState> >::operator bool
PUBLIC	?get@?$unique_ptr@VSamplerState@@U?$default_delete@VSamplerState@@@std@@@std@@QBEPAVSamplerState@@XZ ; std::unique_ptr<SamplerState,std::default_delete<SamplerState> >::get
PUBLIC	??1?$unique_ptr@VSamplerState@@U?$default_delete@VSamplerState@@@std@@@std@@QAE@XZ ; std::unique_ptr<SamplerState,std::default_delete<SamplerState> >::~unique_ptr<SamplerState,std::default_delete<SamplerState> >
PUBLIC	??4?$unique_ptr@VSamplerState@@U?$default_delete@VSamplerState@@@std@@@std@@QAEAAV01@$$QAV01@@Z ; std::unique_ptr<SamplerState,std::default_delete<SamplerState> >::operator=
PUBLIC	??0?$unique_ptr@VSamplerState@@U?$default_delete@VSamplerState@@@std@@@std@@QAE@PAVSamplerState@@@Z ; std::unique_ptr<SamplerState,std::default_delete<SamplerState> >::unique_ptr<SamplerState,std::default_delete<SamplerState> >
PUBLIC	??0?$unique_ptr@VSamplerState@@U?$default_delete@VSamplerState@@@std@@@std@@QAE@XZ ; std::unique_ptr<SamplerState,std::default_delete<SamplerState> >::unique_ptr<SamplerState,std::default_delete<SamplerState> >
PUBLIC	??1ConfigTextSourceInfo@@QAE@XZ			; ConfigTextSourceInfo::~ConfigTextSourceInfo
PUBLIC	??0ConfigTextSourceInfo@@QAE@XZ			; ConfigTextSourceInfo::ConfigTextSourceInfo
PUBLIC	?ConfigureTextProc@@YGHPAUHWND__@@IIJ@Z		; ConfigureTextProc
PUBLIC	?GetFontFace@@YAPB_WPAUConfigTextSourceInfo@@PAUHWND__@@@Z ; GetFontFace
PUBLIC	?FindFontName@@YAIPAUConfigTextSourceInfo@@PAUHWND__@@PB_W@Z ; FindFontName
PUBLIC	?FindFontFace@@YAIPAUConfigTextSourceInfo@@PAUHWND__@@PB_W@Z ; FindFontFace
PUBLIC	?DoCancelStuff@@YAXPAUHWND__@@@Z		; DoCancelStuff
PUBLIC	?FontEnumProcThingy@@YGHPAUtagENUMLOGFONTEXW@@PAUtagNEWTEXTMETRICEXW@@KPAUConfigTextSourceInfo@@@Z ; FontEnumProcThingy
PUBLIC	??_GTextOutputSource@@UAEPAXI@Z			; TextOutputSource::`scalar deleting destructor'
PUBLIC	??_GGraphics@Gdiplus@@QAEPAXI@Z			; Gdiplus::Graphics::`scalar deleting destructor'
PUBLIC	??_GGraphicsPath@Gdiplus@@QAEPAXI@Z		; Gdiplus::GraphicsPath::`scalar deleting destructor'
PUBLIC	?SetFloat@TextOutputSource@@UAEXPB_WM@Z		; TextOutputSource::SetFloat
PUBLIC	?SetInt@TextOutputSource@@UAEXPB_WH@Z		; TextOutputSource::SetInt
PUBLIC	?SetString@TextOutputSource@@UAEXPB_W0@Z	; TextOutputSource::SetString
PUBLIC	?UpdateSettings@TextOutputSource@@UAEXXZ	; TextOutputSource::UpdateSettings
PUBLIC	?GetSize@TextOutputSource@@UBE?AUVect2@@XZ	; TextOutputSource::GetSize
PUBLIC	?Render@TextOutputSource@@UAEXABUVect2@@0@Z	; TextOutputSource::Render
PUBLIC	?Tick@TextOutputSource@@UAEXM@Z			; TextOutputSource::Tick
PUBLIC	?Preprocess@TextOutputSource@@UAEXXZ		; TextOutputSource::Preprocess
PUBLIC	??1TextOutputSource@@UAE@XZ			; TextOutputSource::~TextOutputSource
PUBLIC	??0TextOutputSource@@QAE@PAVXElement@@@Z	; TextOutputSource::TextOutputSource
PUBLIC	?UpdateTexture@TextOutputSource@@AAEXXZ		; TextOutputSource::UpdateTexture
PUBLIC	?ProcessScrollMode@TextOutputSource@@AAEMPAVGraphics@Gdiplus@@PAVFont@3@AAVRectF@3@PAVStringFormat@3@@Z ; TextOutputSource::ProcessScrollMode
PUBLIC	?SetStringFormat@TextOutputSource@@AAEXAAVStringFormat@Gdiplus@@@Z ; TextOutputSource::SetStringFormat
PUBLIC	?UpdateCurrentText@TextOutputSource@@AAEXXZ	; TextOutputSource::UpdateCurrentText
PUBLIC	?GetFont@TextOutputSource@@AAEPAUHFONT__@@XZ	; TextOutputSource::GetFont
PUBLIC	?DrawOutlineText@TextOutputSource@@AAEXPAVGraphics@Gdiplus@@AAVFont@3@ABVGraphicsPath@3@ABVStringFormat@3@PBVBrush@3@@Z ; TextOutputSource::DrawOutlineText
PUBLIC	?GetAlphaVal@@YAKI@Z				; GetAlphaVal
PUBLIC	??0Bitmap@Gdiplus@@QAE@HHHHPAE@Z		; Gdiplus::Bitmap::Bitmap
PUBLIC	??1Bitmap@Gdiplus@@UAE@XZ			; Gdiplus::Bitmap::~Bitmap
PUBLIC	??_GBitmap@Gdiplus@@UAEPAXI@Z			; Gdiplus::Bitmap::`scalar deleting destructor'
PUBLIC	?SetStatus@Font@Gdiplus@@IBE?AW4Status@2@W432@@Z ; Gdiplus::Font::SetStatus
PUBLIC	?SetNativeFont@Font@Gdiplus@@IAEXPAVGpFont@2@@Z	; Gdiplus::Font::SetNativeFont
PUBLIC	?GetSize@Font@Gdiplus@@QBEMXZ			; Gdiplus::Font::GetSize
PUBLIC	?GetStyle@Font@Gdiplus@@QBEHXZ			; Gdiplus::Font::GetStyle
PUBLIC	?GetFamily@Font@Gdiplus@@QBE?AW4Status@2@PAVFontFamily@2@@Z ; Gdiplus::Font::GetFamily
PUBLIC	?IsAvailable@Font@Gdiplus@@QBEHXZ		; Gdiplus::Font::IsAvailable
PUBLIC	??1Font@Gdiplus@@QAE@XZ				; Gdiplus::Font::~Font
PUBLIC	??0Font@Gdiplus@@QAE@PAUHDC__@@PBUtagLOGFONTW@@@Z ; Gdiplus::Font::Font
PUBLIC	??0Font@Gdiplus@@QAE@PAUHDC__@@QAUHFONT__@@@Z	; Gdiplus::Font::Font
PUBLIC	?SetStatus@FontFamily@Gdiplus@@IBE?AW4Status@2@W432@@Z ; Gdiplus::FontFamily::SetStatus
PUBLIC	??1FontFamily@Gdiplus@@QAE@XZ			; Gdiplus::FontFamily::~FontFamily
PUBLIC	??0FontFamily@Gdiplus@@QAE@XZ			; Gdiplus::FontFamily::FontFamily
PUBLIC	?MeasureString@Graphics@Gdiplus@@QBE?AW4Status@2@PB_WHPBVFont@2@ABVRectF@2@PAV52@@Z ; Gdiplus::Graphics::MeasureString
PUBLIC	?MeasureString@Graphics@Gdiplus@@QBE?AW4Status@2@PB_WHPBVFont@2@ABVPointF@2@PBVStringFormat@2@PAVRectF@2@@Z ; Gdiplus::Graphics::MeasureString
PUBLIC	?MeasureString@Graphics@Gdiplus@@QBE?AW4Status@2@PB_WHPBVFont@2@ABVRectF@2@PBVStringFormat@2@PAV52@PAH5@Z ; Gdiplus::Graphics::MeasureString
PUBLIC	?DrawString@Graphics@Gdiplus@@QAE?AW4Status@2@PB_WHPBVFont@2@ABVRectF@2@PBVStringFormat@2@PBVBrush@2@@Z ; Gdiplus::Graphics::DrawString
PUBLIC	?FillPath@Graphics@Gdiplus@@QAE?AW4Status@2@PBVBrush@2@PBVGraphicsPath@2@@Z ; Gdiplus::Graphics::FillPath
PUBLIC	?FillRectangle@Graphics@Gdiplus@@QAE?AW4Status@2@PBVBrush@2@MMMM@Z ; Gdiplus::Graphics::FillRectangle
PUBLIC	?FillRectangle@Graphics@Gdiplus@@QAE?AW4Status@2@PBVBrush@2@ABVRectF@2@@Z ; Gdiplus::Graphics::FillRectangle
PUBLIC	?Clear@Graphics@Gdiplus@@QAE?AW4Status@2@ABVColor@2@@Z ; Gdiplus::Graphics::Clear
PUBLIC	?DrawPath@Graphics@Gdiplus@@QAE?AW4Status@2@PBVPen@2@PBVGraphicsPath@2@@Z ; Gdiplus::Graphics::DrawPath
PUBLIC	?SetTextRenderingHint@Graphics@Gdiplus@@QAE?AW4Status@2@W4TextRenderingHint@2@@Z ; Gdiplus::Graphics::SetTextRenderingHint
PUBLIC	?SetCompositingMode@Graphics@Gdiplus@@QAE?AW4Status@2@W4CompositingMode@2@@Z ; Gdiplus::Graphics::SetCompositingMode
PUBLIC	??0Graphics@Gdiplus@@QAE@PAVImage@1@@Z		; Gdiplus::Graphics::Graphics
PUBLIC	?SetStatus@GraphicsPath@Gdiplus@@IBE?AW4Status@2@W432@@Z ; Gdiplus::GraphicsPath::SetStatus
PUBLIC	?SetNativePath@GraphicsPath@Gdiplus@@IAEXPAVGpPath@2@@Z ; Gdiplus::GraphicsPath::SetNativePath
PUBLIC	??0GraphicsPath@Gdiplus@@IAE@PAVGpPath@1@@Z	; Gdiplus::GraphicsPath::GraphicsPath
PUBLIC	?AddString@GraphicsPath@Gdiplus@@QAE?AW4Status@2@PB_WHPBVFontFamily@2@HMABVRectF@2@PBVStringFormat@2@@Z ; Gdiplus::GraphicsPath::AddString
PUBLIC	?Clone@GraphicsPath@Gdiplus@@QBEPAV12@XZ	; Gdiplus::GraphicsPath::Clone
PUBLIC	??1GraphicsPath@Gdiplus@@QAE@XZ			; Gdiplus::GraphicsPath::~GraphicsPath
PUBLIC	??0GraphicsPath@Gdiplus@@QAE@W4FillMode@1@@Z	; Gdiplus::GraphicsPath::GraphicsPath
PUBLIC	?GenericTypographic@StringFormat@Gdiplus@@SAPBV12@XZ ; Gdiplus::StringFormat::GenericTypographic
PUBLIC	?SetStatus@StringFormat@Gdiplus@@IBE?AW4Status@2@W432@@Z ; Gdiplus::StringFormat::SetStatus
PUBLIC	?SetTrimming@StringFormat@Gdiplus@@QAE?AW4Status@2@W4StringTrimming@2@@Z ; Gdiplus::StringFormat::SetTrimming
PUBLIC	?SetLineAlignment@StringFormat@Gdiplus@@QAE?AW4Status@2@W4StringAlignment@2@@Z ; Gdiplus::StringFormat::SetLineAlignment
PUBLIC	?SetAlignment@StringFormat@Gdiplus@@QAE?AW4Status@2@W4StringAlignment@2@@Z ; Gdiplus::StringFormat::SetAlignment
PUBLIC	?SetFormatFlags@StringFormat@Gdiplus@@QAE?AW4Status@2@H@Z ; Gdiplus::StringFormat::SetFormatFlags
PUBLIC	??1StringFormat@Gdiplus@@QAE@XZ			; Gdiplus::StringFormat::~StringFormat
PUBLIC	??0StringFormat@Gdiplus@@QAE@PBV01@@Z		; Gdiplus::StringFormat::StringFormat
PUBLIC	?SetStatus@Pen@Gdiplus@@IBE?AW4Status@2@W432@@Z	; Gdiplus::Pen::SetStatus
PUBLIC	?SetLineJoin@Pen@Gdiplus@@QAE?AW4Status@2@W4LineJoin@2@@Z ; Gdiplus::Pen::SetLineJoin
PUBLIC	??1Pen@Gdiplus@@QAE@XZ				; Gdiplus::Pen::~Pen
PUBLIC	??0Pen@Gdiplus@@QAE@ABVColor@1@M@Z		; Gdiplus::Pen::Pen
PUBLIC	??1SolidBrush@Gdiplus@@UAE@XZ			; Gdiplus::SolidBrush::~SolidBrush
PUBLIC	??_GSolidBrush@Gdiplus@@UAEPAXI@Z		; Gdiplus::SolidBrush::`scalar deleting destructor'
PUBLIC	??0SolidBrush@Gdiplus@@QAE@ABVColor@1@@Z	; Gdiplus::SolidBrush::SolidBrush
PUBLIC	??_GBrush@Gdiplus@@UAEPAXI@Z			; Gdiplus::Brush::`scalar deleting destructor'
PUBLIC	?SetStatus@Brush@Gdiplus@@IBE?AW4Status@2@W432@@Z ; Gdiplus::Brush::SetStatus
PUBLIC	?SetNativeBrush@Brush@Gdiplus@@IAEXPAVGpBrush@2@@Z ; Gdiplus::Brush::SetNativeBrush
PUBLIC	??0Brush@Gdiplus@@IAE@PAVGpBrush@1@W4Status@1@@Z ; Gdiplus::Brush::Brush
PUBLIC	??0Brush@Gdiplus@@IAE@XZ			; Gdiplus::Brush::Brush
PUBLIC	?Clone@Brush@Gdiplus@@UBEPAV12@XZ		; Gdiplus::Brush::Clone
PUBLIC	??1Brush@Gdiplus@@UAE@XZ			; Gdiplus::Brush::~Brush
PUBLIC	??0Image@Gdiplus@@IAE@XZ			; Gdiplus::Image::Image
PUBLIC	?GetValue@Color@Gdiplus@@QBEKXZ			; Gdiplus::Color::GetValue
PUBLIC	??0Color@Gdiplus@@QAE@K@Z			; Gdiplus::Color::Color
PUBLIC	?Offset@RectF@Gdiplus@@QAEXMM@Z			; Gdiplus::RectF::Offset
PUBLIC	??0RectF@Gdiplus@@QAE@MMMM@Z			; Gdiplus::RectF::RectF
PUBLIC	??0RectF@Gdiplus@@QAE@XZ			; Gdiplus::RectF::RectF
PUBLIC	??0PointF@Gdiplus@@QAE@MM@Z			; Gdiplus::PointF::PointF
PUBLIC	?DrawBox@@YAXABUVect2@@0@Z			; DrawBox
PUBLIC	?SetScissorRect@@YAXPAUXRect@@@Z		; SetScissorRect
PUBLIC	?ConfigureTextSource@@YG_NPAVXElement@@_N@Z	; ConfigureTextSource
PUBLIC	?CreateTextSource@@YGPAVImageSource@@PAVXElement@@@Z ; CreateTextSource
EXTRN	??_ESolidBrush@Gdiplus@@UAEPAXI@Z:PROC		; Gdiplus::SolidBrush::`vector deleting destructor'
EXTRN	??_EBrush@Gdiplus@@UAEPAXI@Z:PROC		; Gdiplus::Brush::`vector deleting destructor'
EXTRN	??_EBitmap@Gdiplus@@UAEPAXI@Z:PROC		; Gdiplus::Bitmap::`vector deleting destructor'
EXTRN	??_ETextOutputSource@@UAEPAXI@Z:PROC		; TextOutputSource::`vector deleting destructor'
	ALIGN	4

__Tuple_alloc DB 01H DUP (?)
	ALIGN	4

_ignore	DB	01H DUP (?)
	ALIGN	4

_allocator_arg DB 01H DUP (?)
	ALIGN	4

_piecewise_construct DB 01H DUP (?)
_BSS	ENDS
_piecewise_construct$initializer$ DD FLAT:??__Epiecewise_construct@std@@YAXXZ
_allocator_arg$initializer$ DD FLAT:??__Eallocator_arg@std@@YAXXZ
_ignore$initializer$ DD FLAT:??__Eignore@std@@YAXXZ
__Tuple_alloc$initializer$ DD FLAT:??__E_Tuple_alloc@std@@YAXXZ
; Function compile flags: /Odtp
; File f:\songmm_moon_stone_obs\obs\source\textoutputsource.cpp
;	COMDAT ?CreateTextSource@@YGPAVImageSource@@PAVXElement@@@Z
_TEXT	SEGMENT
tv74 = -8						; size = 4
$T1 = -4						; size = 4
_data$ = 8						; size = 4
?CreateTextSource@@YGPAVImageSource@@PAVXElement@@@Z PROC ; CreateTextSource, COMDAT

; 792  : {

	push	ebp
	mov	ebp, esp
	sub	esp, 8

; 793  :     if(!data)

	cmp	DWORD PTR _data$[ebp], 0
	jne	SHORT $LN1@CreateText

; 794  :         return NULL;

	xor	eax, eax
	jmp	SHORT $LN2@CreateText
$LN1@CreateText:

; 795  : 
; 796  :     return new TextOutputSource(data);

	push	164					; 000000a4H
	call	??2@YAPAXI@Z				; operator new
	add	esp, 4
	mov	DWORD PTR $T1[ebp], eax
	cmp	DWORD PTR $T1[ebp], 0
	je	SHORT $LN4@CreateText
	mov	eax, DWORD PTR _data$[ebp]
	push	eax
	mov	ecx, DWORD PTR $T1[ebp]
	call	??0TextOutputSource@@QAE@PAVXElement@@@Z ; TextOutputSource::TextOutputSource
	mov	DWORD PTR tv74[ebp], eax
	jmp	SHORT $LN5@CreateText
$LN4@CreateText:
	mov	DWORD PTR tv74[ebp], 0
$LN5@CreateText:
	mov	eax, DWORD PTR tv74[ebp]
$LN2@CreateText:

; 797  : }

	mov	esp, ebp
	pop	ebp
	ret	4
?CreateTextSource@@YGPAVImageSource@@PAVXElement@@@Z ENDP ; CreateTextSource
_TEXT	ENDS
; Function compile flags: /Odtp
; File f:\songmm_moon_stone_obs\obs\source\textoutputsource.cpp
;	COMDAT ?ConfigureTextSource@@YG_NPAVXElement@@_N@Z
_TEXT	SEGMENT
_configInfo$ = -40					; size = 32
_data$ = -8						; size = 4
$T1 = -2						; size = 1
$T2 = -1						; size = 1
_element$ = 8						; size = 4
_bCreating$ = 12					; size = 1
?ConfigureTextSource@@YG_NPAVXElement@@_N@Z PROC	; ConfigureTextSource, COMDAT

; 1430 : {

	push	ebp
	mov	ebp, esp
	sub	esp, 40					; 00000028H

; 1431 :     if(!element)

	cmp	DWORD PTR _element$[ebp], 0
	jne	SHORT $LN3@ConfigureT

; 1432 :     {
; 1433 :         AppWarning(TEXT("ConfigureTextSource: NULL element"));

	push	OFFSET $SG4294722657
	call	DWORD PTR __imp_?AppWarning@@YAXPB_WZZ
	add	esp, 4

; 1434 :         return false;

	xor	al, al
	jmp	$LN4@ConfigureT
$LN3@ConfigureT:

; 1435 :     }
; 1436 : 
; 1437 :     XElement *data = element->GetElement(TEXT("data"));

	push	OFFSET $SG4294722656
	mov	ecx, DWORD PTR _element$[ebp]
	call	DWORD PTR __imp_?GetElement@XElement@@QBEPAV1@PB_W@Z
	mov	DWORD PTR _data$[ebp], eax

; 1438 :     if(!data)

	cmp	DWORD PTR _data$[ebp], 0
	jne	SHORT $LN2@ConfigureT

; 1439 :         data = element->CreateElement(TEXT("data"));

	push	OFFSET $SG4294722655
	mov	ecx, DWORD PTR _element$[ebp]
	call	DWORD PTR __imp_?CreateElement@XElement@@QAEPAV1@PB_W@Z
	mov	DWORD PTR _data$[ebp], eax
$LN2@ConfigureT:

; 1440 : 
; 1441 :     ConfigTextSourceInfo configInfo;

	lea	ecx, DWORD PTR _configInfo$[ebp]
	call	??0ConfigTextSourceInfo@@QAE@XZ

; 1442 :     configInfo.lpName = element->GetName();

	mov	ecx, DWORD PTR _element$[ebp]
	call	DWORD PTR __imp_?GetName@XBaseItem@@QBEPB_WXZ
	mov	DWORD PTR _configInfo$[ebp], eax

; 1443 :     configInfo.data = data;

	mov	eax, DWORD PTR _data$[ebp]
	mov	DWORD PTR _configInfo$[ebp+4], eax

; 1444 : 
; 1445 :     if(OBSDialogBox(hinstMain, MAKEINTRESOURCE(IDD_CONFIGURETEXTSOURCE), hwndMain, ConfigureTextProc, (LPARAM)&configInfo) == IDOK)

	lea	ecx, DWORD PTR _configInfo$[ebp]
	push	ecx
	push	OFFSET ?ConfigureTextProc@@YGHPAUHWND__@@IIJ@Z ; ConfigureTextProc
	mov	edx, DWORD PTR ?hwndMain@@3PAUHWND__@@A	; hwndMain
	push	edx
	push	139					; 0000008bH
	mov	eax, DWORD PTR ?hinstMain@@3PAUHINSTANCE__@@A ; hinstMain
	push	eax
	call	DWORD PTR __imp_?OBSDialogBox@@YAHPAUHINSTANCE__@@PB_WPAUHWND__@@P6GH2IIJ@ZJ@Z
	add	esp, 20					; 00000014H
	cmp	eax, 1
	jne	SHORT $LN1@ConfigureT

; 1446 :     {
; 1447 :         element->SetFloat(TEXT("cx"), configInfo.cx);

	push	ecx
	movss	xmm0, DWORD PTR _configInfo$[ebp+8]
	movss	DWORD PTR [esp], xmm0
	push	OFFSET $SG4294722654
	mov	ecx, DWORD PTR _element$[ebp]
	call	DWORD PTR __imp_?SetFloat@XElement@@QAEXPB_WM@Z

; 1448 :         element->SetFloat(TEXT("cy"), configInfo.cy);

	push	ecx
	movss	xmm0, DWORD PTR _configInfo$[ebp+12]
	movss	DWORD PTR [esp], xmm0
	push	OFFSET $SG4294722653
	mov	ecx, DWORD PTR _element$[ebp]
	call	DWORD PTR __imp_?SetFloat@XElement@@QAEXPB_WM@Z

; 1449 : 
; 1450 :         return true;

	mov	BYTE PTR $T2[ebp], 1
	lea	ecx, DWORD PTR _configInfo$[ebp]
	call	??1ConfigTextSourceInfo@@QAE@XZ
	mov	al, BYTE PTR $T2[ebp]
	jmp	SHORT $LN4@ConfigureT
$LN1@ConfigureT:

; 1451 :     }
; 1452 : 
; 1453 :     return false;

	mov	BYTE PTR $T1[ebp], 0
	lea	ecx, DWORD PTR _configInfo$[ebp]
	call	??1ConfigTextSourceInfo@@QAE@XZ
	mov	al, BYTE PTR $T1[ebp]
$LN4@ConfigureT:

; 1454 : }

	mov	esp, ebp
	pop	ebp
	ret	8
?ConfigureTextSource@@YG_NPAVXElement@@_N@Z ENDP	; ConfigureTextSource
_TEXT	ENDS
; Function compile flags: /Odtp
; File d:\vs2013\vc\include\utility
;	COMDAT ??__Epiecewise_construct@std@@YAXXZ
text$di	SEGMENT
$T1 = -1						; size = 1
??__Epiecewise_construct@std@@YAXXZ PROC		; std::`dynamic initializer for 'piecewise_construct'', COMDAT

; 70   : 	piecewise_construct_t();

	push	ebp
	mov	ebp, esp
	push	ecx
	xor	eax, eax
	mov	BYTE PTR $T1[ebp], al
	mov	esp, ebp
	pop	ebp
	ret	0
??__Epiecewise_construct@std@@YAXXZ ENDP		; std::`dynamic initializer for 'piecewise_construct''
text$di	ENDS
; Function compile flags: /Odtp
; File d:\vs2013\vc\include\xutility
;	COMDAT ??__Eallocator_arg@std@@YAXXZ
text$di	SEGMENT
$T1 = -1						; size = 1
??__Eallocator_arg@std@@YAXXZ PROC			; std::`dynamic initializer for 'allocator_arg'', COMDAT

; 3451 : const allocator_arg_t allocator_arg = allocator_arg_t();

	push	ebp
	mov	ebp, esp
	push	ecx
	xor	eax, eax
	mov	BYTE PTR $T1[ebp], al
	mov	esp, ebp
	pop	ebp
	ret	0
??__Eallocator_arg@std@@YAXXZ ENDP			; std::`dynamic initializer for 'allocator_arg''
text$di	ENDS
; Function compile flags: /Odtp
; File d:\vs2013\vc\include\tuple
;	COMDAT ??__Eignore@std@@YAXXZ
text$di	SEGMENT
??__Eignore@std@@YAXXZ PROC				; std::`dynamic initializer for 'ignore'', COMDAT

; 59   : const _Ignore ignore;

	push	ebp
	mov	ebp, esp
	mov	ecx, OFFSET _ignore
	call	??0_Ignore@std@@QAE@XZ			; std::_Ignore::_Ignore
	pop	ebp
	ret	0
??__Eignore@std@@YAXXZ ENDP				; std::`dynamic initializer for 'ignore''
text$di	ENDS
; Function compile flags: /Odtp
; File d:\vs2013\vc\include\tuple
;	COMDAT ??__E_Tuple_alloc@std@@YAXXZ
text$di	SEGMENT
$T1 = -1						; size = 1
??__E_Tuple_alloc@std@@YAXXZ PROC			; std::`dynamic initializer for '_Tuple_alloc'', COMDAT

; 66   : const _Tuple_alloc_t _Tuple_alloc = _Tuple_alloc_t();

	push	ebp
	mov	ebp, esp
	push	ecx
	xor	eax, eax
	mov	BYTE PTR $T1[ebp], al
	mov	esp, ebp
	pop	ebp
	ret	0
??__E_Tuple_alloc@std@@YAXXZ ENDP			; std::`dynamic initializer for '_Tuple_alloc''
text$di	ENDS
; Function compile flags: /Odtp
; File f:\songmm_moon_stone_obs\obs\obsapi\graphicssystem.h
;	COMDAT ?SetScissorRect@@YAXPAUXRect@@@Z
_TEXT	SEGMENT
_pRect$ = 8						; size = 4
?SetScissorRect@@YAXPAUXRect@@@Z PROC			; SetScissorRect, COMDAT

; 710  : inline void  SetScissorRect(XRect *pRect=NULL)                        {GS->SetScissorRect(pRect);}

	push	ebp
	mov	ebp, esp
	mov	eax, DWORD PTR _pRect$[ebp]
	push	eax
	mov	ecx, DWORD PTR __imp_?GS@@3PAVGraphicsSystem@@A
	mov	edx, DWORD PTR [ecx]
	mov	eax, DWORD PTR __imp_?GS@@3PAVGraphicsSystem@@A
	mov	edx, DWORD PTR [edx]
	mov	ecx, DWORD PTR [eax]
	mov	eax, DWORD PTR [edx+140]
	call	eax
	pop	ebp
	ret	0
?SetScissorRect@@YAXPAUXRect@@@Z ENDP			; SetScissorRect
_TEXT	ENDS
; Function compile flags: /Odtp
; File f:\songmm_moon_stone_obs\obs\obsapi\graphicssystem.h
;	COMDAT ?DrawBox@@YAXABUVect2@@0@Z
_TEXT	SEGMENT
_upperLeft$ = 8						; size = 4
_size$ = 12						; size = 4
?DrawBox@@YAXABUVect2@@0@Z PROC				; DrawBox, COMDAT

; 719  :     {GS->DrawBox(upperLeft, size);}

	push	ebp
	mov	ebp, esp
	mov	eax, DWORD PTR _size$[ebp]
	push	eax
	mov	ecx, DWORD PTR _upperLeft$[ebp]
	push	ecx
	mov	edx, DWORD PTR __imp_?GS@@3PAVGraphicsSystem@@A
	mov	eax, DWORD PTR [edx]
	mov	ecx, DWORD PTR __imp_?GS@@3PAVGraphicsSystem@@A
	mov	edx, DWORD PTR [eax]
	mov	ecx, DWORD PTR [ecx]
	mov	eax, DWORD PTR [edx+120]
	call	eax
	pop	ebp
	ret	0
?DrawBox@@YAXABUVect2@@0@Z ENDP				; DrawBox
_TEXT	ENDS
; Function compile flags: /Odtp
; File c:\program files (x86)\windows kits\8.1\include\um\gdiplustypes.h
;	COMDAT ??0PointF@Gdiplus@@QAE@MM@Z
_TEXT	SEGMENT
_this$ = -4						; size = 4
_x$ = 8							; size = 4
_y$ = 12						; size = 4
??0PointF@Gdiplus@@QAE@MM@Z PROC			; Gdiplus::PointF::PointF, COMDAT
; _this$ = ecx

; 259  :    PointF(IN REAL x,

	push	ebp
	mov	ebp, esp
	push	ecx
	mov	DWORD PTR _this$[ebp], ecx

; 260  :           IN REAL y)
; 261  :    {
; 262  :        X = x;

	mov	eax, DWORD PTR _this$[ebp]
	movss	xmm0, DWORD PTR _x$[ebp]
	movss	DWORD PTR [eax], xmm0

; 263  :        Y = y;

	mov	ecx, DWORD PTR _this$[ebp]
	movss	xmm0, DWORD PTR _y$[ebp]
	movss	DWORD PTR [ecx+4], xmm0

; 264  :    }

	mov	eax, DWORD PTR _this$[ebp]
	mov	esp, ebp
	pop	ebp
	ret	8
??0PointF@Gdiplus@@QAE@MM@Z ENDP			; Gdiplus::PointF::PointF
_TEXT	ENDS
; Function compile flags: /Odtp
; File c:\program files (x86)\windows kits\8.1\include\um\gdiplustypes.h
;	COMDAT ??0RectF@Gdiplus@@QAE@XZ
_TEXT	SEGMENT
_this$ = -4						; size = 4
??0RectF@Gdiplus@@QAE@XZ PROC				; Gdiplus::RectF::RectF, COMDAT
; _this$ = ecx

; 351  :     RectF()

	push	ebp
	mov	ebp, esp
	push	ecx
	mov	DWORD PTR _this$[ebp], ecx

; 352  :     {
; 353  :         X = Y = Width = Height = 0.0f;

	mov	eax, DWORD PTR _this$[ebp]
	movss	xmm0, DWORD PTR __real@00000000
	movss	DWORD PTR [eax+12], xmm0
	mov	ecx, DWORD PTR _this$[ebp]
	movss	xmm0, DWORD PTR __real@00000000
	movss	DWORD PTR [ecx+8], xmm0
	mov	edx, DWORD PTR _this$[ebp]
	movss	xmm0, DWORD PTR __real@00000000
	movss	DWORD PTR [edx+4], xmm0
	mov	eax, DWORD PTR _this$[ebp]
	movss	xmm0, DWORD PTR __real@00000000
	movss	DWORD PTR [eax], xmm0

; 354  :     }

	mov	eax, DWORD PTR _this$[ebp]
	mov	esp, ebp
	pop	ebp
	ret	0
??0RectF@Gdiplus@@QAE@XZ ENDP				; Gdiplus::RectF::RectF
_TEXT	ENDS
; Function compile flags: /Odtp
; File c:\program files (x86)\windows kits\8.1\include\um\gdiplustypes.h
;	COMDAT ??0RectF@Gdiplus@@QAE@MMMM@Z
_TEXT	SEGMENT
_this$ = -4						; size = 4
_x$ = 8							; size = 4
_y$ = 12						; size = 4
_width$ = 16						; size = 4
_height$ = 20						; size = 4
??0RectF@Gdiplus@@QAE@MMMM@Z PROC			; Gdiplus::RectF::RectF, COMDAT
; _this$ = ecx

; 356  :     RectF(IN REAL x,

	push	ebp
	mov	ebp, esp
	push	ecx
	mov	DWORD PTR _this$[ebp], ecx

; 357  :           IN REAL y,
; 358  :           IN REAL width,
; 359  :           IN REAL height)
; 360  :     {
; 361  :         X = x;

	mov	eax, DWORD PTR _this$[ebp]
	movss	xmm0, DWORD PTR _x$[ebp]
	movss	DWORD PTR [eax], xmm0

; 362  :         Y = y;

	mov	ecx, DWORD PTR _this$[ebp]
	movss	xmm0, DWORD PTR _y$[ebp]
	movss	DWORD PTR [ecx+4], xmm0

; 363  :         Width = width;

	mov	edx, DWORD PTR _this$[ebp]
	movss	xmm0, DWORD PTR _width$[ebp]
	movss	DWORD PTR [edx+8], xmm0

; 364  :         Height = height;

	mov	eax, DWORD PTR _this$[ebp]
	movss	xmm0, DWORD PTR _height$[ebp]
	movss	DWORD PTR [eax+12], xmm0

; 365  :     }

	mov	eax, DWORD PTR _this$[ebp]
	mov	esp, ebp
	pop	ebp
	ret	16					; 00000010H
??0RectF@Gdiplus@@QAE@MMMM@Z ENDP			; Gdiplus::RectF::RectF
_TEXT	ENDS
; Function compile flags: /Odtp
; File c:\program files (x86)\windows kits\8.1\include\um\gdiplustypes.h
;	COMDAT ?Offset@RectF@Gdiplus@@QAEXMM@Z
_TEXT	SEGMENT
_this$ = -4						; size = 4
_dx$ = 8						; size = 4
_dy$ = 12						; size = 4
?Offset@RectF@Gdiplus@@QAEXMM@Z PROC			; Gdiplus::RectF::Offset, COMDAT
; _this$ = ecx

; 518  :     {

	push	ebp
	mov	ebp, esp
	push	ecx
	mov	DWORD PTR _this$[ebp], ecx

; 519  :         X += dx;

	mov	eax, DWORD PTR _this$[ebp]
	movss	xmm0, DWORD PTR [eax]
	addss	xmm0, DWORD PTR _dx$[ebp]
	mov	ecx, DWORD PTR _this$[ebp]
	movss	DWORD PTR [ecx], xmm0

; 520  :         Y += dy;

	mov	edx, DWORD PTR _this$[ebp]
	movss	xmm0, DWORD PTR [edx+4]
	addss	xmm0, DWORD PTR _dy$[ebp]
	mov	eax, DWORD PTR _this$[ebp]
	movss	DWORD PTR [eax+4], xmm0

; 521  :     }

	mov	esp, ebp
	pop	ebp
	ret	8
?Offset@RectF@Gdiplus@@QAEXMM@Z ENDP			; Gdiplus::RectF::Offset
_TEXT	ENDS
; Function compile flags: /Odtp
; File c:\program files (x86)\windows kits\8.1\include\um\gdipluscolor.h
;	COMDAT ??0Color@Gdiplus@@QAE@K@Z
_TEXT	SEGMENT
_this$ = -4						; size = 4
_argb$ = 8						; size = 4
??0Color@Gdiplus@@QAE@K@Z PROC				; Gdiplus::Color::Color, COMDAT
; _this$ = ecx

; 79   :     Color(IN ARGB argb)

	push	ebp
	mov	ebp, esp
	push	ecx
	mov	DWORD PTR _this$[ebp], ecx

; 80   :     {
; 81   :         Argb = argb;

	mov	eax, DWORD PTR _this$[ebp]
	mov	ecx, DWORD PTR _argb$[ebp]
	mov	DWORD PTR [eax], ecx

; 82   :     }

	mov	eax, DWORD PTR _this$[ebp]
	mov	esp, ebp
	pop	ebp
	ret	4
??0Color@Gdiplus@@QAE@K@Z ENDP				; Gdiplus::Color::Color
_TEXT	ENDS
; Function compile flags: /Odtp
; File c:\program files (x86)\windows kits\8.1\include\um\gdipluscolor.h
;	COMDAT ?GetValue@Color@Gdiplus@@QBEKXZ
_TEXT	SEGMENT
_this$ = -4						; size = 4
?GetValue@Color@Gdiplus@@QBEKXZ PROC			; Gdiplus::Color::GetValue, COMDAT
; _this$ = ecx

; 125  :     {

	push	ebp
	mov	ebp, esp
	push	ecx
	mov	DWORD PTR _this$[ebp], ecx

; 126  :         return Argb;

	mov	eax, DWORD PTR _this$[ebp]
	mov	eax, DWORD PTR [eax]

; 127  :     }

	mov	esp, ebp
	pop	ebp
	ret	0
?GetValue@Color@Gdiplus@@QBEKXZ ENDP			; Gdiplus::Color::GetValue
_TEXT	ENDS
; Function compile flags: /Odtp
; File c:\program files (x86)\windows kits\8.1\include\um\gdiplusheaders.h
;	COMDAT ??0Image@Gdiplus@@IAE@XZ
_TEXT	SEGMENT
_this$ = -4						; size = 4
??0Image@Gdiplus@@IAE@XZ PROC				; Gdiplus::Image::Image, COMDAT
; _this$ = ecx

; 477  :     Image() {}

	push	ebp
	mov	ebp, esp
	push	ecx
	mov	DWORD PTR _this$[ebp], ecx
	mov	eax, DWORD PTR _this$[ebp]
	mov	DWORD PTR [eax], OFFSET ??_7Image@Gdiplus@@6B@
	mov	eax, DWORD PTR _this$[ebp]
	mov	esp, ebp
	pop	ebp
	ret	0
??0Image@Gdiplus@@IAE@XZ ENDP				; Gdiplus::Image::Image
_TEXT	ENDS
; Function compile flags: /Odtp
; File c:\program files (x86)\windows kits\8.1\include\um\gdiplusbrush.h
;	COMDAT ??1Brush@Gdiplus@@UAE@XZ
_TEXT	SEGMENT
_this$ = -4						; size = 4
??1Brush@Gdiplus@@UAE@XZ PROC				; Gdiplus::Brush::~Brush, COMDAT
; _this$ = ecx

; 36   :     {

	push	ebp
	mov	ebp, esp
	push	ecx
	mov	DWORD PTR _this$[ebp], ecx
	mov	eax, DWORD PTR _this$[ebp]
	mov	DWORD PTR [eax], OFFSET ??_7Brush@Gdiplus@@6B@

; 37   :         DllExports::GdipDeleteBrush(nativeBrush);

	mov	ecx, DWORD PTR _this$[ebp]
	mov	edx, DWORD PTR [ecx+4]
	push	edx
	call	DWORD PTR __imp__GdipDeleteBrush@4

; 38   :     }

	mov	esp, ebp
	pop	ebp
	ret	0
??1Brush@Gdiplus@@UAE@XZ ENDP				; Gdiplus::Brush::~Brush
_TEXT	ENDS
; Function compile flags: /Odtp
; File c:\program files (x86)\windows kits\8.1\include\um\gdiplusbrush.h
;	COMDAT ?Clone@Brush@Gdiplus@@UBEPAV12@XZ
_TEXT	SEGMENT
_newBrush$ = -20					; size = 4
tv78 = -16						; size = 4
$T1 = -12						; size = 4
_brush$ = -8						; size = 4
_this$ = -4						; size = 4
?Clone@Brush@Gdiplus@@UBEPAV12@XZ PROC			; Gdiplus::Brush::Clone, COMDAT
; _this$ = ecx

; 41   :     {

	push	ebp
	mov	ebp, esp
	sub	esp, 20					; 00000014H
	mov	DWORD PTR _this$[ebp], ecx

; 42   :         GpBrush *brush = NULL;

	mov	DWORD PTR _brush$[ebp], 0

; 43   : 
; 44   :         SetStatus(DllExports::GdipCloneBrush(nativeBrush, &brush));

	lea	eax, DWORD PTR _brush$[ebp]
	push	eax
	mov	ecx, DWORD PTR _this$[ebp]
	mov	edx, DWORD PTR [ecx+4]
	push	edx
	call	DWORD PTR __imp__GdipCloneBrush@8
	push	eax
	mov	ecx, DWORD PTR _this$[ebp]
	call	?SetStatus@Brush@Gdiplus@@IBE?AW4Status@2@W432@@Z ; Gdiplus::Brush::SetStatus

; 45   : 
; 46   :         Brush *newBrush = new Brush(brush, lastResult);

	push	12					; 0000000cH
	call	??2GdiplusBase@Gdiplus@@SAPAXI@Z	; Gdiplus::GdiplusBase::operator new
	add	esp, 4
	mov	DWORD PTR $T1[ebp], eax
	cmp	DWORD PTR $T1[ebp], 0
	je	SHORT $LN4@Clone
	mov	eax, DWORD PTR _this$[ebp]
	mov	ecx, DWORD PTR [eax+8]
	push	ecx
	mov	edx, DWORD PTR _brush$[ebp]
	push	edx
	mov	ecx, DWORD PTR $T1[ebp]
	call	??0Brush@Gdiplus@@IAE@PAVGpBrush@1@W4Status@1@@Z ; Gdiplus::Brush::Brush
	mov	DWORD PTR tv78[ebp], eax
	jmp	SHORT $LN5@Clone
$LN4@Clone:
	mov	DWORD PTR tv78[ebp], 0
$LN5@Clone:
	mov	eax, DWORD PTR tv78[ebp]
	mov	DWORD PTR _newBrush$[ebp], eax

; 47   :         
; 48   :         if (newBrush == NULL) 

	cmp	DWORD PTR _newBrush$[ebp], 0
	jne	SHORT $LN1@Clone

; 49   :         {
; 50   :             DllExports::GdipDeleteBrush(brush);

	mov	ecx, DWORD PTR _brush$[ebp]
	push	ecx
	call	DWORD PTR __imp__GdipDeleteBrush@4
$LN1@Clone:

; 51   :         }
; 52   : 
; 53   :         return newBrush;

	mov	eax, DWORD PTR _newBrush$[ebp]

; 54   :     }

	mov	esp, ebp
	pop	ebp
	ret	0
?Clone@Brush@Gdiplus@@UBEPAV12@XZ ENDP			; Gdiplus::Brush::Clone
_TEXT	ENDS
; Function compile flags: /Odtp
; File c:\program files (x86)\windows kits\8.1\include\um\gdiplusbrush.h
;	COMDAT ??0Brush@Gdiplus@@IAE@XZ
_TEXT	SEGMENT
_this$ = -4						; size = 4
??0Brush@Gdiplus@@IAE@XZ PROC				; Gdiplus::Brush::Brush, COMDAT
; _this$ = ecx

; 75   :     Brush()

	push	ebp
	mov	ebp, esp
	push	ecx
	mov	DWORD PTR _this$[ebp], ecx
	mov	eax, DWORD PTR _this$[ebp]
	mov	DWORD PTR [eax], OFFSET ??_7Brush@Gdiplus@@6B@

; 76   :     {
; 77   :         SetStatus(NotImplemented);

	push	6
	mov	ecx, DWORD PTR _this$[ebp]
	call	?SetStatus@Brush@Gdiplus@@IBE?AW4Status@2@W432@@Z ; Gdiplus::Brush::SetStatus

; 78   :     }

	mov	eax, DWORD PTR _this$[ebp]
	mov	esp, ebp
	pop	ebp
	ret	0
??0Brush@Gdiplus@@IAE@XZ ENDP				; Gdiplus::Brush::Brush
_TEXT	ENDS
; Function compile flags: /Odtp
; File c:\program files (x86)\windows kits\8.1\include\um\gdiplusbrush.h
;	COMDAT ??0Brush@Gdiplus@@IAE@PAVGpBrush@1@W4Status@1@@Z
_TEXT	SEGMENT
_this$ = -4						; size = 4
_nativeBrush$ = 8					; size = 4
_status$ = 12						; size = 4
??0Brush@Gdiplus@@IAE@PAVGpBrush@1@W4Status@1@@Z PROC	; Gdiplus::Brush::Brush, COMDAT
; _this$ = ecx

; 85   :     Brush(GpBrush* nativeBrush, Status status)

	push	ebp
	mov	ebp, esp
	push	ecx
	mov	DWORD PTR _this$[ebp], ecx
	mov	eax, DWORD PTR _this$[ebp]
	mov	DWORD PTR [eax], OFFSET ??_7Brush@Gdiplus@@6B@

; 86   :     {
; 87   :         lastResult = status;

	mov	ecx, DWORD PTR _this$[ebp]
	mov	edx, DWORD PTR _status$[ebp]
	mov	DWORD PTR [ecx+8], edx

; 88   :         SetNativeBrush(nativeBrush);

	mov	eax, DWORD PTR _nativeBrush$[ebp]
	push	eax
	mov	ecx, DWORD PTR _this$[ebp]
	call	?SetNativeBrush@Brush@Gdiplus@@IAEXPAVGpBrush@2@@Z ; Gdiplus::Brush::SetNativeBrush

; 89   :     }

	mov	eax, DWORD PTR _this$[ebp]
	mov	esp, ebp
	pop	ebp
	ret	8
??0Brush@Gdiplus@@IAE@PAVGpBrush@1@W4Status@1@@Z ENDP	; Gdiplus::Brush::Brush
_TEXT	ENDS
; Function compile flags: /Odtp
; File c:\program files (x86)\windows kits\8.1\include\um\gdiplusbrush.h
;	COMDAT ?SetNativeBrush@Brush@Gdiplus@@IAEXPAVGpBrush@2@@Z
_TEXT	SEGMENT
_this$ = -4						; size = 4
_nativeBrush$ = 8					; size = 4
?SetNativeBrush@Brush@Gdiplus@@IAEXPAVGpBrush@2@@Z PROC	; Gdiplus::Brush::SetNativeBrush, COMDAT
; _this$ = ecx

; 92   :     {

	push	ebp
	mov	ebp, esp
	push	ecx
	mov	DWORD PTR _this$[ebp], ecx

; 93   :         this->nativeBrush = nativeBrush;

	mov	eax, DWORD PTR _this$[ebp]
	mov	ecx, DWORD PTR _nativeBrush$[ebp]
	mov	DWORD PTR [eax+4], ecx

; 94   :     }

	mov	esp, ebp
	pop	ebp
	ret	4
?SetNativeBrush@Brush@Gdiplus@@IAEXPAVGpBrush@2@@Z ENDP	; Gdiplus::Brush::SetNativeBrush
_TEXT	ENDS
; Function compile flags: /Odtp
; File c:\program files (x86)\windows kits\8.1\include\um\gdiplusbrush.h
;	COMDAT ?SetStatus@Brush@Gdiplus@@IBE?AW4Status@2@W432@@Z
_TEXT	SEGMENT
_this$ = -4						; size = 4
_status$ = 8						; size = 4
?SetStatus@Brush@Gdiplus@@IBE?AW4Status@2@W432@@Z PROC	; Gdiplus::Brush::SetStatus, COMDAT
; _this$ = ecx

; 97   :     {

	push	ebp
	mov	ebp, esp
	push	ecx
	mov	DWORD PTR _this$[ebp], ecx

; 98   :         if (status != Ok)

	cmp	DWORD PTR _status$[ebp], 0
	je	SHORT $LN2@SetStatus

; 99   :             return (lastResult = status);

	mov	eax, DWORD PTR _this$[ebp]
	mov	ecx, DWORD PTR _status$[ebp]
	mov	DWORD PTR [eax+8], ecx
	mov	eax, DWORD PTR _status$[ebp]
	jmp	SHORT $LN3@SetStatus

; 100  :         else

	jmp	SHORT $LN3@SetStatus
$LN2@SetStatus:

; 101  :             return status;

	mov	eax, DWORD PTR _status$[ebp]
$LN3@SetStatus:

; 102  :     }

	mov	esp, ebp
	pop	ebp
	ret	4
?SetStatus@Brush@Gdiplus@@IBE?AW4Status@2@W432@@Z ENDP	; Gdiplus::Brush::SetStatus
_TEXT	ENDS
; Function compile flags: /Odtp
;	COMDAT ??_GBrush@Gdiplus@@UAEPAXI@Z
_TEXT	SEGMENT
_this$ = -4						; size = 4
___flags$ = 8						; size = 4
??_GBrush@Gdiplus@@UAEPAXI@Z PROC			; Gdiplus::Brush::`scalar deleting destructor', COMDAT
; _this$ = ecx
	push	ebp
	mov	ebp, esp
	push	ecx
	mov	DWORD PTR _this$[ebp], ecx
	mov	ecx, DWORD PTR _this$[ebp]
	call	??1Brush@Gdiplus@@UAE@XZ		; Gdiplus::Brush::~Brush
	mov	eax, DWORD PTR ___flags$[ebp]
	and	eax, 1
	je	SHORT $LN1@scalar
	mov	ecx, DWORD PTR _this$[ebp]
	push	ecx
	call	??3GdiplusBase@Gdiplus@@SAXPAX@Z	; Gdiplus::GdiplusBase::operator delete
	add	esp, 4
$LN1@scalar:
	mov	eax, DWORD PTR _this$[ebp]
	mov	esp, ebp
	pop	ebp
	ret	4
??_GBrush@Gdiplus@@UAEPAXI@Z ENDP			; Gdiplus::Brush::`scalar deleting destructor'
_TEXT	ENDS
; Function compile flags: /Odtp
; File c:\program files (x86)\windows kits\8.1\include\um\gdiplusbrush.h
;	COMDAT ??0SolidBrush@Gdiplus@@QAE@ABVColor@1@@Z
_TEXT	SEGMENT
_brush$ = -8						; size = 4
_this$ = -4						; size = 4
_color$ = 8						; size = 4
??0SolidBrush@Gdiplus@@QAE@ABVColor@1@@Z PROC		; Gdiplus::SolidBrush::SolidBrush, COMDAT
; _this$ = ecx

; 117  :     SolidBrush(IN const Color& color)

	push	ebp
	mov	ebp, esp
	sub	esp, 8
	mov	DWORD PTR _this$[ebp], ecx
	mov	ecx, DWORD PTR _this$[ebp]
	call	??0Brush@Gdiplus@@IAE@XZ		; Gdiplus::Brush::Brush
	mov	eax, DWORD PTR _this$[ebp]
	mov	DWORD PTR [eax], OFFSET ??_7SolidBrush@Gdiplus@@6B@

; 118  :     {
; 119  :         GpSolidFill *brush = NULL;

	mov	DWORD PTR _brush$[ebp], 0

; 120  : 
; 121  :         lastResult = DllExports::GdipCreateSolidFill(color.GetValue(), &brush);

	lea	ecx, DWORD PTR _brush$[ebp]
	push	ecx
	mov	ecx, DWORD PTR _color$[ebp]
	call	?GetValue@Color@Gdiplus@@QBEKXZ		; Gdiplus::Color::GetValue
	push	eax
	call	DWORD PTR __imp__GdipCreateSolidFill@8
	mov	edx, DWORD PTR _this$[ebp]
	mov	DWORD PTR [edx+8], eax

; 122  : 
; 123  :         SetNativeBrush(brush);

	mov	eax, DWORD PTR _brush$[ebp]
	push	eax
	mov	ecx, DWORD PTR _this$[ebp]
	call	?SetNativeBrush@Brush@Gdiplus@@IAEXPAVGpBrush@2@@Z ; Gdiplus::Brush::SetNativeBrush

; 124  :     }

	mov	eax, DWORD PTR _this$[ebp]
	mov	esp, ebp
	pop	ebp
	ret	4
??0SolidBrush@Gdiplus@@QAE@ABVColor@1@@Z ENDP		; Gdiplus::SolidBrush::SolidBrush
_TEXT	ENDS
; Function compile flags: /Odtp
;	COMDAT ??_GSolidBrush@Gdiplus@@UAEPAXI@Z
_TEXT	SEGMENT
_this$ = -4						; size = 4
___flags$ = 8						; size = 4
??_GSolidBrush@Gdiplus@@UAEPAXI@Z PROC			; Gdiplus::SolidBrush::`scalar deleting destructor', COMDAT
; _this$ = ecx
	push	ebp
	mov	ebp, esp
	push	ecx
	mov	DWORD PTR _this$[ebp], ecx
	mov	ecx, DWORD PTR _this$[ebp]
	call	??1SolidBrush@Gdiplus@@UAE@XZ
	mov	eax, DWORD PTR ___flags$[ebp]
	and	eax, 1
	je	SHORT $LN1@scalar
	mov	ecx, DWORD PTR _this$[ebp]
	push	ecx
	call	??3GdiplusBase@Gdiplus@@SAXPAX@Z	; Gdiplus::GdiplusBase::operator delete
	add	esp, 4
$LN1@scalar:
	mov	eax, DWORD PTR _this$[ebp]
	mov	esp, ebp
	pop	ebp
	ret	4
??_GSolidBrush@Gdiplus@@UAEPAXI@Z ENDP			; Gdiplus::SolidBrush::`scalar deleting destructor'
_TEXT	ENDS
; Function compile flags: /Odtp
;	COMDAT ??1SolidBrush@Gdiplus@@UAE@XZ
_TEXT	SEGMENT
_this$ = -4						; size = 4
??1SolidBrush@Gdiplus@@UAE@XZ PROC			; Gdiplus::SolidBrush::~SolidBrush, COMDAT
; _this$ = ecx
	push	ebp
	mov	ebp, esp
	push	ecx
	mov	DWORD PTR _this$[ebp], ecx
	mov	ecx, DWORD PTR _this$[ebp]
	call	??1Brush@Gdiplus@@UAE@XZ		; Gdiplus::Brush::~Brush
	mov	esp, ebp
	pop	ebp
	ret	0
??1SolidBrush@Gdiplus@@UAE@XZ ENDP			; Gdiplus::SolidBrush::~SolidBrush
_TEXT	ENDS
; Function compile flags: /Odtp
; File c:\program files (x86)\windows kits\8.1\include\um\gdipluspen.h
;	COMDAT ??0Pen@Gdiplus@@QAE@ABVColor@1@M@Z
_TEXT	SEGMENT
_unit$ = -8						; size = 4
_this$ = -4						; size = 4
_color$ = 8						; size = 4
_width$ = 12						; size = 4
??0Pen@Gdiplus@@QAE@ABVColor@1@M@Z PROC			; Gdiplus::Pen::Pen, COMDAT
; _this$ = ecx

; 32   :     Pen(IN const Color& color, 

	push	ebp
	mov	ebp, esp
	sub	esp, 8
	mov	DWORD PTR _this$[ebp], ecx

; 33   :         IN REAL width = 1.0f)
; 34   :     {
; 35   :         Unit unit = UnitWorld;

	mov	DWORD PTR _unit$[ebp], 0

; 36   :         nativePen = NULL;

	mov	eax, DWORD PTR _this$[ebp]
	mov	DWORD PTR [eax], 0

; 37   :         lastResult = DllExports::GdipCreatePen1(color.GetValue(),
; 38   :                                     width, unit, &nativePen);

	mov	ecx, DWORD PTR _this$[ebp]
	push	ecx
	mov	edx, DWORD PTR _unit$[ebp]
	push	edx
	push	ecx
	movss	xmm0, DWORD PTR _width$[ebp]
	movss	DWORD PTR [esp], xmm0
	mov	ecx, DWORD PTR _color$[ebp]
	call	?GetValue@Color@Gdiplus@@QBEKXZ		; Gdiplus::Color::GetValue
	push	eax
	call	DWORD PTR __imp__GdipCreatePen1@16
	mov	ecx, DWORD PTR _this$[ebp]
	mov	DWORD PTR [ecx+4], eax

; 39   :     }

	mov	eax, DWORD PTR _this$[ebp]
	mov	esp, ebp
	pop	ebp
	ret	8
??0Pen@Gdiplus@@QAE@ABVColor@1@M@Z ENDP			; Gdiplus::Pen::Pen
_TEXT	ENDS
; Function compile flags: /Odtp
; File c:\program files (x86)\windows kits\8.1\include\um\gdipluspen.h
;	COMDAT ??1Pen@Gdiplus@@QAE@XZ
_TEXT	SEGMENT
_this$ = -4						; size = 4
??1Pen@Gdiplus@@QAE@XZ PROC				; Gdiplus::Pen::~Pen, COMDAT
; _this$ = ecx

; 51   :     {

	push	ebp
	mov	ebp, esp
	push	ecx
	mov	DWORD PTR _this$[ebp], ecx

; 52   :         DllExports::GdipDeletePen(nativePen);

	mov	eax, DWORD PTR _this$[ebp]
	mov	ecx, DWORD PTR [eax]
	push	ecx
	call	DWORD PTR __imp__GdipDeletePen@4

; 53   :     }

	mov	esp, ebp
	pop	ebp
	ret	0
??1Pen@Gdiplus@@QAE@XZ ENDP				; Gdiplus::Pen::~Pen
_TEXT	ENDS
; Function compile flags: /Odtp
; File c:\program files (x86)\windows kits\8.1\include\um\gdipluspen.h
;	COMDAT ?SetLineJoin@Pen@Gdiplus@@QAE?AW4Status@2@W4LineJoin@2@@Z
_TEXT	SEGMENT
_this$ = -4						; size = 4
_lineJoin$ = 8						; size = 4
?SetLineJoin@Pen@Gdiplus@@QAE?AW4Status@2@W4LineJoin@2@@Z PROC ; Gdiplus::Pen::SetLineJoin, COMDAT
; _this$ = ecx

; 135  :     {

	push	ebp
	mov	ebp, esp
	push	ecx
	mov	DWORD PTR _this$[ebp], ecx

; 136  :         return SetStatus(DllExports::GdipSetPenLineJoin(nativePen, lineJoin));

	mov	eax, DWORD PTR _lineJoin$[ebp]
	push	eax
	mov	ecx, DWORD PTR _this$[ebp]
	mov	edx, DWORD PTR [ecx]
	push	edx
	call	DWORD PTR __imp__GdipSetPenLineJoin@8
	push	eax
	mov	ecx, DWORD PTR _this$[ebp]
	call	?SetStatus@Pen@Gdiplus@@IBE?AW4Status@2@W432@@Z ; Gdiplus::Pen::SetStatus

; 137  :     }

	mov	esp, ebp
	pop	ebp
	ret	4
?SetLineJoin@Pen@Gdiplus@@QAE?AW4Status@2@W4LineJoin@2@@Z ENDP ; Gdiplus::Pen::SetLineJoin
_TEXT	ENDS
; Function compile flags: /Odtp
; File c:\program files (x86)\windows kits\8.1\include\um\gdipluspen.h
;	COMDAT ?SetStatus@Pen@Gdiplus@@IBE?AW4Status@2@W432@@Z
_TEXT	SEGMENT
_this$ = -4						; size = 4
_status$ = 8						; size = 4
?SetStatus@Pen@Gdiplus@@IBE?AW4Status@2@W432@@Z PROC	; Gdiplus::Pen::SetStatus, COMDAT
; _this$ = ecx

; 468  :     {

	push	ebp
	mov	ebp, esp
	push	ecx
	mov	DWORD PTR _this$[ebp], ecx

; 469  :         if (status != Ok)

	cmp	DWORD PTR _status$[ebp], 0
	je	SHORT $LN2@SetStatus

; 470  :             return (lastResult = status);

	mov	eax, DWORD PTR _this$[ebp]
	mov	ecx, DWORD PTR _status$[ebp]
	mov	DWORD PTR [eax+4], ecx
	mov	eax, DWORD PTR _status$[ebp]
	jmp	SHORT $LN3@SetStatus

; 471  :         else 

	jmp	SHORT $LN3@SetStatus
$LN2@SetStatus:

; 472  :             return status;

	mov	eax, DWORD PTR _status$[ebp]
$LN3@SetStatus:

; 473  :     }

	mov	esp, ebp
	pop	ebp
	ret	4
?SetStatus@Pen@Gdiplus@@IBE?AW4Status@2@W432@@Z ENDP	; Gdiplus::Pen::SetStatus
_TEXT	ENDS
; Function compile flags: /Odtp
; File c:\program files (x86)\windows kits\8.1\include\um\gdiplusstringformat.h
;	COMDAT ??0StringFormat@Gdiplus@@QAE@PBV01@@Z
_TEXT	SEGMENT
tv71 = -8						; size = 4
_this$ = -4						; size = 4
_format$ = 8						; size = 4
??0StringFormat@Gdiplus@@QAE@PBV01@@Z PROC		; Gdiplus::StringFormat::StringFormat, COMDAT
; _this$ = ecx

; 46   :     StringFormat(

	push	ebp
	mov	ebp, esp
	sub	esp, 8
	mov	DWORD PTR _this$[ebp], ecx

; 47   :         IN const StringFormat *format
; 48   :     )
; 49   :     {
; 50   :         nativeFormat = NULL;

	mov	eax, DWORD PTR _this$[ebp]
	mov	DWORD PTR [eax], 0

; 51   :         lastError = DllExports::GdipCloneStringFormat(
; 52   :             format ? format->nativeFormat : NULL,
; 53   :             &nativeFormat
; 54   :         );

	cmp	DWORD PTR _format$[ebp], 0
	je	SHORT $LN3@StringForm
	mov	ecx, DWORD PTR _format$[ebp]
	mov	edx, DWORD PTR [ecx]
	mov	DWORD PTR tv71[ebp], edx
	jmp	SHORT $LN4@StringForm
$LN3@StringForm:
	mov	DWORD PTR tv71[ebp], 0
$LN4@StringForm:
	mov	eax, DWORD PTR _this$[ebp]
	push	eax
	mov	ecx, DWORD PTR tv71[ebp]
	push	ecx
	call	DWORD PTR __imp__GdipCloneStringFormat@8
	mov	edx, DWORD PTR _this$[ebp]
	mov	DWORD PTR [edx+4], eax

; 55   :     }

	mov	eax, DWORD PTR _this$[ebp]
	mov	esp, ebp
	pop	ebp
	ret	4
??0StringFormat@Gdiplus@@QAE@PBV01@@Z ENDP		; Gdiplus::StringFormat::StringFormat
_TEXT	ENDS
; Function compile flags: /Odtp
; File c:\program files (x86)\windows kits\8.1\include\um\gdiplusstringformat.h
;	COMDAT ??1StringFormat@Gdiplus@@QAE@XZ
_TEXT	SEGMENT
_this$ = -4						; size = 4
??1StringFormat@Gdiplus@@QAE@XZ PROC			; Gdiplus::StringFormat::~StringFormat, COMDAT
; _this$ = ecx

; 73   :     {

	push	ebp
	mov	ebp, esp
	push	ecx
	mov	DWORD PTR _this$[ebp], ecx

; 74   :         DllExports::GdipDeleteStringFormat(nativeFormat);

	mov	eax, DWORD PTR _this$[ebp]
	mov	ecx, DWORD PTR [eax]
	push	ecx
	call	DWORD PTR __imp__GdipDeleteStringFormat@4

; 75   :     }

	mov	esp, ebp
	pop	ebp
	ret	0
??1StringFormat@Gdiplus@@QAE@XZ ENDP			; Gdiplus::StringFormat::~StringFormat
_TEXT	ENDS
; Function compile flags: /Odtp
; File c:\program files (x86)\windows kits\8.1\include\um\gdiplusstringformat.h
;	COMDAT ?SetFormatFlags@StringFormat@Gdiplus@@QAE?AW4Status@2@H@Z
_TEXT	SEGMENT
_this$ = -4						; size = 4
_flags$ = 8						; size = 4
?SetFormatFlags@StringFormat@Gdiplus@@QAE?AW4Status@2@H@Z PROC ; Gdiplus::StringFormat::SetFormatFlags, COMDAT
; _this$ = ecx

; 78   :     {

	push	ebp
	mov	ebp, esp
	push	ecx
	mov	DWORD PTR _this$[ebp], ecx

; 79   :         return SetStatus(DllExports::GdipSetStringFormatFlags(
; 80   :             nativeFormat,
; 81   :             flags
; 82   :         ));

	mov	eax, DWORD PTR _flags$[ebp]
	push	eax
	mov	ecx, DWORD PTR _this$[ebp]
	mov	edx, DWORD PTR [ecx]
	push	edx
	call	DWORD PTR __imp__GdipSetStringFormatFlags@8
	push	eax
	mov	ecx, DWORD PTR _this$[ebp]
	call	?SetStatus@StringFormat@Gdiplus@@IBE?AW4Status@2@W432@@Z ; Gdiplus::StringFormat::SetStatus

; 83   :     }

	mov	esp, ebp
	pop	ebp
	ret	4
?SetFormatFlags@StringFormat@Gdiplus@@QAE?AW4Status@2@H@Z ENDP ; Gdiplus::StringFormat::SetFormatFlags
_TEXT	ENDS
; Function compile flags: /Odtp
; File c:\program files (x86)\windows kits\8.1\include\um\gdiplusstringformat.h
;	COMDAT ?SetAlignment@StringFormat@Gdiplus@@QAE?AW4Status@2@W4StringAlignment@2@@Z
_TEXT	SEGMENT
_this$ = -4						; size = 4
_align$ = 8						; size = 4
?SetAlignment@StringFormat@Gdiplus@@QAE?AW4Status@2@W4StringAlignment@2@@Z PROC ; Gdiplus::StringFormat::SetAlignment, COMDAT
; _this$ = ecx

; 93   :     {

	push	ebp
	mov	ebp, esp
	push	ecx
	mov	DWORD PTR _this$[ebp], ecx

; 94   :         return SetStatus(DllExports::GdipSetStringFormatAlign(
; 95   :             nativeFormat,
; 96   :             align
; 97   :         ));

	mov	eax, DWORD PTR _align$[ebp]
	push	eax
	mov	ecx, DWORD PTR _this$[ebp]
	mov	edx, DWORD PTR [ecx]
	push	edx
	call	DWORD PTR __imp__GdipSetStringFormatAlign@8
	push	eax
	mov	ecx, DWORD PTR _this$[ebp]
	call	?SetStatus@StringFormat@Gdiplus@@IBE?AW4Status@2@W432@@Z ; Gdiplus::StringFormat::SetStatus

; 98   :     }

	mov	esp, ebp
	pop	ebp
	ret	4
?SetAlignment@StringFormat@Gdiplus@@QAE?AW4Status@2@W4StringAlignment@2@@Z ENDP ; Gdiplus::StringFormat::SetAlignment
_TEXT	ENDS
; Function compile flags: /Odtp
; File c:\program files (x86)\windows kits\8.1\include\um\gdiplusstringformat.h
;	COMDAT ?SetLineAlignment@StringFormat@Gdiplus@@QAE?AW4Status@2@W4StringAlignment@2@@Z
_TEXT	SEGMENT
_this$ = -4						; size = 4
_align$ = 8						; size = 4
?SetLineAlignment@StringFormat@Gdiplus@@QAE?AW4Status@2@W4StringAlignment@2@@Z PROC ; Gdiplus::StringFormat::SetLineAlignment, COMDAT
; _this$ = ecx

; 111  :     {

	push	ebp
	mov	ebp, esp
	push	ecx
	mov	DWORD PTR _this$[ebp], ecx

; 112  :         return SetStatus(DllExports::GdipSetStringFormatLineAlign(
; 113  :             nativeFormat,
; 114  :             align
; 115  :         ));

	mov	eax, DWORD PTR _align$[ebp]
	push	eax
	mov	ecx, DWORD PTR _this$[ebp]
	mov	edx, DWORD PTR [ecx]
	push	edx
	call	DWORD PTR __imp__GdipSetStringFormatLineAlign@8
	push	eax
	mov	ecx, DWORD PTR _this$[ebp]
	call	?SetStatus@StringFormat@Gdiplus@@IBE?AW4Status@2@W432@@Z ; Gdiplus::StringFormat::SetStatus

; 116  :     }

	mov	esp, ebp
	pop	ebp
	ret	4
?SetLineAlignment@StringFormat@Gdiplus@@QAE?AW4Status@2@W4StringAlignment@2@@Z ENDP ; Gdiplus::StringFormat::SetLineAlignment
_TEXT	ENDS
; Function compile flags: /Odtp
; File c:\program files (x86)\windows kits\8.1\include\um\gdiplusstringformat.h
;	COMDAT ?SetTrimming@StringFormat@Gdiplus@@QAE?AW4Status@2@W4StringTrimming@2@@Z
_TEXT	SEGMENT
_this$ = -4						; size = 4
_trimming$ = 8						; size = 4
?SetTrimming@StringFormat@Gdiplus@@QAE?AW4Status@2@W4StringTrimming@2@@Z PROC ; Gdiplus::StringFormat::SetTrimming, COMDAT
; _this$ = ecx

; 218  :     {

	push	ebp
	mov	ebp, esp
	push	ecx
	mov	DWORD PTR _this$[ebp], ecx

; 219  :         return SetStatus(DllExports::GdipSetStringFormatTrimming(
; 220  :             nativeFormat,
; 221  :             trimming
; 222  :         ));

	mov	eax, DWORD PTR _trimming$[ebp]
	push	eax
	mov	ecx, DWORD PTR _this$[ebp]
	mov	edx, DWORD PTR [ecx]
	push	edx
	call	DWORD PTR __imp__GdipSetStringFormatTrimming@8
	push	eax
	mov	ecx, DWORD PTR _this$[ebp]
	call	?SetStatus@StringFormat@Gdiplus@@IBE?AW4Status@2@W432@@Z ; Gdiplus::StringFormat::SetStatus

; 223  :     }

	mov	esp, ebp
	pop	ebp
	ret	4
?SetTrimming@StringFormat@Gdiplus@@QAE?AW4Status@2@W4StringTrimming@2@@Z ENDP ; Gdiplus::StringFormat::SetTrimming
_TEXT	ENDS
; Function compile flags: /Odtp
; File c:\program files (x86)\windows kits\8.1\include\um\gdiplusstringformat.h
;	COMDAT ?SetStatus@StringFormat@Gdiplus@@IBE?AW4Status@2@W432@@Z
_TEXT	SEGMENT
_this$ = -4						; size = 4
_newStatus$ = 8						; size = 4
?SetStatus@StringFormat@Gdiplus@@IBE?AW4Status@2@W432@@Z PROC ; Gdiplus::StringFormat::SetStatus, COMDAT
; _this$ = ecx

; 268  :     {

	push	ebp
	mov	ebp, esp
	push	ecx
	mov	DWORD PTR _this$[ebp], ecx

; 269  :         if (newStatus == Ok)

	cmp	DWORD PTR _newStatus$[ebp], 0
	jne	SHORT $LN2@SetStatus

; 270  :         {
; 271  :             return Ok;

	xor	eax, eax
	jmp	SHORT $LN3@SetStatus

; 272  :         }
; 273  :         else

	jmp	SHORT $LN3@SetStatus
$LN2@SetStatus:

; 274  :         {
; 275  :             return lastError = newStatus;

	mov	eax, DWORD PTR _this$[ebp]
	mov	ecx, DWORD PTR _newStatus$[ebp]
	mov	DWORD PTR [eax+4], ecx
	mov	eax, DWORD PTR _newStatus$[ebp]
$LN3@SetStatus:

; 276  :         }
; 277  :     }

	mov	esp, ebp
	pop	ebp
	ret	4
?SetStatus@StringFormat@Gdiplus@@IBE?AW4Status@2@W432@@Z ENDP ; Gdiplus::StringFormat::SetStatus
_TEXT	ENDS
; Function compile flags: /Odtp
; File c:\program files (x86)\windows kits\8.1\include\um\gdiplusstringformat.h
;	COMDAT ?GenericTypographic@StringFormat@Gdiplus@@SAPBV12@XZ
_TEXT	SEGMENT
_genericTypographicStringFormat$ = -4			; size = 4
?GenericTypographic@StringFormat@Gdiplus@@SAPBV12@XZ PROC ; Gdiplus::StringFormat::GenericTypographic, COMDAT

; 326  : {

	push	ebp
	mov	ebp, esp
	push	ecx

; 327  :     StringFormat * genericTypographicStringFormat =
; 328  :         (StringFormat*)GenericTypographicStringFormatBuffer;

	mov	DWORD PTR _genericTypographicStringFormat$[ebp], OFFSET _GenericTypographicStringFormatBuffer

; 329  : 
; 330  :     genericTypographicStringFormat->lastError =
; 331  :         DllExports::GdipStringFormatGetGenericTypographic(
; 332  :             &genericTypographicStringFormat->nativeFormat
; 333  :         );

	mov	eax, DWORD PTR _genericTypographicStringFormat$[ebp]
	push	eax
	call	DWORD PTR __imp__GdipStringFormatGetGenericTypographic@4
	mov	ecx, DWORD PTR _genericTypographicStringFormat$[ebp]
	mov	DWORD PTR [ecx+4], eax

; 334  : 
; 335  :     return genericTypographicStringFormat;

	mov	eax, DWORD PTR _genericTypographicStringFormat$[ebp]

; 336  : }

	mov	esp, ebp
	pop	ebp
	ret	0
?GenericTypographic@StringFormat@Gdiplus@@SAPBV12@XZ ENDP ; Gdiplus::StringFormat::GenericTypographic
_TEXT	ENDS
; Function compile flags: /Odtp
; File c:\program files (x86)\windows kits\8.1\include\um\gdipluspath.h
;	COMDAT ??0GraphicsPath@Gdiplus@@QAE@W4FillMode@1@@Z
_TEXT	SEGMENT
_this$ = -4						; size = 4
_fillMode$ = 8						; size = 4
??0GraphicsPath@Gdiplus@@QAE@W4FillMode@1@@Z PROC	; Gdiplus::GraphicsPath::GraphicsPath, COMDAT
; _this$ = ecx

; 32   :     GraphicsPath(IN FillMode fillMode = FillModeAlternate)

	push	ebp
	mov	ebp, esp
	push	ecx
	mov	DWORD PTR _this$[ebp], ecx

; 33   :     {
; 34   :         nativePath = NULL;

	mov	eax, DWORD PTR _this$[ebp]
	mov	DWORD PTR [eax], 0

; 35   :         lastResult = DllExports::GdipCreatePath(fillMode, &nativePath);

	mov	ecx, DWORD PTR _this$[ebp]
	push	ecx
	mov	edx, DWORD PTR _fillMode$[ebp]
	push	edx
	call	DWORD PTR __imp__GdipCreatePath@8
	mov	ecx, DWORD PTR _this$[ebp]
	mov	DWORD PTR [ecx+4], eax

; 36   :     }

	mov	eax, DWORD PTR _this$[ebp]
	mov	esp, ebp
	pop	ebp
	ret	4
??0GraphicsPath@Gdiplus@@QAE@W4FillMode@1@@Z ENDP	; Gdiplus::GraphicsPath::GraphicsPath
_TEXT	ENDS
; Function compile flags: /Odtp
; File c:\program files (x86)\windows kits\8.1\include\um\gdipluspath.h
;	COMDAT ??1GraphicsPath@Gdiplus@@QAE@XZ
_TEXT	SEGMENT
_this$ = -4						; size = 4
??1GraphicsPath@Gdiplus@@QAE@XZ PROC			; Gdiplus::GraphicsPath::~GraphicsPath, COMDAT
; _this$ = ecx

; 65   :     {

	push	ebp
	mov	ebp, esp
	push	ecx
	mov	DWORD PTR _this$[ebp], ecx

; 66   :         DllExports::GdipDeletePath(nativePath);

	mov	eax, DWORD PTR _this$[ebp]
	mov	ecx, DWORD PTR [eax]
	push	ecx
	call	DWORD PTR __imp__GdipDeletePath@4

; 67   :     }

	mov	esp, ebp
	pop	ebp
	ret	0
??1GraphicsPath@Gdiplus@@QAE@XZ ENDP			; Gdiplus::GraphicsPath::~GraphicsPath
_TEXT	ENDS
; Function compile flags: /Odtp
; File c:\program files (x86)\windows kits\8.1\include\um\gdipluspath.h
;	COMDAT ?Clone@GraphicsPath@Gdiplus@@QBEPAV12@XZ
_TEXT	SEGMENT
tv76 = -16						; size = 4
$T1 = -12						; size = 4
_clonepath$ = -8					; size = 4
_this$ = -4						; size = 4
?Clone@GraphicsPath@Gdiplus@@QBEPAV12@XZ PROC		; Gdiplus::GraphicsPath::Clone, COMDAT
; _this$ = ecx

; 70   :     {

	push	ebp
	mov	ebp, esp
	sub	esp, 16					; 00000010H
	mov	DWORD PTR _this$[ebp], ecx

; 71   :         GpPath *clonepath = NULL;

	mov	DWORD PTR _clonepath$[ebp], 0

; 72   : 
; 73   :         SetStatus(DllExports::GdipClonePath(nativePath, &clonepath));

	lea	eax, DWORD PTR _clonepath$[ebp]
	push	eax
	mov	ecx, DWORD PTR _this$[ebp]
	mov	edx, DWORD PTR [ecx]
	push	edx
	call	DWORD PTR __imp__GdipClonePath@8
	push	eax
	mov	ecx, DWORD PTR _this$[ebp]
	call	?SetStatus@GraphicsPath@Gdiplus@@IBE?AW4Status@2@W432@@Z ; Gdiplus::GraphicsPath::SetStatus

; 74   : 
; 75   :         return new GraphicsPath(clonepath);

	push	8
	call	??2GdiplusBase@Gdiplus@@SAPAXI@Z	; Gdiplus::GdiplusBase::operator new
	add	esp, 4
	mov	DWORD PTR $T1[ebp], eax
	cmp	DWORD PTR $T1[ebp], 0
	je	SHORT $LN3@Clone
	mov	eax, DWORD PTR _clonepath$[ebp]
	push	eax
	mov	ecx, DWORD PTR $T1[ebp]
	call	??0GraphicsPath@Gdiplus@@IAE@PAVGpPath@1@@Z ; Gdiplus::GraphicsPath::GraphicsPath
	mov	DWORD PTR tv76[ebp], eax
	jmp	SHORT $LN4@Clone
$LN3@Clone:
	mov	DWORD PTR tv76[ebp], 0
$LN4@Clone:
	mov	eax, DWORD PTR tv76[ebp]

; 76   :     }

	mov	esp, ebp
	pop	ebp
	ret	0
?Clone@GraphicsPath@Gdiplus@@QBEPAV12@XZ ENDP		; Gdiplus::GraphicsPath::Clone
_TEXT	ENDS
; Function compile flags: /Odtp
; File c:\program files (x86)\windows kits\8.1\include\um\gdipluspath.h
;	COMDAT ?AddString@GraphicsPath@Gdiplus@@QAE?AW4Status@2@PB_WHPBVFontFamily@2@HMABVRectF@2@PBVStringFormat@2@@Z
_TEXT	SEGMENT
_this$ = -12						; size = 4
tv76 = -8						; size = 4
tv69 = -4						; size = 4
_string$ = 8						; size = 4
_length$ = 12						; size = 4
_family$ = 16						; size = 4
_style$ = 20						; size = 4
_emSize$ = 24						; size = 4
_layoutRect$ = 28					; size = 4
_format$ = 32						; size = 4
?AddString@GraphicsPath@Gdiplus@@QAE?AW4Status@2@PB_WHPBVFontFamily@2@HMABVRectF@2@PBVStringFormat@2@@Z PROC ; Gdiplus::GraphicsPath::AddString, COMDAT
; _this$ = ecx

; 623  :     {

	push	ebp
	mov	ebp, esp
	sub	esp, 12					; 0000000cH
	mov	DWORD PTR _this$[ebp], ecx

; 624  :         return SetStatus(DllExports::GdipAddPathString(
; 625  :             nativePath,
; 626  :             string,
; 627  :             length,
; 628  :             family ? family->nativeFamily : NULL,
; 629  :             style,
; 630  :             emSize,
; 631  :             &layoutRect,
; 632  :             format ? format->nativeFormat : NULL
; 633  :         ));

	cmp	DWORD PTR _format$[ebp], 0
	je	SHORT $LN3@AddString
	mov	eax, DWORD PTR _format$[ebp]
	mov	ecx, DWORD PTR [eax]
	mov	DWORD PTR tv69[ebp], ecx
	jmp	SHORT $LN4@AddString
$LN3@AddString:
	mov	DWORD PTR tv69[ebp], 0
$LN4@AddString:
	cmp	DWORD PTR _family$[ebp], 0
	je	SHORT $LN5@AddString
	mov	edx, DWORD PTR _family$[ebp]
	mov	eax, DWORD PTR [edx]
	mov	DWORD PTR tv76[ebp], eax
	jmp	SHORT $LN6@AddString
$LN5@AddString:
	mov	DWORD PTR tv76[ebp], 0
$LN6@AddString:
	mov	ecx, DWORD PTR tv69[ebp]
	push	ecx
	mov	edx, DWORD PTR _layoutRect$[ebp]
	push	edx
	push	ecx
	movss	xmm0, DWORD PTR _emSize$[ebp]
	movss	DWORD PTR [esp], xmm0
	mov	eax, DWORD PTR _style$[ebp]
	push	eax
	mov	ecx, DWORD PTR tv76[ebp]
	push	ecx
	mov	edx, DWORD PTR _length$[ebp]
	push	edx
	mov	eax, DWORD PTR _string$[ebp]
	push	eax
	mov	ecx, DWORD PTR _this$[ebp]
	mov	edx, DWORD PTR [ecx]
	push	edx
	call	DWORD PTR __imp__GdipAddPathString@32
	push	eax
	mov	ecx, DWORD PTR _this$[ebp]
	call	?SetStatus@GraphicsPath@Gdiplus@@IBE?AW4Status@2@W432@@Z ; Gdiplus::GraphicsPath::SetStatus

; 634  :     }

	mov	esp, ebp
	pop	ebp
	ret	28					; 0000001cH
?AddString@GraphicsPath@Gdiplus@@QAE?AW4Status@2@PB_WHPBVFontFamily@2@HMABVRectF@2@PBVStringFormat@2@@Z ENDP ; Gdiplus::GraphicsPath::AddString
_TEXT	ENDS
; Function compile flags: /Odtp
; File c:\program files (x86)\windows kits\8.1\include\um\gdipluspath.h
;	COMDAT ??0GraphicsPath@Gdiplus@@IAE@PAVGpPath@1@@Z
_TEXT	SEGMENT
_this$ = -4						; size = 4
_nativePath$ = 8					; size = 4
??0GraphicsPath@Gdiplus@@IAE@PAVGpPath@1@@Z PROC	; Gdiplus::GraphicsPath::GraphicsPath, COMDAT
; _this$ = ecx

; 878  :     GraphicsPath(GpPath* nativePath)

	push	ebp
	mov	ebp, esp
	push	ecx
	mov	DWORD PTR _this$[ebp], ecx

; 879  :     {
; 880  :         lastResult = Ok;

	mov	eax, DWORD PTR _this$[ebp]
	mov	DWORD PTR [eax+4], 0

; 881  :         SetNativePath(nativePath);

	mov	ecx, DWORD PTR _nativePath$[ebp]
	push	ecx
	mov	ecx, DWORD PTR _this$[ebp]
	call	?SetNativePath@GraphicsPath@Gdiplus@@IAEXPAVGpPath@2@@Z ; Gdiplus::GraphicsPath::SetNativePath

; 882  :     }

	mov	eax, DWORD PTR _this$[ebp]
	mov	esp, ebp
	pop	ebp
	ret	4
??0GraphicsPath@Gdiplus@@IAE@PAVGpPath@1@@Z ENDP	; Gdiplus::GraphicsPath::GraphicsPath
_TEXT	ENDS
; Function compile flags: /Odtp
; File c:\program files (x86)\windows kits\8.1\include\um\gdipluspath.h
;	COMDAT ?SetNativePath@GraphicsPath@Gdiplus@@IAEXPAVGpPath@2@@Z
_TEXT	SEGMENT
_this$ = -4						; size = 4
_nativePath$ = 8					; size = 4
?SetNativePath@GraphicsPath@Gdiplus@@IAEXPAVGpPath@2@@Z PROC ; Gdiplus::GraphicsPath::SetNativePath, COMDAT
; _this$ = ecx

; 885  :     {

	push	ebp
	mov	ebp, esp
	push	ecx
	mov	DWORD PTR _this$[ebp], ecx

; 886  :         this->nativePath = nativePath;

	mov	eax, DWORD PTR _this$[ebp]
	mov	ecx, DWORD PTR _nativePath$[ebp]
	mov	DWORD PTR [eax], ecx

; 887  :     }

	mov	esp, ebp
	pop	ebp
	ret	4
?SetNativePath@GraphicsPath@Gdiplus@@IAEXPAVGpPath@2@@Z ENDP ; Gdiplus::GraphicsPath::SetNativePath
_TEXT	ENDS
; Function compile flags: /Odtp
; File c:\program files (x86)\windows kits\8.1\include\um\gdipluspath.h
;	COMDAT ?SetStatus@GraphicsPath@Gdiplus@@IBE?AW4Status@2@W432@@Z
_TEXT	SEGMENT
_this$ = -4						; size = 4
_status$ = 8						; size = 4
?SetStatus@GraphicsPath@Gdiplus@@IBE?AW4Status@2@W432@@Z PROC ; Gdiplus::GraphicsPath::SetStatus, COMDAT
; _this$ = ecx

; 890  :     {

	push	ebp
	mov	ebp, esp
	push	ecx
	mov	DWORD PTR _this$[ebp], ecx

; 891  :         if (status != Ok)

	cmp	DWORD PTR _status$[ebp], 0
	je	SHORT $LN2@SetStatus

; 892  :             return (lastResult = status);

	mov	eax, DWORD PTR _this$[ebp]
	mov	ecx, DWORD PTR _status$[ebp]
	mov	DWORD PTR [eax+4], ecx
	mov	eax, DWORD PTR _status$[ebp]
	jmp	SHORT $LN3@SetStatus

; 893  :         else

	jmp	SHORT $LN3@SetStatus
$LN2@SetStatus:

; 894  :             return status;

	mov	eax, DWORD PTR _status$[ebp]
$LN3@SetStatus:

; 895  :     }

	mov	esp, ebp
	pop	ebp
	ret	4
?SetStatus@GraphicsPath@Gdiplus@@IBE?AW4Status@2@W432@@Z ENDP ; Gdiplus::GraphicsPath::SetStatus
_TEXT	ENDS
; Function compile flags: /Odtp
; File c:\program files (x86)\windows kits\8.1\include\um\gdiplusgraphics.h
;	COMDAT ??0Graphics@Gdiplus@@QAE@PAVImage@1@@Z
_TEXT	SEGMENT
_graphics$ = -8						; size = 4
_this$ = -4						; size = 4
_image$ = 8						; size = 4
??0Graphics@Gdiplus@@QAE@PAVImage@1@@Z PROC		; Gdiplus::Graphics::Graphics, COMDAT
; _this$ = ecx

; 94   :     Graphics(IN Image* image)

	push	ebp
	mov	ebp, esp
	sub	esp, 8
	mov	DWORD PTR _this$[ebp], ecx

; 95   :     {
; 96   :         GpGraphics *graphics = NULL;

	mov	DWORD PTR _graphics$[ebp], 0

; 97   : 
; 98   :         if (image != NULL)

	cmp	DWORD PTR _image$[ebp], 0
	je	SHORT $LN1@Graphics

; 99   :         {
; 100  :             lastResult = DllExports::GdipGetImageGraphicsContext(
; 101  :                                                                 image->nativeImage, &graphics);

	lea	eax, DWORD PTR _graphics$[ebp]
	push	eax
	mov	ecx, DWORD PTR _image$[ebp]
	mov	edx, DWORD PTR [ecx+4]
	push	edx
	call	DWORD PTR __imp__GdipGetImageGraphicsContext@8
	mov	ecx, DWORD PTR _this$[ebp]
	mov	DWORD PTR [ecx+4], eax
$LN1@Graphics:

; 102  :         }
; 103  :         SetNativeGraphics(graphics);

	mov	edx, DWORD PTR _graphics$[ebp]
	push	edx
	mov	ecx, DWORD PTR _this$[ebp]
	call	?SetNativeGraphics@Graphics@Gdiplus@@IAEXPAVGpGraphics@2@@Z ; Gdiplus::Graphics::SetNativeGraphics

; 104  :     }

	mov	eax, DWORD PTR _this$[ebp]
	mov	esp, ebp
	pop	ebp
	ret	4
??0Graphics@Gdiplus@@QAE@PAVImage@1@@Z ENDP		; Gdiplus::Graphics::Graphics
_TEXT	ENDS
; Function compile flags: /Odtp
; File c:\program files (x86)\windows kits\8.1\include\um\gdiplusgraphics.h
;	COMDAT ?SetCompositingMode@Graphics@Gdiplus@@QAE?AW4Status@2@W4CompositingMode@2@@Z
_TEXT	SEGMENT
_this$ = -4						; size = 4
_compositingMode$ = 8					; size = 4
?SetCompositingMode@Graphics@Gdiplus@@QAE?AW4Status@2@W4CompositingMode@2@@Z PROC ; Gdiplus::Graphics::SetCompositingMode, COMDAT
; _this$ = ecx

; 159  :     {

	push	ebp
	mov	ebp, esp
	push	ecx
	mov	DWORD PTR _this$[ebp], ecx

; 160  :         return SetStatus(DllExports::GdipSetCompositingMode(nativeGraphics,
; 161  :                                                             compositingMode));

	mov	eax, DWORD PTR _compositingMode$[ebp]
	push	eax
	mov	ecx, DWORD PTR _this$[ebp]
	mov	edx, DWORD PTR [ecx]
	push	edx
	call	DWORD PTR __imp__GdipSetCompositingMode@8
	push	eax
	mov	ecx, DWORD PTR _this$[ebp]
	call	?SetStatus@Graphics@Gdiplus@@IBE?AW4Status@2@W432@@Z ; Gdiplus::Graphics::SetStatus

; 162  :     }

	mov	esp, ebp
	pop	ebp
	ret	4
?SetCompositingMode@Graphics@Gdiplus@@QAE?AW4Status@2@W4CompositingMode@2@@Z ENDP ; Gdiplus::Graphics::SetCompositingMode
_TEXT	ENDS
; Function compile flags: /Odtp
; File c:\program files (x86)\windows kits\8.1\include\um\gdiplusgraphics.h
;	COMDAT ?SetTextRenderingHint@Graphics@Gdiplus@@QAE?AW4Status@2@W4TextRenderingHint@2@@Z
_TEXT	SEGMENT
_this$ = -4						; size = 4
_newMode$ = 8						; size = 4
?SetTextRenderingHint@Graphics@Gdiplus@@QAE?AW4Status@2@W4TextRenderingHint@2@@Z PROC ; Gdiplus::Graphics::SetTextRenderingHint, COMDAT
; _this$ = ecx

; 193  :     {

	push	ebp
	mov	ebp, esp
	push	ecx
	mov	DWORD PTR _this$[ebp], ecx

; 194  :         return SetStatus(DllExports::GdipSetTextRenderingHint(nativeGraphics,
; 195  :                                                           newMode));

	mov	eax, DWORD PTR _newMode$[ebp]
	push	eax
	mov	ecx, DWORD PTR _this$[ebp]
	mov	edx, DWORD PTR [ecx]
	push	edx
	call	DWORD PTR __imp__GdipSetTextRenderingHint@8
	push	eax
	mov	ecx, DWORD PTR _this$[ebp]
	call	?SetStatus@Graphics@Gdiplus@@IBE?AW4Status@2@W432@@Z ; Gdiplus::Graphics::SetStatus

; 196  :     }

	mov	esp, ebp
	pop	ebp
	ret	4
?SetTextRenderingHint@Graphics@Gdiplus@@QAE?AW4Status@2@W4TextRenderingHint@2@@Z ENDP ; Gdiplus::Graphics::SetTextRenderingHint
_TEXT	ENDS
; Function compile flags: /Odtp
; File c:\program files (x86)\windows kits\8.1\include\um\gdiplusgraphics.h
;	COMDAT ?DrawPath@Graphics@Gdiplus@@QAE?AW4Status@2@PBVPen@2@PBVGraphicsPath@2@@Z
_TEXT	SEGMENT
_this$ = -12						; size = 4
tv73 = -8						; size = 4
tv69 = -4						; size = 4
_pen$ = 8						; size = 4
_path$ = 12						; size = 4
?DrawPath@Graphics@Gdiplus@@QAE?AW4Status@2@PBVPen@2@PBVGraphicsPath@2@@Z PROC ; Gdiplus::Graphics::DrawPath, COMDAT
; _this$ = ecx

; 829  :     {

	push	ebp
	mov	ebp, esp
	sub	esp, 12					; 0000000cH
	mov	DWORD PTR _this$[ebp], ecx

; 830  :         return SetStatus(DllExports::GdipDrawPath(nativeGraphics,
; 831  :                                                   pen ? pen->nativePen : NULL,
; 832  :                                                   path ? path->nativePath : NULL));

	cmp	DWORD PTR _path$[ebp], 0
	je	SHORT $LN3@DrawPath
	mov	eax, DWORD PTR _path$[ebp]
	mov	ecx, DWORD PTR [eax]
	mov	DWORD PTR tv69[ebp], ecx
	jmp	SHORT $LN4@DrawPath
$LN3@DrawPath:
	mov	DWORD PTR tv69[ebp], 0
$LN4@DrawPath:
	cmp	DWORD PTR _pen$[ebp], 0
	je	SHORT $LN5@DrawPath
	mov	edx, DWORD PTR _pen$[ebp]
	mov	eax, DWORD PTR [edx]
	mov	DWORD PTR tv73[ebp], eax
	jmp	SHORT $LN6@DrawPath
$LN5@DrawPath:
	mov	DWORD PTR tv73[ebp], 0
$LN6@DrawPath:
	mov	ecx, DWORD PTR tv69[ebp]
	push	ecx
	mov	edx, DWORD PTR tv73[ebp]
	push	edx
	mov	eax, DWORD PTR _this$[ebp]
	mov	ecx, DWORD PTR [eax]
	push	ecx
	call	DWORD PTR __imp__GdipDrawPath@12
	push	eax
	mov	ecx, DWORD PTR _this$[ebp]
	call	?SetStatus@Graphics@Gdiplus@@IBE?AW4Status@2@W432@@Z ; Gdiplus::Graphics::SetStatus

; 833  :     }

	mov	esp, ebp
	pop	ebp
	ret	8
?DrawPath@Graphics@Gdiplus@@QAE?AW4Status@2@PBVPen@2@PBVGraphicsPath@2@@Z ENDP ; Gdiplus::Graphics::DrawPath
_TEXT	ENDS
; Function compile flags: /Odtp
; File c:\program files (x86)\windows kits\8.1\include\um\gdiplusgraphics.h
;	COMDAT ?Clear@Graphics@Gdiplus@@QAE?AW4Status@2@ABVColor@2@@Z
_TEXT	SEGMENT
_this$ = -4						; size = 4
_color$ = 8						; size = 4
?Clear@Graphics@Gdiplus@@QAE?AW4Status@2@ABVColor@2@@Z PROC ; Gdiplus::Graphics::Clear, COMDAT
; _this$ = ecx

; 948  :     {

	push	ebp
	mov	ebp, esp
	push	ecx
	mov	DWORD PTR _this$[ebp], ecx

; 949  :         return SetStatus(DllExports::GdipGraphicsClear(
; 950  :             nativeGraphics,
; 951  :             color.GetValue()));

	mov	ecx, DWORD PTR _color$[ebp]
	call	?GetValue@Color@Gdiplus@@QBEKXZ		; Gdiplus::Color::GetValue
	push	eax
	mov	eax, DWORD PTR _this$[ebp]
	mov	ecx, DWORD PTR [eax]
	push	ecx
	call	DWORD PTR __imp__GdipGraphicsClear@8
	push	eax
	mov	ecx, DWORD PTR _this$[ebp]
	call	?SetStatus@Graphics@Gdiplus@@IBE?AW4Status@2@W432@@Z ; Gdiplus::Graphics::SetStatus

; 952  :     }

	mov	esp, ebp
	pop	ebp
	ret	4
?Clear@Graphics@Gdiplus@@QAE?AW4Status@2@ABVColor@2@@Z ENDP ; Gdiplus::Graphics::Clear
_TEXT	ENDS
; Function compile flags: /Odtp
; File c:\program files (x86)\windows kits\8.1\include\um\gdiplusgraphics.h
;	COMDAT ?FillRectangle@Graphics@Gdiplus@@QAE?AW4Status@2@PBVBrush@2@ABVRectF@2@@Z
_TEXT	SEGMENT
_this$ = -4						; size = 4
_brush$ = 8						; size = 4
_rect$ = 12						; size = 4
?FillRectangle@Graphics@Gdiplus@@QAE?AW4Status@2@PBVBrush@2@ABVRectF@2@@Z PROC ; Gdiplus::Graphics::FillRectangle, COMDAT
; _this$ = ecx

; 956  :     {

	push	ebp
	mov	ebp, esp
	push	ecx
	mov	DWORD PTR _this$[ebp], ecx

; 957  :         return FillRectangle(brush, rect.X, rect.Y, rect.Width, rect.Height);

	mov	eax, DWORD PTR _rect$[ebp]
	push	ecx
	movss	xmm0, DWORD PTR [eax+12]
	movss	DWORD PTR [esp], xmm0
	mov	ecx, DWORD PTR _rect$[ebp]
	push	ecx
	movss	xmm0, DWORD PTR [ecx+8]
	movss	DWORD PTR [esp], xmm0
	mov	edx, DWORD PTR _rect$[ebp]
	push	ecx
	movss	xmm0, DWORD PTR [edx+4]
	movss	DWORD PTR [esp], xmm0
	mov	eax, DWORD PTR _rect$[ebp]
	push	ecx
	movss	xmm0, DWORD PTR [eax]
	movss	DWORD PTR [esp], xmm0
	mov	ecx, DWORD PTR _brush$[ebp]
	push	ecx
	mov	ecx, DWORD PTR _this$[ebp]
	call	?FillRectangle@Graphics@Gdiplus@@QAE?AW4Status@2@PBVBrush@2@MMMM@Z ; Gdiplus::Graphics::FillRectangle

; 958  :     }

	mov	esp, ebp
	pop	ebp
	ret	8
?FillRectangle@Graphics@Gdiplus@@QAE?AW4Status@2@PBVBrush@2@ABVRectF@2@@Z ENDP ; Gdiplus::Graphics::FillRectangle
_TEXT	ENDS
; Function compile flags: /Odtp
; File c:\program files (x86)\windows kits\8.1\include\um\gdiplusgraphics.h
;	COMDAT ?FillRectangle@Graphics@Gdiplus@@QAE?AW4Status@2@PBVBrush@2@MMMM@Z
_TEXT	SEGMENT
_this$ = -4						; size = 4
_brush$ = 8						; size = 4
_x$ = 12						; size = 4
_y$ = 16						; size = 4
_width$ = 20						; size = 4
_height$ = 24						; size = 4
?FillRectangle@Graphics@Gdiplus@@QAE?AW4Status@2@PBVBrush@2@MMMM@Z PROC ; Gdiplus::Graphics::FillRectangle, COMDAT
; _this$ = ecx

; 965  :     {

	push	ebp
	mov	ebp, esp
	push	ecx
	mov	DWORD PTR _this$[ebp], ecx

; 966  :         return SetStatus(DllExports::GdipFillRectangle(nativeGraphics,
; 967  :                                                        brush->nativeBrush, x, y,
; 968  :                                                        width, height));

	push	ecx
	movss	xmm0, DWORD PTR _height$[ebp]
	movss	DWORD PTR [esp], xmm0
	push	ecx
	movss	xmm0, DWORD PTR _width$[ebp]
	movss	DWORD PTR [esp], xmm0
	push	ecx
	movss	xmm0, DWORD PTR _y$[ebp]
	movss	DWORD PTR [esp], xmm0
	push	ecx
	movss	xmm0, DWORD PTR _x$[ebp]
	movss	DWORD PTR [esp], xmm0
	mov	eax, DWORD PTR _brush$[ebp]
	mov	ecx, DWORD PTR [eax+4]
	push	ecx
	mov	edx, DWORD PTR _this$[ebp]
	mov	eax, DWORD PTR [edx]
	push	eax
	call	DWORD PTR __imp__GdipFillRectangle@24
	push	eax
	mov	ecx, DWORD PTR _this$[ebp]
	call	?SetStatus@Graphics@Gdiplus@@IBE?AW4Status@2@W432@@Z ; Gdiplus::Graphics::SetStatus

; 969  :     }

	mov	esp, ebp
	pop	ebp
	ret	20					; 00000014H
?FillRectangle@Graphics@Gdiplus@@QAE?AW4Status@2@PBVBrush@2@MMMM@Z ENDP ; Gdiplus::Graphics::FillRectangle
_TEXT	ENDS
; Function compile flags: /Odtp
; File c:\program files (x86)\windows kits\8.1\include\um\gdiplusgraphics.h
;	COMDAT ?FillPath@Graphics@Gdiplus@@QAE?AW4Status@2@PBVBrush@2@PBVGraphicsPath@2@@Z
_TEXT	SEGMENT
_this$ = -4						; size = 4
_brush$ = 8						; size = 4
_path$ = 12						; size = 4
?FillPath@Graphics@Gdiplus@@QAE?AW4Status@2@PBVBrush@2@PBVGraphicsPath@2@@Z PROC ; Gdiplus::Graphics::FillPath, COMDAT
; _this$ = ecx

; 1138 :     {

	push	ebp
	mov	ebp, esp
	push	ecx
	mov	DWORD PTR _this$[ebp], ecx

; 1139 :         return SetStatus(DllExports::GdipFillPath(nativeGraphics,
; 1140 :                                                   brush->nativeBrush,
; 1141 :                                                   path->nativePath));

	mov	eax, DWORD PTR _path$[ebp]
	mov	ecx, DWORD PTR [eax]
	push	ecx
	mov	edx, DWORD PTR _brush$[ebp]
	mov	eax, DWORD PTR [edx+4]
	push	eax
	mov	ecx, DWORD PTR _this$[ebp]
	mov	edx, DWORD PTR [ecx]
	push	edx
	call	DWORD PTR __imp__GdipFillPath@12
	push	eax
	mov	ecx, DWORD PTR _this$[ebp]
	call	?SetStatus@Graphics@Gdiplus@@IBE?AW4Status@2@W432@@Z ; Gdiplus::Graphics::SetStatus

; 1142 :     }

	mov	esp, ebp
	pop	ebp
	ret	8
?FillPath@Graphics@Gdiplus@@QAE?AW4Status@2@PBVBrush@2@PBVGraphicsPath@2@@Z ENDP ; Gdiplus::Graphics::FillPath
_TEXT	ENDS
; Function compile flags: /Odtp
; File c:\program files (x86)\windows kits\8.1\include\um\gdiplusgraphics.h
;	COMDAT ?DrawString@Graphics@Gdiplus@@QAE?AW4Status@2@PB_WHPBVFont@2@ABVRectF@2@PBVStringFormat@2@PBVBrush@2@@Z
_TEXT	SEGMENT
_this$ = -16						; size = 4
tv78 = -12						; size = 4
tv73 = -8						; size = 4
tv69 = -4						; size = 4
_string$ = 8						; size = 4
_length$ = 12						; size = 4
_font$ = 16						; size = 4
_layoutRect$ = 20					; size = 4
_stringFormat$ = 24					; size = 4
_brush$ = 28						; size = 4
?DrawString@Graphics@Gdiplus@@QAE?AW4Status@2@PB_WHPBVFont@2@ABVRectF@2@PBVStringFormat@2@PBVBrush@2@@Z PROC ; Gdiplus::Graphics::DrawString, COMDAT
; _this$ = ecx

; 1205 :     {

	push	ebp
	mov	ebp, esp
	sub	esp, 16					; 00000010H
	mov	DWORD PTR _this$[ebp], ecx

; 1206 :         return SetStatus(DllExports::GdipDrawString(
; 1207 :             nativeGraphics,
; 1208 :             string,
; 1209 :             length,
; 1210 :             font ? font->nativeFont : NULL,
; 1211 :             &layoutRect,
; 1212 :             stringFormat ? stringFormat->nativeFormat : NULL,
; 1213 :             brush ? brush->nativeBrush : NULL
; 1214 :         ));

	cmp	DWORD PTR _brush$[ebp], 0
	je	SHORT $LN3@DrawString
	mov	eax, DWORD PTR _brush$[ebp]
	mov	ecx, DWORD PTR [eax+4]
	mov	DWORD PTR tv69[ebp], ecx
	jmp	SHORT $LN4@DrawString
$LN3@DrawString:
	mov	DWORD PTR tv69[ebp], 0
$LN4@DrawString:
	cmp	DWORD PTR _stringFormat$[ebp], 0
	je	SHORT $LN5@DrawString
	mov	edx, DWORD PTR _stringFormat$[ebp]
	mov	eax, DWORD PTR [edx]
	mov	DWORD PTR tv73[ebp], eax
	jmp	SHORT $LN6@DrawString
$LN5@DrawString:
	mov	DWORD PTR tv73[ebp], 0
$LN6@DrawString:
	cmp	DWORD PTR _font$[ebp], 0
	je	SHORT $LN7@DrawString
	mov	ecx, DWORD PTR _font$[ebp]
	mov	edx, DWORD PTR [ecx]
	mov	DWORD PTR tv78[ebp], edx
	jmp	SHORT $LN8@DrawString
$LN7@DrawString:
	mov	DWORD PTR tv78[ebp], 0
$LN8@DrawString:
	mov	eax, DWORD PTR tv69[ebp]
	push	eax
	mov	ecx, DWORD PTR tv73[ebp]
	push	ecx
	mov	edx, DWORD PTR _layoutRect$[ebp]
	push	edx
	mov	eax, DWORD PTR tv78[ebp]
	push	eax
	mov	ecx, DWORD PTR _length$[ebp]
	push	ecx
	mov	edx, DWORD PTR _string$[ebp]
	push	edx
	mov	eax, DWORD PTR _this$[ebp]
	mov	ecx, DWORD PTR [eax]
	push	ecx
	call	DWORD PTR __imp__GdipDrawString@28
	push	eax
	mov	ecx, DWORD PTR _this$[ebp]
	call	?SetStatus@Graphics@Gdiplus@@IBE?AW4Status@2@W432@@Z ; Gdiplus::Graphics::SetStatus

; 1215 :     }

	mov	esp, ebp
	pop	ebp
	ret	24					; 00000018H
?DrawString@Graphics@Gdiplus@@QAE?AW4Status@2@PB_WHPBVFont@2@ABVRectF@2@PBVStringFormat@2@PBVBrush@2@@Z ENDP ; Gdiplus::Graphics::DrawString
_TEXT	ENDS
; Function compile flags: /Odtp
; File c:\program files (x86)\windows kits\8.1\include\um\gdiplusgraphics.h
;	COMDAT ?MeasureString@Graphics@Gdiplus@@QBE?AW4Status@2@PB_WHPBVFont@2@ABVRectF@2@PBVStringFormat@2@PAV52@PAH5@Z
_TEXT	SEGMENT
_this$ = -12						; size = 4
tv77 = -8						; size = 4
tv72 = -4						; size = 4
_string$ = 8						; size = 4
_length$ = 12						; size = 4
_font$ = 16						; size = 4
_layoutRect$ = 20					; size = 4
_stringFormat$ = 24					; size = 4
_boundingBox$ = 28					; size = 4
_codepointsFitted$ = 32					; size = 4
_linesFilled$ = 36					; size = 4
?MeasureString@Graphics@Gdiplus@@QBE?AW4Status@2@PB_WHPBVFont@2@ABVRectF@2@PBVStringFormat@2@PAV52@PAH5@Z PROC ; Gdiplus::Graphics::MeasureString, COMDAT
; _this$ = ecx

; 1273 :     {

	push	ebp
	mov	ebp, esp
	sub	esp, 12					; 0000000cH
	mov	DWORD PTR _this$[ebp], ecx

; 1274 :         return SetStatus(DllExports::GdipMeasureString(
; 1275 :             nativeGraphics,
; 1276 :             string,
; 1277 :             length,
; 1278 :             font ? font->nativeFont : NULL,
; 1279 :             &layoutRect,
; 1280 :             stringFormat ? stringFormat->nativeFormat : NULL,
; 1281 :             boundingBox,
; 1282 :             codepointsFitted,
; 1283 :             linesFilled
; 1284 :         ));

	cmp	DWORD PTR _stringFormat$[ebp], 0
	je	SHORT $LN3@MeasureStr
	mov	eax, DWORD PTR _stringFormat$[ebp]
	mov	ecx, DWORD PTR [eax]
	mov	DWORD PTR tv72[ebp], ecx
	jmp	SHORT $LN4@MeasureStr
$LN3@MeasureStr:
	mov	DWORD PTR tv72[ebp], 0
$LN4@MeasureStr:
	cmp	DWORD PTR _font$[ebp], 0
	je	SHORT $LN5@MeasureStr
	mov	edx, DWORD PTR _font$[ebp]
	mov	eax, DWORD PTR [edx]
	mov	DWORD PTR tv77[ebp], eax
	jmp	SHORT $LN6@MeasureStr
$LN5@MeasureStr:
	mov	DWORD PTR tv77[ebp], 0
$LN6@MeasureStr:
	mov	ecx, DWORD PTR _linesFilled$[ebp]
	push	ecx
	mov	edx, DWORD PTR _codepointsFitted$[ebp]
	push	edx
	mov	eax, DWORD PTR _boundingBox$[ebp]
	push	eax
	mov	ecx, DWORD PTR tv72[ebp]
	push	ecx
	mov	edx, DWORD PTR _layoutRect$[ebp]
	push	edx
	mov	eax, DWORD PTR tv77[ebp]
	push	eax
	mov	ecx, DWORD PTR _length$[ebp]
	push	ecx
	mov	edx, DWORD PTR _string$[ebp]
	push	edx
	mov	eax, DWORD PTR _this$[ebp]
	mov	ecx, DWORD PTR [eax]
	push	ecx
	call	DWORD PTR __imp__GdipMeasureString@36
	push	eax
	mov	ecx, DWORD PTR _this$[ebp]
	call	?SetStatus@Graphics@Gdiplus@@IBE?AW4Status@2@W432@@Z ; Gdiplus::Graphics::SetStatus

; 1285 :     }

	mov	esp, ebp
	pop	ebp
	ret	32					; 00000020H
?MeasureString@Graphics@Gdiplus@@QBE?AW4Status@2@PB_WHPBVFont@2@ABVRectF@2@PBVStringFormat@2@PAV52@PAH5@Z ENDP ; Gdiplus::Graphics::MeasureString
_TEXT	ENDS
; Function compile flags: /Odtp
; File c:\program files (x86)\windows kits\8.1\include\um\gdiplusgraphics.h
;	COMDAT ?MeasureString@Graphics@Gdiplus@@QBE?AW4Status@2@PB_WHPBVFont@2@ABVPointF@2@PBVStringFormat@2@PAVRectF@2@@Z
_TEXT	SEGMENT
_rect$ = -28						; size = 16
_this$ = -12						; size = 4
tv84 = -8						; size = 4
tv79 = -4						; size = 4
_string$ = 8						; size = 4
_length$ = 12						; size = 4
_font$ = 16						; size = 4
_origin$ = 20						; size = 4
_stringFormat$ = 24					; size = 4
_boundingBox$ = 28					; size = 4
?MeasureString@Graphics@Gdiplus@@QBE?AW4Status@2@PB_WHPBVFont@2@ABVPointF@2@PBVStringFormat@2@PAVRectF@2@@Z PROC ; Gdiplus::Graphics::MeasureString, COMDAT
; _this$ = ecx

; 1338 :     {

	push	ebp
	mov	ebp, esp
	sub	esp, 28					; 0000001cH
	mov	DWORD PTR _this$[ebp], ecx

; 1339 :         RectF rect(origin.X, origin.Y, 0.0f, 0.0f);

	push	ecx
	movss	xmm0, DWORD PTR __real@00000000
	movss	DWORD PTR [esp], xmm0
	push	ecx
	movss	xmm0, DWORD PTR __real@00000000
	movss	DWORD PTR [esp], xmm0
	mov	eax, DWORD PTR _origin$[ebp]
	push	ecx
	movss	xmm0, DWORD PTR [eax+4]
	movss	DWORD PTR [esp], xmm0
	mov	ecx, DWORD PTR _origin$[ebp]
	push	ecx
	movss	xmm0, DWORD PTR [ecx]
	movss	DWORD PTR [esp], xmm0
	lea	ecx, DWORD PTR _rect$[ebp]
	call	??0RectF@Gdiplus@@QAE@MMMM@Z		; Gdiplus::RectF::RectF

; 1340 : 
; 1341 :         return SetStatus(DllExports::GdipMeasureString(
; 1342 :             nativeGraphics,
; 1343 :             string,
; 1344 :             length,
; 1345 :             font ? font->nativeFont : NULL,
; 1346 :             &rect,
; 1347 :             stringFormat ? stringFormat->nativeFormat : NULL,
; 1348 :             boundingBox,
; 1349 :             NULL,
; 1350 :             NULL
; 1351 :         ));

	cmp	DWORD PTR _stringFormat$[ebp], 0
	je	SHORT $LN3@MeasureStr
	mov	edx, DWORD PTR _stringFormat$[ebp]
	mov	eax, DWORD PTR [edx]
	mov	DWORD PTR tv79[ebp], eax
	jmp	SHORT $LN4@MeasureStr
$LN3@MeasureStr:
	mov	DWORD PTR tv79[ebp], 0
$LN4@MeasureStr:
	cmp	DWORD PTR _font$[ebp], 0
	je	SHORT $LN5@MeasureStr
	mov	ecx, DWORD PTR _font$[ebp]
	mov	edx, DWORD PTR [ecx]
	mov	DWORD PTR tv84[ebp], edx
	jmp	SHORT $LN6@MeasureStr
$LN5@MeasureStr:
	mov	DWORD PTR tv84[ebp], 0
$LN6@MeasureStr:
	push	0
	push	0
	mov	eax, DWORD PTR _boundingBox$[ebp]
	push	eax
	mov	ecx, DWORD PTR tv79[ebp]
	push	ecx
	lea	edx, DWORD PTR _rect$[ebp]
	push	edx
	mov	eax, DWORD PTR tv84[ebp]
	push	eax
	mov	ecx, DWORD PTR _length$[ebp]
	push	ecx
	mov	edx, DWORD PTR _string$[ebp]
	push	edx
	mov	eax, DWORD PTR _this$[ebp]
	mov	ecx, DWORD PTR [eax]
	push	ecx
	call	DWORD PTR __imp__GdipMeasureString@36
	push	eax
	mov	ecx, DWORD PTR _this$[ebp]
	call	?SetStatus@Graphics@Gdiplus@@IBE?AW4Status@2@W432@@Z ; Gdiplus::Graphics::SetStatus

; 1352 :     }

	mov	esp, ebp
	pop	ebp
	ret	24					; 00000018H
?MeasureString@Graphics@Gdiplus@@QBE?AW4Status@2@PB_WHPBVFont@2@ABVPointF@2@PBVStringFormat@2@PAVRectF@2@@Z ENDP ; Gdiplus::Graphics::MeasureString
_TEXT	ENDS
; Function compile flags: /Odtp
; File c:\program files (x86)\windows kits\8.1\include\um\gdiplusgraphics.h
;	COMDAT ?MeasureString@Graphics@Gdiplus@@QBE?AW4Status@2@PB_WHPBVFont@2@ABVRectF@2@PAV52@@Z
_TEXT	SEGMENT
_this$ = -8						; size = 4
tv74 = -4						; size = 4
_string$ = 8						; size = 4
_length$ = 12						; size = 4
_font$ = 16						; size = 4
_layoutRect$ = 20					; size = 4
_boundingBox$ = 24					; size = 4
?MeasureString@Graphics@Gdiplus@@QBE?AW4Status@2@PB_WHPBVFont@2@ABVRectF@2@PAV52@@Z PROC ; Gdiplus::Graphics::MeasureString, COMDAT
; _this$ = ecx

; 1362 :     {

	push	ebp
	mov	ebp, esp
	sub	esp, 8
	mov	DWORD PTR _this$[ebp], ecx

; 1363 :         return SetStatus(DllExports::GdipMeasureString(
; 1364 :             nativeGraphics,
; 1365 :             string,
; 1366 :             length,
; 1367 :             font ? font->nativeFont : NULL,
; 1368 :             &layoutRect,
; 1369 :             NULL,
; 1370 :             boundingBox,
; 1371 :             NULL,
; 1372 :             NULL
; 1373 :         ));

	cmp	DWORD PTR _font$[ebp], 0
	je	SHORT $LN3@MeasureStr
	mov	eax, DWORD PTR _font$[ebp]
	mov	ecx, DWORD PTR [eax]
	mov	DWORD PTR tv74[ebp], ecx
	jmp	SHORT $LN4@MeasureStr
$LN3@MeasureStr:
	mov	DWORD PTR tv74[ebp], 0
$LN4@MeasureStr:
	push	0
	push	0
	mov	edx, DWORD PTR _boundingBox$[ebp]
	push	edx
	push	0
	mov	eax, DWORD PTR _layoutRect$[ebp]
	push	eax
	mov	ecx, DWORD PTR tv74[ebp]
	push	ecx
	mov	edx, DWORD PTR _length$[ebp]
	push	edx
	mov	eax, DWORD PTR _string$[ebp]
	push	eax
	mov	ecx, DWORD PTR _this$[ebp]
	mov	edx, DWORD PTR [ecx]
	push	edx
	call	DWORD PTR __imp__GdipMeasureString@36
	push	eax
	mov	ecx, DWORD PTR _this$[ebp]
	call	?SetStatus@Graphics@Gdiplus@@IBE?AW4Status@2@W432@@Z ; Gdiplus::Graphics::SetStatus

; 1374 :     }

	mov	esp, ebp
	pop	ebp
	ret	20					; 00000014H
?MeasureString@Graphics@Gdiplus@@QBE?AW4Status@2@PB_WHPBVFont@2@ABVRectF@2@PAV52@@Z ENDP ; Gdiplus::Graphics::MeasureString
_TEXT	ENDS
; Function compile flags: /Odtp
; File c:\program files (x86)\windows kits\8.1\include\um\gdiplusfontfamily.h
;	COMDAT ??0FontFamily@Gdiplus@@QAE@XZ
_TEXT	SEGMENT
_this$ = -4						; size = 4
??0FontFamily@Gdiplus@@QAE@XZ PROC			; Gdiplus::FontFamily::FontFamily, COMDAT
; _this$ = ecx

; 27   : {

	push	ebp
	mov	ebp, esp
	push	ecx
	mov	DWORD PTR _this$[ebp], ecx
	mov	eax, DWORD PTR _this$[ebp]
	mov	DWORD PTR [eax], 0
	mov	ecx, DWORD PTR _this$[ebp]
	mov	DWORD PTR [ecx+4], 0

; 28   : }

	mov	eax, DWORD PTR _this$[ebp]
	mov	esp, ebp
	pop	ebp
	ret	0
??0FontFamily@Gdiplus@@QAE@XZ ENDP			; Gdiplus::FontFamily::FontFamily
_TEXT	ENDS
; Function compile flags: /Odtp
; File c:\program files (x86)\windows kits\8.1\include\um\gdiplusfontfamily.h
;	COMDAT ??1FontFamily@Gdiplus@@QAE@XZ
_TEXT	SEGMENT
_this$ = -4						; size = 4
??1FontFamily@Gdiplus@@QAE@XZ PROC			; Gdiplus::FontFamily::~FontFamily, COMDAT
; _this$ = ecx

; 112  : {

	push	ebp
	mov	ebp, esp
	push	ecx
	mov	DWORD PTR _this$[ebp], ecx

; 113  :     DllExports::GdipDeleteFontFamily (nativeFamily);

	mov	eax, DWORD PTR _this$[ebp]
	mov	ecx, DWORD PTR [eax]
	push	ecx
	call	DWORD PTR __imp__GdipDeleteFontFamily@4

; 114  : }

	mov	esp, ebp
	pop	ebp
	ret	0
??1FontFamily@Gdiplus@@QAE@XZ ENDP			; Gdiplus::FontFamily::~FontFamily
_TEXT	ENDS
; Function compile flags: /Odtp
; File c:\program files (x86)\windows kits\8.1\include\um\gdiplusfontfamily.h
;	COMDAT ?SetStatus@FontFamily@Gdiplus@@IBE?AW4Status@2@W432@@Z
_TEXT	SEGMENT
_this$ = -4						; size = 4
_status$ = 8						; size = 4
?SetStatus@FontFamily@Gdiplus@@IBE?AW4Status@2@W432@@Z PROC ; Gdiplus::FontFamily::SetStatus, COMDAT
; _this$ = ecx

; 205  : {

	push	ebp
	mov	ebp, esp
	push	ecx
	mov	DWORD PTR _this$[ebp], ecx

; 206  :     if (status != Ok)

	cmp	DWORD PTR _status$[ebp], 0
	je	SHORT $LN2@SetStatus

; 207  :         return (lastResult = status);

	mov	eax, DWORD PTR _this$[ebp]
	mov	ecx, DWORD PTR _status$[ebp]
	mov	DWORD PTR [eax+4], ecx
	mov	eax, DWORD PTR _status$[ebp]
	jmp	SHORT $LN3@SetStatus

; 208  :     else

	jmp	SHORT $LN3@SetStatus
$LN2@SetStatus:

; 209  :         return status;

	mov	eax, DWORD PTR _status$[ebp]
$LN3@SetStatus:

; 210  : }

	mov	esp, ebp
	pop	ebp
	ret	4
?SetStatus@FontFamily@Gdiplus@@IBE?AW4Status@2@W432@@Z ENDP ; Gdiplus::FontFamily::SetStatus
_TEXT	ENDS
; Function compile flags: /Odtp
; File c:\program files (x86)\windows kits\8.1\include\um\gdiplusfont.h
;	COMDAT ??0Font@Gdiplus@@QAE@PAUHDC__@@QAUHFONT__@@@Z
_TEXT	SEGMENT
_font$ = -72						; size = 4
_this$ = -68						; size = 4
_lf$1 = -64						; size = 60
__$ArrayPad$ = -4					; size = 4
_hdc$ = 8						; size = 4
_hfont$ = 12						; size = 4
??0Font@Gdiplus@@QAE@PAUHDC__@@QAUHFONT__@@@Z PROC	; Gdiplus::Font::Font, COMDAT
; _this$ = ecx

; 35   : {

	push	ebp
	mov	ebp, esp
	sub	esp, 72					; 00000048H
	mov	eax, DWORD PTR ___security_cookie
	xor	eax, ebp
	mov	DWORD PTR __$ArrayPad$[ebp], eax
	mov	DWORD PTR _this$[ebp], ecx

; 36   :     GpFont *font = NULL;

	mov	DWORD PTR _font$[ebp], 0

; 37   : 
; 38   :     if (hfont)

	cmp	DWORD PTR _hfont$[ebp], 0
	je	SHORT $LN4@Font

; 39   :     {
; 40   :         LOGFONTA lf;
; 41   : 
; 42   :         if(GetObjectA(hfont, sizeof(LOGFONTA), &lf))

	lea	eax, DWORD PTR _lf$1[ebp]
	push	eax
	push	60					; 0000003cH
	mov	ecx, DWORD PTR _hfont$[ebp]
	push	ecx
	call	DWORD PTR __imp__GetObjectA@12
	test	eax, eax
	je	SHORT $LN3@Font

; 43   :             lastResult = DllExports::GdipCreateFontFromLogfontA(hdc, &lf, &font);

	lea	edx, DWORD PTR _font$[ebp]
	push	edx
	lea	eax, DWORD PTR _lf$1[ebp]
	push	eax
	mov	ecx, DWORD PTR _hdc$[ebp]
	push	ecx
	call	DWORD PTR __imp__GdipCreateFontFromLogfontA@12
	mov	edx, DWORD PTR _this$[ebp]
	mov	DWORD PTR [edx+4], eax

; 44   :         else

	jmp	SHORT $LN2@Font
$LN3@Font:

; 45   :             lastResult = DllExports::GdipCreateFontFromDC(hdc, &font);

	lea	eax, DWORD PTR _font$[ebp]
	push	eax
	mov	ecx, DWORD PTR _hdc$[ebp]
	push	ecx
	call	DWORD PTR __imp__GdipCreateFontFromDC@8
	mov	edx, DWORD PTR _this$[ebp]
	mov	DWORD PTR [edx+4], eax
$LN2@Font:

; 46   :     }
; 47   :     else

	jmp	SHORT $LN1@Font
$LN4@Font:

; 48   :     {
; 49   :         lastResult = DllExports::GdipCreateFontFromDC(hdc, &font);

	lea	eax, DWORD PTR _font$[ebp]
	push	eax
	mov	ecx, DWORD PTR _hdc$[ebp]
	push	ecx
	call	DWORD PTR __imp__GdipCreateFontFromDC@8
	mov	edx, DWORD PTR _this$[ebp]
	mov	DWORD PTR [edx+4], eax
$LN1@Font:

; 50   :     }
; 51   : 
; 52   :     SetNativeFont(font);

	mov	eax, DWORD PTR _font$[ebp]
	push	eax
	mov	ecx, DWORD PTR _this$[ebp]
	call	?SetNativeFont@Font@Gdiplus@@IAEXPAVGpFont@2@@Z ; Gdiplus::Font::SetNativeFont

; 53   : }

	mov	eax, DWORD PTR _this$[ebp]
	mov	ecx, DWORD PTR __$ArrayPad$[ebp]
	xor	ecx, ebp
	call	@__security_check_cookie@4
	mov	esp, ebp
	pop	ebp
	ret	8
??0Font@Gdiplus@@QAE@PAUHDC__@@QAUHFONT__@@@Z ENDP	; Gdiplus::Font::Font
_TEXT	ENDS
; Function compile flags: /Odtp
; File c:\program files (x86)\windows kits\8.1\include\um\gdiplusfont.h
;	COMDAT ??0Font@Gdiplus@@QAE@PAUHDC__@@PBUtagLOGFONTW@@@Z
_TEXT	SEGMENT
_font$ = -8						; size = 4
_this$ = -4						; size = 4
_hdc$ = 8						; size = 4
_logfont$ = 12						; size = 4
??0Font@Gdiplus@@QAE@PAUHDC__@@PBUtagLOGFONTW@@@Z PROC	; Gdiplus::Font::Font, COMDAT
; _this$ = ecx

; 58   : {

	push	ebp
	mov	ebp, esp
	sub	esp, 8
	mov	DWORD PTR _this$[ebp], ecx

; 59   :     GpFont *font = NULL;

	mov	DWORD PTR _font$[ebp], 0

; 60   :     if (logfont)

	cmp	DWORD PTR _logfont$[ebp], 0
	je	SHORT $LN2@Font

; 61   :     {
; 62   :         lastResult = DllExports::GdipCreateFontFromLogfontW(hdc, logfont, &font);

	lea	eax, DWORD PTR _font$[ebp]
	push	eax
	mov	ecx, DWORD PTR _logfont$[ebp]
	push	ecx
	mov	edx, DWORD PTR _hdc$[ebp]
	push	edx
	call	DWORD PTR __imp__GdipCreateFontFromLogfontW@12
	mov	ecx, DWORD PTR _this$[ebp]
	mov	DWORD PTR [ecx+4], eax

; 63   :     }
; 64   :     else

	jmp	SHORT $LN1@Font
$LN2@Font:

; 65   :     {
; 66   :         lastResult = DllExports::GdipCreateFontFromDC(hdc, &font);

	lea	edx, DWORD PTR _font$[ebp]
	push	edx
	mov	eax, DWORD PTR _hdc$[ebp]
	push	eax
	call	DWORD PTR __imp__GdipCreateFontFromDC@8
	mov	ecx, DWORD PTR _this$[ebp]
	mov	DWORD PTR [ecx+4], eax
$LN1@Font:

; 67   :     }
; 68   : 
; 69   :     SetNativeFont(font);

	mov	edx, DWORD PTR _font$[ebp]
	push	edx
	mov	ecx, DWORD PTR _this$[ebp]
	call	?SetNativeFont@Font@Gdiplus@@IAEXPAVGpFont@2@@Z ; Gdiplus::Font::SetNativeFont

; 70   : }

	mov	eax, DWORD PTR _this$[ebp]
	mov	esp, ebp
	pop	ebp
	ret	8
??0Font@Gdiplus@@QAE@PAUHDC__@@PBUtagLOGFONTW@@@Z ENDP	; Gdiplus::Font::Font
_TEXT	ENDS
; Function compile flags: /Odtp
; File c:\program files (x86)\windows kits\8.1\include\um\gdiplusfont.h
;	COMDAT ??1Font@Gdiplus@@QAE@XZ
_TEXT	SEGMENT
_this$ = -4						; size = 4
??1Font@Gdiplus@@QAE@XZ PROC				; Gdiplus::Font::~Font, COMDAT
; _this$ = ecx

; 183  : {

	push	ebp
	mov	ebp, esp
	push	ecx
	mov	DWORD PTR _this$[ebp], ecx

; 184  :     DllExports::GdipDeleteFont(nativeFont);

	mov	eax, DWORD PTR _this$[ebp]
	mov	ecx, DWORD PTR [eax]
	push	ecx
	call	DWORD PTR __imp__GdipDeleteFont@4

; 185  : }

	mov	esp, ebp
	pop	ebp
	ret	0
??1Font@Gdiplus@@QAE@XZ ENDP				; Gdiplus::Font::~Font
_TEXT	ENDS
; Function compile flags: /Odtp
; File c:\program files (x86)\windows kits\8.1\include\um\gdiplusfont.h
;	COMDAT ?IsAvailable@Font@Gdiplus@@QBEHXZ
_TEXT	SEGMENT
_this$ = -8						; size = 4
tv66 = -4						; size = 4
?IsAvailable@Font@Gdiplus@@QBEHXZ PROC			; Gdiplus::Font::IsAvailable, COMDAT
; _this$ = ecx

; 191  : {

	push	ebp
	mov	ebp, esp
	sub	esp, 8
	mov	DWORD PTR _this$[ebp], ecx

; 192  :     return (nativeFont ? TRUE : FALSE);

	mov	eax, DWORD PTR _this$[ebp]
	cmp	DWORD PTR [eax], 0
	je	SHORT $LN3@IsAvailabl
	mov	DWORD PTR tv66[ebp], 1
	jmp	SHORT $LN4@IsAvailabl
$LN3@IsAvailabl:
	mov	DWORD PTR tv66[ebp], 0
$LN4@IsAvailabl:
	mov	eax, DWORD PTR tv66[ebp]

; 193  : }

	mov	esp, ebp
	pop	ebp
	ret	0
?IsAvailable@Font@Gdiplus@@QBEHXZ ENDP			; Gdiplus::Font::IsAvailable
_TEXT	ENDS
; Function compile flags: /Odtp
; File c:\program files (x86)\windows kits\8.1\include\um\gdiplusfont.h
;	COMDAT ?GetFamily@Font@Gdiplus@@QBE?AW4Status@2@PAVFontFamily@2@@Z
_TEXT	SEGMENT
_status$ = -8						; size = 4
_this$ = -4						; size = 4
_family$ = 8						; size = 4
?GetFamily@Font@Gdiplus@@QBE?AW4Status@2@PAVFontFamily@2@@Z PROC ; Gdiplus::Font::GetFamily, COMDAT
; _this$ = ecx

; 197  : {

	push	ebp
	mov	ebp, esp
	sub	esp, 8
	mov	DWORD PTR _this$[ebp], ecx

; 198  :     if (family == NULL)

	cmp	DWORD PTR _family$[ebp], 0
	jne	SHORT $LN1@GetFamily

; 199  :     {
; 200  :         return SetStatus(InvalidParameter);

	push	2
	mov	ecx, DWORD PTR _this$[ebp]
	call	?SetStatus@Font@Gdiplus@@IBE?AW4Status@2@W432@@Z ; Gdiplus::Font::SetStatus
	jmp	SHORT $LN2@GetFamily
$LN1@GetFamily:

; 201  :     }
; 202  : 
; 203  :     Status status = DllExports::GdipGetFamily(nativeFont, &(family->nativeFamily));

	mov	eax, DWORD PTR _family$[ebp]
	push	eax
	mov	ecx, DWORD PTR _this$[ebp]
	mov	edx, DWORD PTR [ecx]
	push	edx
	call	DWORD PTR __imp__GdipGetFamily@8
	mov	DWORD PTR _status$[ebp], eax

; 204  :     family->SetStatus(status);

	mov	eax, DWORD PTR _status$[ebp]
	push	eax
	mov	ecx, DWORD PTR _family$[ebp]
	call	?SetStatus@FontFamily@Gdiplus@@IBE?AW4Status@2@W432@@Z ; Gdiplus::FontFamily::SetStatus

; 205  : 
; 206  :     return SetStatus(status);

	mov	ecx, DWORD PTR _status$[ebp]
	push	ecx
	mov	ecx, DWORD PTR _this$[ebp]
	call	?SetStatus@Font@Gdiplus@@IBE?AW4Status@2@W432@@Z ; Gdiplus::Font::SetStatus
$LN2@GetFamily:

; 207  : }

	mov	esp, ebp
	pop	ebp
	ret	4
?GetFamily@Font@Gdiplus@@QBE?AW4Status@2@PAVFontFamily@2@@Z ENDP ; Gdiplus::Font::GetFamily
_TEXT	ENDS
; Function compile flags: /Odtp
; File c:\program files (x86)\windows kits\8.1\include\um\gdiplusfont.h
;	COMDAT ?GetStyle@Font@Gdiplus@@QBEHXZ
_TEXT	SEGMENT
_style$ = -8						; size = 4
_this$ = -4						; size = 4
?GetStyle@Font@Gdiplus@@QBEHXZ PROC			; Gdiplus::Font::GetStyle, COMDAT
; _this$ = ecx

; 211  : {

	push	ebp
	mov	ebp, esp
	sub	esp, 8
	mov	DWORD PTR _this$[ebp], ecx

; 212  :     INT style;
; 213  : 
; 214  :     SetStatus(DllExports::GdipGetFontStyle(nativeFont, &style));

	lea	eax, DWORD PTR _style$[ebp]
	push	eax
	mov	ecx, DWORD PTR _this$[ebp]
	mov	edx, DWORD PTR [ecx]
	push	edx
	call	DWORD PTR __imp__GdipGetFontStyle@8
	push	eax
	mov	ecx, DWORD PTR _this$[ebp]
	call	?SetStatus@Font@Gdiplus@@IBE?AW4Status@2@W432@@Z ; Gdiplus::Font::SetStatus

; 215  : 
; 216  :     return style;

	mov	eax, DWORD PTR _style$[ebp]

; 217  : }

	mov	esp, ebp
	pop	ebp
	ret	0
?GetStyle@Font@Gdiplus@@QBEHXZ ENDP			; Gdiplus::Font::GetStyle
_TEXT	ENDS
; Function compile flags: /Odtp
; File c:\program files (x86)\windows kits\8.1\include\um\gdiplusfont.h
;	COMDAT ?GetSize@Font@Gdiplus@@QBEMXZ
_TEXT	SEGMENT
_size$ = -8						; size = 4
_this$ = -4						; size = 4
?GetSize@Font@Gdiplus@@QBEMXZ PROC			; Gdiplus::Font::GetSize, COMDAT
; _this$ = ecx

; 221  : {

	push	ebp
	mov	ebp, esp
	sub	esp, 8
	mov	DWORD PTR _this$[ebp], ecx

; 222  :     REAL size;
; 223  :     SetStatus(DllExports::GdipGetFontSize(nativeFont, &size));

	lea	eax, DWORD PTR _size$[ebp]
	push	eax
	mov	ecx, DWORD PTR _this$[ebp]
	mov	edx, DWORD PTR [ecx]
	push	edx
	call	DWORD PTR __imp__GdipGetFontSize@8
	push	eax
	mov	ecx, DWORD PTR _this$[ebp]
	call	?SetStatus@Font@Gdiplus@@IBE?AW4Status@2@W432@@Z ; Gdiplus::Font::SetStatus

; 224  :     return size;

	fld	DWORD PTR _size$[ebp]

; 225  : }

	mov	esp, ebp
	pop	ebp
	ret	0
?GetSize@Font@Gdiplus@@QBEMXZ ENDP			; Gdiplus::Font::GetSize
_TEXT	ENDS
; Function compile flags: /Odtp
; File c:\program files (x86)\windows kits\8.1\include\um\gdiplusfont.h
;	COMDAT ?SetNativeFont@Font@Gdiplus@@IAEXPAVGpFont@2@@Z
_TEXT	SEGMENT
_this$ = -4						; size = 4
_Font$ = 8						; size = 4
?SetNativeFont@Font@Gdiplus@@IAEXPAVGpFont@2@@Z PROC	; Gdiplus::Font::SetNativeFont, COMDAT
; _this$ = ecx

; 266  : {

	push	ebp
	mov	ebp, esp
	push	ecx
	mov	DWORD PTR _this$[ebp], ecx

; 267  :     nativeFont = Font;

	mov	eax, DWORD PTR _this$[ebp]
	mov	ecx, DWORD PTR _Font$[ebp]
	mov	DWORD PTR [eax], ecx

; 268  : }

	mov	esp, ebp
	pop	ebp
	ret	4
?SetNativeFont@Font@Gdiplus@@IAEXPAVGpFont@2@@Z ENDP	; Gdiplus::Font::SetNativeFont
_TEXT	ENDS
; Function compile flags: /Odtp
; File c:\program files (x86)\windows kits\8.1\include\um\gdiplusfont.h
;	COMDAT ?SetStatus@Font@Gdiplus@@IBE?AW4Status@2@W432@@Z
_TEXT	SEGMENT
_this$ = -4						; size = 4
_status$ = 8						; size = 4
?SetStatus@Font@Gdiplus@@IBE?AW4Status@2@W432@@Z PROC	; Gdiplus::Font::SetStatus, COMDAT
; _this$ = ecx

; 278  : {

	push	ebp
	mov	ebp, esp
	push	ecx
	mov	DWORD PTR _this$[ebp], ecx

; 279  :     if (status != Ok)

	cmp	DWORD PTR _status$[ebp], 0
	je	SHORT $LN2@SetStatus

; 280  :         return (lastResult = status);

	mov	eax, DWORD PTR _this$[ebp]
	mov	ecx, DWORD PTR _status$[ebp]
	mov	DWORD PTR [eax+4], ecx
	mov	eax, DWORD PTR _status$[ebp]
	jmp	SHORT $LN3@SetStatus

; 281  :     else

	jmp	SHORT $LN3@SetStatus
$LN2@SetStatus:

; 282  :         return status;

	mov	eax, DWORD PTR _status$[ebp]
$LN3@SetStatus:

; 283  : }

	mov	esp, ebp
	pop	ebp
	ret	4
?SetStatus@Font@Gdiplus@@IBE?AW4Status@2@W432@@Z ENDP	; Gdiplus::Font::SetStatus
_TEXT	ENDS
; Function compile flags: /Odtp
;	COMDAT ??_GBitmap@Gdiplus@@UAEPAXI@Z
_TEXT	SEGMENT
_this$ = -4						; size = 4
___flags$ = 8						; size = 4
??_GBitmap@Gdiplus@@UAEPAXI@Z PROC			; Gdiplus::Bitmap::`scalar deleting destructor', COMDAT
; _this$ = ecx
	push	ebp
	mov	ebp, esp
	push	ecx
	mov	DWORD PTR _this$[ebp], ecx
	mov	ecx, DWORD PTR _this$[ebp]
	call	??1Bitmap@Gdiplus@@UAE@XZ
	mov	eax, DWORD PTR ___flags$[ebp]
	and	eax, 1
	je	SHORT $LN1@scalar
	mov	ecx, DWORD PTR _this$[ebp]
	push	ecx
	call	??3GdiplusBase@Gdiplus@@SAXPAX@Z	; Gdiplus::GdiplusBase::operator delete
	add	esp, 4
$LN1@scalar:
	mov	eax, DWORD PTR _this$[ebp]
	mov	esp, ebp
	pop	ebp
	ret	4
??_GBitmap@Gdiplus@@UAEPAXI@Z ENDP			; Gdiplus::Bitmap::`scalar deleting destructor'
_TEXT	ENDS
; Function compile flags: /Odtp
;	COMDAT ??1Bitmap@Gdiplus@@UAE@XZ
_TEXT	SEGMENT
_this$ = -4						; size = 4
??1Bitmap@Gdiplus@@UAE@XZ PROC				; Gdiplus::Bitmap::~Bitmap, COMDAT
; _this$ = ecx
	push	ebp
	mov	ebp, esp
	push	ecx
	mov	DWORD PTR _this$[ebp], ecx
	mov	ecx, DWORD PTR _this$[ebp]
	call	??1Image@Gdiplus@@UAE@XZ		; Gdiplus::Image::~Image
	mov	esp, ebp
	pop	ebp
	ret	0
??1Bitmap@Gdiplus@@UAE@XZ ENDP				; Gdiplus::Bitmap::~Bitmap
_TEXT	ENDS
; Function compile flags: /Odtp
; File c:\program files (x86)\windows kits\8.1\include\um\gdiplusbitmap.h
;	COMDAT ??0Bitmap@Gdiplus@@QAE@HHHHPAE@Z
_TEXT	SEGMENT
_bitmap$ = -8						; size = 4
_this$ = -4						; size = 4
_width$ = 8						; size = 4
_height$ = 12						; size = 4
_stride$ = 16						; size = 4
_format$ = 20						; size = 4
_scan0$ = 24						; size = 4
??0Bitmap@Gdiplus@@QAE@HHHHPAE@Z PROC			; Gdiplus::Bitmap::Bitmap, COMDAT
; _this$ = ecx

; 589  : {

	push	ebp
	mov	ebp, esp
	sub	esp, 8
	mov	DWORD PTR _this$[ebp], ecx
	mov	ecx, DWORD PTR _this$[ebp]
	call	??0Image@Gdiplus@@IAE@XZ		; Gdiplus::Image::Image
	mov	eax, DWORD PTR _this$[ebp]
	mov	DWORD PTR [eax], OFFSET ??_7Bitmap@Gdiplus@@6B@

; 590  :     GpBitmap *bitmap = NULL;

	mov	DWORD PTR _bitmap$[ebp], 0

; 591  : 
; 592  :     lastResult = DllExports::GdipCreateBitmapFromScan0(width,
; 593  :                                                        height,
; 594  :                                                        stride,
; 595  :                                                        format,
; 596  :                                                        scan0,
; 597  :                                                        &bitmap);

	lea	ecx, DWORD PTR _bitmap$[ebp]
	push	ecx
	mov	edx, DWORD PTR _scan0$[ebp]
	push	edx
	mov	eax, DWORD PTR _format$[ebp]
	push	eax
	mov	ecx, DWORD PTR _stride$[ebp]
	push	ecx
	mov	edx, DWORD PTR _height$[ebp]
	push	edx
	mov	eax, DWORD PTR _width$[ebp]
	push	eax
	call	DWORD PTR __imp__GdipCreateBitmapFromScan0@24
	mov	ecx, DWORD PTR _this$[ebp]
	mov	DWORD PTR [ecx+8], eax

; 598  : 
; 599  :     SetNativeImage(bitmap);

	mov	edx, DWORD PTR _bitmap$[ebp]
	push	edx
	mov	ecx, DWORD PTR _this$[ebp]
	call	?SetNativeImage@Image@Gdiplus@@IAEXPAVGpImage@2@@Z ; Gdiplus::Image::SetNativeImage

; 600  : }

	mov	eax, DWORD PTR _this$[ebp]
	mov	esp, ebp
	pop	ebp
	ret	20					; 00000014H
??0Bitmap@Gdiplus@@QAE@HHHHPAE@Z ENDP			; Gdiplus::Bitmap::Bitmap
_TEXT	ENDS
; Function compile flags: /Odtp
; File f:\songmm_moon_stone_obs\obs\source\textoutputsource.cpp
;	COMDAT ?GetAlphaVal@@YAKI@Z
_TEXT	SEGMENT
_opacityLevel$ = 8					; size = 4
?GetAlphaVal@@YAKI@Z PROC				; GetAlphaVal, COMDAT

; 37   : {

	push	ebp
	mov	ebp, esp

; 38   :     return ((opacityLevel*255/100)&0xFF) << 24;

	imul	eax, DWORD PTR _opacityLevel$[ebp], 255
	xor	edx, edx
	mov	ecx, 100				; 00000064H
	div	ecx
	and	eax, 255				; 000000ffH
	shl	eax, 24					; 00000018H

; 39   : }

	pop	ebp
	ret	0
?GetAlphaVal@@YAKI@Z ENDP				; GetAlphaVal
_TEXT	ENDS
; Function compile flags: /Odtp
; File f:\songmm_moon_stone_obs\obs\source\textoutputsource.cpp
;	COMDAT ?DrawOutlineText@TextOutputSource@@AAEXPAVGraphics@Gdiplus@@AAVFont@3@ABVGraphicsPath@3@ABVStringFormat@3@PBVBrush@3@@Z
_TEXT	SEGMENT
tv153 = -60						; size = 8
tv143 = -52						; size = 8
_pen$ = -44						; size = 8
$T1 = -36						; size = 4
tv137 = -32						; size = 4
$T2 = -28						; size = 4
_tmpOpacity$ = -24					; size = 4
$T3 = -20						; size = 4
_outlinePath$ = -16					; size = 4
tv149 = -12						; size = 4
tv139 = -8						; size = 4
_this$ = -4						; size = 4
_graphics$ = 8						; size = 4
_font$ = 12						; size = 4
_path$ = 16						; size = 4
_format$ = 20						; size = 4
_brush$ = 24						; size = 4
?DrawOutlineText@TextOutputSource@@AAEXPAVGraphics@Gdiplus@@AAVFont@3@ABVGraphicsPath@3@ABVStringFormat@3@PBVBrush@3@@Z PROC ; TextOutputSource::DrawOutlineText, COMDAT
; _this$ = ecx

; 98   :     {

	push	ebp
	mov	ebp, esp
	sub	esp, 60					; 0000003cH
	mov	DWORD PTR _this$[ebp], ecx

; 99   :                 
; 100  :         Gdiplus::GraphicsPath *outlinePath;
; 101  : 
; 102  :         outlinePath = path.Clone();

	mov	ecx, DWORD PTR _path$[ebp]
	call	?Clone@GraphicsPath@Gdiplus@@QBEPAV12@XZ ; Gdiplus::GraphicsPath::Clone
	mov	DWORD PTR _outlinePath$[ebp], eax

; 103  : 
; 104  :         // Outline color and size
; 105  :         UINT tmpOpacity = (UINT)((((float)opacity * 0.01f) * ((float)outlineOpacity * 0.01f)) * 100.0f);

	mov	eax, DWORD PTR _this$[ebp]
	mov	ecx, DWORD PTR [eax+64]
	mov	DWORD PTR tv139[ebp], ecx
	cvtsi2sd xmm0, DWORD PTR tv139[ebp]
	mov	edx, DWORD PTR tv139[ebp]
	shr	edx, 31					; 0000001fH
	addsd	xmm0, QWORD PTR __xmm@41f00000000000000000000000000000[edx*8]
	movsd	QWORD PTR tv143[ebp], xmm0
	cvtsd2ss xmm0, QWORD PTR tv143[ebp]
	mulss	xmm0, DWORD PTR __real@3c23d70a
	mov	eax, DWORD PTR _this$[ebp]
	mov	ecx, DWORD PTR [eax+100]
	mov	DWORD PTR tv149[ebp], ecx
	cvtsi2sd xmm1, DWORD PTR tv149[ebp]
	mov	edx, DWORD PTR tv149[ebp]
	shr	edx, 31					; 0000001fH
	addsd	xmm1, QWORD PTR __xmm@41f00000000000000000000000000000[edx*8]
	movsd	QWORD PTR tv153[ebp], xmm1
	cvtsd2ss xmm1, QWORD PTR tv153[ebp]
	mulss	xmm1, DWORD PTR __real@3c23d70a
	mulss	xmm0, xmm1
	mulss	xmm0, DWORD PTR __real@42c80000
	call	__ftoui3
	mov	DWORD PTR _tmpOpacity$[ebp], eax

; 106  :         Gdiplus::Pen pen(Gdiplus::Color(GetAlphaVal(tmpOpacity) | (outlineColor&0xFFFFFF)), outlineSize);

	mov	eax, DWORD PTR _this$[ebp]
	push	ecx
	movss	xmm0, DWORD PTR [eax+92]
	movss	DWORD PTR [esp], xmm0
	mov	ecx, DWORD PTR _tmpOpacity$[ebp]
	push	ecx
	call	?GetAlphaVal@@YAKI@Z			; GetAlphaVal
	add	esp, 4
	mov	edx, DWORD PTR _this$[ebp]
	mov	ecx, DWORD PTR [edx+96]
	and	ecx, 16777215				; 00ffffffH
	or	eax, ecx
	push	eax
	lea	ecx, DWORD PTR $T1[ebp]
	call	??0Color@Gdiplus@@QAE@K@Z		; Gdiplus::Color::Color
	push	eax
	lea	ecx, DWORD PTR _pen$[ebp]
	call	??0Pen@Gdiplus@@QAE@ABVColor@1@M@Z	; Gdiplus::Pen::Pen

; 107  :         pen.SetLineJoin(Gdiplus::LineJoinRound);

	push	2
	lea	ecx, DWORD PTR _pen$[ebp]
	call	?SetLineJoin@Pen@Gdiplus@@QAE?AW4Status@2@W4LineJoin@2@@Z ; Gdiplus::Pen::SetLineJoin

; 108  : 
; 109  :         // Widen the outline
; 110  :         // It seems that Widen has a huge performance impact on DrawPath call, screw it! We're talking about freaking seconds in some extreme cases...
; 111  :         //outlinePath->Widen(&pen);
; 112  : 
; 113  :         // Draw the outline
; 114  :         graphics->DrawPath(&pen, outlinePath);

	mov	edx, DWORD PTR _outlinePath$[ebp]
	push	edx
	lea	eax, DWORD PTR _pen$[ebp]
	push	eax
	mov	ecx, DWORD PTR _graphics$[ebp]
	call	?DrawPath@Graphics@Gdiplus@@QAE?AW4Status@2@PBVPen@2@PBVGraphicsPath@2@@Z ; Gdiplus::Graphics::DrawPath

; 115  : 
; 116  :         // Draw the text        
; 117  :         graphics->FillPath(brush, &path);

	mov	ecx, DWORD PTR _path$[ebp]
	push	ecx
	mov	edx, DWORD PTR _brush$[ebp]
	push	edx
	mov	ecx, DWORD PTR _graphics$[ebp]
	call	?FillPath@Graphics@Gdiplus@@QAE?AW4Status@2@PBVBrush@2@PBVGraphicsPath@2@@Z ; Gdiplus::Graphics::FillPath

; 118  : 
; 119  :         delete outlinePath;

	mov	eax, DWORD PTR _outlinePath$[ebp]
	mov	DWORD PTR $T2[ebp], eax
	mov	ecx, DWORD PTR $T2[ebp]
	mov	DWORD PTR $T3[ebp], ecx
	cmp	DWORD PTR $T3[ebp], 0
	je	SHORT $LN3@DrawOutlin
	push	1
	mov	ecx, DWORD PTR $T3[ebp]
	call	??_GGraphicsPath@Gdiplus@@QAEPAXI@Z
	mov	DWORD PTR tv137[ebp], eax
	jmp	SHORT $LN4@DrawOutlin
$LN3@DrawOutlin:
	mov	DWORD PTR tv137[ebp], 0
$LN4@DrawOutlin:

; 120  :     }

	lea	ecx, DWORD PTR _pen$[ebp]
	call	??1Pen@Gdiplus@@QAE@XZ			; Gdiplus::Pen::~Pen
	mov	esp, ebp
	pop	ebp
	ret	20					; 00000014H
?DrawOutlineText@TextOutputSource@@AAEXPAVGraphics@Gdiplus@@AAVFont@3@ABVGraphicsPath@3@ABVStringFormat@3@PBVBrush@3@@Z ENDP ; TextOutputSource::DrawOutlineText
_TEXT	ENDS
; Function compile flags: /Odtp
; File f:\songmm_moon_stone_obs\obs\source\textoutputsource.cpp
;	COMDAT ?GetFont@TextOutputSource@@AAEPAUHFONT__@@XZ
_TEXT	SEGMENT
tv70 = -108						; size = 4
_hFont$ = -104						; size = 4
_this$ = -100						; size = 4
_lf$ = -96						; size = 92
__$ArrayPad$ = -4					; size = 4
?GetFont@TextOutputSource@@AAEPAUHFONT__@@XZ PROC	; TextOutputSource::GetFont, COMDAT
; _this$ = ecx

; 123  :     {

	push	ebp
	mov	ebp, esp
	sub	esp, 108				; 0000006cH
	mov	eax, DWORD PTR ___security_cookie
	xor	eax, ebp
	mov	DWORD PTR __$ArrayPad$[ebp], eax
	mov	DWORD PTR _this$[ebp], ecx

; 124  :         HFONT hFont = NULL;

	mov	DWORD PTR _hFont$[ebp], 0

; 125  : 
; 126  :         LOGFONT lf;
; 127  :         zero(&lf, sizeof(lf));

	push	92					; 0000005cH
	lea	eax, DWORD PTR _lf$[ebp]
	push	eax
	call	?zero@@YGXPAXI@Z			; zero

; 128  :         lf.lfHeight = size;

	mov	ecx, DWORD PTR _this$[ebp]
	mov	edx, DWORD PTR [ecx+56]
	mov	DWORD PTR _lf$[ebp], edx

; 129  :         lf.lfWeight = bBold ? FW_BOLD : FW_DONTCARE;

	mov	eax, DWORD PTR _this$[ebp]
	movzx	ecx, BYTE PTR [eax+76]
	test	ecx, ecx
	je	SHORT $LN5@GetFont
	mov	DWORD PTR tv70[ebp], 700		; 000002bcH
	jmp	SHORT $LN6@GetFont
$LN5@GetFont:
	mov	DWORD PTR tv70[ebp], 0
$LN6@GetFont:
	mov	edx, DWORD PTR tv70[ebp]
	mov	DWORD PTR _lf$[ebp+16], edx

; 130  :         lf.lfItalic = bItalic;

	mov	eax, DWORD PTR _this$[ebp]
	mov	cl, BYTE PTR [eax+77]
	mov	BYTE PTR _lf$[ebp+20], cl

; 131  :         lf.lfUnderline = bUnderline;

	mov	edx, DWORD PTR _this$[ebp]
	mov	al, BYTE PTR [edx+78]
	mov	BYTE PTR _lf$[ebp+21], al

; 132  :         lf.lfQuality = ANTIALIASED_QUALITY;

	mov	BYTE PTR _lf$[ebp+26], 4

; 133  : 
; 134  :         if(strFont.IsValid())

	mov	ecx, DWORD PTR _this$[ebp]
	add	ecx, 48					; 00000030H
	call	DWORD PTR __imp_?IsValid@String@@QBEHXZ
	test	eax, eax
	je	SHORT $LN2@GetFont

; 135  :         {
; 136  :             scpy_n(lf.lfFaceName, strFont, 31);

	push	31					; 0000001fH
	mov	ecx, DWORD PTR _this$[ebp]
	add	ecx, 48					; 00000030H
	call	DWORD PTR __imp_??BString@@QBEPA_WXZ
	push	eax
	lea	ecx, DWORD PTR _lf$[ebp+28]
	push	ecx
	call	DWORD PTR __imp_?scpy_n@@YGXPA_WPB_WI@Z

; 137  : 
; 138  :             hFont = CreateFontIndirect(&lf);

	lea	edx, DWORD PTR _lf$[ebp]
	push	edx
	call	DWORD PTR __imp__CreateFontIndirectW@4
	mov	DWORD PTR _hFont$[ebp], eax
$LN2@GetFont:

; 139  :         }
; 140  : 
; 141  :         if(!hFont)

	cmp	DWORD PTR _hFont$[ebp], 0
	jne	SHORT $LN1@GetFont

; 142  :         {
; 143  :             scpy_n(lf.lfFaceName, TEXT("Arial"), 31);

	push	31					; 0000001fH
	push	OFFSET ??_C@_1M@KAKMLIHO@?$AAA?$AAr?$AAi?$AAa?$AAl?$AA?$AA@
	lea	eax, DWORD PTR _lf$[ebp+28]
	push	eax
	call	DWORD PTR __imp_?scpy_n@@YGXPA_WPB_WI@Z

; 144  :             hFont = CreateFontIndirect(&lf);

	lea	ecx, DWORD PTR _lf$[ebp]
	push	ecx
	call	DWORD PTR __imp__CreateFontIndirectW@4
	mov	DWORD PTR _hFont$[ebp], eax
$LN1@GetFont:

; 145  :         }
; 146  : 
; 147  :         return hFont;

	mov	eax, DWORD PTR _hFont$[ebp]

; 148  :     }

	mov	ecx, DWORD PTR __$ArrayPad$[ebp]
	xor	ecx, ebp
	call	@__security_check_cookie@4
	mov	esp, ebp
	pop	ebp
	ret	0
?GetFont@TextOutputSource@@AAEPAUHFONT__@@XZ ENDP	; TextOutputSource::GetFont
_TEXT	ENDS
; Function compile flags: /Odtp
; File f:\songmm_moon_stone_obs\obs\source\textoutputsource.cpp
;	COMDAT ?UpdateCurrentText@TextOutputSource@@AAEXXZ
_TEXT	SEGMENT
_textFile$1 = -32					; size = 24
tv135 = -8						; size = 4
_this$ = -4						; size = 4
?UpdateCurrentText@TextOutputSource@@AAEXXZ PROC	; TextOutputSource::UpdateCurrentText, COMDAT
; _this$ = ecx

; 151  :     {

	push	ebp
	mov	ebp, esp
	sub	esp, 32					; 00000020H
	mov	DWORD PTR _this$[ebp], ecx

; 152  :         if(bMonitoringFileChanges)

	mov	eax, DWORD PTR _this$[ebp]
	movzx	ecx, BYTE PTR [eax+141]
	test	ecx, ecx
	je	SHORT $LN8@UpdateCurr

; 153  :         {
; 154  :             OSMonitorFileDestroy(fileChangeMonitor);

	mov	edx, DWORD PTR _this$[ebp]
	mov	eax, DWORD PTR [edx+144]
	push	eax
	call	DWORD PTR __imp_?OSMonitorFileDestroy@@YGXPAUOSFileChangeData@@@Z

; 155  :             fileChangeMonitor = NULL;

	mov	ecx, DWORD PTR _this$[ebp]
	mov	DWORD PTR [ecx+144], 0

; 156  : 
; 157  :             bMonitoringFileChanges = false;

	mov	edx, DWORD PTR _this$[ebp]
	mov	BYTE PTR [edx+141], 0
$LN8@UpdateCurr:

; 158  :         }
; 159  : 
; 160  :         if(mode == 0)

	mov	eax, DWORD PTR _this$[ebp]
	cmp	DWORD PTR [eax+28], 0
	jne	SHORT $LN7@UpdateCurr

; 161  :             strCurrentText = strText;

	mov	ecx, DWORD PTR _this$[ebp]
	add	ecx, 32					; 00000020H
	push	ecx
	mov	ecx, DWORD PTR _this$[ebp]
	add	ecx, 8
	call	DWORD PTR __imp_??4String@@QAEAAV0@ABV0@@Z
	jmp	$LN9@UpdateCurr
$LN7@UpdateCurr:

; 162  : 
; 163  :         else if(mode == 1 && strFile.IsValid())

	mov	edx, DWORD PTR _this$[ebp]
	cmp	DWORD PTR [edx+28], 1
	jne	$LN5@UpdateCurr
	mov	ecx, DWORD PTR _this$[ebp]
	add	ecx, 40					; 00000028H
	call	DWORD PTR __imp_?IsValid@String@@QBEHXZ
	test	eax, eax
	je	$LN5@UpdateCurr

; 164  :         {
; 165  :             XFile textFile;

	lea	ecx, DWORD PTR _textFile$1[ebp]
	call	DWORD PTR __imp_??0XFile@@QAE@XZ

; 166  :             if(textFile.Open(strFile, XFILE_READ | XFILE_SHARED, XFILE_OPENEXISTING))

	push	3
	push	5
	mov	ecx, DWORD PTR _this$[ebp]
	add	ecx, 40					; 00000028H
	call	DWORD PTR __imp_??BString@@QBEPA_WXZ
	push	eax
	lea	ecx, DWORD PTR _textFile$1[ebp]
	call	DWORD PTR __imp_?Open@XFile@@QAEHPB_WKK@Z
	test	eax, eax
	je	SHORT $LN4@UpdateCurr

; 167  :             {
; 168  :                 textFile.ReadFileToString(strCurrentText);

	mov	eax, DWORD PTR _this$[ebp]
	add	eax, 8
	push	eax
	lea	ecx, DWORD PTR _textFile$1[ebp]
	call	DWORD PTR __imp_?ReadFileToString@XFile@@QAEXAAVString@@@Z

; 169  :             }
; 170  :             else

	jmp	SHORT $LN3@UpdateCurr
$LN4@UpdateCurr:

; 171  :             {
; 172  :                 strCurrentText = TEXT("");

	push	OFFSET ??_C@_11LOCGONAA@?$AA?$AA@
	mov	ecx, DWORD PTR _this$[ebp]
	add	ecx, 8
	call	DWORD PTR __imp_??4String@@QAEAAV0@PB_W@Z

; 173  :                 AppWarning(TEXT("TextSource::UpdateTexture: could not open specified file (invalid file name or access violation)"));

	push	OFFSET ??_C@_1MC@FLMNODJI@?$AAT?$AAe?$AAx?$AAt?$AAS?$AAo?$AAu?$AAr?$AAc?$AAe?$AA?3?$AA?3?$AAU?$AAp?$AAd?$AAa?$AAt?$AAe?$AAT?$AAe?$AAx?$AAt?$AAu?$AAr?$AAe?$AA?3?$AA?5?$AAc?$AAo?$AAu?$AAl?$AAd@
	call	DWORD PTR __imp_?AppWarning@@YAXPB_WZZ
	add	esp, 4
$LN3@UpdateCurr:

; 174  :             }
; 175  : 
; 176  :             if (fileChangeMonitor = OSMonitorFileStart (strFile))

	push	0
	mov	ecx, DWORD PTR _this$[ebp]
	add	ecx, 40					; 00000028H
	sub	esp, 8
	mov	edx, esp
	push	ecx
	mov	ecx, edx
	call	DWORD PTR __imp_??0String@@QAE@ABV0@@Z
	call	DWORD PTR __imp_?OSMonitorFileStart@@YGPAUOSFileChangeData@@VString@@_N@Z
	mov	DWORD PTR tv135[ebp], eax
	mov	eax, DWORD PTR _this$[ebp]
	mov	ecx, DWORD PTR tv135[ebp]
	mov	DWORD PTR [eax+144], ecx
	cmp	DWORD PTR tv135[ebp], 0
	je	SHORT $LN2@UpdateCurr

; 177  :                 bMonitoringFileChanges = true;

	mov	edx, DWORD PTR _this$[ebp]
	mov	BYTE PTR [edx+141], 1
$LN2@UpdateCurr:

; 178  :         }

	lea	ecx, DWORD PTR _textFile$1[ebp]
	call	DWORD PTR __imp_??1XFile@@QAE@XZ

; 179  :         else

	jmp	SHORT $LN9@UpdateCurr
$LN5@UpdateCurr:

; 180  :             strCurrentText = TEXT("");

	push	OFFSET ??_C@_11LOCGONAA@?$AA?$AA@
	mov	ecx, DWORD PTR _this$[ebp]
	add	ecx, 8
	call	DWORD PTR __imp_??4String@@QAEAAV0@PB_W@Z
$LN9@UpdateCurr:

; 181  :     }

	mov	esp, ebp
	pop	ebp
	ret	0
?UpdateCurrentText@TextOutputSource@@AAEXXZ ENDP	; TextOutputSource::UpdateCurrentText
_TEXT	ENDS
; Function compile flags: /Odtp
; File f:\songmm_moon_stone_obs\obs\source\textoutputsource.cpp
;	COMDAT ?SetStringFormat@TextOutputSource@@AAEXAAVStringFormat@Gdiplus@@@Z
_TEXT	SEGMENT
tv79 = -12						; size = 4
_formatFlags$ = -8					; size = 4
_this$ = -4						; size = 4
_format$ = 8						; size = 4
?SetStringFormat@TextOutputSource@@AAEXAAVStringFormat@Gdiplus@@@Z PROC ; TextOutputSource::SetStringFormat, COMDAT
; _this$ = ecx

; 184  :     {

	push	ebp
	mov	ebp, esp
	sub	esp, 12					; 0000000cH
	mov	DWORD PTR _this$[ebp], ecx

; 185  :         UINT formatFlags;
; 186  : 
; 187  :         formatFlags = Gdiplus::StringFormatFlagsNoFitBlackBox
; 188  :                     | Gdiplus::StringFormatFlagsMeasureTrailingSpaces;

	mov	DWORD PTR _formatFlags$[ebp], 2052	; 00000804H

; 189  : 
; 190  : 
; 191  :         if(bVertical)

	mov	eax, DWORD PTR _this$[ebp]
	movzx	ecx, BYTE PTR [eax+79]
	test	ecx, ecx
	je	SHORT $LN17@SetStringF

; 192  :             formatFlags |= Gdiplus::StringFormatFlagsDirectionVertical
; 193  :                          | Gdiplus::StringFormatFlagsDirectionRightToLeft;

	mov	edx, DWORD PTR _formatFlags$[ebp]
	or	edx, 3
	mov	DWORD PTR _formatFlags$[ebp], edx
$LN17@SetStringF:

; 194  : 
; 195  :         format.SetFormatFlags(formatFlags);

	mov	eax, DWORD PTR _formatFlags$[ebp]
	push	eax
	mov	ecx, DWORD PTR _format$[ebp]
	call	?SetFormatFlags@StringFormat@Gdiplus@@QAE?AW4Status@2@H@Z ; Gdiplus::StringFormat::SetFormatFlags

; 196  :         format.SetTrimming(Gdiplus::StringTrimmingWord);

	push	2
	mov	ecx, DWORD PTR _format$[ebp]
	call	?SetTrimming@StringFormat@Gdiplus@@QAE?AW4Status@2@W4StringTrimming@2@@Z ; Gdiplus::StringFormat::SetTrimming

; 197  : 
; 198  :         if(bUseExtents && bWrap)

	mov	ecx, DWORD PTR _this$[ebp]
	movzx	edx, BYTE PTR [ecx+104]
	test	edx, edx
	je	$LN16@SetStringF
	mov	eax, DWORD PTR _this$[ebp]
	movzx	ecx, BYTE PTR [eax+116]
	test	ecx, ecx
	je	$LN16@SetStringF

; 199  :             switch(align)

	mov	edx, DWORD PTR _this$[ebp]
	mov	eax, DWORD PTR [edx+120]
	mov	DWORD PTR tv79[ebp], eax
	cmp	DWORD PTR tv79[ebp], 0
	je	SHORT $LN13@SetStringF
	cmp	DWORD PTR tv79[ebp], 1
	je	SHORT $LN10@SetStringF
	cmp	DWORD PTR tv79[ebp], 2
	je	SHORT $LN7@SetStringF
	jmp	SHORT $LN14@SetStringF
$LN13@SetStringF:

; 200  :             {
; 201  :                 case 0:
; 202  :                     if(bVertical)

	mov	ecx, DWORD PTR _this$[ebp]
	movzx	edx, BYTE PTR [ecx+79]
	test	edx, edx
	je	SHORT $LN12@SetStringF

; 203  :                         format.SetLineAlignment(Gdiplus::StringAlignmentFar);

	push	2
	mov	ecx, DWORD PTR _format$[ebp]
	call	?SetLineAlignment@StringFormat@Gdiplus@@QAE?AW4Status@2@W4StringAlignment@2@@Z ; Gdiplus::StringFormat::SetLineAlignment

; 204  :                     else

	jmp	SHORT $LN11@SetStringF
$LN12@SetStringF:

; 205  :                         format.SetAlignment(Gdiplus::StringAlignmentNear);

	push	0
	mov	ecx, DWORD PTR _format$[ebp]
	call	?SetAlignment@StringFormat@Gdiplus@@QAE?AW4Status@2@W4StringAlignment@2@@Z ; Gdiplus::StringFormat::SetAlignment
$LN11@SetStringF:

; 206  :                     break;

	jmp	SHORT $LN14@SetStringF
$LN10@SetStringF:

; 207  :                 case 1:
; 208  :                     if(bVertical)

	mov	eax, DWORD PTR _this$[ebp]
	movzx	ecx, BYTE PTR [eax+79]
	test	ecx, ecx
	je	SHORT $LN9@SetStringF

; 209  :                         format.SetLineAlignment(Gdiplus::StringAlignmentCenter);

	push	1
	mov	ecx, DWORD PTR _format$[ebp]
	call	?SetLineAlignment@StringFormat@Gdiplus@@QAE?AW4Status@2@W4StringAlignment@2@@Z ; Gdiplus::StringFormat::SetLineAlignment

; 210  :                     else

	jmp	SHORT $LN8@SetStringF
$LN9@SetStringF:

; 211  :                         format.SetAlignment(Gdiplus::StringAlignmentCenter);

	push	1
	mov	ecx, DWORD PTR _format$[ebp]
	call	?SetAlignment@StringFormat@Gdiplus@@QAE?AW4Status@2@W4StringAlignment@2@@Z ; Gdiplus::StringFormat::SetAlignment
$LN8@SetStringF:

; 212  :                     break;

	jmp	SHORT $LN14@SetStringF
$LN7@SetStringF:

; 213  :                 case 2:
; 214  :                     if(bVertical)

	mov	edx, DWORD PTR _this$[ebp]
	movzx	eax, BYTE PTR [edx+79]
	test	eax, eax
	je	SHORT $LN6@SetStringF

; 215  :                         format.SetLineAlignment(Gdiplus::StringAlignmentNear);

	push	0
	mov	ecx, DWORD PTR _format$[ebp]
	call	?SetLineAlignment@StringFormat@Gdiplus@@QAE?AW4Status@2@W4StringAlignment@2@@Z ; Gdiplus::StringFormat::SetLineAlignment

; 216  :                     else

	jmp	SHORT $LN14@SetStringF
$LN6@SetStringF:

; 217  :                         format.SetAlignment(Gdiplus::StringAlignmentFar);

	push	2
	mov	ecx, DWORD PTR _format$[ebp]
	call	?SetAlignment@StringFormat@Gdiplus@@QAE?AW4Status@2@W4StringAlignment@2@@Z ; Gdiplus::StringFormat::SetAlignment
$LN14@SetStringF:

; 218  :                     break;
; 219  :             }
; 220  :         else if(bUseExtents && bVertical && !bWrap)

	jmp	SHORT $LN18@SetStringF
$LN16@SetStringF:
	mov	ecx, DWORD PTR _this$[ebp]
	movzx	edx, BYTE PTR [ecx+104]
	test	edx, edx
	je	SHORT $LN3@SetStringF
	mov	eax, DWORD PTR _this$[ebp]
	movzx	ecx, BYTE PTR [eax+79]
	test	ecx, ecx
	je	SHORT $LN3@SetStringF
	mov	edx, DWORD PTR _this$[ebp]
	movzx	eax, BYTE PTR [edx+116]
	test	eax, eax
	jne	SHORT $LN3@SetStringF

; 221  :                 format.SetLineAlignment(Gdiplus::StringAlignmentFar);

	push	2
	mov	ecx, DWORD PTR _format$[ebp]
	call	?SetLineAlignment@StringFormat@Gdiplus@@QAE?AW4Status@2@W4StringAlignment@2@@Z ; Gdiplus::StringFormat::SetLineAlignment
	jmp	SHORT $LN18@SetStringF
$LN3@SetStringF:

; 222  :         else if(bVertical)

	mov	ecx, DWORD PTR _this$[ebp]
	movzx	edx, BYTE PTR [ecx+79]
	test	edx, edx
	je	SHORT $LN18@SetStringF

; 223  :                 format.SetLineAlignment(Gdiplus::StringAlignmentFar);

	push	2
	mov	ecx, DWORD PTR _format$[ebp]
	call	?SetLineAlignment@StringFormat@Gdiplus@@QAE?AW4Status@2@W4StringAlignment@2@@Z ; Gdiplus::StringFormat::SetLineAlignment
$LN18@SetStringF:

; 224  : 
; 225  :     }

	mov	esp, ebp
	pop	ebp
	ret	4
?SetStringFormat@TextOutputSource@@AAEXAAVStringFormat@Gdiplus@@@Z ENDP ; TextOutputSource::SetStringFormat
_TEXT	ENDS
; Function compile flags: /Odtp
; File f:\songmm_moon_stone_obs\obs\source\textoutputsource.cpp
;	COMDAT ?ProcessScrollMode@TextOutputSource@@AAEMPAVGraphics@Gdiplus@@PAVFont@3@AAVRectF@3@PAVStringFormat@3@@Z
_TEXT	SEGMENT
_l2$ = -60						; size = 16
_boundingBox$ = -44					; size = 16
_strList$ = -28						; size = 8
$T1 = -20						; size = 4
$T2 = -16						; size = 4
_offset$ = -12						; size = 4
_i$3 = -8						; size = 4
_this$ = -4						; size = 4
_graphics$ = 8						; size = 4
_font$ = 12						; size = 4
_layoutBox$ = 16					; size = 4
_format$ = 20						; size = 4
?ProcessScrollMode@TextOutputSource@@AAEMPAVGraphics@Gdiplus@@PAVFont@3@AAVRectF@3@PAVStringFormat@3@@Z PROC ; TextOutputSource::ProcessScrollMode, COMDAT
; _this$ = ecx

; 228  :     {

	push	ebp
	mov	ebp, esp
	sub	esp, 60					; 0000003cH
	mov	DWORD PTR _this$[ebp], ecx

; 229  :         StringList strList;

	lea	ecx, DWORD PTR _strList$[ebp]
	call	DWORD PTR __imp_??0StringList@@QAE@XZ

; 230  :         Gdiplus::RectF boundingBox;

	lea	ecx, DWORD PTR _boundingBox$[ebp]
	call	??0RectF@Gdiplus@@QAE@XZ		; Gdiplus::RectF::RectF

; 231  :         
; 232  :         float offset = layoutBox.Height;

	mov	eax, DWORD PTR _layoutBox$[ebp]
	movss	xmm0, DWORD PTR [eax+12]
	movss	DWORD PTR _offset$[ebp], xmm0

; 233  : 
; 234  :         Gdiplus::RectF l2(0.0f ,0.0f , layoutBox.Width, 32000.0f); // Really, it needs to be OVER9000

	push	ecx
	movss	xmm0, DWORD PTR __real@46fa0000
	movss	DWORD PTR [esp], xmm0
	mov	ecx, DWORD PTR _layoutBox$[ebp]
	push	ecx
	movss	xmm0, DWORD PTR [ecx+8]
	movss	DWORD PTR [esp], xmm0
	push	ecx
	movss	xmm0, DWORD PTR __real@00000000
	movss	DWORD PTR [esp], xmm0
	push	ecx
	movss	xmm0, DWORD PTR __real@00000000
	movss	DWORD PTR [esp], xmm0
	lea	ecx, DWORD PTR _l2$[ebp]
	call	??0RectF@Gdiplus@@QAE@MMMM@Z		; Gdiplus::RectF::RectF

; 235  : 
; 236  :         strCurrentText.FindReplace(L"\n\r", L"\n");

	push	OFFSET ??_C@_13LBAGMAIH@?$AA?6?$AA?$AA@
	push	OFFSET ??_C@_15BNMMKFOH@?$AA?6?$AA?$AN?$AA?$AA@
	mov	ecx, DWORD PTR _this$[ebp]
	add	ecx, 8
	call	DWORD PTR __imp_?FindReplace@String@@QAEAAV1@PB_W0@Z

; 237  :         strCurrentText.GetTokenList(strList,'\n');

	push	1
	push	10					; 0000000aH
	lea	edx, DWORD PTR _strList$[ebp]
	push	edx
	mov	ecx, DWORD PTR _this$[ebp]
	add	ecx, 8
	call	DWORD PTR __imp_?GetTokenList@String@@QBEXAAVStringList@@_WH@Z

; 238  : 
; 239  :         if(strList.Num() != 0)

	lea	ecx, DWORD PTR _strList$[ebp]
	call	DWORD PTR __imp_?Num@?$List@VString@@@@QBEIXZ
	test	eax, eax
	je	SHORT $LN7@ProcessScr

; 240  :             strCurrentText.Clear();

	mov	ecx, DWORD PTR _this$[ebp]
	add	ecx, 8
	call	DWORD PTR __imp_?Clear@String@@QAEAAV1@XZ

; 241  :         else 

	jmp	SHORT $LN6@ProcessScr
$LN7@ProcessScr:

; 242  :             return 0.0f;

	movss	xmm0, DWORD PTR __real@00000000
	movss	DWORD PTR $T2[ebp], xmm0
	lea	ecx, DWORD PTR _strList$[ebp]
	call	DWORD PTR __imp_??1StringList@@QAE@XZ
	fld	DWORD PTR $T2[ebp]
	jmp	$LN8@ProcessScr
$LN6@ProcessScr:

; 243  : 
; 244  :         for(int i = strList.Num() - 1; i >= 0; i--)

	lea	ecx, DWORD PTR _strList$[ebp]
	call	DWORD PTR __imp_?Num@?$List@VString@@@@QBEIXZ
	sub	eax, 1
	mov	DWORD PTR _i$3[ebp], eax
	jmp	SHORT $LN5@ProcessScr
$LN4@ProcessScr:
	mov	eax, DWORD PTR _i$3[ebp]
	sub	eax, 1
	mov	DWORD PTR _i$3[ebp], eax
$LN5@ProcessScr:
	cmp	DWORD PTR _i$3[ebp], 0
	jl	$LN3@ProcessScr

; 245  :         {
; 246  :             strCurrentText.InsertString(0, TEXT("\n"));

	push	OFFSET ??_C@_13LBAGMAIH@?$AA?6?$AA?$AA@
	push	0
	mov	ecx, DWORD PTR _this$[ebp]
	add	ecx, 8
	call	DWORD PTR __imp_?InsertString@String@@QAEXIPB_W@Z

; 247  :             strCurrentText.InsertString(0, strList.GetElement((unsigned int)i).Array());

	mov	ecx, DWORD PTR _i$3[ebp]
	push	ecx
	lea	ecx, DWORD PTR _strList$[ebp]
	call	DWORD PTR __imp_?GetElement@?$List@VString@@@@QAEAAVString@@I@Z
	mov	ecx, eax
	call	DWORD PTR __imp_?Array@String@@QBEPA_WXZ
	push	eax
	push	0
	mov	ecx, DWORD PTR _this$[ebp]
	add	ecx, 8
	call	DWORD PTR __imp_?InsertString@String@@QAEXIPB_W@Z

; 248  : 
; 249  :             if(strCurrentText.IsValid())

	mov	ecx, DWORD PTR _this$[ebp]
	add	ecx, 8
	call	DWORD PTR __imp_?IsValid@String@@QBEHXZ
	test	eax, eax
	je	SHORT $LN2@ProcessScr

; 250  :             {
; 251  :                 graphics->MeasureString(strCurrentText, -1, font, l2, &boundingBox);

	lea	edx, DWORD PTR _boundingBox$[ebp]
	push	edx
	lea	eax, DWORD PTR _l2$[ebp]
	push	eax
	mov	ecx, DWORD PTR _font$[ebp]
	push	ecx
	push	-1
	mov	ecx, DWORD PTR _this$[ebp]
	add	ecx, 8
	call	DWORD PTR __imp_??BString@@QBEPA_WXZ
	push	eax
	mov	ecx, DWORD PTR _graphics$[ebp]
	call	?MeasureString@Graphics@Gdiplus@@QBE?AW4Status@2@PB_WHPBVFont@2@ABVRectF@2@PAV52@@Z ; Gdiplus::Graphics::MeasureString

; 252  :                 offset = layoutBox.Height - boundingBox.Height;

	mov	edx, DWORD PTR _layoutBox$[ebp]
	movss	xmm0, DWORD PTR [edx+12]
	subss	xmm0, DWORD PTR _boundingBox$[ebp+12]
	movss	DWORD PTR _offset$[ebp], xmm0
$LN2@ProcessScr:

; 253  :             }
; 254  :             
; 255  :             if(offset < 0)

	movss	xmm0, DWORD PTR __real@00000000
	comiss	xmm0, DWORD PTR _offset$[ebp]
	jbe	SHORT $LN1@ProcessScr

; 256  :                 break;

	jmp	SHORT $LN3@ProcessScr
$LN1@ProcessScr:

; 257  :         }

	jmp	$LN4@ProcessScr
$LN3@ProcessScr:

; 258  : 
; 259  :         return offset;

	movss	xmm0, DWORD PTR _offset$[ebp]
	movss	DWORD PTR $T1[ebp], xmm0
	lea	ecx, DWORD PTR _strList$[ebp]
	call	DWORD PTR __imp_??1StringList@@QAE@XZ
	fld	DWORD PTR $T1[ebp]
$LN8@ProcessScr:

; 260  :     }

	mov	esp, ebp
	pop	ebp
	ret	16					; 00000010H
?ProcessScrollMode@TextOutputSource@@AAEMPAVGraphics@Gdiplus@@PAVFont@3@AAVRectF@3@PAVStringFormat@3@@Z ENDP ; TextOutputSource::ProcessScrollMode
_TEXT	ENDS
; Function compile flags: /Odtp
; File f:\songmm_moon_stone_obs\obs\source\textoutputsource.cpp
;	COMDAT ?UpdateTexture@TextOutputSource@@AAEXXZ
_TEXT	SEGMENT
$T1 = -336						; size = 8
_bmp$2 = -328						; size = 16
$T3 = -312						; size = 4
tv632 = -308						; size = 8
$T4 = -300						; size = 4
tv622 = -296						; size = 8
$T5 = -288						; size = 4
$T6 = -284						; size = 4
tv503 = -280						; size = 4
$T7 = -276						; size = 4
$T8 = -272						; size = 4
tv213 = -268						; size = 4
tv528 = -264						; size = 4
tv508 = -260						; size = 4
_fontFamily$9 = -256					; size = 8
_hBitmap$10 = -248					; size = 4
_path$11 = -244						; size = 8
$T12 = -236						; size = 4
tv411 = -232						; size = 4
$T13 = -228						; size = 4
$T14 = -224						; size = 4
$T15 = -220						; size = 4
tv393 = -216						; size = 4
_strLength$16 = -212					; size = 4
$T17 = -208						; size = 4
tv628 = -204						; size = 4
tv364 = -200						; size = 4
tv618 = -196						; size = 4
_bkBrush$18 = -192					; size = 4
tv94 = -188						; size = 4
$T19 = -184						; size = 4
tv328 = -180						; size = 4
tv344 = -176						; size = 4
_hTempDC$20 = -172					; size = 4
$T21 = -168						; size = 4
$T22 = -164						; size = 4
$T23 = -160						; size = 4
_layoutBox$ = -156					; size = 16
$T24 = -140						; size = 4
$T25 = -136						; size = 4
_bkColor$26 = -132					; size = 4
$T27 = -128						; size = 4
_lpBits$28 = -124					; size = 4
_offset$ = -120						; size = 4
_brush$29 = -116					; size = 4
_format$ = -112						; size = 8
_hdc$ = -104						; size = 4
_font$ = -100						; size = 8
_hFont$ = -92						; size = 4
_bih$30 = -88						; size = 4
_boundingBox$ = -84					; size = 16
_stat$ = -68						; size = 4
_graphics$ = -64					; size = 4
_textSize$ = -60					; size = 8
_this$ = -52						; size = 4
_bi$31 = -48						; size = 44
__$ArrayPad$ = -4					; size = 4
?UpdateTexture@TextOutputSource@@AAEXXZ PROC		; TextOutputSource::UpdateTexture, COMDAT
; _this$ = ecx

; 263  :     {

	push	ebp
	mov	ebp, esp
	sub	esp, 336				; 00000150H
	mov	eax, DWORD PTR ___security_cookie
	xor	eax, ebp
	mov	DWORD PTR __$ArrayPad$[ebp], eax
	mov	DWORD PTR _this$[ebp], ecx

; 264  :         HFONT hFont;
; 265  :         Gdiplus::Status stat;
; 266  :         Gdiplus::RectF layoutBox;

	lea	ecx, DWORD PTR _layoutBox$[ebp]
	call	??0RectF@Gdiplus@@QAE@XZ		; Gdiplus::RectF::RectF

; 267  :         SIZE textSize;
; 268  :         float offset;
; 269  : 
; 270  :         Gdiplus::RectF boundingBox(0.0f, 0.0f, 32.0f, 32.0f);

	push	ecx
	movss	xmm0, DWORD PTR __real@42000000
	movss	DWORD PTR [esp], xmm0
	push	ecx
	movss	xmm0, DWORD PTR __real@42000000
	movss	DWORD PTR [esp], xmm0
	push	ecx
	movss	xmm0, DWORD PTR __real@00000000
	movss	DWORD PTR [esp], xmm0
	push	ecx
	movss	xmm0, DWORD PTR __real@00000000
	movss	DWORD PTR [esp], xmm0
	lea	ecx, DWORD PTR _boundingBox$[ebp]
	call	??0RectF@Gdiplus@@QAE@MMMM@Z		; Gdiplus::RectF::RectF

; 271  : 
; 272  :         UpdateCurrentText();

	mov	ecx, DWORD PTR _this$[ebp]
	call	?UpdateCurrentText@TextOutputSource@@AAEXXZ ; TextOutputSource::UpdateCurrentText

; 273  : 
; 274  :         hFont = GetFont();

	mov	ecx, DWORD PTR _this$[ebp]
	call	?GetFont@TextOutputSource@@AAEPAUHFONT__@@XZ ; TextOutputSource::GetFont
	mov	DWORD PTR _hFont$[ebp], eax

; 275  :         if(!hFont)

	cmp	DWORD PTR _hFont$[ebp], 0
	jne	SHORT $LN45@UpdateText

; 276  :             return;

	jmp	$LN46@UpdateText
$LN45@UpdateText:

; 277  : 
; 278  :         Gdiplus::StringFormat format(Gdiplus::StringFormat::GenericTypographic());

	call	?GenericTypographic@StringFormat@Gdiplus@@SAPBV12@XZ ; Gdiplus::StringFormat::GenericTypographic
	push	eax
	lea	ecx, DWORD PTR _format$[ebp]
	call	??0StringFormat@Gdiplus@@QAE@PBV01@@Z	; Gdiplus::StringFormat::StringFormat

; 279  : 
; 280  :         SetStringFormat(format);

	lea	eax, DWORD PTR _format$[ebp]
	push	eax
	mov	ecx, DWORD PTR _this$[ebp]
	call	?SetStringFormat@TextOutputSource@@AAEXAAVStringFormat@Gdiplus@@@Z ; TextOutputSource::SetStringFormat

; 281  : 
; 282  :         HDC hdc = CreateCompatibleDC(NULL);

	push	0
	call	DWORD PTR __imp__CreateCompatibleDC@4
	mov	DWORD PTR _hdc$[ebp], eax

; 283  : 
; 284  :         Gdiplus::Font font(hdc, hFont);

	mov	ecx, DWORD PTR _hFont$[ebp]
	push	ecx
	mov	edx, DWORD PTR _hdc$[ebp]
	push	edx
	lea	ecx, DWORD PTR _font$[ebp]
	call	??0Font@Gdiplus@@QAE@PAUHDC__@@QAUHFONT__@@@Z ; Gdiplus::Font::Font

; 285  :         Gdiplus::Graphics *graphics = new Gdiplus::Graphics(hdc);

	push	8
	call	??2GdiplusBase@Gdiplus@@SAPAXI@Z	; Gdiplus::GdiplusBase::operator new
	add	esp, 4
	mov	DWORD PTR $T22[ebp], eax
	cmp	DWORD PTR $T22[ebp], 0
	je	SHORT $LN48@UpdateText
	mov	eax, DWORD PTR _hdc$[ebp]
	push	eax
	mov	ecx, DWORD PTR $T22[ebp]
	call	??0Graphics@Gdiplus@@QAE@PAUHDC__@@@Z	; Gdiplus::Graphics::Graphics
	mov	DWORD PTR tv94[ebp], eax
	jmp	SHORT $LN49@UpdateText
$LN48@UpdateText:
	mov	DWORD PTR tv94[ebp], 0
$LN49@UpdateText:
	mov	ecx, DWORD PTR tv94[ebp]
	mov	DWORD PTR _graphics$[ebp], ecx

; 286  : 
; 287  :         graphics->SetTextRenderingHint(Gdiplus::TextRenderingHintAntiAlias);

	push	4
	mov	ecx, DWORD PTR _graphics$[ebp]
	call	?SetTextRenderingHint@Graphics@Gdiplus@@QAE?AW4Status@2@W4TextRenderingHint@2@@Z ; Gdiplus::Graphics::SetTextRenderingHint

; 288  : 
; 289  :         if(strCurrentText.IsValid())

	mov	ecx, DWORD PTR _this$[ebp]
	add	ecx, 8
	call	DWORD PTR __imp_?IsValid@String@@QBEHXZ
	test	eax, eax
	je	$LN35@UpdateText

; 290  :         {
; 291  :             // Apparently, \0 is not always a zero-width character?
; 292  :             // Not including it as part of the string measurement may cut off the final word
; 293  :             // on the line when using certain fonts together with outlines and wrapping.
; 294  :             INT strLength = strCurrentText.Length() + 1;

	mov	ecx, DWORD PTR _this$[ebp]
	add	ecx, 8
	call	DWORD PTR __imp_?Length@String@@QBEIXZ
	add	eax, 1
	mov	DWORD PTR _strLength$16[ebp], eax

; 295  :             if(bUseExtents && bWrap)

	mov	edx, DWORD PTR _this$[ebp]
	movzx	eax, BYTE PTR [edx+104]
	test	eax, eax
	je	$LN43@UpdateText
	mov	ecx, DWORD PTR _this$[ebp]
	movzx	edx, BYTE PTR [ecx+116]
	test	edx, edx
	je	$LN43@UpdateText

; 296  :             {
; 297  :                 layoutBox.X = layoutBox.Y = 0;

	movss	xmm0, DWORD PTR __real@00000000
	movss	DWORD PTR _layoutBox$[ebp+4], xmm0
	movss	xmm0, DWORD PTR _layoutBox$[ebp+4]
	movss	DWORD PTR _layoutBox$[ebp], xmm0

; 298  :                 layoutBox.Width  = float(extentWidth);

	mov	eax, DWORD PTR _this$[ebp]
	mov	ecx, DWORD PTR [eax+108]
	mov	DWORD PTR tv618[ebp], ecx
	cvtsi2sd xmm0, DWORD PTR tv618[ebp]
	mov	edx, DWORD PTR tv618[ebp]
	shr	edx, 31					; 0000001fH
	addsd	xmm0, QWORD PTR __xmm@41f00000000000000000000000000000[edx*8]
	movsd	QWORD PTR tv622[ebp], xmm0
	cvtsd2ss xmm0, QWORD PTR tv622[ebp]
	movss	DWORD PTR _layoutBox$[ebp+8], xmm0

; 299  :                 layoutBox.Height = float(extentHeight);

	mov	eax, DWORD PTR _this$[ebp]
	mov	ecx, DWORD PTR [eax+112]
	mov	DWORD PTR tv628[ebp], ecx
	cvtsi2sd xmm0, DWORD PTR tv628[ebp]
	mov	edx, DWORD PTR tv628[ebp]
	shr	edx, 31					; 0000001fH
	addsd	xmm0, QWORD PTR __xmm@41f00000000000000000000000000000[edx*8]
	movsd	QWORD PTR tv632[ebp], xmm0
	cvtsd2ss xmm0, QWORD PTR tv632[ebp]
	movss	DWORD PTR _layoutBox$[ebp+12], xmm0

; 300  : 
; 301  :                 if(bUseOutline)

	mov	eax, DWORD PTR _this$[ebp]
	movzx	ecx, BYTE PTR [eax+88]
	test	ecx, ecx
	je	SHORT $LN42@UpdateText

; 302  :                 {
; 303  :                     //Note: since there's no path widening in DrawOutlineText the padding is half than what it was supposed to be.
; 304  :                     layoutBox.Width  -= outlineSize;

	mov	edx, DWORD PTR _this$[ebp]
	movss	xmm0, DWORD PTR _layoutBox$[ebp+8]
	subss	xmm0, DWORD PTR [edx+92]
	movss	DWORD PTR _layoutBox$[ebp+8], xmm0

; 305  :                     layoutBox.Height -= outlineSize;

	mov	eax, DWORD PTR _this$[ebp]
	movss	xmm0, DWORD PTR _layoutBox$[ebp+12]
	subss	xmm0, DWORD PTR [eax+92]
	movss	DWORD PTR _layoutBox$[ebp+12], xmm0
$LN42@UpdateText:

; 306  :                 }
; 307  : 
; 308  :                 if(!bVertical && bScrollMode)

	mov	ecx, DWORD PTR _this$[ebp]
	movzx	edx, BYTE PTR [ecx+79]
	test	edx, edx
	jne	SHORT $LN41@UpdateText
	mov	eax, DWORD PTR _this$[ebp]
	movzx	ecx, BYTE PTR [eax+117]
	test	ecx, ecx
	je	SHORT $LN41@UpdateText

; 309  :                 {
; 310  :                     offset = ProcessScrollMode(graphics, &font, layoutBox, &format);

	lea	edx, DWORD PTR _format$[ebp]
	push	edx
	lea	eax, DWORD PTR _layoutBox$[ebp]
	push	eax
	lea	ecx, DWORD PTR _font$[ebp]
	push	ecx
	mov	edx, DWORD PTR _graphics$[ebp]
	push	edx
	mov	ecx, DWORD PTR _this$[ebp]
	call	?ProcessScrollMode@TextOutputSource@@AAEMPAVGraphics@Gdiplus@@PAVFont@3@AAVRectF@3@PAVStringFormat@3@@Z ; TextOutputSource::ProcessScrollMode
	fstp	DWORD PTR _offset$[ebp]

; 311  : 
; 312  :                     boundingBox = layoutBox;

	mov	eax, DWORD PTR _layoutBox$[ebp]
	mov	DWORD PTR _boundingBox$[ebp], eax
	mov	ecx, DWORD PTR _layoutBox$[ebp+4]
	mov	DWORD PTR _boundingBox$[ebp+4], ecx
	mov	edx, DWORD PTR _layoutBox$[ebp+8]
	mov	DWORD PTR _boundingBox$[ebp+8], edx
	mov	eax, DWORD PTR _layoutBox$[ebp+12]
	mov	DWORD PTR _boundingBox$[ebp+12], eax

; 313  :                     boundingBox.Y = offset;

	movss	xmm0, DWORD PTR _offset$[ebp]
	movss	DWORD PTR _boundingBox$[ebp+4], xmm0

; 314  :                     if(offset < 0)

	movss	xmm0, DWORD PTR __real@00000000
	comiss	xmm0, DWORD PTR _offset$[ebp]
	jbe	SHORT $LN40@UpdateText

; 315  :                         boundingBox.Height -= offset;

	movss	xmm0, DWORD PTR _boundingBox$[ebp+12]
	subss	xmm0, DWORD PTR _offset$[ebp]
	movss	DWORD PTR _boundingBox$[ebp+12], xmm0
$LN40@UpdateText:

; 316  :                 }
; 317  :                 else

	jmp	SHORT $LN38@UpdateText
$LN41@UpdateText:

; 318  :                 {
; 319  :                     stat = graphics->MeasureString(strCurrentText, strLength, &font, layoutBox, &format, &boundingBox);

	push	0
	push	0
	lea	ecx, DWORD PTR _boundingBox$[ebp]
	push	ecx
	lea	edx, DWORD PTR _format$[ebp]
	push	edx
	lea	eax, DWORD PTR _layoutBox$[ebp]
	push	eax
	lea	ecx, DWORD PTR _font$[ebp]
	push	ecx
	mov	edx, DWORD PTR _strLength$16[ebp]
	push	edx
	mov	ecx, DWORD PTR _this$[ebp]
	add	ecx, 8
	call	DWORD PTR __imp_??BString@@QBEPA_WXZ
	push	eax
	mov	ecx, DWORD PTR _graphics$[ebp]
	call	?MeasureString@Graphics@Gdiplus@@QBE?AW4Status@2@PB_WHPBVFont@2@ABVRectF@2@PBVStringFormat@2@PAV52@PAH5@Z ; Gdiplus::Graphics::MeasureString
	mov	DWORD PTR _stat$[ebp], eax

; 320  :                     if(stat != Gdiplus::Ok)

	cmp	DWORD PTR _stat$[ebp], 0
	je	SHORT $LN38@UpdateText

; 321  :                         AppWarning(TEXT("TextSource::UpdateTexture: Gdiplus::Graphics::MeasureString failed: %u"), (int)stat);

	mov	eax, DWORD PTR _stat$[ebp]
	push	eax
	push	OFFSET ??_C@_1IO@LNGIDPGF@?$AAT?$AAe?$AAx?$AAt?$AAS?$AAo?$AAu?$AAr?$AAc?$AAe?$AA?3?$AA?3?$AAU?$AAp?$AAd?$AAa?$AAt?$AAe?$AAT?$AAe?$AAx?$AAt?$AAu?$AAr?$AAe?$AA?3?$AA?5?$AAG?$AAd?$AAi?$AAp?$AAl@
	call	DWORD PTR __imp_?AppWarning@@YAXPB_WZZ
	add	esp, 8
$LN38@UpdateText:

; 322  :                 }
; 323  :             }
; 324  :             else

	jmp	$LN35@UpdateText
$LN43@UpdateText:

; 325  :             {
; 326  :                 stat = graphics->MeasureString(strCurrentText, strLength, &font, Gdiplus::PointF(0.0f, 0.0f), &format, &boundingBox);

	lea	ecx, DWORD PTR _boundingBox$[ebp]
	push	ecx
	lea	edx, DWORD PTR _format$[ebp]
	push	edx
	push	ecx
	movss	xmm0, DWORD PTR __real@00000000
	movss	DWORD PTR [esp], xmm0
	push	ecx
	movss	xmm0, DWORD PTR __real@00000000
	movss	DWORD PTR [esp], xmm0
	lea	ecx, DWORD PTR $T1[ebp]
	call	??0PointF@Gdiplus@@QAE@MM@Z		; Gdiplus::PointF::PointF
	push	eax
	lea	eax, DWORD PTR _font$[ebp]
	push	eax
	mov	ecx, DWORD PTR _strLength$16[ebp]
	push	ecx
	mov	ecx, DWORD PTR _this$[ebp]
	add	ecx, 8
	call	DWORD PTR __imp_??BString@@QBEPA_WXZ
	push	eax
	mov	ecx, DWORD PTR _graphics$[ebp]
	call	?MeasureString@Graphics@Gdiplus@@QBE?AW4Status@2@PB_WHPBVFont@2@ABVPointF@2@PBVStringFormat@2@PAVRectF@2@@Z ; Gdiplus::Graphics::MeasureString
	mov	DWORD PTR _stat$[ebp], eax

; 327  :                 if(stat != Gdiplus::Ok)

	cmp	DWORD PTR _stat$[ebp], 0
	je	SHORT $LN36@UpdateText

; 328  :                     AppWarning(TEXT("TextSource::UpdateTexture: Gdiplus::Graphics::MeasureString failed: %u"), (int)stat);

	mov	edx, DWORD PTR _stat$[ebp]
	push	edx
	push	OFFSET ??_C@_1IO@LNGIDPGF@?$AAT?$AAe?$AAx?$AAt?$AAS?$AAo?$AAu?$AAr?$AAc?$AAe?$AA?3?$AA?3?$AAU?$AAp?$AAd?$AAa?$AAt?$AAe?$AAT?$AAe?$AAx?$AAt?$AAu?$AAr?$AAe?$AA?3?$AA?5?$AAG?$AAd?$AAi?$AAp?$AAl@
	call	DWORD PTR __imp_?AppWarning@@YAXPB_WZZ
	add	esp, 8
$LN36@UpdateText:

; 329  :                 if(bUseOutline)

	mov	eax, DWORD PTR _this$[ebp]
	movzx	ecx, BYTE PTR [eax+88]
	test	ecx, ecx
	je	SHORT $LN35@UpdateText

; 330  :                 {
; 331  :                     //Note: since there's no path widening in DrawOutlineText the padding is half than what it was supposed to be.
; 332  :                     boundingBox.Width  += outlineSize;

	mov	edx, DWORD PTR _this$[ebp]
	movss	xmm0, DWORD PTR _boundingBox$[ebp+8]
	addss	xmm0, DWORD PTR [edx+92]
	movss	DWORD PTR _boundingBox$[ebp+8], xmm0

; 333  :                     boundingBox.Height += outlineSize;

	mov	eax, DWORD PTR _this$[ebp]
	movss	xmm0, DWORD PTR _boundingBox$[ebp+12]
	addss	xmm0, DWORD PTR [eax+92]
	movss	DWORD PTR _boundingBox$[ebp+12], xmm0
$LN35@UpdateText:

; 334  : 				}
; 335  : 			}
; 336  :         }
; 337  : 
; 338  :         delete graphics;

	mov	ecx, DWORD PTR _graphics$[ebp]
	mov	DWORD PTR $T12[ebp], ecx
	mov	edx, DWORD PTR $T12[ebp]
	mov	DWORD PTR $T15[ebp], edx
	cmp	DWORD PTR $T15[ebp], 0
	je	SHORT $LN50@UpdateText
	push	1
	mov	ecx, DWORD PTR $T15[ebp]
	call	??_GGraphics@Gdiplus@@QAEPAXI@Z
	mov	DWORD PTR tv213[ebp], eax
	jmp	SHORT $LN51@UpdateText
$LN50@UpdateText:
	mov	DWORD PTR tv213[ebp], 0
$LN51@UpdateText:

; 339  : 
; 340  :         DeleteDC(hdc);

	mov	eax, DWORD PTR _hdc$[ebp]
	push	eax
	call	DWORD PTR __imp__DeleteDC@4

; 341  :         hdc = NULL;

	mov	DWORD PTR _hdc$[ebp], 0

; 342  :         DeleteObject(hFont);

	mov	ecx, DWORD PTR _hFont$[ebp]
	push	ecx
	call	DWORD PTR __imp__DeleteObject@4

; 343  : 
; 344  :         if(bVertical)

	mov	edx, DWORD PTR _this$[ebp]
	movzx	eax, BYTE PTR [edx+79]
	test	eax, eax
	je	SHORT $LN34@UpdateText

; 345  :         {
; 346  :             if(boundingBox.Width<size)

	mov	ecx, DWORD PTR _this$[ebp]
	cvtsi2ss xmm0, DWORD PTR [ecx+56]
	comiss	xmm0, DWORD PTR _boundingBox$[ebp+8]
	jbe	SHORT $LN33@UpdateText

; 347  :             {
; 348  :                 textSize.cx = size;

	mov	edx, DWORD PTR _this$[ebp]
	mov	eax, DWORD PTR [edx+56]
	mov	DWORD PTR _textSize$[ebp], eax

; 349  :                 boundingBox.Width = float(size);

	mov	ecx, DWORD PTR _this$[ebp]
	cvtsi2ss xmm0, DWORD PTR [ecx+56]
	movss	DWORD PTR _boundingBox$[ebp+8], xmm0

; 350  :             }
; 351  :             else

	jmp	SHORT $LN32@UpdateText
$LN33@UpdateText:

; 352  :                 textSize.cx = LONG(boundingBox.Width + EPSILON);

	movss	xmm0, DWORD PTR _boundingBox$[ebp+8]
	addss	xmm0, DWORD PTR __real@38d1b717
	cvttss2si edx, xmm0
	mov	DWORD PTR _textSize$[ebp], edx
$LN32@UpdateText:

; 353  : 
; 354  :             textSize.cy = LONG(boundingBox.Height + EPSILON);

	movss	xmm0, DWORD PTR _boundingBox$[ebp+12]
	addss	xmm0, DWORD PTR __real@38d1b717
	cvttss2si eax, xmm0
	mov	DWORD PTR _textSize$[ebp+4], eax

; 355  :         }
; 356  :         else

	jmp	SHORT $LN31@UpdateText
$LN34@UpdateText:

; 357  :         {
; 358  :             if(boundingBox.Height<size)

	mov	ecx, DWORD PTR _this$[ebp]
	cvtsi2ss xmm0, DWORD PTR [ecx+56]
	comiss	xmm0, DWORD PTR _boundingBox$[ebp+12]
	jbe	SHORT $LN30@UpdateText

; 359  :             {
; 360  :                 textSize.cy = size;

	mov	edx, DWORD PTR _this$[ebp]
	mov	eax, DWORD PTR [edx+56]
	mov	DWORD PTR _textSize$[ebp+4], eax

; 361  :                 boundingBox.Height = float(size);

	mov	ecx, DWORD PTR _this$[ebp]
	cvtsi2ss xmm0, DWORD PTR [ecx+56]
	movss	DWORD PTR _boundingBox$[ebp+12], xmm0

; 362  :             }
; 363  :             else

	jmp	SHORT $LN29@UpdateText
$LN30@UpdateText:

; 364  :                 textSize.cy = LONG(boundingBox.Height + EPSILON);

	movss	xmm0, DWORD PTR _boundingBox$[ebp+12]
	addss	xmm0, DWORD PTR __real@38d1b717
	cvttss2si edx, xmm0
	mov	DWORD PTR _textSize$[ebp+4], edx
$LN29@UpdateText:

; 365  : 
; 366  :             textSize.cx = LONG(boundingBox.Width + EPSILON);

	movss	xmm0, DWORD PTR _boundingBox$[ebp+8]
	addss	xmm0, DWORD PTR __real@38d1b717
	cvttss2si eax, xmm0
	mov	DWORD PTR _textSize$[ebp], eax
$LN31@UpdateText:

; 367  :         }
; 368  : 
; 369  :         if(bUseExtents)

	mov	ecx, DWORD PTR _this$[ebp]
	movzx	edx, BYTE PTR [ecx+104]
	test	edx, edx
	je	SHORT $LN24@UpdateText

; 370  :         {
; 371  :             if(bWrap)

	mov	eax, DWORD PTR _this$[ebp]
	movzx	ecx, BYTE PTR [eax+116]
	test	ecx, ecx
	je	SHORT $LN27@UpdateText

; 372  :             {
; 373  :                 textSize.cx = extentWidth;

	mov	edx, DWORD PTR _this$[ebp]
	mov	eax, DWORD PTR [edx+108]
	mov	DWORD PTR _textSize$[ebp], eax

; 374  :                 textSize.cy = extentHeight;

	mov	ecx, DWORD PTR _this$[ebp]
	mov	edx, DWORD PTR [ecx+112]
	mov	DWORD PTR _textSize$[ebp+4], edx

; 375  :             }
; 376  :             else

	jmp	SHORT $LN24@UpdateText
$LN27@UpdateText:

; 377  :             {
; 378  :                 if(LONG(extentWidth) > textSize.cx)

	mov	eax, DWORD PTR _this$[ebp]
	mov	ecx, DWORD PTR [eax+108]
	cmp	ecx, DWORD PTR _textSize$[ebp]
	jle	SHORT $LN25@UpdateText

; 379  :                     textSize.cx = extentWidth;

	mov	edx, DWORD PTR _this$[ebp]
	mov	eax, DWORD PTR [edx+108]
	mov	DWORD PTR _textSize$[ebp], eax
$LN25@UpdateText:

; 380  :                 if(LONG(extentHeight) > textSize.cy)

	mov	ecx, DWORD PTR _this$[ebp]
	mov	edx, DWORD PTR [ecx+112]
	cmp	edx, DWORD PTR _textSize$[ebp+4]
	jle	SHORT $LN24@UpdateText

; 381  :                     textSize.cy = extentHeight;

	mov	eax, DWORD PTR _this$[ebp]
	mov	ecx, DWORD PTR [eax+112]
	mov	DWORD PTR _textSize$[ebp+4], ecx
$LN24@UpdateText:

; 382  :             }
; 383  :         }
; 384  : 
; 385  :         //textSize.cx &= 0xFFFFFFFE;
; 386  :         //textSize.cy &= 0xFFFFFFFE;
; 387  : 
; 388  :         textSize.cx += textSize.cx%2;

	mov	edx, DWORD PTR _textSize$[ebp]
	and	edx, -2147483647			; 80000001H
	jns	SHORT $LN68@UpdateText
	dec	edx
	or	edx, -2					; fffffffeH
	inc	edx
$LN68@UpdateText:
	add	edx, DWORD PTR _textSize$[ebp]
	mov	DWORD PTR _textSize$[ebp], edx

; 389  :         textSize.cy += textSize.cy%2;

	mov	eax, DWORD PTR _textSize$[ebp+4]
	and	eax, -2147483647			; 80000001H
	jns	SHORT $LN69@UpdateText
	dec	eax
	or	eax, -2					; fffffffeH
	inc	eax
$LN69@UpdateText:
	add	eax, DWORD PTR _textSize$[ebp+4]
	mov	DWORD PTR _textSize$[ebp+4], eax

; 390  : 
; 391  :         ClampVal(textSize.cx, MIN_TEX_SIZE_W, MAX_TEX_SIZE_W);

	cmp	DWORD PTR _textSize$[ebp], 32		; 00000020H
	jge	SHORT $LN23@UpdateText
	mov	DWORD PTR _textSize$[ebp], 32		; 00000020H
	jmp	SHORT $LN21@UpdateText
$LN23@UpdateText:
	cmp	DWORD PTR _textSize$[ebp], 8192		; 00002000H
	jle	SHORT $LN21@UpdateText
	mov	DWORD PTR _textSize$[ebp], 8192		; 00002000H
$LN21@UpdateText:

; 392  :         ClampVal(textSize.cy, MIN_TEX_SIZE_H, MAX_TEX_SIZE_H);

	cmp	DWORD PTR _textSize$[ebp+4], 32		; 00000020H
	jge	SHORT $LN20@UpdateText
	mov	DWORD PTR _textSize$[ebp+4], 32		; 00000020H
	jmp	SHORT $LN18@UpdateText
$LN20@UpdateText:
	cmp	DWORD PTR _textSize$[ebp+4], 8192	; 00002000H
	jle	SHORT $LN18@UpdateText
	mov	DWORD PTR _textSize$[ebp+4], 8192	; 00002000H
$LN18@UpdateText:

; 393  : 
; 394  :         //----------------------------------------------------------------------
; 395  :         // write image
; 396  : 
; 397  :         {
; 398  :             HDC hTempDC = CreateCompatibleDC(NULL);

	push	0
	call	DWORD PTR __imp__CreateCompatibleDC@4
	mov	DWORD PTR _hTempDC$20[ebp], eax

; 399  : 
; 400  :             BITMAPINFO bi;
; 401  :             zero(&bi, sizeof(bi));

	push	44					; 0000002cH
	lea	ecx, DWORD PTR _bi$31[ebp]
	push	ecx
	call	?zero@@YGXPAXI@Z			; zero

; 402  : 
; 403  :             void* lpBits;
; 404  : 
; 405  :             BITMAPINFOHEADER &bih = bi.bmiHeader;

	lea	edx, DWORD PTR _bi$31[ebp]
	mov	DWORD PTR _bih$30[ebp], edx

; 406  :             bih.biSize = sizeof(bih);

	mov	eax, DWORD PTR _bih$30[ebp]
	mov	DWORD PTR [eax], 40			; 00000028H

; 407  :             bih.biBitCount = 32;

	mov	ecx, 32					; 00000020H
	mov	edx, DWORD PTR _bih$30[ebp]
	mov	WORD PTR [edx+14], cx

; 408  :             bih.biWidth  = textSize.cx;

	mov	eax, DWORD PTR _bih$30[ebp]
	mov	ecx, DWORD PTR _textSize$[ebp]
	mov	DWORD PTR [eax+4], ecx

; 409  :             bih.biHeight = textSize.cy;

	mov	edx, DWORD PTR _bih$30[ebp]
	mov	eax, DWORD PTR _textSize$[ebp+4]
	mov	DWORD PTR [edx+8], eax

; 410  :             bih.biPlanes = 1;

	mov	ecx, 1
	mov	edx, DWORD PTR _bih$30[ebp]
	mov	WORD PTR [edx+12], cx

; 411  : 
; 412  :             HBITMAP hBitmap = CreateDIBSection(hTempDC, &bi, DIB_RGB_COLORS, &lpBits, NULL, 0);

	push	0
	push	0
	lea	eax, DWORD PTR _lpBits$28[ebp]
	push	eax
	push	0
	lea	ecx, DWORD PTR _bi$31[ebp]
	push	ecx
	mov	edx, DWORD PTR _hTempDC$20[ebp]
	push	edx
	call	DWORD PTR __imp__CreateDIBSection@24
	mov	DWORD PTR _hBitmap$10[ebp], eax

; 413  : 
; 414  :             Gdiplus::Bitmap      bmp(textSize.cx, textSize.cy, 4*textSize.cx, PixelFormat32bppARGB, (BYTE*)lpBits);

	mov	eax, DWORD PTR _lpBits$28[ebp]
	push	eax
	push	2498570					; 0026200aH
	mov	ecx, DWORD PTR _textSize$[ebp]
	shl	ecx, 2
	push	ecx
	mov	edx, DWORD PTR _textSize$[ebp+4]
	push	edx
	mov	eax, DWORD PTR _textSize$[ebp]
	push	eax
	lea	ecx, DWORD PTR _bmp$2[ebp]
	call	??0Bitmap@Gdiplus@@QAE@HHHHPAE@Z	; Gdiplus::Bitmap::Bitmap

; 415  : 
; 416  :             graphics = new Gdiplus::Graphics(&bmp); 

	push	8
	call	??2GdiplusBase@Gdiplus@@SAPAXI@Z	; Gdiplus::GdiplusBase::operator new
	add	esp, 4
	mov	DWORD PTR $T21[ebp], eax
	cmp	DWORD PTR $T21[ebp], 0
	je	SHORT $LN52@UpdateText
	lea	ecx, DWORD PTR _bmp$2[ebp]
	push	ecx
	mov	ecx, DWORD PTR $T21[ebp]
	call	??0Graphics@Gdiplus@@QAE@PAVImage@1@@Z	; Gdiplus::Graphics::Graphics
	mov	DWORD PTR tv328[ebp], eax
	jmp	SHORT $LN53@UpdateText
$LN52@UpdateText:
	mov	DWORD PTR tv328[ebp], 0
$LN53@UpdateText:
	mov	edx, DWORD PTR tv328[ebp]
	mov	DWORD PTR _graphics$[ebp], edx

; 417  : 
; 418  :             Gdiplus::SolidBrush  *brush = new Gdiplus::SolidBrush(Gdiplus::Color(GetAlphaVal(opacity)|(color&0x00FFFFFF)));

	push	12					; 0000000cH
	call	??2GdiplusBase@Gdiplus@@SAPAXI@Z	; Gdiplus::GdiplusBase::operator new
	add	esp, 4
	mov	DWORD PTR $T17[ebp], eax
	cmp	DWORD PTR $T17[ebp], 0
	je	SHORT $LN54@UpdateText
	mov	eax, DWORD PTR _this$[ebp]
	mov	ecx, DWORD PTR [eax+64]
	push	ecx
	call	?GetAlphaVal@@YAKI@Z			; GetAlphaVal
	add	esp, 4
	mov	edx, DWORD PTR _this$[ebp]
	mov	ecx, DWORD PTR [edx+60]
	and	ecx, 16777215				; 00ffffffH
	or	eax, ecx
	push	eax
	lea	ecx, DWORD PTR $T4[ebp]
	call	??0Color@Gdiplus@@QAE@K@Z		; Gdiplus::Color::Color
	push	eax
	mov	ecx, DWORD PTR $T17[ebp]
	call	??0SolidBrush@Gdiplus@@QAE@ABVColor@1@@Z ; Gdiplus::SolidBrush::SolidBrush
	mov	DWORD PTR tv344[ebp], eax
	jmp	SHORT $LN55@UpdateText
$LN54@UpdateText:
	mov	DWORD PTR tv344[ebp], 0
$LN55@UpdateText:
	mov	edx, DWORD PTR tv344[ebp]
	mov	DWORD PTR _brush$29[ebp], edx

; 419  : 
; 420  :             DWORD bkColor;
; 421  : 
; 422  : 		    if(backgroundOpacity == 0 && scrollSpeed !=0)

	mov	eax, DWORD PTR _this$[ebp]
	cmp	DWORD PTR [eax+80], 0
	jne	SHORT $LN17@UpdateText
	mov	ecx, DWORD PTR _this$[ebp]
	cmp	DWORD PTR [ecx+72], 0
	je	SHORT $LN17@UpdateText

; 423  :                 bkColor = 1<<24 | (color&0x00FFFFFF);

	mov	edx, DWORD PTR _this$[ebp]
	mov	eax, DWORD PTR [edx+60]
	and	eax, 16777215				; 00ffffffH
	or	eax, 16777216				; 01000000H
	mov	DWORD PTR _bkColor$26[ebp], eax

; 424  :             else

	jmp	SHORT $LN16@UpdateText
$LN17@UpdateText:

; 425  :                 bkColor = ((strCurrentText.IsValid() || bUseExtents) ? GetAlphaVal(backgroundOpacity) : GetAlphaVal(0)) | (backgroundColor&0x00FFFFFF);

	mov	ecx, DWORD PTR _this$[ebp]
	add	ecx, 8
	call	DWORD PTR __imp_?IsValid@String@@QBEHXZ
	test	eax, eax
	jne	SHORT $LN56@UpdateText
	mov	ecx, DWORD PTR _this$[ebp]
	movzx	edx, BYTE PTR [ecx+104]
	test	edx, edx
	jne	SHORT $LN56@UpdateText
	push	0
	call	?GetAlphaVal@@YAKI@Z			; GetAlphaVal
	add	esp, 4
	mov	DWORD PTR tv364[ebp], eax
	jmp	SHORT $LN57@UpdateText
$LN56@UpdateText:
	mov	eax, DWORD PTR _this$[ebp]
	mov	ecx, DWORD PTR [eax+80]
	push	ecx
	call	?GetAlphaVal@@YAKI@Z			; GetAlphaVal
	add	esp, 4
	mov	DWORD PTR tv364[ebp], eax
$LN57@UpdateText:
	mov	edx, DWORD PTR _this$[ebp]
	mov	eax, DWORD PTR [edx+84]
	and	eax, 16777215				; 00ffffffH
	or	eax, DWORD PTR tv364[ebp]
	mov	DWORD PTR _bkColor$26[ebp], eax
$LN16@UpdateText:

; 426  : 
; 427  :             if((textSize.cx > boundingBox.Width  || textSize.cy > boundingBox.Height) && !bUseExtents)

	cvtsi2ss xmm0, DWORD PTR _textSize$[ebp]
	comiss	xmm0, DWORD PTR _boundingBox$[ebp+8]
	ja	SHORT $LN14@UpdateText
	cvtsi2ss xmm0, DWORD PTR _textSize$[ebp+4]
	comiss	xmm0, DWORD PTR _boundingBox$[ebp+12]
	jbe	$LN15@UpdateText
$LN14@UpdateText:
	mov	ecx, DWORD PTR _this$[ebp]
	movzx	edx, BYTE PTR [ecx+104]
	test	edx, edx
	jne	$LN15@UpdateText

; 428  :             {
; 429  :                 stat = graphics->Clear(Gdiplus::Color( 0x00000000));

	push	0
	lea	ecx, DWORD PTR $T6[ebp]
	call	??0Color@Gdiplus@@QAE@K@Z		; Gdiplus::Color::Color
	push	eax
	mov	ecx, DWORD PTR _graphics$[ebp]
	call	?Clear@Graphics@Gdiplus@@QAE?AW4Status@2@ABVColor@2@@Z ; Gdiplus::Graphics::Clear
	mov	DWORD PTR _stat$[ebp], eax

; 430  :                 if(stat != Gdiplus::Ok)

	cmp	DWORD PTR _stat$[ebp], 0
	je	SHORT $LN13@UpdateText

; 431  :                     AppWarning(TEXT("TextSource::UpdateTexture: Graphics::Clear failed: %u"), (int)stat);

	mov	eax, DWORD PTR _stat$[ebp]
	push	eax
	push	OFFSET ??_C@_1GM@LBANKIPA@?$AAT?$AAe?$AAx?$AAt?$AAS?$AAo?$AAu?$AAr?$AAc?$AAe?$AA?3?$AA?3?$AAU?$AAp?$AAd?$AAa?$AAt?$AAe?$AAT?$AAe?$AAx?$AAt?$AAu?$AAr?$AAe?$AA?3?$AA?5?$AAG?$AAr?$AAa?$AAp?$AAh@
	call	DWORD PTR __imp_?AppWarning@@YAXPB_WZZ
	add	esp, 8
$LN13@UpdateText:

; 432  : 
; 433  :                 Gdiplus::SolidBrush *bkBrush = new Gdiplus::SolidBrush(Gdiplus::Color( bkColor ));

	push	12					; 0000000cH
	call	??2GdiplusBase@Gdiplus@@SAPAXI@Z	; Gdiplus::GdiplusBase::operator new
	add	esp, 4
	mov	DWORD PTR $T19[ebp], eax
	cmp	DWORD PTR $T19[ebp], 0
	je	SHORT $LN58@UpdateText
	mov	ecx, DWORD PTR _bkColor$26[ebp]
	push	ecx
	lea	ecx, DWORD PTR $T3[ebp]
	call	??0Color@Gdiplus@@QAE@K@Z		; Gdiplus::Color::Color
	push	eax
	mov	ecx, DWORD PTR $T19[ebp]
	call	??0SolidBrush@Gdiplus@@QAE@ABVColor@1@@Z ; Gdiplus::SolidBrush::SolidBrush
	mov	DWORD PTR tv393[ebp], eax
	jmp	SHORT $LN59@UpdateText
$LN58@UpdateText:
	mov	DWORD PTR tv393[ebp], 0
$LN59@UpdateText:
	mov	edx, DWORD PTR tv393[ebp]
	mov	DWORD PTR _bkBrush$18[ebp], edx

; 434  : 
; 435  :                 graphics->FillRectangle(bkBrush, boundingBox);

	lea	eax, DWORD PTR _boundingBox$[ebp]
	push	eax
	mov	ecx, DWORD PTR _bkBrush$18[ebp]
	push	ecx
	mov	ecx, DWORD PTR _graphics$[ebp]
	call	?FillRectangle@Graphics@Gdiplus@@QAE?AW4Status@2@PBVBrush@2@ABVRectF@2@@Z ; Gdiplus::Graphics::FillRectangle

; 436  : 
; 437  :                 delete bkBrush;

	mov	edx, DWORD PTR _bkBrush$18[ebp]
	mov	DWORD PTR $T13[ebp], edx
	mov	eax, DWORD PTR $T13[ebp]
	mov	DWORD PTR $T24[ebp], eax
	cmp	DWORD PTR $T24[ebp], 0
	je	SHORT $LN60@UpdateText
	push	1
	mov	ecx, DWORD PTR $T24[ebp]
	mov	edx, DWORD PTR [ecx]
	mov	ecx, DWORD PTR $T24[ebp]
	mov	eax, DWORD PTR [edx]
	call	eax
	mov	DWORD PTR tv411[ebp], eax
	jmp	SHORT $LN61@UpdateText
$LN60@UpdateText:
	mov	DWORD PTR tv411[ebp], 0
$LN61@UpdateText:

; 438  :             }
; 439  :             else

	jmp	SHORT $LN11@UpdateText
$LN15@UpdateText:

; 440  :             {
; 441  :                 stat = graphics->Clear(Gdiplus::Color( bkColor ));

	mov	ecx, DWORD PTR _bkColor$26[ebp]
	push	ecx
	lea	ecx, DWORD PTR $T5[ebp]
	call	??0Color@Gdiplus@@QAE@K@Z		; Gdiplus::Color::Color
	push	eax
	mov	ecx, DWORD PTR _graphics$[ebp]
	call	?Clear@Graphics@Gdiplus@@QAE?AW4Status@2@ABVColor@2@@Z ; Gdiplus::Graphics::Clear
	mov	DWORD PTR _stat$[ebp], eax

; 442  :                 if(stat != Gdiplus::Ok)

	cmp	DWORD PTR _stat$[ebp], 0
	je	SHORT $LN11@UpdateText

; 443  :                     AppWarning(TEXT("TextSource::UpdateTexture: Graphics::Clear failed: %u"), (int)stat);

	mov	edx, DWORD PTR _stat$[ebp]
	push	edx
	push	OFFSET ??_C@_1GM@LBANKIPA@?$AAT?$AAe?$AAx?$AAt?$AAS?$AAo?$AAu?$AAr?$AAc?$AAe?$AA?3?$AA?3?$AAU?$AAp?$AAd?$AAa?$AAt?$AAe?$AAT?$AAe?$AAx?$AAt?$AAu?$AAr?$AAe?$AA?3?$AA?5?$AAG?$AAr?$AAa?$AAp?$AAh@
	call	DWORD PTR __imp_?AppWarning@@YAXPB_WZZ
	add	esp, 8
$LN11@UpdateText:

; 444  :             }
; 445  : 
; 446  :             graphics->SetTextRenderingHint(Gdiplus::TextRenderingHintAntiAlias);

	push	4
	mov	ecx, DWORD PTR _graphics$[ebp]
	call	?SetTextRenderingHint@Graphics@Gdiplus@@QAE?AW4Status@2@W4TextRenderingHint@2@@Z ; Gdiplus::Graphics::SetTextRenderingHint

; 447  :             graphics->SetCompositingMode(Gdiplus::CompositingModeSourceOver);

	push	0
	mov	ecx, DWORD PTR _graphics$[ebp]
	call	?SetCompositingMode@Graphics@Gdiplus@@QAE?AW4Status@2@W4CompositingMode@2@@Z ; Gdiplus::Graphics::SetCompositingMode

; 448  :             graphics->SetSmoothingMode(Gdiplus::SmoothingModeAntiAlias);

	push	4
	mov	ecx, DWORD PTR _graphics$[ebp]
	call	?SetSmoothingMode@Graphics@Gdiplus@@QAE?AW4Status@2@W4SmoothingMode@2@@Z ; Gdiplus::Graphics::SetSmoothingMode

; 449  :             
; 450  :             if(strCurrentText.IsValid())

	mov	ecx, DWORD PTR _this$[ebp]
	add	ecx, 8
	call	DWORD PTR __imp_?IsValid@String@@QBEHXZ
	test	eax, eax
	je	$LN7@UpdateText

; 451  :             {
; 452  :                 if(bUseOutline)

	mov	eax, DWORD PTR _this$[ebp]
	movzx	ecx, BYTE PTR [eax+88]
	test	ecx, ecx
	je	$LN9@UpdateText

; 453  :                 {
; 454  :                     boundingBox.Offset(outlineSize/2, outlineSize/2);

	mov	edx, DWORD PTR _this$[ebp]
	movss	xmm0, DWORD PTR [edx+92]
	divss	xmm0, DWORD PTR __real@40000000
	push	ecx
	movss	DWORD PTR [esp], xmm0
	mov	eax, DWORD PTR _this$[ebp]
	movss	xmm0, DWORD PTR [eax+92]
	divss	xmm0, DWORD PTR __real@40000000
	push	ecx
	movss	DWORD PTR [esp], xmm0
	lea	ecx, DWORD PTR _boundingBox$[ebp]
	call	?Offset@RectF@Gdiplus@@QAEXMM@Z		; Gdiplus::RectF::Offset

; 455  : 
; 456  :                     Gdiplus::FontFamily fontFamily;

	lea	ecx, DWORD PTR _fontFamily$9[ebp]
	call	??0FontFamily@Gdiplus@@QAE@XZ		; Gdiplus::FontFamily::FontFamily

; 457  :                     Gdiplus::GraphicsPath path;

	push	0
	lea	ecx, DWORD PTR _path$11[ebp]
	call	??0GraphicsPath@Gdiplus@@QAE@W4FillMode@1@@Z ; Gdiplus::GraphicsPath::GraphicsPath

; 458  : 
; 459  :                     font.GetFamily(&fontFamily);

	lea	ecx, DWORD PTR _fontFamily$9[ebp]
	push	ecx
	lea	ecx, DWORD PTR _font$[ebp]
	call	?GetFamily@Font@Gdiplus@@QBE?AW4Status@2@PAVFontFamily@2@@Z ; Gdiplus::Font::GetFamily

; 460  : 
; 461  :                     path.AddString(strCurrentText, -1, &fontFamily, font.GetStyle(), font.GetSize(), boundingBox, &format);

	lea	edx, DWORD PTR _format$[ebp]
	push	edx
	lea	eax, DWORD PTR _boundingBox$[ebp]
	push	eax
	lea	ecx, DWORD PTR _font$[ebp]
	call	?GetSize@Font@Gdiplus@@QBEMXZ		; Gdiplus::Font::GetSize
	push	ecx
	fstp	DWORD PTR [esp]
	lea	ecx, DWORD PTR _font$[ebp]
	call	?GetStyle@Font@Gdiplus@@QBEHXZ		; Gdiplus::Font::GetStyle
	push	eax
	lea	ecx, DWORD PTR _fontFamily$9[ebp]
	push	ecx
	push	-1
	mov	ecx, DWORD PTR _this$[ebp]
	add	ecx, 8
	call	DWORD PTR __imp_??BString@@QBEPA_WXZ
	push	eax
	lea	ecx, DWORD PTR _path$11[ebp]
	call	?AddString@GraphicsPath@Gdiplus@@QAE?AW4Status@2@PB_WHPBVFontFamily@2@HMABVRectF@2@PBVStringFormat@2@@Z ; Gdiplus::GraphicsPath::AddString

; 462  : 
; 463  :                     DrawOutlineText(graphics, font, path, format, brush);

	mov	edx, DWORD PTR _brush$29[ebp]
	push	edx
	lea	eax, DWORD PTR _format$[ebp]
	push	eax
	lea	ecx, DWORD PTR _path$11[ebp]
	push	ecx
	lea	edx, DWORD PTR _font$[ebp]
	push	edx
	mov	eax, DWORD PTR _graphics$[ebp]
	push	eax
	mov	ecx, DWORD PTR _this$[ebp]
	call	?DrawOutlineText@TextOutputSource@@AAEXPAVGraphics@Gdiplus@@AAVFont@3@ABVGraphicsPath@3@ABVStringFormat@3@PBVBrush@3@@Z ; TextOutputSource::DrawOutlineText

; 464  :                 }

	lea	ecx, DWORD PTR _path$11[ebp]
	call	??1GraphicsPath@Gdiplus@@QAE@XZ		; Gdiplus::GraphicsPath::~GraphicsPath
	lea	ecx, DWORD PTR _fontFamily$9[ebp]
	call	??1FontFamily@Gdiplus@@QAE@XZ		; Gdiplus::FontFamily::~FontFamily

; 465  :                 else

	jmp	SHORT $LN7@UpdateText
$LN9@UpdateText:

; 466  :                 {
; 467  :                     stat = graphics->DrawString(strCurrentText, -1, &font, boundingBox, &format, brush);

	mov	ecx, DWORD PTR _brush$29[ebp]
	push	ecx
	lea	edx, DWORD PTR _format$[ebp]
	push	edx
	lea	eax, DWORD PTR _boundingBox$[ebp]
	push	eax
	lea	ecx, DWORD PTR _font$[ebp]
	push	ecx
	push	-1
	mov	ecx, DWORD PTR _this$[ebp]
	add	ecx, 8
	call	DWORD PTR __imp_??BString@@QBEPA_WXZ
	push	eax
	mov	ecx, DWORD PTR _graphics$[ebp]
	call	?DrawString@Graphics@Gdiplus@@QAE?AW4Status@2@PB_WHPBVFont@2@ABVRectF@2@PBVStringFormat@2@PBVBrush@2@@Z ; Gdiplus::Graphics::DrawString
	mov	DWORD PTR _stat$[ebp], eax

; 468  :                     if(stat != Gdiplus::Ok)

	cmp	DWORD PTR _stat$[ebp], 0
	je	SHORT $LN7@UpdateText

; 469  :                         AppWarning(TEXT("TextSource::UpdateTexture: Graphics::DrawString failed: %u"), (int)stat);

	mov	edx, DWORD PTR _stat$[ebp]
	push	edx
	push	OFFSET ??_C@_1HG@DMEJMMLD@?$AAT?$AAe?$AAx?$AAt?$AAS?$AAo?$AAu?$AAr?$AAc?$AAe?$AA?3?$AA?3?$AAU?$AAp?$AAd?$AAa?$AAt?$AAe?$AAT?$AAe?$AAx?$AAt?$AAu?$AAr?$AAe?$AA?3?$AA?5?$AAG?$AAr?$AAa?$AAp?$AAh@
	call	DWORD PTR __imp_?AppWarning@@YAXPB_WZZ
	add	esp, 8
$LN7@UpdateText:

; 470  :                 }
; 471  :             }
; 472  : 
; 473  :             delete brush;

	mov	eax, DWORD PTR _brush$29[ebp]
	mov	DWORD PTR $T8[ebp], eax
	mov	ecx, DWORD PTR $T8[ebp]
	mov	DWORD PTR $T27[ebp], ecx
	cmp	DWORD PTR $T27[ebp], 0
	je	SHORT $LN62@UpdateText
	push	1
	mov	edx, DWORD PTR $T27[ebp]
	mov	eax, DWORD PTR [edx]
	mov	ecx, DWORD PTR $T27[ebp]
	mov	edx, DWORD PTR [eax]
	call	edx
	mov	DWORD PTR tv503[ebp], eax
	jmp	SHORT $LN63@UpdateText
$LN62@UpdateText:
	mov	DWORD PTR tv503[ebp], 0
$LN63@UpdateText:

; 474  :             delete graphics;

	mov	eax, DWORD PTR _graphics$[ebp]
	mov	DWORD PTR $T7[ebp], eax
	mov	ecx, DWORD PTR $T7[ebp]
	mov	DWORD PTR $T23[ebp], ecx
	cmp	DWORD PTR $T23[ebp], 0
	je	SHORT $LN64@UpdateText
	push	1
	mov	ecx, DWORD PTR $T23[ebp]
	call	??_GGraphics@Gdiplus@@QAEPAXI@Z
	mov	DWORD PTR tv508[ebp], eax
	jmp	SHORT $LN65@UpdateText
$LN64@UpdateText:
	mov	DWORD PTR tv508[ebp], 0
$LN65@UpdateText:

; 475  : 
; 476  :             //----------------------------------------------------------------------
; 477  :             // upload texture
; 478  : 
; 479  :             if(textureSize.cx != textSize.cx || textureSize.cy != textSize.cy)

	mov	edx, DWORD PTR _this$[ebp]
	mov	eax, DWORD PTR [edx+132]
	cmp	eax, DWORD PTR _textSize$[ebp]
	jne	SHORT $LN5@UpdateText
	mov	ecx, DWORD PTR _this$[ebp]
	mov	edx, DWORD PTR [ecx+136]
	cmp	edx, DWORD PTR _textSize$[ebp+4]
	je	$LN6@UpdateText
$LN5@UpdateText:

; 480  :             {
; 481  :                 if(texture)

	mov	eax, DWORD PTR _this$[ebp]
	cmp	DWORD PTR [eax+16], 0
	je	SHORT $LN4@UpdateText

; 482  :                 {
; 483  :                     delete texture;

	mov	ecx, DWORD PTR _this$[ebp]
	mov	edx, DWORD PTR [ecx+16]
	mov	DWORD PTR $T14[ebp], edx
	mov	eax, DWORD PTR $T14[ebp]
	mov	DWORD PTR $T25[ebp], eax
	cmp	DWORD PTR $T25[ebp], 0
	je	SHORT $LN66@UpdateText
	push	1
	mov	ecx, DWORD PTR $T25[ebp]
	mov	edx, DWORD PTR [ecx]
	mov	ecx, DWORD PTR $T25[ebp]
	mov	eax, DWORD PTR [edx]
	call	eax
	mov	DWORD PTR tv528[ebp], eax
	jmp	SHORT $LN67@UpdateText
$LN66@UpdateText:
	mov	DWORD PTR tv528[ebp], 0
$LN67@UpdateText:

; 484  :                     texture = NULL;

	mov	ecx, DWORD PTR _this$[ebp]
	mov	DWORD PTR [ecx+16], 0
$LN4@UpdateText:

; 485  :                 }
; 486  : 
; 487  :                 mcpy(&textureSize, &textSize, sizeof(textureSize));

	mov	edx, DWORD PTR _this$[ebp]
	mov	eax, DWORD PTR _textSize$[ebp]
	mov	DWORD PTR [edx+132], eax
	mov	ecx, DWORD PTR _textSize$[ebp+4]
	mov	DWORD PTR [edx+136], ecx

; 488  :                 texture = CreateTexture(textSize.cx, textSize.cy, GS_BGRA, lpBits, FALSE, FALSE);

	push	0
	push	0
	mov	edx, DWORD PTR _lpBits$28[ebp]
	push	edx
	push	6
	mov	eax, DWORD PTR _textSize$[ebp+4]
	push	eax
	mov	ecx, DWORD PTR _textSize$[ebp]
	push	ecx
	call	?CreateTexture@@YAPAVTexture@@IIW4GSColorFormat@@PAXHH@Z ; CreateTexture
	add	esp, 24					; 00000018H
	mov	edx, DWORD PTR _this$[ebp]
	mov	DWORD PTR [edx+16], eax
	jmp	SHORT $LN2@UpdateText
$LN6@UpdateText:

; 489  :             }
; 490  :             else if(texture)

	mov	eax, DWORD PTR _this$[ebp]
	cmp	DWORD PTR [eax+16], 0
	je	SHORT $LN2@UpdateText

; 491  :                 texture->SetImage(lpBits, GS_IMAGEFORMAT_BGRA, 4*textSize.cx);

	mov	ecx, DWORD PTR _textSize$[ebp]
	shl	ecx, 2
	push	ecx
	push	9
	mov	edx, DWORD PTR _lpBits$28[ebp]
	push	edx
	mov	eax, DWORD PTR _this$[ebp]
	mov	ecx, DWORD PTR [eax+16]
	mov	edx, DWORD PTR _this$[ebp]
	mov	eax, DWORD PTR [ecx]
	mov	ecx, DWORD PTR [edx+16]
	mov	edx, DWORD PTR [eax+16]
	call	edx
$LN2@UpdateText:

; 492  : 
; 493  :             if(!texture)

	mov	eax, DWORD PTR _this$[ebp]
	cmp	DWORD PTR [eax+16], 0
	jne	SHORT $LN1@UpdateText

; 494  :             {
; 495  :                 AppWarning(TEXT("TextSource::UpdateTexture: could not create texture"));

	push	OFFSET ??_C@_1GI@IMEHDNAB@?$AAT?$AAe?$AAx?$AAt?$AAS?$AAo?$AAu?$AAr?$AAc?$AAe?$AA?3?$AA?3?$AAU?$AAp?$AAd?$AAa?$AAt?$AAe?$AAT?$AAe?$AAx?$AAt?$AAu?$AAr?$AAe?$AA?3?$AA?5?$AAc?$AAo?$AAu?$AAl?$AAd@
	call	DWORD PTR __imp_?AppWarning@@YAXPB_WZZ
	add	esp, 4

; 496  :                 DeleteObject(hFont);

	mov	ecx, DWORD PTR _hFont$[ebp]
	push	ecx
	call	DWORD PTR __imp__DeleteObject@4
$LN1@UpdateText:

; 497  :             }
; 498  : 
; 499  :             DeleteDC(hTempDC);

	mov	edx, DWORD PTR _hTempDC$20[ebp]
	push	edx
	call	DWORD PTR __imp__DeleteDC@4

; 500  :             DeleteObject(hBitmap);

	mov	eax, DWORD PTR _hBitmap$10[ebp]
	push	eax
	call	DWORD PTR __imp__DeleteObject@4

; 501  :         }

	lea	ecx, DWORD PTR _bmp$2[ebp]
	call	??1Bitmap@Gdiplus@@UAE@XZ

; 502  :     }

	lea	ecx, DWORD PTR _font$[ebp]
	call	??1Font@Gdiplus@@QAE@XZ			; Gdiplus::Font::~Font
	lea	ecx, DWORD PTR _format$[ebp]
	call	??1StringFormat@Gdiplus@@QAE@XZ		; Gdiplus::StringFormat::~StringFormat
$LN46@UpdateText:
	mov	ecx, DWORD PTR __$ArrayPad$[ebp]
	xor	ecx, ebp
	call	@__security_check_cookie@4
	mov	esp, ebp
	pop	ebp
	ret	0
?UpdateTexture@TextOutputSource@@AAEXXZ ENDP		; TextOutputSource::UpdateTexture
_TEXT	ENDS
; Function compile flags: /Odtp
; File f:\songmm_moon_stone_obs\obs\source\textoutputsource.cpp
;	COMDAT ??0TextOutputSource@@QAE@PAVXElement@@@Z
_TEXT	SEGMENT
_si$ = -64						; size = 48
_this$ = -4						; size = 4
_data$ = 8						; size = 4
??0TextOutputSource@@QAE@PAVXElement@@@Z PROC		; TextOutputSource::TextOutputSource, COMDAT
; _this$ = ecx

; 505  :     inline TextOutputSource(XElement *data)

	push	ebx
	mov	ebx, esp
	sub	esp, 8
	and	esp, -16				; fffffff0H
	add	esp, 4
	push	ebp
	mov	ebp, DWORD PTR [ebx+4]
	mov	DWORD PTR [esp+4], ebp
	mov	ebp, esp
	sub	esp, 64					; 00000040H
	mov	DWORD PTR _this$[ebp], ecx
	mov	ecx, DWORD PTR _this$[ebp]
	call	DWORD PTR __imp_??0ImageSource@@QAE@XZ
	mov	eax, DWORD PTR _this$[ebp]
	mov	DWORD PTR [eax], OFFSET ??_7TextOutputSource@@6B@
	mov	ecx, DWORD PTR _this$[ebp]
	add	ecx, 8
	call	DWORD PTR __imp_??0String@@QAE@XZ
	mov	ecx, DWORD PTR _this$[ebp]
	add	ecx, 32					; 00000020H
	call	DWORD PTR __imp_??0String@@QAE@XZ
	mov	ecx, DWORD PTR _this$[ebp]
	add	ecx, 40					; 00000028H
	call	DWORD PTR __imp_??0String@@QAE@XZ
	mov	ecx, DWORD PTR _this$[ebp]
	add	ecx, 48					; 00000030H
	call	DWORD PTR __imp_??0String@@QAE@XZ
	mov	ecx, DWORD PTR _this$[ebp]
	add	ecx, 124				; 0000007cH
	call	DWORD PTR __imp_??0Vect2@@QAE@XZ
	mov	ecx, DWORD PTR _this$[ebp]
	add	ecx, 148				; 00000094H
	call	??0?$unique_ptr@VSamplerState@@U?$default_delete@VSamplerState@@@std@@@std@@QAE@XZ ; std::unique_ptr<SamplerState,std::default_delete<SamplerState> >::unique_ptr<SamplerState,std::default_delete<SamplerState> >

; 506  :     {
; 507  :         this->data = data;

	mov	ecx, DWORD PTR _this$[ebp]
	mov	edx, DWORD PTR _data$[ebx]
	mov	DWORD PTR [ecx+160], edx

; 508  :         UpdateSettings();

	mov	ecx, DWORD PTR _this$[ebp]
	call	?UpdateSettings@TextOutputSource@@UAEXXZ ; TextOutputSource::UpdateSettings

; 509  : 
; 510  :         SamplerInfo si;

	lea	ecx, DWORD PTR _si$[ebp]
	call	??0SamplerInfo@@QAE@XZ			; SamplerInfo::SamplerInfo

; 511  :         zero(&si, sizeof(si));

	push	48					; 00000030H
	lea	eax, DWORD PTR _si$[ebp]
	push	eax
	call	?zero@@YGXPAXI@Z			; zero

; 512  :         si.addressU = GS_ADDRESS_REPEAT;

	mov	DWORD PTR _si$[ebp+4], 1

; 513  :         si.addressV = GS_ADDRESS_REPEAT;

	mov	DWORD PTR _si$[ebp+8], 1

; 514  :         si.borderColor = 0;

	push	ecx
	movss	xmm0, DWORD PTR __real@00000000
	movss	DWORD PTR [esp], xmm0
	lea	ecx, DWORD PTR _si$[ebp+32]
	call	DWORD PTR __imp_??4Vect4@@QAEAAU0@M@Z

; 515  :         si.filter = GS_FILTER_LINEAR;

	mov	DWORD PTR _si$[ebp], 0

; 516  :         ss = CreateSamplerState(si);

	lea	ecx, DWORD PTR _si$[ebp]
	push	ecx
	call	?CreateSamplerState@@YAPAVSamplerState@@AAUSamplerInfo@@@Z ; CreateSamplerState
	add	esp, 4
	mov	edx, DWORD PTR _this$[ebp]
	mov	DWORD PTR [edx+156], eax

; 517  :         globalOpacity = 100;

	mov	eax, DWORD PTR _this$[ebp]
	mov	DWORD PTR [eax+68], 100			; 00000064H

; 518  : 
; 519  :         Log(TEXT("Using text output"));

	push	OFFSET ??_C@_1CE@HAFKHHGD@?$AAU?$AAs?$AAi?$AAn?$AAg?$AA?5?$AAt?$AAe?$AAx?$AAt?$AA?5?$AAo?$AAu?$AAt?$AAp?$AAu?$AAt?$AA?$AA@
	call	DWORD PTR __imp_?Log@@YAXPB_WZZ
	add	esp, 4

; 520  :     }

	mov	eax, DWORD PTR _this$[ebp]
	mov	esp, ebp
	pop	ebp
	mov	esp, ebx
	pop	ebx
	ret	4
??0TextOutputSource@@QAE@PAVXElement@@@Z ENDP		; TextOutputSource::TextOutputSource
_TEXT	ENDS
; Function compile flags: /Odtp
; File f:\songmm_moon_stone_obs\obs\source\textoutputsource.cpp
;	COMDAT ??1TextOutputSource@@UAE@XZ
_TEXT	SEGMENT
tv138 = -28						; size = 4
$T1 = -24						; size = 4
tv129 = -20						; size = 4
$T2 = -16						; size = 4
$T3 = -12						; size = 4
$T4 = -8						; size = 4
_this$ = -4						; size = 4
??1TextOutputSource@@UAE@XZ PROC			; TextOutputSource::~TextOutputSource, COMDAT
; _this$ = ecx

; 523  :     {

	push	ebp
	mov	ebp, esp
	sub	esp, 28					; 0000001cH
	mov	DWORD PTR _this$[ebp], ecx
	mov	eax, DWORD PTR _this$[ebp]
	mov	DWORD PTR [eax], OFFSET ??_7TextOutputSource@@6B@

; 524  :         if(texture)

	mov	ecx, DWORD PTR _this$[ebp]
	cmp	DWORD PTR [ecx+16], 0
	je	SHORT $LN2@TextOutput

; 525  :         {
; 526  :             delete texture;

	mov	edx, DWORD PTR _this$[ebp]
	mov	eax, DWORD PTR [edx+16]
	mov	DWORD PTR $T2[ebp], eax
	mov	ecx, DWORD PTR $T2[ebp]
	mov	DWORD PTR $T4[ebp], ecx
	cmp	DWORD PTR $T4[ebp], 0
	je	SHORT $LN5@TextOutput
	push	1
	mov	edx, DWORD PTR $T4[ebp]
	mov	eax, DWORD PTR [edx]
	mov	ecx, DWORD PTR $T4[ebp]
	mov	edx, DWORD PTR [eax]
	call	edx
	mov	DWORD PTR tv129[ebp], eax
	jmp	SHORT $LN6@TextOutput
$LN5@TextOutput:
	mov	DWORD PTR tv129[ebp], 0
$LN6@TextOutput:

; 527  :             texture = NULL;

	mov	eax, DWORD PTR _this$[ebp]
	mov	DWORD PTR [eax+16], 0
$LN2@TextOutput:

; 528  :         }
; 529  : 
; 530  :         delete ss;

	mov	ecx, DWORD PTR _this$[ebp]
	mov	edx, DWORD PTR [ecx+156]
	mov	DWORD PTR $T1[ebp], edx
	mov	eax, DWORD PTR $T1[ebp]
	mov	DWORD PTR $T3[ebp], eax
	cmp	DWORD PTR $T3[ebp], 0
	je	SHORT $LN7@TextOutput
	push	1
	mov	ecx, DWORD PTR $T3[ebp]
	mov	edx, DWORD PTR [ecx]
	mov	ecx, DWORD PTR $T3[ebp]
	mov	eax, DWORD PTR [edx]
	call	eax
	mov	DWORD PTR tv138[ebp], eax
	jmp	SHORT $LN8@TextOutput
$LN7@TextOutput:
	mov	DWORD PTR tv138[ebp], 0
$LN8@TextOutput:

; 531  : 
; 532  :         if(bMonitoringFileChanges)

	mov	ecx, DWORD PTR _this$[ebp]
	movzx	edx, BYTE PTR [ecx+141]
	test	edx, edx
	je	SHORT $LN3@TextOutput

; 533  :         {
; 534  :             OSMonitorFileDestroy(fileChangeMonitor);

	mov	eax, DWORD PTR _this$[ebp]
	mov	ecx, DWORD PTR [eax+144]
	push	ecx
	call	DWORD PTR __imp_?OSMonitorFileDestroy@@YGXPAUOSFileChangeData@@@Z
$LN3@TextOutput:

; 535  :         }
; 536  :     }

	mov	ecx, DWORD PTR _this$[ebp]
	add	ecx, 148				; 00000094H
	call	??1?$unique_ptr@VSamplerState@@U?$default_delete@VSamplerState@@@std@@@std@@QAE@XZ ; std::unique_ptr<SamplerState,std::default_delete<SamplerState> >::~unique_ptr<SamplerState,std::default_delete<SamplerState> >
	mov	ecx, DWORD PTR _this$[ebp]
	add	ecx, 48					; 00000030H
	call	DWORD PTR __imp_??1String@@QAE@XZ
	mov	ecx, DWORD PTR _this$[ebp]
	add	ecx, 40					; 00000028H
	call	DWORD PTR __imp_??1String@@QAE@XZ
	mov	ecx, DWORD PTR _this$[ebp]
	add	ecx, 32					; 00000020H
	call	DWORD PTR __imp_??1String@@QAE@XZ
	mov	ecx, DWORD PTR _this$[ebp]
	add	ecx, 8
	call	DWORD PTR __imp_??1String@@QAE@XZ
	mov	ecx, DWORD PTR _this$[ebp]
	call	DWORD PTR __imp_??1ImageSource@@UAE@XZ
	mov	esp, ebp
	pop	ebp
	ret	0
??1TextOutputSource@@UAE@XZ ENDP			; TextOutputSource::~TextOutputSource
_TEXT	ENDS
; Function compile flags: /Odtp
; File f:\songmm_moon_stone_obs\obs\source\textoutputsource.cpp
;	COMDAT ?Preprocess@TextOutputSource@@UAEXXZ
_TEXT	SEGMENT
_this$ = -4						; size = 4
?Preprocess@TextOutputSource@@UAEXXZ PROC		; TextOutputSource::Preprocess, COMDAT
; _this$ = ecx

; 539  :     {

	push	ebp
	mov	ebp, esp
	push	ecx
	mov	DWORD PTR _this$[ebp], ecx

; 540  :         if(bMonitoringFileChanges)

	mov	eax, DWORD PTR _this$[ebp]
	movzx	ecx, BYTE PTR [eax+141]
	test	ecx, ecx
	je	SHORT $LN3@Preprocess

; 541  :         {
; 542  :             if (OSFileHasChanged(fileChangeMonitor))

	mov	edx, DWORD PTR _this$[ebp]
	mov	eax, DWORD PTR [edx+144]
	push	eax
	call	DWORD PTR __imp_?OSFileHasChanged@@YGHPAUOSFileChangeData@@@Z
	test	eax, eax
	je	SHORT $LN3@Preprocess

; 543  :                 bUpdateTexture = true;

	mov	ecx, DWORD PTR _this$[ebp]
	mov	BYTE PTR [ecx+4], 1
$LN3@Preprocess:

; 544  :         }
; 545  : 
; 546  :         if(bUpdateTexture)

	mov	edx, DWORD PTR _this$[ebp]
	movzx	eax, BYTE PTR [edx+4]
	test	eax, eax
	je	SHORT $LN4@Preprocess

; 547  :         {
; 548  :             bUpdateTexture = false;

	mov	ecx, DWORD PTR _this$[ebp]
	mov	BYTE PTR [ecx+4], 0

; 549  :             UpdateTexture();

	mov	ecx, DWORD PTR _this$[ebp]
	call	?UpdateTexture@TextOutputSource@@AAEXXZ	; TextOutputSource::UpdateTexture
$LN4@Preprocess:

; 550  :         }
; 551  :     }

	mov	esp, ebp
	pop	ebp
	ret	0
?Preprocess@TextOutputSource@@UAEXXZ ENDP		; TextOutputSource::Preprocess
_TEXT	ENDS
; Function compile flags: /Odtp
; File f:\songmm_moon_stone_obs\obs\source\textoutputsource.cpp
;	COMDAT ?Tick@TextOutputSource@@UAEXM@Z
_TEXT	SEGMENT
tv82 = -8						; size = 4
_this$ = -4						; size = 4
_fSeconds$ = 8						; size = 4
?Tick@TextOutputSource@@UAEXM@Z PROC			; TextOutputSource::Tick, COMDAT
; _this$ = ecx

; 554  :     {

	push	ebp
	mov	ebp, esp
	sub	esp, 8
	mov	DWORD PTR _this$[ebp], ecx

; 555  :         if(scrollSpeed != 0 && texture)

	mov	eax, DWORD PTR _this$[ebp]
	cmp	DWORD PTR [eax+72], 0
	je	$LN3@Tick
	mov	ecx, DWORD PTR _this$[ebp]
	cmp	DWORD PTR [ecx+16], 0
	je	$LN3@Tick

; 556  :         {
; 557  :             scrollValue += fSeconds*float(scrollSpeed)/(bVertical?(-1.0f)*float(textureSize.cy):float(textureSize.cx));

	mov	edx, DWORD PTR _this$[ebp]
	movzx	eax, BYTE PTR [edx+79]
	test	eax, eax
	je	SHORT $LN10@Tick
	mov	ecx, DWORD PTR _this$[ebp]
	cvtsi2ss xmm0, DWORD PTR [ecx+136]
	mulss	xmm0, DWORD PTR __real@bf800000
	movss	DWORD PTR tv82[ebp], xmm0
	jmp	SHORT $LN11@Tick
$LN10@Tick:
	mov	edx, DWORD PTR _this$[ebp]
	cvtsi2ss xmm0, DWORD PTR [edx+132]
	movss	DWORD PTR tv82[ebp], xmm0
$LN11@Tick:
	mov	eax, DWORD PTR _this$[ebp]
	cvtsi2ss xmm0, DWORD PTR [eax+72]
	mulss	xmm0, DWORD PTR _fSeconds$[ebp]
	divss	xmm0, DWORD PTR tv82[ebp]
	mov	ecx, DWORD PTR _this$[ebp]
	addss	xmm0, DWORD PTR [ecx+20]
	mov	edx, DWORD PTR _this$[ebp]
	movss	DWORD PTR [edx+20], xmm0
$LN6@Tick:

; 558  :             while(scrollValue > 1.0f)

	mov	eax, DWORD PTR _this$[ebp]
	movss	xmm0, DWORD PTR [eax+20]
	comiss	xmm0, DWORD PTR __real@3f800000
	jbe	SHORT $LN5@Tick

; 559  :                 scrollValue -= 1.0f;

	mov	ecx, DWORD PTR _this$[ebp]
	movss	xmm0, DWORD PTR [ecx+20]
	subss	xmm0, DWORD PTR __real@3f800000
	mov	edx, DWORD PTR _this$[ebp]
	movss	DWORD PTR [edx+20], xmm0
	jmp	SHORT $LN6@Tick
$LN5@Tick:

; 560  :             while(scrollValue < -1.0f)

	mov	eax, DWORD PTR _this$[ebp]
	movss	xmm0, DWORD PTR __real@bf800000
	comiss	xmm0, DWORD PTR [eax+20]
	jbe	SHORT $LN3@Tick

; 561  :                 scrollValue += 1.0f;

	mov	ecx, DWORD PTR _this$[ebp]
	movss	xmm0, DWORD PTR [ecx+20]
	addss	xmm0, DWORD PTR __real@3f800000
	mov	edx, DWORD PTR _this$[ebp]
	movss	DWORD PTR [edx+20], xmm0
	jmp	SHORT $LN5@Tick
$LN3@Tick:

; 562  :         }
; 563  : 
; 564  :         if(showExtentTime > 0.0f)

	mov	eax, DWORD PTR _this$[ebp]
	movss	xmm0, DWORD PTR [eax+24]
	comiss	xmm0, DWORD PTR __real@00000000
	jbe	SHORT $LN2@Tick

; 565  :             showExtentTime -= fSeconds;

	mov	ecx, DWORD PTR _this$[ebp]
	movss	xmm0, DWORD PTR [ecx+24]
	subss	xmm0, DWORD PTR _fSeconds$[ebp]
	mov	edx, DWORD PTR _this$[ebp]
	movss	DWORD PTR [edx+24], xmm0
$LN2@Tick:

; 566  : 
; 567  :         if(bDoUpdate)

	mov	eax, DWORD PTR _this$[ebp]
	movzx	ecx, BYTE PTR [eax+152]
	test	ecx, ecx
	je	SHORT $LN1@Tick

; 568  :         {
; 569  :             bDoUpdate = false;

	mov	edx, DWORD PTR _this$[ebp]
	mov	BYTE PTR [edx+152], 0

; 570  :             bUpdateTexture = true;

	mov	eax, DWORD PTR _this$[ebp]
	mov	BYTE PTR [eax+4], 1
$LN1@Tick:

; 571  :         }
; 572  :     }

	mov	esp, ebp
	pop	ebp
	ret	4
?Tick@TextOutputSource@@UAEXM@Z ENDP			; TextOutputSource::Tick
_TEXT	ENDS
; Function compile flags: /Odtp
; File f:\songmm_moon_stone_obs\obs\source\textoutputsource.cpp
;	COMDAT ?Render@TextOutputSource@@UAEXABUVect2@@0@Z
_TEXT	SEGMENT
_samplerinfo$1 = -192					; size = 48
$T2 = -144						; size = 8
$T3 = -136						; size = 8
_rectangleColor$4 = -128				; size = 16
tv327 = -112						; size = 8
tv337 = -104						; size = 8
_sizeMultiplier$5 = -96					; size = 8
_alpha$6 = -88						; size = 4
_pShader$7 = -84					; size = 4
_vShader$8 = -80					; size = 4
_extentVal$9 = -76					; size = 8
_newSize$10 = -68					; size = 8
_new_sampler$11 = -60					; size = 4
tv333 = -56						; size = 4
tv323 = -52						; size = 4
tv398 = -48						; size = 4
_outputColor$12 = -44					; size = 4
_lr$13 = -40						; size = 8
_ul$14 = -32						; size = 8
_this$ = -24						; size = 4
_rect$15 = -20						; size = 16
__$ArrayPad$ = -4					; size = 4
_pos$ = 8						; size = 4
_size$ = 12						; size = 4
?Render@TextOutputSource@@UAEXABUVect2@@0@Z PROC	; TextOutputSource::Render, COMDAT
; _this$ = ecx

; 575  :     {

	push	ebx
	mov	ebx, esp
	sub	esp, 8
	and	esp, -16				; fffffff0H
	add	esp, 4
	push	ebp
	mov	ebp, DWORD PTR [ebx+4]
	mov	DWORD PTR [esp+4], ebp
	mov	ebp, esp
	sub	esp, 192				; 000000c0H
	mov	eax, DWORD PTR ___security_cookie
	xor	eax, ebp
	mov	DWORD PTR __$ArrayPad$[ebp], eax
	mov	DWORD PTR _this$[ebp], ecx

; 576  :         if(texture)

	mov	eax, DWORD PTR _this$[ebp]
	cmp	DWORD PTR [eax+16], 0
	je	$LN1@Render

; 577  :         {
; 578  :             //EnableBlending(FALSE);
; 579  : 
; 580  :             Vect2 sizeMultiplier = size/baseSize;

	mov	ecx, DWORD PTR _this$[ebp]
	add	ecx, 124				; 0000007cH
	push	ecx
	lea	edx, DWORD PTR _sizeMultiplier$5[ebp]
	push	edx
	mov	ecx, DWORD PTR _size$[ebx]
	call	DWORD PTR __imp_??KVect2@@QBE?AU0@ABU0@@Z

; 581  :             Vect2 newSize = Vect2(float(textureSize.cx), float(textureSize.cy))*sizeMultiplier;

	lea	eax, DWORD PTR _sizeMultiplier$5[ebp]
	push	eax
	lea	ecx, DWORD PTR _newSize$10[ebp]
	push	ecx
	mov	edx, DWORD PTR _this$[ebp]
	cvtsi2ss xmm0, DWORD PTR [edx+136]
	push	ecx
	movss	DWORD PTR [esp], xmm0
	mov	eax, DWORD PTR _this$[ebp]
	cvtsi2ss xmm0, DWORD PTR [eax+132]
	push	ecx
	movss	DWORD PTR [esp], xmm0
	lea	ecx, DWORD PTR $T3[ebp]
	call	DWORD PTR __imp_??0Vect2@@QAE@MM@Z
	mov	ecx, eax
	call	DWORD PTR __imp_??DVect2@@QBE?AU0@ABU0@@Z

; 582  : 
; 583  :             if(bUseExtents)

	mov	ecx, DWORD PTR _this$[ebp]
	movzx	edx, BYTE PTR [ecx+104]
	test	edx, edx
	je	$LN9@Render

; 584  :             {
; 585  :                 Vect2 extentVal = Vect2(float(extentWidth), float(extentHeight))*sizeMultiplier;

	lea	eax, DWORD PTR _sizeMultiplier$5[ebp]
	push	eax
	lea	ecx, DWORD PTR _extentVal$9[ebp]
	push	ecx
	mov	edx, DWORD PTR _this$[ebp]
	mov	eax, DWORD PTR [edx+112]
	mov	DWORD PTR tv323[ebp], eax
	cvtsi2sd xmm0, DWORD PTR tv323[ebp]
	mov	ecx, DWORD PTR tv323[ebp]
	shr	ecx, 31					; 0000001fH
	addsd	xmm0, QWORD PTR __xmm@41f00000000000000000000000000000[ecx*8]
	movsd	QWORD PTR tv327[ebp], xmm0
	cvtsd2ss xmm0, QWORD PTR tv327[ebp]
	push	ecx
	movss	DWORD PTR [esp], xmm0
	mov	edx, DWORD PTR _this$[ebp]
	mov	eax, DWORD PTR [edx+108]
	mov	DWORD PTR tv333[ebp], eax
	cvtsi2sd xmm0, DWORD PTR tv333[ebp]
	mov	ecx, DWORD PTR tv333[ebp]
	shr	ecx, 31					; 0000001fH
	addsd	xmm0, QWORD PTR __xmm@41f00000000000000000000000000000[ecx*8]
	movsd	QWORD PTR tv337[ebp], xmm0
	cvtsd2ss xmm0, QWORD PTR tv337[ebp]
	push	ecx
	movss	DWORD PTR [esp], xmm0
	lea	ecx, DWORD PTR $T2[ebp]
	call	DWORD PTR __imp_??0Vect2@@QAE@MM@Z
	mov	ecx, eax
	call	DWORD PTR __imp_??DVect2@@QBE?AU0@ABU0@@Z

; 586  :                 if(showExtentTime > 0.0f)

	mov	edx, DWORD PTR _this$[ebp]
	movss	xmm0, DWORD PTR [edx+24]
	comiss	xmm0, DWORD PTR __real@00000000
	jbe	$LN11@Render

; 587  :                 {
; 588  :                     Shader *pShader = GS->GetCurrentPixelShader();

	mov	eax, DWORD PTR __imp_?GS@@3PAVGraphicsSystem@@A
	mov	ecx, DWORD PTR [eax]
	mov	edx, DWORD PTR __imp_?GS@@3PAVGraphicsSystem@@A
	mov	eax, DWORD PTR [ecx]
	mov	ecx, DWORD PTR [edx]
	mov	edx, DWORD PTR [eax+88]
	call	edx
	mov	DWORD PTR _pShader$7[ebp], eax

; 589  :                     Shader *vShader = GS->GetCurrentVertexShader();

	mov	eax, DWORD PTR __imp_?GS@@3PAVGraphicsSystem@@A
	mov	ecx, DWORD PTR [eax]
	mov	edx, DWORD PTR __imp_?GS@@3PAVGraphicsSystem@@A
	mov	eax, DWORD PTR [ecx]
	mov	ecx, DWORD PTR [edx]
	mov	edx, DWORD PTR [eax+92]
	call	edx
	mov	DWORD PTR _vShader$8[ebp], eax

; 590  : 
; 591  :                     Color4 rectangleColor = Color4(0.0f, 1.0f, 0.0f, 1.0f);

	push	ecx
	movss	xmm0, DWORD PTR __real@3f800000
	movss	DWORD PTR [esp], xmm0
	push	ecx
	movss	xmm0, DWORD PTR __real@00000000
	movss	DWORD PTR [esp], xmm0
	push	ecx
	movss	xmm0, DWORD PTR __real@3f800000
	movss	DWORD PTR [esp], xmm0
	push	ecx
	movss	xmm0, DWORD PTR __real@00000000
	movss	DWORD PTR [esp], xmm0
	lea	ecx, DWORD PTR _rectangleColor$4[ebp]
	call	DWORD PTR __imp_??0Vect4@@QAE@MMMM@Z

; 592  :                     if(showExtentTime < 1.0f)

	mov	eax, DWORD PTR _this$[ebp]
	movss	xmm0, DWORD PTR __real@3f800000
	comiss	xmm0, DWORD PTR [eax+24]
	jbe	SHORT $LN10@Render

; 593  :                         rectangleColor.w = showExtentTime;

	mov	ecx, DWORD PTR _this$[ebp]
	movss	xmm0, DWORD PTR [ecx+24]
	movss	DWORD PTR _rectangleColor$4[ebp+12], xmm0
$LN10@Render:

; 594  : 
; 595  :                     App->solidPixelShader->SetColor(App->solidPixelShader->GetParameter(0), rectangleColor);

	lea	edx, DWORD PTR _rectangleColor$4[ebp]
	push	edx
	push	0
	mov	eax, DWORD PTR ?App@@3PAVOBS@@A		; App
	mov	ecx, DWORD PTR [eax+72]
	mov	edx, DWORD PTR ?App@@3PAVOBS@@A		; App
	mov	eax, DWORD PTR [ecx]
	mov	ecx, DWORD PTR [edx+72]
	mov	edx, DWORD PTR [eax+12]
	call	edx
	push	eax
	mov	eax, DWORD PTR ?App@@3PAVOBS@@A		; App
	mov	ecx, DWORD PTR [eax+72]
	call	DWORD PTR __imp_?SetColor@Shader@@QAEXPAXABUVect4@@@Z

; 596  : 
; 597  :                     LoadVertexShader(App->solidVertexShader);

	mov	ecx, DWORD PTR ?App@@3PAVOBS@@A		; App
	mov	edx, DWORD PTR [ecx+68]
	push	edx
	call	?LoadVertexShader@@YAXPAVShader@@@Z	; LoadVertexShader
	add	esp, 4

; 598  :                     LoadPixelShader(App->solidPixelShader);

	mov	eax, DWORD PTR ?App@@3PAVOBS@@A		; App
	mov	ecx, DWORD PTR [eax+72]
	push	ecx
	call	?LoadPixelShader@@YAXPAVShader@@@Z	; LoadPixelShader
	add	esp, 4

; 599  :                     DrawBox(pos, extentVal);

	lea	edx, DWORD PTR _extentVal$9[ebp]
	push	edx
	mov	eax, DWORD PTR _pos$[ebx]
	push	eax
	call	?DrawBox@@YAXABUVect2@@0@Z		; DrawBox
	add	esp, 8

; 600  : 
; 601  :                     LoadVertexShader(vShader);

	mov	ecx, DWORD PTR _vShader$8[ebp]
	push	ecx
	call	?LoadVertexShader@@YAXPAVShader@@@Z	; LoadVertexShader
	add	esp, 4

; 602  :                     LoadPixelShader(pShader);

	mov	edx, DWORD PTR _pShader$7[ebp]
	push	edx
	call	?LoadPixelShader@@YAXPAVShader@@@Z	; LoadPixelShader
	add	esp, 4
$LN11@Render:

; 603  :                 }
; 604  : 
; 605  :                 if(!bWrap)

	mov	eax, DWORD PTR _this$[ebp]
	movzx	ecx, BYTE PTR [eax+116]
	test	ecx, ecx
	jne	SHORT $LN9@Render

; 606  :                 {
; 607  :                     XRect rect = {int(pos.x), int(pos.y), int(extentVal.x), int(extentVal.y)};

	mov	edx, DWORD PTR _pos$[ebx]
	cvttss2si eax, DWORD PTR [edx]
	mov	DWORD PTR _rect$15[ebp], eax
	mov	ecx, DWORD PTR _pos$[ebx]
	cvttss2si edx, DWORD PTR [ecx+4]
	mov	DWORD PTR _rect$15[ebp+4], edx
	cvttss2si eax, DWORD PTR _extentVal$9[ebp]
	mov	DWORD PTR _rect$15[ebp+8], eax
	cvttss2si ecx, DWORD PTR _extentVal$9[ebp+4]
	mov	DWORD PTR _rect$15[ebp+12], ecx

; 608  :                     SetScissorRect(&rect);

	lea	edx, DWORD PTR _rect$15[ebp]
	push	edx
	call	?SetScissorRect@@YAXPAUXRect@@@Z	; SetScissorRect
	add	esp, 4
$LN9@Render:

; 609  :                 }
; 610  :             }
; 611  : 
; 612  :             if(bUsePointFiltering) {

	mov	eax, DWORD PTR _this$[ebp]
	movzx	ecx, BYTE PTR [eax+140]
	test	ecx, ecx
	je	SHORT $LN8@Render

; 613  :                 if (!sampler) {

	mov	ecx, DWORD PTR _this$[ebp]
	add	ecx, 148				; 00000094H
	call	??B?$unique_ptr@VSamplerState@@U?$default_delete@VSamplerState@@@std@@@std@@QBE_NXZ ; std::unique_ptr<SamplerState,std::default_delete<SamplerState> >::operator bool
	movzx	edx, al
	test	edx, edx
	jne	SHORT $LN7@Render

; 614  :                     SamplerInfo samplerinfo;

	lea	ecx, DWORD PTR _samplerinfo$1[ebp]
	call	??0SamplerInfo@@QAE@XZ			; SamplerInfo::SamplerInfo

; 615  :                     samplerinfo.filter = GS_FILTER_POINT;

	mov	DWORD PTR _samplerinfo$1[ebp], 1

; 616  :                     std::unique_ptr<SamplerState> new_sampler(CreateSamplerState(samplerinfo));

	lea	eax, DWORD PTR _samplerinfo$1[ebp]
	push	eax
	call	?CreateSamplerState@@YAPAVSamplerState@@AAUSamplerInfo@@@Z ; CreateSamplerState
	add	esp, 4
	push	eax
	lea	ecx, DWORD PTR _new_sampler$11[ebp]
	call	??0?$unique_ptr@VSamplerState@@U?$default_delete@VSamplerState@@@std@@@std@@QAE@PAVSamplerState@@@Z ; std::unique_ptr<SamplerState,std::default_delete<SamplerState> >::unique_ptr<SamplerState,std::default_delete<SamplerState> >

; 617  :                     sampler = std::move(new_sampler);

	lea	ecx, DWORD PTR _new_sampler$11[ebp]
	push	ecx
	call	??$move@AAV?$unique_ptr@VSamplerState@@U?$default_delete@VSamplerState@@@std@@@std@@@std@@YA$$QAV?$unique_ptr@VSamplerState@@U?$default_delete@VSamplerState@@@std@@@0@AAV10@@Z ; std::move<std::unique_ptr<SamplerState,std::default_delete<SamplerState> > &>
	add	esp, 4
	push	eax
	mov	ecx, DWORD PTR _this$[ebp]
	add	ecx, 148				; 00000094H
	call	??4?$unique_ptr@VSamplerState@@U?$default_delete@VSamplerState@@@std@@@std@@QAEAAV01@$$QAV01@@Z ; std::unique_ptr<SamplerState,std::default_delete<SamplerState> >::operator=

; 618  :                 }

	lea	ecx, DWORD PTR _new_sampler$11[ebp]
	call	??1?$unique_ptr@VSamplerState@@U?$default_delete@VSamplerState@@@std@@@std@@QAE@XZ ; std::unique_ptr<SamplerState,std::default_delete<SamplerState> >::~unique_ptr<SamplerState,std::default_delete<SamplerState> >
$LN7@Render:

; 619  : 
; 620  :                 LoadSamplerState(sampler.get(), 0);

	push	0
	mov	ecx, DWORD PTR _this$[ebp]
	add	ecx, 148				; 00000094H
	call	?get@?$unique_ptr@VSamplerState@@U?$default_delete@VSamplerState@@@std@@@std@@QBEPAVSamplerState@@XZ ; std::unique_ptr<SamplerState,std::default_delete<SamplerState> >::get
	push	eax
	call	?LoadSamplerState@@YAXPAVSamplerState@@I@Z ; LoadSamplerState
	add	esp, 8
$LN8@Render:

; 621  :             }
; 622  : 
; 623  :             DWORD alpha = DWORD(double(globalOpacity)*2.55);

	mov	edx, DWORD PTR _this$[ebp]
	mov	eax, DWORD PTR [edx+68]
	mov	DWORD PTR tv398[ebp], eax
	cvtsi2sd xmm0, DWORD PTR tv398[ebp]
	mov	ecx, DWORD PTR tv398[ebp]
	shr	ecx, 31					; 0000001fH
	addsd	xmm0, QWORD PTR __xmm@41f00000000000000000000000000000[ecx*8]
	mulsd	xmm0, QWORD PTR __real@4004666666666666
	call	__dtoui3
	mov	DWORD PTR _alpha$6[ebp], eax

; 624  :             DWORD outputColor = (alpha << 24) | 0xFFFFFF;

	mov	edx, DWORD PTR _alpha$6[ebp]
	shl	edx, 24					; 00000018H
	or	edx, 16777215				; 00ffffffH
	mov	DWORD PTR _outputColor$12[ebp], edx

; 625  : 
; 626  :             if(scrollSpeed != 0)

	mov	eax, DWORD PTR _this$[ebp]
	cmp	DWORD PTR [eax+72], 0
	je	$LN6@Render

; 627  :             {
; 628  :                 UVCoord ul(0.0f, 0.0f);

	push	ecx
	movss	xmm0, DWORD PTR __real@00000000
	movss	DWORD PTR [esp], xmm0
	push	ecx
	movss	xmm0, DWORD PTR __real@00000000
	movss	DWORD PTR [esp], xmm0
	lea	ecx, DWORD PTR _ul$14[ebp]
	call	DWORD PTR __imp_??0Vect2@@QAE@MM@Z

; 629  :                 UVCoord lr(1.0f, 1.0f);

	push	ecx
	movss	xmm0, DWORD PTR __real@3f800000
	movss	DWORD PTR [esp], xmm0
	push	ecx
	movss	xmm0, DWORD PTR __real@3f800000
	movss	DWORD PTR [esp], xmm0
	lea	ecx, DWORD PTR _lr$13[ebp]
	call	DWORD PTR __imp_??0Vect2@@QAE@MM@Z

; 630  : 
; 631  :                 if(bVertical)

	mov	ecx, DWORD PTR _this$[ebp]
	movzx	edx, BYTE PTR [ecx+79]
	test	edx, edx
	je	SHORT $LN5@Render

; 632  :                 {
; 633  :                     /*float sizeVal = float(textureSize.cy);
; 634  :                     float clampedVal = floorf(scrollValue*sizeVal)/sizeVal;*/
; 635  :                     ul.y += scrollValue;

	mov	eax, DWORD PTR _this$[ebp]
	movss	xmm0, DWORD PTR _ul$14[ebp+4]
	addss	xmm0, DWORD PTR [eax+20]
	movss	DWORD PTR _ul$14[ebp+4], xmm0

; 636  :                     lr.y += scrollValue;

	mov	ecx, DWORD PTR _this$[ebp]
	movss	xmm0, DWORD PTR _lr$13[ebp+4]
	addss	xmm0, DWORD PTR [ecx+20]
	movss	DWORD PTR _lr$13[ebp+4], xmm0

; 637  :                 }
; 638  :                 else

	jmp	SHORT $LN4@Render
$LN5@Render:

; 639  :                 {
; 640  :                     /*float sizeVal = float(textureSize.cx);
; 641  :                     float clampedVal = floorf(scrollValue*sizeVal)/sizeVal;*/
; 642  :                     ul.x += scrollValue;

	mov	edx, DWORD PTR _this$[ebp]
	movss	xmm0, DWORD PTR _ul$14[ebp]
	addss	xmm0, DWORD PTR [edx+20]
	movss	DWORD PTR _ul$14[ebp], xmm0

; 643  :                     lr.x += scrollValue;

	mov	eax, DWORD PTR _this$[ebp]
	movss	xmm0, DWORD PTR _lr$13[ebp]
	addss	xmm0, DWORD PTR [eax+20]
	movss	DWORD PTR _lr$13[ebp], xmm0
$LN4@Render:

; 644  :                 }
; 645  : 
; 646  :                 LoadSamplerState(ss);

	push	0
	mov	ecx, DWORD PTR _this$[ebp]
	mov	edx, DWORD PTR [ecx+156]
	push	edx
	call	?LoadSamplerState@@YAXPAVSamplerState@@I@Z ; LoadSamplerState

; 647  :                 DrawSpriteEx(texture, outputColor, pos.x, pos.y, pos.x+newSize.x, pos.y+newSize.y, ul.x, ul.y, lr.x, lr.y);

	add	esp, 4
	movss	xmm0, DWORD PTR _lr$13[ebp+4]
	movss	DWORD PTR [esp], xmm0
	push	ecx
	movss	xmm0, DWORD PTR _lr$13[ebp]
	movss	DWORD PTR [esp], xmm0
	push	ecx
	movss	xmm0, DWORD PTR _ul$14[ebp+4]
	movss	DWORD PTR [esp], xmm0
	push	ecx
	movss	xmm0, DWORD PTR _ul$14[ebp]
	movss	DWORD PTR [esp], xmm0
	mov	eax, DWORD PTR _pos$[ebx]
	movss	xmm0, DWORD PTR [eax+4]
	addss	xmm0, DWORD PTR _newSize$10[ebp+4]
	push	ecx
	movss	DWORD PTR [esp], xmm0
	mov	ecx, DWORD PTR _pos$[ebx]
	movss	xmm0, DWORD PTR [ecx]
	addss	xmm0, DWORD PTR _newSize$10[ebp]
	push	ecx
	movss	DWORD PTR [esp], xmm0
	mov	edx, DWORD PTR _pos$[ebx]
	push	ecx
	movss	xmm0, DWORD PTR [edx+4]
	movss	DWORD PTR [esp], xmm0
	mov	eax, DWORD PTR _pos$[ebx]
	push	ecx
	movss	xmm0, DWORD PTR [eax]
	movss	DWORD PTR [esp], xmm0
	mov	ecx, DWORD PTR _outputColor$12[ebp]
	push	ecx
	mov	edx, DWORD PTR _this$[ebp]
	mov	eax, DWORD PTR [edx+16]
	push	eax
	call	?DrawSpriteEx@@YAXPAVTexture@@KMMMMMMMM@Z ; DrawSpriteEx
	add	esp, 40					; 00000028H

; 648  :             }
; 649  :             else

	jmp	SHORT $LN3@Render
$LN6@Render:

; 650  :                 DrawSprite(texture, outputColor, pos.x, pos.y, pos.x+newSize.x, pos.y+newSize.y);

	mov	ecx, DWORD PTR _pos$[ebx]
	movss	xmm0, DWORD PTR [ecx+4]
	addss	xmm0, DWORD PTR _newSize$10[ebp+4]
	push	ecx
	movss	DWORD PTR [esp], xmm0
	mov	edx, DWORD PTR _pos$[ebx]
	movss	xmm0, DWORD PTR [edx]
	addss	xmm0, DWORD PTR _newSize$10[ebp]
	push	ecx
	movss	DWORD PTR [esp], xmm0
	mov	eax, DWORD PTR _pos$[ebx]
	push	ecx
	movss	xmm0, DWORD PTR [eax+4]
	movss	DWORD PTR [esp], xmm0
	mov	ecx, DWORD PTR _pos$[ebx]
	push	ecx
	movss	xmm0, DWORD PTR [ecx]
	movss	DWORD PTR [esp], xmm0
	mov	edx, DWORD PTR _outputColor$12[ebp]
	push	edx
	mov	eax, DWORD PTR _this$[ebp]
	mov	ecx, DWORD PTR [eax+16]
	push	ecx
	call	?DrawSprite@@YAXPAVTexture@@KMMMM@Z	; DrawSprite
	add	esp, 24					; 00000018H
$LN3@Render:

; 651  : 
; 652  :             if (bUsePointFiltering)

	mov	edx, DWORD PTR _this$[ebp]
	movzx	eax, BYTE PTR [edx+140]
	test	eax, eax
	je	SHORT $LN2@Render

; 653  :                 LoadSamplerState(NULL, 0);

	push	0
	push	0
	call	?LoadSamplerState@@YAXPAVSamplerState@@I@Z ; LoadSamplerState
	add	esp, 8
$LN2@Render:

; 654  : 
; 655  :             if(bUseExtents && !bWrap)

	mov	ecx, DWORD PTR _this$[ebp]
	movzx	edx, BYTE PTR [ecx+104]
	test	edx, edx
	je	SHORT $LN1@Render
	mov	eax, DWORD PTR _this$[ebp]
	movzx	ecx, BYTE PTR [eax+116]
	test	ecx, ecx
	jne	SHORT $LN1@Render

; 656  :                 SetScissorRect(NULL);

	push	0
	call	?SetScissorRect@@YAXPAUXRect@@@Z	; SetScissorRect
	add	esp, 4
$LN1@Render:

; 657  :             //EnableBlending(TRUE);
; 658  :         }
; 659  :     }

	mov	ecx, DWORD PTR __$ArrayPad$[ebp]
	xor	ecx, ebp
	call	@__security_check_cookie@4
	mov	esp, ebp
	pop	ebp
	mov	esp, ebx
	pop	ebx
	ret	8
?Render@TextOutputSource@@UAEXABUVect2@@0@Z ENDP	; TextOutputSource::Render
_TEXT	ENDS
; Function compile flags: /Odtp
; File f:\songmm_moon_stone_obs\obs\source\textoutputsource.cpp
;	COMDAT ?GetSize@TextOutputSource@@UBE?AUVect2@@XZ
_TEXT	SEGMENT
_this$ = -4						; size = 4
___$ReturnUdt$ = 8					; size = 4
?GetSize@TextOutputSource@@UBE?AUVect2@@XZ PROC		; TextOutputSource::GetSize, COMDAT
; _this$ = ecx

; 662  :     {

	push	ebp
	mov	ebp, esp
	push	ecx
	mov	DWORD PTR _this$[ebp], ecx

; 663  :         return baseSize;

	mov	eax, DWORD PTR _this$[ebp]
	add	eax, 124				; 0000007cH
	push	eax
	mov	ecx, DWORD PTR ___$ReturnUdt$[ebp]
	call	DWORD PTR __imp_??0Vect2@@QAE@ABU0@@Z
	mov	eax, DWORD PTR ___$ReturnUdt$[ebp]

; 664  :     }

	mov	esp, ebp
	pop	ebp
	ret	4
?GetSize@TextOutputSource@@UBE?AUVect2@@XZ ENDP		; TextOutputSource::GetSize
_TEXT	ENDS
; Function compile flags: /Odtp
; File f:\songmm_moon_stone_obs\obs\source\textoutputsource.cpp
;	COMDAT ?UpdateSettings@TextOutputSource@@UAEXXZ
_TEXT	SEGMENT
tv261 = -40						; size = 4
tv238 = -36						; size = 4
tv189 = -32						; size = 4
tv180 = -28						; size = 4
tv171 = -24						; size = 4
tv162 = -20						; size = 4
tv153 = -16						; size = 4
tv144 = -12						; size = 4
tv135 = -8						; size = 4
_this$ = -4						; size = 4
?UpdateSettings@TextOutputSource@@UAEXXZ PROC		; TextOutputSource::UpdateSettings, COMDAT
; _this$ = ecx

; 667  :     {

	push	ebp
	mov	ebp, esp
	sub	esp, 40					; 00000028H
	mov	DWORD PTR _this$[ebp], ecx

; 668  :         strFont     = data->GetString(TEXT("font"), TEXT("Arial"));

	push	OFFSET ??_C@_1M@KAKMLIHO@?$AAA?$AAr?$AAi?$AAa?$AAl?$AA?$AA@
	push	OFFSET ??_C@_19BPOEAIEI@?$AAf?$AAo?$AAn?$AAt?$AA?$AA@
	mov	eax, DWORD PTR _this$[ebp]
	mov	ecx, DWORD PTR [eax+160]
	call	DWORD PTR __imp_?GetString@XElement@@QBEPB_WPB_WPA_W@Z
	push	eax
	mov	ecx, DWORD PTR _this$[ebp]
	add	ecx, 48					; 00000030H
	call	DWORD PTR __imp_??4String@@QAEAAV0@PB_W@Z

; 669  :         color       = data->GetInt(TEXT("color"), 0xFFFFFFFF);

	push	-1
	push	OFFSET ??_C@_1M@EENKLIPJ@?$AAc?$AAo?$AAl?$AAo?$AAr?$AA?$AA@
	mov	ecx, DWORD PTR _this$[ebp]
	mov	ecx, DWORD PTR [ecx+160]
	call	DWORD PTR __imp_?GetInt@XElement@@QBEHPB_WH@Z
	mov	edx, DWORD PTR _this$[ebp]
	mov	DWORD PTR [edx+60], eax

; 670  :         size        = data->GetInt(TEXT("fontSize"), 48);

	push	48					; 00000030H
	push	OFFSET ??_C@_1BC@JNDEGBLF@?$AAf?$AAo?$AAn?$AAt?$AAS?$AAi?$AAz?$AAe?$AA?$AA@
	mov	eax, DWORD PTR _this$[ebp]
	mov	ecx, DWORD PTR [eax+160]
	call	DWORD PTR __imp_?GetInt@XElement@@QBEHPB_WH@Z
	mov	ecx, DWORD PTR _this$[ebp]
	mov	DWORD PTR [ecx+56], eax

; 671  :         opacity     = data->GetInt(TEXT("textOpacity"), 100);

	push	100					; 00000064H
	push	OFFSET ??_C@_1BI@IBCEPOLC@?$AAt?$AAe?$AAx?$AAt?$AAO?$AAp?$AAa?$AAc?$AAi?$AAt?$AAy?$AA?$AA@
	mov	edx, DWORD PTR _this$[ebp]
	mov	ecx, DWORD PTR [edx+160]
	call	DWORD PTR __imp_?GetInt@XElement@@QBEHPB_WH@Z
	mov	ecx, DWORD PTR _this$[ebp]
	mov	DWORD PTR [ecx+64], eax

; 672  :         scrollSpeed = data->GetInt(TEXT("scrollSpeed"), 0);

	push	0
	push	OFFSET ??_C@_1BI@DNMBKHIA@?$AAs?$AAc?$AAr?$AAo?$AAl?$AAl?$AAS?$AAp?$AAe?$AAe?$AAd?$AA?$AA@
	mov	edx, DWORD PTR _this$[ebp]
	mov	ecx, DWORD PTR [edx+160]
	call	DWORD PTR __imp_?GetInt@XElement@@QBEHPB_WH@Z
	mov	ecx, DWORD PTR _this$[ebp]
	mov	DWORD PTR [ecx+72], eax

; 673  :         bBold       = data->GetInt(TEXT("bold"), 0) != 0;

	push	0
	push	OFFSET ??_C@_19LNOFOKG@?$AAb?$AAo?$AAl?$AAd?$AA?$AA@
	mov	edx, DWORD PTR _this$[ebp]
	mov	ecx, DWORD PTR [edx+160]
	call	DWORD PTR __imp_?GetInt@XElement@@QBEHPB_WH@Z
	test	eax, eax
	je	SHORT $LN3@UpdateSett
	mov	DWORD PTR tv135[ebp], 1
	jmp	SHORT $LN4@UpdateSett
$LN3@UpdateSett:
	mov	DWORD PTR tv135[ebp], 0
$LN4@UpdateSett:
	mov	eax, DWORD PTR _this$[ebp]
	mov	cl, BYTE PTR tv135[ebp]
	mov	BYTE PTR [eax+76], cl

; 674  :         bItalic     = data->GetInt(TEXT("italic"), 0) != 0;

	push	0
	push	OFFSET ??_C@_1O@JEIKJABP@?$AAi?$AAt?$AAa?$AAl?$AAi?$AAc?$AA?$AA@
	mov	edx, DWORD PTR _this$[ebp]
	mov	ecx, DWORD PTR [edx+160]
	call	DWORD PTR __imp_?GetInt@XElement@@QBEHPB_WH@Z
	test	eax, eax
	je	SHORT $LN5@UpdateSett
	mov	DWORD PTR tv144[ebp], 1
	jmp	SHORT $LN6@UpdateSett
$LN5@UpdateSett:
	mov	DWORD PTR tv144[ebp], 0
$LN6@UpdateSett:
	mov	eax, DWORD PTR _this$[ebp]
	mov	cl, BYTE PTR tv144[ebp]
	mov	BYTE PTR [eax+77], cl

; 675  :         bWrap       = data->GetInt(TEXT("wrap"), 0) != 0;

	push	0
	push	OFFSET ??_C@_19EOACODOG@?$AAw?$AAr?$AAa?$AAp?$AA?$AA@
	mov	edx, DWORD PTR _this$[ebp]
	mov	ecx, DWORD PTR [edx+160]
	call	DWORD PTR __imp_?GetInt@XElement@@QBEHPB_WH@Z
	test	eax, eax
	je	SHORT $LN7@UpdateSett
	mov	DWORD PTR tv153[ebp], 1
	jmp	SHORT $LN8@UpdateSett
$LN7@UpdateSett:
	mov	DWORD PTR tv153[ebp], 0
$LN8@UpdateSett:
	mov	eax, DWORD PTR _this$[ebp]
	mov	cl, BYTE PTR tv153[ebp]
	mov	BYTE PTR [eax+116], cl

; 676  :         bScrollMode = data->GetInt(TEXT("scrollMode"), 0) != 0;

	push	0
	push	OFFSET ??_C@_1BG@IFAPLEM@?$AAs?$AAc?$AAr?$AAo?$AAl?$AAl?$AAM?$AAo?$AAd?$AAe?$AA?$AA@
	mov	edx, DWORD PTR _this$[ebp]
	mov	ecx, DWORD PTR [edx+160]
	call	DWORD PTR __imp_?GetInt@XElement@@QBEHPB_WH@Z
	test	eax, eax
	je	SHORT $LN9@UpdateSett
	mov	DWORD PTR tv162[ebp], 1
	jmp	SHORT $LN10@UpdateSett
$LN9@UpdateSett:
	mov	DWORD PTR tv162[ebp], 0
$LN10@UpdateSett:
	mov	eax, DWORD PTR _this$[ebp]
	mov	cl, BYTE PTR tv162[ebp]
	mov	BYTE PTR [eax+117], cl

; 677  :         bUnderline  = data->GetInt(TEXT("underline"), 0) != 0;

	push	0
	push	OFFSET ??_C@_1BE@PNICDMNG@?$AAu?$AAn?$AAd?$AAe?$AAr?$AAl?$AAi?$AAn?$AAe?$AA?$AA@
	mov	edx, DWORD PTR _this$[ebp]
	mov	ecx, DWORD PTR [edx+160]
	call	DWORD PTR __imp_?GetInt@XElement@@QBEHPB_WH@Z
	test	eax, eax
	je	SHORT $LN11@UpdateSett
	mov	DWORD PTR tv171[ebp], 1
	jmp	SHORT $LN12@UpdateSett
$LN11@UpdateSett:
	mov	DWORD PTR tv171[ebp], 0
$LN12@UpdateSett:
	mov	eax, DWORD PTR _this$[ebp]
	mov	cl, BYTE PTR tv171[ebp]
	mov	BYTE PTR [eax+78], cl

; 678  :         bVertical   = data->GetInt(TEXT("vertical"), 0) != 0;

	push	0
	push	OFFSET ??_C@_1BC@PBGLJJCL@?$AAv?$AAe?$AAr?$AAt?$AAi?$AAc?$AAa?$AAl?$AA?$AA@
	mov	edx, DWORD PTR _this$[ebp]
	mov	ecx, DWORD PTR [edx+160]
	call	DWORD PTR __imp_?GetInt@XElement@@QBEHPB_WH@Z
	test	eax, eax
	je	SHORT $LN13@UpdateSett
	mov	DWORD PTR tv180[ebp], 1
	jmp	SHORT $LN14@UpdateSett
$LN13@UpdateSett:
	mov	DWORD PTR tv180[ebp], 0
$LN14@UpdateSett:
	mov	eax, DWORD PTR _this$[ebp]
	mov	cl, BYTE PTR tv180[ebp]
	mov	BYTE PTR [eax+79], cl

; 679  :         bUseExtents = data->GetInt(TEXT("useTextExtents"), 0) != 0;

	push	0
	push	OFFSET ??_C@_1BO@GHNBFLDK@?$AAu?$AAs?$AAe?$AAT?$AAe?$AAx?$AAt?$AAE?$AAx?$AAt?$AAe?$AAn?$AAt?$AAs?$AA?$AA@
	mov	edx, DWORD PTR _this$[ebp]
	mov	ecx, DWORD PTR [edx+160]
	call	DWORD PTR __imp_?GetInt@XElement@@QBEHPB_WH@Z
	test	eax, eax
	je	SHORT $LN15@UpdateSett
	mov	DWORD PTR tv189[ebp], 1
	jmp	SHORT $LN16@UpdateSett
$LN15@UpdateSett:
	mov	DWORD PTR tv189[ebp], 0
$LN16@UpdateSett:
	mov	eax, DWORD PTR _this$[ebp]
	mov	cl, BYTE PTR tv189[ebp]
	mov	BYTE PTR [eax+104], cl

; 680  :         extentWidth = data->GetInt(TEXT("extentWidth"), 0);

	push	0
	push	OFFSET ??_C@_1BI@JPNOLMK@?$AAe?$AAx?$AAt?$AAe?$AAn?$AAt?$AAW?$AAi?$AAd?$AAt?$AAh?$AA?$AA@
	mov	edx, DWORD PTR _this$[ebp]
	mov	ecx, DWORD PTR [edx+160]
	call	DWORD PTR __imp_?GetInt@XElement@@QBEHPB_WH@Z
	mov	ecx, DWORD PTR _this$[ebp]
	mov	DWORD PTR [ecx+108], eax

; 681  :         extentHeight= data->GetInt(TEXT("extentHeight"), 0);

	push	0
	push	OFFSET ??_C@_1BK@NAHGECGB@?$AAe?$AAx?$AAt?$AAe?$AAn?$AAt?$AAH?$AAe?$AAi?$AAg?$AAh?$AAt?$AA?$AA@
	mov	edx, DWORD PTR _this$[ebp]
	mov	ecx, DWORD PTR [edx+160]
	call	DWORD PTR __imp_?GetInt@XElement@@QBEHPB_WH@Z
	mov	ecx, DWORD PTR _this$[ebp]
	mov	DWORD PTR [ecx+112], eax

; 682  :         align       = data->GetInt(TEXT("align"), 0);

	push	0
	push	OFFSET ??_C@_1M@PNKKPJEL@?$AAa?$AAl?$AAi?$AAg?$AAn?$AA?$AA@
	mov	edx, DWORD PTR _this$[ebp]
	mov	ecx, DWORD PTR [edx+160]
	call	DWORD PTR __imp_?GetInt@XElement@@QBEHPB_WH@Z
	mov	ecx, DWORD PTR _this$[ebp]
	mov	DWORD PTR [ecx+120], eax

; 683  :         strFile     = data->GetString(TEXT("file"));

	push	0
	push	OFFSET ??_C@_19HMOGJADO@?$AAf?$AAi?$AAl?$AAe?$AA?$AA@
	mov	edx, DWORD PTR _this$[ebp]
	mov	ecx, DWORD PTR [edx+160]
	call	DWORD PTR __imp_?GetString@XElement@@QBEPB_WPB_WPA_W@Z
	push	eax
	mov	ecx, DWORD PTR _this$[ebp]
	add	ecx, 40					; 00000028H
	call	DWORD PTR __imp_??4String@@QAEAAV0@PB_W@Z

; 684  :         strText     = data->GetString(TEXT("text"));

	push	0
	push	OFFSET ??_C@_19HIPAKEND@?$AAt?$AAe?$AAx?$AAt?$AA?$AA@
	mov	eax, DWORD PTR _this$[ebp]
	mov	ecx, DWORD PTR [eax+160]
	call	DWORD PTR __imp_?GetString@XElement@@QBEPB_WPB_WPA_W@Z
	push	eax
	mov	ecx, DWORD PTR _this$[ebp]
	add	ecx, 32					; 00000020H
	call	DWORD PTR __imp_??4String@@QAEAAV0@PB_W@Z

; 685  :         mode        = data->GetInt(TEXT("mode"), 0);

	push	0
	push	OFFSET ??_C@_19KODKOACD@?$AAm?$AAo?$AAd?$AAe?$AA?$AA@
	mov	ecx, DWORD PTR _this$[ebp]
	mov	ecx, DWORD PTR [ecx+160]
	call	DWORD PTR __imp_?GetInt@XElement@@QBEHPB_WH@Z
	mov	edx, DWORD PTR _this$[ebp]
	mov	DWORD PTR [edx+28], eax

; 686  :         bUsePointFiltering = data->GetInt(TEXT("pointFiltering"), 0) != 0;

	push	0
	push	OFFSET ??_C@_1BO@KLLAJFB@?$AAp?$AAo?$AAi?$AAn?$AAt?$AAF?$AAi?$AAl?$AAt?$AAe?$AAr?$AAi?$AAn?$AAg?$AA?$AA@
	mov	eax, DWORD PTR _this$[ebp]
	mov	ecx, DWORD PTR [eax+160]
	call	DWORD PTR __imp_?GetInt@XElement@@QBEHPB_WH@Z
	test	eax, eax
	je	SHORT $LN17@UpdateSett
	mov	DWORD PTR tv238[ebp], 1
	jmp	SHORT $LN18@UpdateSett
$LN17@UpdateSett:
	mov	DWORD PTR tv238[ebp], 0
$LN18@UpdateSett:
	mov	ecx, DWORD PTR _this$[ebp]
	mov	dl, BYTE PTR tv238[ebp]
	mov	BYTE PTR [ecx+140], dl

; 687  : 
; 688  :         baseSize.x  = data->GetFloat(TEXT("baseSizeCX"), MIN_TEX_SIZE_W);

	push	ecx
	movss	xmm0, DWORD PTR __real@42000000
	movss	DWORD PTR [esp], xmm0
	push	OFFSET ??_C@_1BG@BEGLIKF@?$AAb?$AAa?$AAs?$AAe?$AAS?$AAi?$AAz?$AAe?$AAC?$AAX?$AA?$AA@
	mov	eax, DWORD PTR _this$[ebp]
	mov	ecx, DWORD PTR [eax+160]
	call	DWORD PTR __imp_?GetFloat@XElement@@QBEMPB_WM@Z
	mov	ecx, DWORD PTR _this$[ebp]
	fstp	DWORD PTR [ecx+124]

; 689  :         baseSize.y  = data->GetFloat(TEXT("baseSizeCY"), MIN_TEX_SIZE_H);

	push	ecx
	movss	xmm0, DWORD PTR __real@42000000
	movss	DWORD PTR [esp], xmm0
	push	OFFSET ??_C@_1BG@LJPKNPMA@?$AAb?$AAa?$AAs?$AAe?$AAS?$AAi?$AAz?$AAe?$AAC?$AAY?$AA?$AA@
	mov	edx, DWORD PTR _this$[ebp]
	mov	ecx, DWORD PTR [edx+160]
	call	DWORD PTR __imp_?GetFloat@XElement@@QBEMPB_WM@Z
	mov	eax, DWORD PTR _this$[ebp]
	fstp	DWORD PTR [eax+128]

; 690  : 
; 691  :         bUseOutline    = data->GetInt(TEXT("useOutline")) != 0;

	push	0
	push	OFFSET ??_C@_1BG@EHEODNMJ@?$AAu?$AAs?$AAe?$AAO?$AAu?$AAt?$AAl?$AAi?$AAn?$AAe?$AA?$AA@
	mov	ecx, DWORD PTR _this$[ebp]
	mov	ecx, DWORD PTR [ecx+160]
	call	DWORD PTR __imp_?GetInt@XElement@@QBEHPB_WH@Z
	test	eax, eax
	je	SHORT $LN19@UpdateSett
	mov	DWORD PTR tv261[ebp], 1
	jmp	SHORT $LN20@UpdateSett
$LN19@UpdateSett:
	mov	DWORD PTR tv261[ebp], 0
$LN20@UpdateSett:
	mov	edx, DWORD PTR _this$[ebp]
	mov	al, BYTE PTR tv261[ebp]
	mov	BYTE PTR [edx+88], al

; 692  :         outlineColor   = data->GetInt(TEXT("outlineColor"), 0xFF000000);

	push	-16777216				; ff000000H
	push	OFFSET ??_C@_1BK@EELFPFLI@?$AAo?$AAu?$AAt?$AAl?$AAi?$AAn?$AAe?$AAC?$AAo?$AAl?$AAo?$AAr?$AA?$AA@
	mov	ecx, DWORD PTR _this$[ebp]
	mov	ecx, DWORD PTR [ecx+160]
	call	DWORD PTR __imp_?GetInt@XElement@@QBEHPB_WH@Z
	mov	edx, DWORD PTR _this$[ebp]
	mov	DWORD PTR [edx+96], eax

; 693  :         outlineSize    = data->GetFloat(TEXT("outlineSize"), 2);

	push	ecx
	movss	xmm0, DWORD PTR __real@40000000
	movss	DWORD PTR [esp], xmm0
	push	OFFSET ??_C@_1BI@JFNINKMC@?$AAo?$AAu?$AAt?$AAl?$AAi?$AAn?$AAe?$AAS?$AAi?$AAz?$AAe?$AA?$AA@
	mov	eax, DWORD PTR _this$[ebp]
	mov	ecx, DWORD PTR [eax+160]
	call	DWORD PTR __imp_?GetFloat@XElement@@QBEMPB_WM@Z
	mov	ecx, DWORD PTR _this$[ebp]
	fstp	DWORD PTR [ecx+92]

; 694  :         outlineOpacity = data->GetInt(TEXT("outlineOpacity"), 100);

	push	100					; 00000064H
	push	OFFSET ??_C@_1BO@DHAIDPLE@?$AAo?$AAu?$AAt?$AAl?$AAi?$AAn?$AAe?$AAO?$AAp?$AAa?$AAc?$AAi?$AAt?$AAy?$AA?$AA@
	mov	edx, DWORD PTR _this$[ebp]
	mov	ecx, DWORD PTR [edx+160]
	call	DWORD PTR __imp_?GetInt@XElement@@QBEHPB_WH@Z
	mov	ecx, DWORD PTR _this$[ebp]
	mov	DWORD PTR [ecx+100], eax

; 695  : 
; 696  :         backgroundColor   = data->GetInt(TEXT("backgroundColor"), 0xFF000000);

	push	-16777216				; ff000000H
	push	OFFSET ??_C@_1CA@OHOPANAE@?$AAb?$AAa?$AAc?$AAk?$AAg?$AAr?$AAo?$AAu?$AAn?$AAd?$AAC?$AAo?$AAl?$AAo?$AAr?$AA?$AA@
	mov	edx, DWORD PTR _this$[ebp]
	mov	ecx, DWORD PTR [edx+160]
	call	DWORD PTR __imp_?GetInt@XElement@@QBEHPB_WH@Z
	mov	ecx, DWORD PTR _this$[ebp]
	mov	DWORD PTR [ecx+84], eax

; 697  :         backgroundOpacity = data->GetInt(TEXT("backgroundOpacity"), 0);

	push	0
	push	OFFSET ??_C@_1CE@NEPAKLHC@?$AAb?$AAa?$AAc?$AAk?$AAg?$AAr?$AAo?$AAu?$AAn?$AAd?$AAO?$AAp?$AAa?$AAc?$AAi?$AAt?$AAy?$AA?$AA@
