; Listing generated by Microsoft (R) Optimizing Compiler Version 18.00.21005.1 

	TITLE	F:\songmm_moon_stone_obs\OBS\Source\Updater.cpp
	.686P
	.XMM
	include listing.inc
	.model	flat

INCLUDELIB OLDNAMES

PUBLIC	?hProvider@@3KA					; hProvider
EXTRN	__imp__CryptHashData@16:PROC
EXTRN	__imp__CryptDestroyHash@4:PROC
EXTRN	__imp__CryptDestroyKey@4:PROC
EXTRN	__imp__CryptCreateHash@20:PROC
EXTRN	__imp__CryptImportKey@24:PROC
EXTRN	__imp__CryptGenRandom@12:PROC
EXTRN	__imp__ShellExecuteExW@4:PROC
EXTRN	_isalnum:PROC
EXTRN	__imp__CryptReleaseContext@8:PROC
EXTRN	__imp__CryptDecodeObjectEx@32:PROC
EXTRN	__imp_?scat@@YGXPA_WPB_W@Z:PROC
EXTRN	__imp__GetProcessHeap@0:PROC
EXTRN	__imp__CryptStringToBinaryA@28:PROC
EXTRN	__imp__HeapFree@12:PROC
EXTRN	__imp__HeapAlloc@12:PROC
EXTRN	__imp__CryptVerifySignatureW@24:PROC
EXTRN	__imp__CryptAcquireContextW@20:PROC
EXTRN	__imp__CryptGetHashParam@20:PROC
?hProvider@@3KA DD 01H DUP (?)				; hProvider
_BSS	ENDS
	ORG $+2
$SG4294717084 DB '%', 00H, 's', 00H, '\', 00H, 'u', 00H, 'p', 00H, 'd', 00H
	DB	'a', 00H, 't', 00H, 'e', 00H, 's', 00H, '\', 00H, 'u', 00H, 'p'
	DB	00H, 'd', 00H, 'a', 00H, 't', 00H, 'e', 00H, 'r', 00H, '.', 00H
	DB	'e', 00H, 'x', 00H, 'e', 00H, 00H, 00H
	ORG $+2
$SG4294717087 DB '0123456789abcdef', 00H
	ORG $+3
$SG4294717085 DB 'W', 00H, 'A', 00H, 'R', 00H, 'N', 00H, 'I', 00H, 'N', 00H
	DB	'G', 00H, ':', 00H, ' ', 00H, 'S', 00H, 'i', 00H, 'g', 00H, 'n'
	DB	00H, 'a', 00H, 't', 00H, 'u', 00H, 'r', 00H, 'e', 00H, ' ', 00H
	DB	'c', 00H, 'h', 00H, 'e', 00H, 'c', 00H, 'k', 00H, ' ', 00H, 'f'
	DB	00H, 'a', 00H, 'i', 00H, 'l', 00H, 'e', 00H, 'd', 00H, ' ', 00H
	DB	'f', 00H, 'o', 00H, 'r', 00H, ' ', 00H, '%', 00H, 's', 00H, '.'
	DB	00H, 00H, 00H
$SG4294717086 DB 'W', 00H, 'A', 00H, 'R', 00H, 'N', 00H, 'I', 00H, 'N', 00H
	DB	'G', 00H, ':', 00H, ' ', 00H, 'M', 00H, 'i', 00H, 's', 00H, 's'
	DB	00H, 'i', 00H, 'n', 00H, 'g', 00H, ' ', 00H, 'o', 00H, 'r', 00H
	DB	' ', 00H, 'i', 00H, 'n', 00H, 'v', 00H, 'a', 00H, 'l', 00H, 'i'
	DB	00H, 'd', 00H, ' ', 00H, 's', 00H, 'i', 00H, 'g', 00H, 'n', 00H
	DB	'a', 00H, 't', 00H, 'u', 00H, 'r', 00H, 'e', 00H, ' ', 00H, 'f'
	DB	00H, 'o', 00H, 'r', 00H, ' ', 00H, '%', 00H, 's', 00H, '.', 00H
	DB	00H, 00H
$SG4294717080 DB 'W', 00H, 'i', 00H, 'n', 00H, '3', 00H, '2', 00H, 00H, 00H
$SG4294717081 DB 'a', 00H, 'l', 00H, 'l', 00H, 00H, 00H
$SG4294717082 DB 'p', 00H, 'l', 00H, 'a', 00H, 't', 00H, 'f', 00H, 'o', 00H
	DB	'r', 00H, 'm', 00H, 00H, 00H
	ORG $+2
$SG4294717083 DB 'I', 00H, 'f', 00H, '-', 00H, 'N', 00H, 'o', 00H, 'n', 00H
	DB	'e', 00H, '-', 00H, 'M', 00H, 'a', 00H, 't', 00H, 'c', 00H, 'h'
	DB	00H, ':', 00H, ' ', 00H, '%', 00H, 's', 00H, 00H, 00H
$SG4294717076 DB 00H, 00H
	ORG $+2
$SG4294717077 DB 'p', 00H, 'a', 00H, 't', 00H, 'h', 00H, 00H, 00H
	ORG $+2
$SG4294717078 DB 'v', 00H, 'e', 00H, 'r', 00H, 's', 00H, 'i', 00H, 'o', 00H
	DB	'n', 00H, 00H, 00H
$SG4294717079 DB 'n', 00H, 'a', 00H, 'm', 00H, 'e', 00H, 00H, 00H
	ORG $+2
$SG4294717072 DB ' ', 00H, '(', 00H, 00H, 00H
	ORG $+2
$SG4294717073 DB 'h', 00H, 'a', 00H, 's', 00H, 'h', 00H, 00H, 00H
	ORG $+2
$SG4294717074 DB 'f', 00H, 'i', 00H, 'l', 00H, 'e', 00H, 's', 00H, 00H, 00H
$SG4294717075 DB 'p', 00H, 'r', 00H, 'i', 00H, 'o', 00H, 'r', 00H, 'i', 00H
	DB	't', 00H, 'y', 00H, 00H, 00H
	ORG $+2
$SG4294717068 DB '%', 00H, 's', 00H, '\', 00H, 'u', 00H, 'p', 00H, 'd', 00H
	DB	'a', 00H, 't', 00H, 'e', 00H, 's', 00H, '\', 00H, 'p', 00H, 'a'
	DB	00H, 'c', 00H, 'k', 00H, 'a', 00H, 'g', 00H, 'e', 00H, 's', 00H
	DB	'.', 00H, 'x', 00H, 'c', 00H, 'o', 00H, 'n', 00H, 'f', 00H, 'i'
	DB	00H, 'g', 00H, 00H, 00H
$SG4294717069 DB 'h', 00H, 't', 00H, 't', 00H, 'p', 00H, 's', 00H, ':', 00H
	DB	'/', 00H, '/', 00H, 'o', 00H, 'b', 00H, 's', 00H, 'p', 00H, 'r'
	DB	00H, 'o', 00H, 'j', 00H, 'e', 00H, 'c', 00H, 't', 00H, '.', 00H
	DB	'c', 00H, 'o', 00H, 'm', 00H, '/', 00H, 'u', 00H, 'p', 00H, 'd'
	DB	00H, 'a', 00H, 't', 00H, 'e', 00H, '/', 00H, 'u', 00H, 'p', 00H
	DB	'd', 00H, 'a', 00H, 't', 00H, 'e', 00H, 'r', 00H, '.', 00H, 'e'
	DB	00H, 'x', 00H, 'e', 00H, 00H, 00H
$SG4294717070 DB 0dH, 00H, 0aH, 00H, 00H, 00H
	ORG $+2
$SG4294717071 DB ')', 00H, 0dH, 00H, 0aH, 00H, 00H, 00H
$SG4294717064 DB 'I', 00H, 'n', 00H, 's', 00H, 't', 00H, 'a', 00H, 'l', 00H
	DB	'l', 00H, 'G', 00H, 'U', 00H, 'I', 00H, 'D', 00H, 00H, 00H
$SG4294717065 DB 'I', 00H, 'f', 00H, '-', 00H, 'N', 00H, 'o', 00H, 'n', 00H
	DB	'e', 00H, '-', 00H, 'M', 00H, 'a', 00H, 't', 00H, 'c', 00H, 'h'
	DB	00H, ':', 00H, ' ', 00H, '%', 00H, 's', 00H, 00H, 00H
$SG4294717066 DB 'U', 00H, 'p', 00H, 'd', 00H, 'a', 00H, 't', 00H, 'e', 00H
	DB	'r', 00H, ':', 00H, ' ', 00H, 'C', 00H, 'r', 00H, 'y', 00H, 'p'
	DB	00H, 't', 00H, 'A', 00H, 'c', 00H, 'q', 00H, 'u', 00H, 'i', 00H
	DB	'r', 00H, 'e', 00H, 'C', 00H, 'o', 00H, 'n', 00H, 't', 00H, 'e'
	DB	00H, 'x', 00H, 't', 00H, ' ', 00H, 'f', 00H, 'a', 00H, 'i', 00H
	DB	'l', 00H, 'e', 00H, 'd', 00H, ':', 00H, ' ', 00H, '%', 00H, '0'
	DB	00H, '8', 00H, 'x', 00H, 00H, 00H
$SG4294717060 DB 0aH, 00H, 00H, 00H
$SG4294717067 DB 'M', 00H, 'i', 00H, 'c', 00H, 'r', 00H, 'o', 00H, 's', 00H
	DB	'o', 00H, 'f', 00H, 't', 00H, ' ', 00H, 'E', 00H, 'n', 00H, 'h'
	DB	00H, 'a', 00H, 'n', 00H, 'c', 00H, 'e', 00H, 'd', 00H, ' ', 00H
	DB	'R', 00H, 'S', 00H, 'A', 00H, ' ', 00H, 'a', 00H, 'n', 00H, 'd'
	DB	00H, ' ', 00H, 'A', 00H, 'E', 00H, 'S', 00H, ' ', 00H, 'C', 00H
	DB	'r', 00H, 'y', 00H, 'p', 00H, 't', 00H, 'o', 00H, 'g', 00H, 'r'
	DB	00H, 'a', 00H, 'p', 00H, 'h', 00H, 'i', 00H, 'c', 00H, ' ', 00H
	DB	'P', 00H, 'r', 00H, 'o', 00H, 'v', 00H, 'i', 00H, 'd', 00H, 'e'
	DB	00H, 'r', 00H, 00H, 00H
$SG4294717061 DB 'G', 00H, 'e', 00H, 'n', 00H, 'e', 00H, 'r', 00H, 'a', 00H
	DB	'l', 00H, 00H, 00H
$SG4294717062 DB 'I', 00H, 'n', 00H, 's', 00H, 't', 00H, 'a', 00H, 'l', 00H
	DB	'l', 00H, 'G', 00H, 'U', 00H, 'I', 00H, 'D', 00H, 00H, 00H
$SG4294717063 DB 'G', 00H, 'e', 00H, 'n', 00H, 'e', 00H, 'r', 00H, 'a', 00H
	DB	'l', 00H, 00H, 00H
$SG4294717056 DB 0dH, 00H, 0aH, 00H, 00H, 00H
	ORG $+2
$SG4294717057 DB 'U', 00H, 'p', 00H, 'd', 00H, 'a', 00H, 't', 00H, 'e', 00H
	DB	'r', 00H, '.', 00H, 'N', 00H, 'e', 00H, 'w', 00H, 'U', 00H, 'p'
	DB	00H, 'd', 00H, 'a', 00H, 't', 00H, 'e', 00H, 's', 00H, 00H, 00H
	ORG $+2
$SG4294717059 DB 'X', 00H, '-', 00H, 'O', 00H, 'B', 00H, 'S', 00H, '-', 00H
	DB	'G', 00H, 'U', 00H, 'I', 00H, 'D', 00H, ':', 00H, ' ', 00H, 00H
	DB	00H
	ORG $+2
$SG4294717058 DB 'h', 00H, 't', 00H, 't', 00H, 'p', 00H, 's', 00H, ':', 00H
	DB	'/', 00H, '/', 00H, 'o', 00H, 'b', 00H, 's', 00H, 'p', 00H, 'r'
	DB	00H, 'o', 00H, 'j', 00H, 'e', 00H, 'c', 00H, 't', 00H, '.', 00H
	DB	'c', 00H, 'o', 00H, 'm', 00H, '/', 00H, 'u', 00H, 'p', 00H, 'd'
	DB	00H, 'a', 00H, 't', 00H, 'e', 00H, '/', 00H, 'p', 00H, 'a', 00H
	DB	'c', 00H, 'k', 00H, 'a', 00H, 'g', 00H, 'e', 00H, 's', 00H, '.'
	DB	00H, 'x', 00H, 'c', 00H, 'o', 00H, 'n', 00H, 'f', 00H, 'i', 00H
	DB	'g', 00H, 00H, 00H
	ORG $+2
$SG4294717052 DB '%', 00H, 's', 00H, '\', 00H, 'u', 00H, 'p', 00H, 'd', 00H
	DB	'a', 00H, 't', 00H, 'e', 00H, 's', 00H, '\', 00H, 'u', 00H, 'p'
	DB	00H, 'd', 00H, 'a', 00H, 't', 00H, 'e', 00H, 'r', 00H, '.', 00H
	DB	'e', 00H, 'x', 00H, 'e', 00H, 00H, 00H
	ORG $+2
$SG4294717053 DB 'U', 00H, 'p', 00H, 'd', 00H, 'a', 00H, 't', 00H, 'e', 00H
	DB	'r', 00H, '.', 00H, 'R', 00H, 'u', 00H, 'n', 00H, 'n', 00H, 'i'
	DB	00H, 'n', 00H, 'g', 00H, 'W', 00H, 'a', 00H, 'r', 00H, 'n', 00H
	DB	'i', 00H, 'n', 00H, 'g', 00H, 00H, 00H
	ORG $+2
$SG4294717054 DB 'U', 00H, 'p', 00H, 'd', 00H, 'a', 00H, 't', 00H, 'e', 00H
	DB	'r', 00H, '.', 00H, 'U', 00H, 'p', 00H, 'd', 00H, 'a', 00H, 't'
	DB	00H, 'e', 00H, 's', 00H, 'A', 00H, 'v', 00H, 'a', 00H, 'i', 00H
	DB	'l', 00H, 'a', 00H, 'b', 00H, 'l', 00H, 'e', 00H, 00H, 00H
	ORG $+2
$SG4294717055 DB 'U', 00H, 'p', 00H, 'd', 00H, 'a', 00H, 't', 00H, 'e', 00H
	DB	'r', 00H, '.', 00H, 'D', 00H, 'o', 00H, 'w', 00H, 'n', 00H, 'l'
	DB	00H, 'o', 00H, 'a', 00H, 'd', 00H, 'N', 00H, 'o', 00H, 'w', 00H
	DB	00H, 00H
$SG4294717048 DB 'L', 00H, 'a', 00H, 's', 00H, 't', 00H, 'U', 00H, 'p', 00H
	DB	'd', 00H, 'a', 00H, 't', 00H, 'e', 00H, 'C', 00H, 'h', 00H, 'e'
	DB	00H, 'c', 00H, 'k', 00H, 00H, 00H
$SG4294717049 DB 'C', 00H, 'a', 00H, 'n', 00H, '''', 00H, 't', 00H, ' ', 00H
	DB	'l', 00H, 'a', 00H, 'u', 00H, 'n', 00H, 'c', 00H, 'h', 00H, ' '
	DB	00H, 'u', 00H, 'p', 00H, 'd', 00H, 'a', 00H, 't', 00H, 'e', 00H
	DB	'r', 00H, ' ', 00H, '''', 00H, '%', 00H, 's', 00H, '''', 00H, ':'
	DB	00H, ' ', 00H, '%', 00H, 'd', 00H, 00H, 00H
$SG4294717050 DB 'W', 00H, 'i', 00H, 'n', 00H, '3', 00H, '2', 00H, 00H, 00H
$SG4294717051 DB 'W', 00H, 'i', 00H, 'n', 00H, '3', 00H, '2', 00H, ' ', 00H
	DB	'P', 00H, 'o', 00H, 'r', 00H, 't', 00H, 'a', 00H, 'b', 00H, 'l'
	DB	00H, 'e', 00H, 00H, 00H
	ORG $+2
$SG4294717046 DB 'U', 00H, 'p', 00H, 'd', 00H, 'a', 00H, 't', 00H, 'e', 00H
	DB	'r', 00H, '.', 00H, 'N', 00H, 'o', 00H, 'U', 00H, 'p', 00H, 'd'
	DB	00H, 'a', 00H, 't', 00H, 'e', 00H, 's', 00H, 'A', 00H, 'v', 00H
	DB	'a', 00H, 'i', 00H, 'l', 00H, 'a', 00H, 'b', 00H, 'l', 00H, 'e'
	DB	00H, 00H, 00H
	ORG $+2
$SG4294717047 DB 'G', 00H, 'e', 00H, 'n', 00H, 'e', 00H, 'r', 00H, 'a', 00H
	DB	'l', 00H, 00H, 00H
_obs_pub DB	02dH
	DB	02dH
	DB	02dH
	DB	02dH
	DB	02dH
	DB	042H
	DB	045H
	DB	047H
	DB	049H
	DB	04eH
	DB	020H
	DB	050H
	DB	055H
	DB	042H
	DB	04cH
	DB	049H
	DB	043H
	DB	020H
	DB	04bH
	DB	045H
	DB	059H
	DB	02dH
	DB	02dH
	DB	02dH
	DB	02dH
	DB	02dH
	DB	0aH
	DB	04dH
	DB	049H
	DB	049H
	DB	043H
	DB	049H
	DB	06aH
	DB	041H
	DB	04eH
	DB	042H
	DB	067H
	DB	06bH
	DB	071H
	DB	068H
	DB	06bH
	DB	069H
	DB	047H
	DB	039H
	DB	077H
	DB	030H
	DB	042H
	DB	041H
	DB	051H
	DB	045H
	DB	046H
	DB	041H
	DB	041H
	DB	04fH
	DB	043H
	DB	041H
	DB	067H
	DB	038H
	DB	041H
	DB	04dH
	DB	049H
	DB	049H
	DB	043H
	DB	043H
	DB	067H
	DB	04bH
	DB	043H
	DB	041H
	DB	067H
	DB	045H
	DB	041H
	DB	070H
	DB	063H
	DB	051H
	DB	04aH
	DB	033H
	DB	057H
	DB	044H
	DB	062H
	DB	043H
	DB	062H
	DB	066H
	DB	06eH
	DB	04dH
	DB	075H
	DB	048H
	DB	04bH
	DB	050H
	DB	077H
	DB	053H
	DB	05aH
	DB	0aH
	DB	056H
	DB	036H
	DB	077H
	DB	049H
	DB	02fH
	DB	067H
	DB	036H
	DB	058H
	DB	050H
	DB	065H
	DB	046H
	DB	036H
	DB	062H
	DB	04cH
	DB	062H
	DB	072H
	DB	053H
	DB	066H
	DB	071H
	DB	039H
	DB	066H
	DB	053H
	DB	04eH
	DB	068H
	DB	061H
	DB	047H
	DB	050H
	DB	037H
	DB	055H
	DB	06eH
	DB	067H
	DB	04eH
	DB	02bH
	DB	044H
	DB	046H
	DB	066H
	DB	053H
	DB	036H
	DB	030H
	DB	062H
	DB	035H
	DB	031H
	DB	042H
	DB	02fH
	DB	058H
	DB	06eH
	DB	06aH
	DB	067H
	DB	037H
	DB	051H
	DB	038H
	DB	070H
	DB	035H
	DB	077H
	DB	04fH
	DB	057H
	DB	034H
	DB	039H
	DB	044H
	DB	046H
	DB	065H
	DB	062H
	DB	033H
	DB	073H
	DB	0aH
	DB	075H
	DB	065H
	DB	041H
	DB	02bH
	DB	049H
	DB	042H
	DB	050H
	DB	077H
	DB	06dH
	DB	071H
	DB	062H
	DB	032H
	DB	046H
	DB	039H
	DB	04aH
	DB	07aH
	DB	063H
	DB	071H
	DB	067H
	DB	073H
	DB	06aH
	DB	074H
	DB	046H
	DB	076H
	DB	063H
	DB	037H
	DB	074H
	DB	04bH
	DB	04aH
	DB	06cH
	DB	070H
	DB	066H
	DB	059H
	DB	06bH
	DB	042H
	DB	039H
	DB	071H
	DB	067H
	DB	047H
	DB	02bH
	DB	048H
	DB	04aH
	DB	054H
	DB	030H
	DB	053H
	DB	050H
	DB	069H
	DB	064H
	DB	066H
	DB	053H
	DB	069H
	DB	063H
	DB	051H
	DB	032H
	DB	06eH
	DB	079H
	DB	035H
	DB	067H
	DB	06dH
	DB	037H
	DB	069H
	DB	04dH
	DB	06fH
	DB	071H
	DB	0aH
	DB	035H
	DB	034H
	DB	036H
	DB	06aH
	DB	069H
	DB	053H
	DB	075H
	DB	041H
	DB	075H
	DB	041H
	DB	063H
	DB	049H
	DB	071H
	DB	074H
	DB	033H
	DB	039H
	DB	037H
	DB	067H
	DB	041H
	DB	047H
	DB	056H
	DB	06fH
	DB	045H
	DB	046H
	DB	058H
	DB	030H
	DB	058H
	DB	047H
	DB	046H
	DB	041H
	DB	04cH
	DB	064H
	DB	063H
	DB	038H
	DB	035H
	DB	035H
	DB	02fH
	DB	034H
	DB	046H
	DB	074H
	DB	061H
	DB	063H
	DB	068H
	DB	079H
	DB	039H
	DB	070H
	DB	059H
	DB	034H
	DB	077H
	DB	058H
	DB	039H
	DB	041H
	DB	059H
	DB	057H
	DB	069H
	DB	050H
	DB	042H
	DB	04eH
	DB	048H
	DB	052H
	DB	065H
	DB	078H
	DB	045H
	DB	051H
	DB	0aH
	DB	054H
	DB	046H
	DB	075H
	DB	055H
	DB	073H
	DB	069H
	DB	076H
	DB	044H
	DB	064H
	DB	051H
	DB	06cH
	DB	050H
	DB	064H
	DB	076H
	DB	06aH
	DB	079H
	DB	059H
	DB	06eH
	DB	072H
	DB	063H
	DB	030H
	DB	04cH
	DB	050H
	DB	02fH
	DB	04fH
	DB	071H
	DB	04aH
	DB	02fH
	DB	071H
	DB	02fH
	DB	042H
	DB	058H
	DB	07aH
	DB	04fH
	DB	04bH
	DB	066H
	DB	033H
	DB	069H
	DB	04eH
	DB	06bH
	DB	058H
	DB	070H
	DB	072H
	DB	063H
	DB	068H
	DB	050H
	DB	061H
	DB	067H
	DB	052H
	DB	072H
	DB	061H
	DB	043H
	DB	034H
	DB	064H
	DB	041H
	DB	074H
	DB	034H
	DB	062H
	DB	042H
	DB	04aH
	DB	054H
	DB	034H
	DB	043H
	DB	07aH
	DB	0aH
	DB	056H
	DB	06aH
	DB	066H
	DB	055H
	DB	033H
	DB	069H
	DB	053H
	DB	02fH
	DB	057H
	DB	074H
	DB	068H
	DB	07aH
	DB	054H
	DB	050H
	DB	049H
	DB	051H
	DB	034H
	DB	04bH
	DB	034H
	DB	04cH
	DB	047H
	DB	057H
	DB	035H
	DB	04fH
	DB	070H
	DB	04eH
	DB	02bH
	DB	046H
	DB	035H
	DB	070H
	DB	067H
	DB	06dH
	DB	06fH
	DB	069H
	DB	044H
	DB	04eH
	DB	030H
	DB	064H
	DB	036H
	DB	04aH
	DB	035H
	DB	043H
	DB	049H
	DB	047H
	DB	06dH
	DB	037H
	DB	062H
	DB	05aH
	DB	078H
	DB	050H
	DB	058H
	DB	061H
	DB	032H
	DB	06aH
	DB	073H
	DB	064H
	DB	052H
	DB	030H
	DB	06cH
	DB	031H
	DB	06aH
	DB	04dH
	DB	06aH
	DB	048H
	DB	0aH
	DB	06aH
	DB	053H
	DB	052H
	DB	074H
	DB	068H
	DB	073H
	DB	059H
	DB	033H
	DB	062H
	DB	033H
	DB	031H
	DB	075H
	DB	073H
	DB	05aH
	DB	034H
	DB	043H
	DB	064H
	DB	06bH
	DB	06aH
	DB	048H
	DB	04fH
	DB	068H
	DB	064H
	DB	076H
	DB	032H
	DB	067H
	DB	04aH
	DB	043H
	DB	04dH
	DB	052H
	DB	065H
	DB	071H
	DB	041H
	DB	067H
	DB	078H
	DB	04aH
	DB	077H
	DB	054H
	DB	039H
	DB	02fH
	DB	048H
	DB	06aH
	DB	069H
	DB	06cH
	DB	057H
	DB	067H
	DB	04bH
	DB	072H
	DB	051H
	DB	072H
	DB	042H
	DB	034H
	DB	031H
	DB	050H
	DB	046H
	DB	04dH
	DB	04eH
	DB	071H
	DB	047H
	DB	042H
	DB	066H
	DB	04cH
	DB	04bH
	DB	061H
	DB	0aH
	DB	032H
	DB	06bH
	DB	069H
	DB	050H
	DB	074H
	DB	058H
	DB	048H
	DB	030H
	DB	035H
	DB	046H
	DB	050H
	DB	052H
	DB	035H
	DB	071H
	DB	06fH
	DB	056H
	DB	079H
	DB	042H
	DB	06bH
	DB	065H
	DB	077H
	DB	063H
	DB	045H
	DB	065H
	DB	075H
	DB	041H
	DB	035H
	DB	073H
	DB	06bH
	DB	078H
	DB	05aH
	DB	031H
	DB	067H
	DB	033H
	DB	07aH
	DB	04aH
	DB	030H
	DB	067H
	DB	048H
	DB	035H
	DB	06fH
	DB	076H
	DB	051H
	DB	064H
	DB	042H
	DB	06aH
	DB	054H
	DB	034H
	DB	059H
	DB	068H
	DB	032H
	DB	04aH
	DB	037H
	DB	050H
	DB	039H
	DB	068H
	DB	07aH
	DB	076H
	DB	073H
	DB	062H
	DB	06aH
	DB	039H
	DB	076H
	DB	056H
	DB	0aH
	DB	04aH
	DB	075H
	DB	068H
	DB	044H
	DB	06eH
	DB	045H
	DB	034H
	DB	052H
	DB	038H
	DB	02fH
	DB	065H
	DB	038H
	DB	045H
	DB	074H
	DB	061H
	DB	066H
	DB	053H
	DB	041H
	DB	068H
	DB	044H
	DB	053H
	DB	032H
	DB	047H
	DB	074H
	DB	038H
	DB	06cH
	DB	077H
	DB	062H
	DB	04fH
	DB	052H
	DB	064H
	DB	043H
	DB	055H
	DB	048H
	DB	04dH
	DB	048H
	DB	059H
	DB	049H
	DB	057H
	DB	04eH
	DB	047H
	DB	059H
	DB	030H
	DB	046H
	DB	06eH
	DB	061H
	DB	04dH
	DB	079H
	DB	041H
	DB	074H
	DB	072H
	DB	037H
	DB	054H
	DB	075H
	DB	048H
	DB	02fH
	DB	053H
	DB	043H
	DB	044H
	DB	077H
	DB	04cH
	DB	06aH
	DB	06aH
	DB	052H
	DB	0aH
	DB	06eH
	DB	041H
	DB	054H
	DB	064H
	DB	030H
	DB	044H
	DB	043H
	DB	030H
	DB	048H
	DB	049H
	DB	074H
	DB	059H
	DB	031H
	DB	059H
	DB	032H
	DB	053H
	DB	049H
	DB	043H
	DB	07aH
	DB	042H
	DB	061H
	DB	041H
	DB	066H
	DB	04cH
	DB	041H
	DB	06aH
	DB	078H
	DB	079H
	DB	038H
	DB	067H
	DB	058H
	DB	061H
	DB	049H
	DB	053H
	DB	06cH
	DB	052H
	DB	069H
	DB	079H
	DB	06bH
	DB	037H
	DB	070H
	DB	04bH
	DB	05aH
	DB	062H
	DB	04bH
	DB	06eH
	DB	061H
	DB	067H
	DB	06bH
	DB	035H
	DB	04cH
	DB	049H
	DB	06fH
	DB	063H
	DB	052H
	DB	069H
	DB	073H
	DB	079H
	DB	036H
	DB	04eH
	DB	06eH
	DB	076H
	DB	041H
	DB	031H
	DB	0aH
	DB	059H
	DB	066H
	DB	056H
	DB	07aH
	DB	04fH
	DB	069H
	DB	06aH
	DB	046H
	DB	04bH
	DB	055H
	DB	072H
	DB	048H
	DB	06cH
	DB	076H
	DB	076H
	DB	038H
	DB	038H
	DB	059H
	DB	039H
	DB	041H
	DB	032H
	DB	043H
	DB	077H
	DB	078H
	DB	06dH
	DB	077H
	DB	04cH
	DB	078H
	DB	034H
	DB	07aH
	DB	078H
	DB	04aH
	DB	073H
	DB	04fH
	DB	077H
	DB	074H
	DB	068H
	DB	075H
	DB	042H
	DB	057H
	DB	079H
	DB	076H
	DB	031H
	DB	059H
	DB	064H
	DB	034H
	DB	030H
	DB	04dH
	DB	068H
	DB	067H
	DB	071H
	DB	054H
	DB	075H
	DB	072H
	DB	07aH
	DB	039H
	DB	051H
	DB	051H
	DB	06eH
	DB	039H
	DB	032H
	DB	06eH
	DB	06fH
	DB	072H
	DB	0aH
	DB	046H
	DB	046H
	DB	058H
	DB	02fH
	DB	058H
	DB	054H
	DB	030H
	DB	06eH
	DB	065H
	DB	067H
	DB	074H
	DB	04aH
	DB	04fH
	DB	056H
	DB	044H
	DB	067H
	DB	049H
	DB	041H
	DB	030H
	DB	076H
	DB	049H
	DB	061H
	DB	06bH
	DB	043H
	DB	041H
	DB	077H
	DB	045H
	DB	041H
	DB	041H
	DB	051H
	DB	03dH
	DB	03dH
	DB	0aH
	DB	02dH
	DB	02dH
	DB	02dH
	DB	02dH
	DB	02dH
	DB	045H
	DB	04eH
	DB	044H
	DB	020H
	DB	050H
	DB	055H
	DB	042H
	DB	04cH
	DB	049H
	DB	043H
	DB	020H
	DB	04bH
	DB	045H
	DB	059H
	DB	02dH
	DB	02dH
	DB	02dH
	DB	02dH
	DB	02dH
	DB	0aH
	ALIGN	4

__Tuple_alloc DB 01H DUP (?)
	ALIGN	4

_ignore	DB	01H DUP (?)
	ALIGN	4

_allocator_arg DB 01H DUP (?)
	ALIGN	4

_piecewise_construct DB 01H DUP (?)
_BSS	ENDS
_piecewise_construct$initializer$ DD FLAT:??__Epiecewise_construct@std@@YAXXZ
_allocator_arg$initializer$ DD FLAT:??__Eallocator_arg@std@@YAXXZ
_ignore$initializer$ DD FLAT:??__Eignore@std@@YAXXZ
__Tuple_alloc$initializer$ DD FLAT:??__E_Tuple_alloc@std@@YAXXZ
; Function compile flags: /Odtp
; File d:\vs2013\vc\include\utility
;	COMDAT ??__Epiecewise_construct@std@@YAXXZ
text$di	SEGMENT
$T1 = -1						; size = 1
??__Epiecewise_construct@std@@YAXXZ PROC		; std::`dynamic initializer for 'piecewise_construct'', COMDAT

; 70   : 	piecewise_construct_t();

	push	ebp
	mov	ebp, esp
	push	ecx
	xor	eax, eax
	mov	BYTE PTR $T1[ebp], al
	mov	esp, ebp
	pop	ebp
	ret	0
??__Epiecewise_construct@std@@YAXXZ ENDP		; std::`dynamic initializer for 'piecewise_construct''
text$di	ENDS
; Function compile flags: /Odtp
; File d:\vs2013\vc\include\xutility
;	COMDAT ??__Eallocator_arg@std@@YAXXZ
text$di	SEGMENT
$T1 = -1						; size = 1
??__Eallocator_arg@std@@YAXXZ PROC			; std::`dynamic initializer for 'allocator_arg'', COMDAT

; 3451 : const allocator_arg_t allocator_arg = allocator_arg_t();

	push	ebp
	mov	ebp, esp
	push	ecx
	xor	eax, eax
	mov	BYTE PTR $T1[ebp], al
	mov	esp, ebp
	pop	ebp
	ret	0
??__Eallocator_arg@std@@YAXXZ ENDP			; std::`dynamic initializer for 'allocator_arg''
text$di	ENDS
; Function compile flags: /Odtp
; File d:\vs2013\vc\include\tuple
;	COMDAT ??__Eignore@std@@YAXXZ
text$di	SEGMENT
??__Eignore@std@@YAXXZ PROC				; std::`dynamic initializer for 'ignore'', COMDAT

; 59   : const _Ignore ignore;

	push	ebp
	mov	ebp, esp
	mov	ecx, OFFSET _ignore
	call	??0_Ignore@std@@QAE@XZ			; std::_Ignore::_Ignore
	pop	ebp
	ret	0
??__Eignore@std@@YAXXZ ENDP				; std::`dynamic initializer for 'ignore''
text$di	ENDS
; Function compile flags: /Odtp
; File d:\vs2013\vc\include\tuple
;	COMDAT ??__E_Tuple_alloc@std@@YAXXZ
text$di	SEGMENT
$T1 = -1						; size = 1
??__E_Tuple_alloc@std@@YAXXZ PROC			; std::`dynamic initializer for '_Tuple_alloc'', COMDAT

; 66   : const _Tuple_alloc_t _Tuple_alloc = _Tuple_alloc_t();

	push	ebp
	mov	ebp, esp
	push	ecx
	xor	eax, eax
	mov	BYTE PTR $T1[ebp], al
	mov	esp, ebp
	pop	ebp
	ret	0
??__E_Tuple_alloc@std@@YAXXZ ENDP			; std::`dynamic initializer for '_Tuple_alloc''
text$di	ENDS
END
