; Listing generated by Microsoft (R) Optimizing Compiler Version 18.00.21005.1 

	TITLE	F:\songmm_moon_stone_obs\OBS\Source\WindowStuff.cpp
	.686P
	.XMM
	include listing.inc
	.model	flat

INCLUDELIB OLDNAMES

PUBLIC	??_C@_1BA@OKEJPPOI@?$AAP?$AAr?$AAo?$AAf?$AAi?$AAl?$AAe?$AA?$AA@ ; `string'
PUBLIC	??_C@_0BE@JONHPENG@map?1set?$DMT?$DO?5too?5long?$AA@ ; `string'
PUBLIC	??_R0PB_W@8					; wchar_t const * `RTTI Type Descriptor'
PUBLIC	??_R0?AUSceneHotkeyInfo@@@8			; SceneHotkeyInfo `RTTI Type Descriptor'
PUBLIC	??_R0PAVXElement@@@8				; XElement * `RTTI Type Descriptor'
EXTRN	__imp_??YVect2@@QAEAAU0@M@Z:PROC
EXTRN	__imp_?Dist@Vect2@@QBEMABU1@@Z:PROC
EXTRN	__imp_?ClampMin@Vect2@@QAEAAU1@ABU1@@Z:PROC
EXTRN	__imp_?Floor@Vect2@@QAEAAU1@XZ:PROC
EXTRN	__imp_?CloseTo@Vect2@@QBEHABU1@M@Z:PROC
EXTRN	__imp_?SetName@XBaseItem@@QAEXPB_W@Z:PROC
EXTRN	__imp_?GetParent@XElement@@QBEPAV1@XZ:PROC
EXTRN	__imp_?GetName@SceneItem@@QBEPB_WXZ:PROC
EXTRN	__imp_?GetSize@SceneItem@@QBE?AUVect2@@XZ:PROC
EXTRN	__imp_?GetPos@SceneItem@@QBE?AUVect2@@XZ:PROC
EXTRN	__imp_?GetItemsOnPoint@Scene@@QBEXABUVect2@@AAV?$List@PAVSceneItem@@@@@Z:PROC
EXTRN	__imp_?GetSelectedItems@Scene@@QBEXAAV?$List@PAVSceneItem@@@@@Z:PROC
EXTRN	__imp_?GetID@SceneItem@@QAEIXZ:PROC
EXTRN	__imp__PlaySoundW@12:PROC
EXTRN	__imp__SHOpenWithDialog@8:PROC
EXTRN	__imp__CloseClipboard@0:PROC
EXTRN	__imp__SetTimer@16:PROC
EXTRN	__imp_?tstr_to_wide@@YAHPB_WPA_WI@Z:PROC
EXTRN	__imp__PostQuitMessage@4:PROC
EXTRN	__imp__TrackPopupMenu@28:PROC
EXTRN	__imp__ILFree@4:PROC
EXTRN	__imp__KillTimer@8:PROC
EXTRN	__imp_?ReadLogPartial@@YAXAAVString@@AAII@Z:PROC
EXTRN	__imp__GetKeyState@4:PROC
EXTRN	__imp__GetSubMenu@8:PROC
EXTRN	__imp__CloseThemeData@4:PROC
EXTRN	__imp__DeleteMenu@12:PROC
EXTRN	__imp__GetFocus@0:PROC
EXTRN	__imp_?GetLVText@@YA?AVString@@PAUHWND__@@I@Z:PROC
EXTRN	__imp__GlobalFree@4:PROC
EXTRN	__imp_?OSMonitorDirectoryCallback@@YAPAUOSDirectoryMonitorData@@VString@@P6AXXZ@Z:PROC
EXTRN	__imp__CreateMenu@0:PROC
EXTRN	__imp__GetMenuItemInfoW@16:PROC
EXTRN	__imp__SHOpenFolderAndSelectItems@16:PROC
EXTRN	__imp__GlobalUnlock@4:PROC
EXTRN	__imp__GetMenu@4:PROC
EXTRN	__imp__DrawThemeBackground@24:PROC
EXTRN	__imp__OffsetRect@12:PROC
EXTRN	__imp_?AddString@XElement@@QAEXPB_WPA_W@Z:PROC
EXTRN	__imp_?CopyElement@XElement@@QAEPAV1@PAV1@PB_W@Z:PROC
EXTRN	__imp_?MoveDown@XElement@@QAEXXZ:PROC
EXTRN	__imp_?MoveUp@XElement@@QAEXXZ:PROC
EXTRN	__imp_?MoveToBottom@XElement@@QAEXXZ:PROC
EXTRN	__imp_?MoveToTop@XElement@@QAEXXZ:PROC
EXTRN	__imp__TrackPopupMenuEx@24:PROC
EXTRN	__imp__AppendMenuW@16:PROC
EXTRN	__imp_?GetCropTL@SceneItem@@QAE?AUVect2@@XZ:PROC
EXTRN	__imp_?GetCrop@SceneItem@@QAE?AUVect4@@XZ:PROC
EXTRN	__imp_?GetCropBR@SceneItem@@QAE?AUVect2@@XZ:PROC
EXTRN	__imp_?GetCropTR@SceneItem@@QAE?AUVect2@@XZ:PROC
EXTRN	__imp_?Update@SceneItem@@QAEXXZ:PROC
EXTRN	__imp_?GetCropBL@SceneItem@@QAE?AUVect2@@XZ:PROC
EXTRN	__imp_?MoveDown@SceneItem@@QAEXXZ:PROC
EXTRN	__imp_?MoveUp@SceneItem@@QAEXXZ:PROC
EXTRN	__imp_?MoveToBottom@SceneItem@@QAEXXZ:PROC
EXTRN	__imp_?MoveToTop@SceneItem@@QAEXXZ:PROC
EXTRN	__imp__GetClipboardData@4:PROC
EXTRN	__imp__RemoveClipboardFormatListener@4:PROC
EXTRN	__imp__EnableMenuItem@12:PROC
EXTRN	__imp__EmptyClipboard@0:PROC
EXTRN	__imp__GlobalAlloc@8:PROC
EXTRN	__imp__OpenThemeData@8:PROC
EXTRN	__imp_?GetVolumeControlMutedVal@@YAMPAUHWND__@@@Z:PROC
EXTRN	__imp__CreatePopupMenu@0:PROC
EXTRN	__imp__DrawMenuBar@4:PROC
EXTRN	__imp__ILCreateFromPathW@4:PROC
EXTRN	__imp__GetMenuItemCount@4:PROC
EXTRN	__imp__GlobalLock@4:PROC
EXTRN	__imp__OpenClipboard@4:PROC
EXTRN	__imp__SetClipboardData@8:PROC
EXTRN	__imp__GdipDrawRectangleI@24:PROC
EXTRN	__imp__GdipReleaseDC@8:PROC
EXTRN	__imp__GdipDrawLineI@24:PROC
EXTRN	__imp__GdipCreateFontFamilyFromName@12:PROC
EXTRN	__imp__GdipGetGenericFontFamilySansSerif@4:PROC
EXTRN	__imp__GdipCreateFont@20:PROC
EXTRN	__imp__DestroyMenu@4:PROC
EXTRN	__imp__AddClipboardFormatListener@4:PROC
EXTRN	__imp__DrawFrameControl@16:PROC
EXTRN	__imp__CopyRect@8:PROC
EXTRN	__imp__MoveWindow@24:PROC
_GenericSansSerifFontFamilyBuffer DB 08H DUP (?)
_GenericTypographicStringFormatBuffer DB 08H DUP (?)
_GenericSansSerifFontFamily DD 01H DUP (?)
_GenericDefaultStringFormatBuffer DB 08H DUP (?)
_GenericMonospaceFontFamilyBuffer DB 08H DUP (?)
_GenericSerifFontFamilyBuffer DB 08H DUP (?)
_BSS	ENDS
;	COMDAT ?position@?1??OBSUpdateLog@@YAXXZ@4IA
_BSS	SEGMENT
?position@?1??OBSUpdateLog@@YAXXZ@4IA DD 01H DUP (?)	; `OBSUpdateLog'::`2'::position
_BSS	ENDS
;	COMDAT ??_R0PAVXElement@@@8
data$r	SEGMENT
??_R0PAVXElement@@@8 DD FLAT:??_7type_info@@6B@		; XElement * `RTTI Type Descriptor'
	DD	00H
	DB	'.PAVXElement@@', 00H
data$r	ENDS
;	COMDAT ??_R0?AUSceneHotkeyInfo@@@8
data$r	SEGMENT
??_R0?AUSceneHotkeyInfo@@@8 DD FLAT:??_7type_info@@6B@	; SceneHotkeyInfo `RTTI Type Descriptor'
	DD	00H
	DB	'.?AUSceneHotkeyInfo@@', 00H
data$r	ENDS
;	COMDAT ??_R0PB_W@8
data$r	SEGMENT
??_R0PB_W@8 DD	FLAT:??_7type_info@@6B@			; wchar_t const * `RTTI Type Descriptor'
	DD	00H
	DB	'.PB_W', 00H
data$r	ENDS
;	COMDAT ??_C@_0BE@JONHPENG@map?1set?$DMT?$DO?5too?5long?$AA@
CONST	SEGMENT
??_C@_0BE@JONHPENG@map?1set?$DMT?$DO?5too?5long?$AA@ DB 'map/set<T> too l'
	DB	'ong', 00H					; `string'
CONST	ENDS
;	COMDAT ??_C@_1BA@OKEJPPOI@?$AAP?$AAr?$AAo?$AAf?$AAi?$AAl?$AAe?$AA?$AA@
CONST	SEGMENT
??_C@_1BA@OKEJPPOI@?$AAP?$AAr?$AAo?$AAf?$AAi?$AAl?$AAe?$AA?$AA@ DB 'P', 00H
	DB	'r', 00H, 'o', 00H, 'f', 00H, 'i', 00H, 'l', 00H, 'e', 00H, 00H
	DB	00H						; `string'
$SG4294712792 DB '\', 00H, 's', 00H, 'c', 00H, 'e', 00H, 'n', 00H, 'e', 00H
	DB	'C', 00H, 'o', 00H, 'l', 00H, 'l', 00H, 'e', 00H, 'c', 00H, 't'
	DB	00H, 'i', 00H, 'o', 00H, 'n', 00H, '\', 00H, 00H, 00H
$SG4294712793 DB 'E', 00H, 'n', 00H, 't', 00H, 'e', 00H, 'r', 00H, 'N', 00H
	DB	'a', 00H, 'm', 00H, 'e', 00H, 00H, 00H
$SG4294712788 DB 'E', 00H, 'n', 00H, 't', 00H, 'e', 00H, 'r', 00H, 'N', 00H
	DB	'a', 00H, 'm', 00H, 'e', 00H, 00H, 00H
$SG4294712789 DB '$', 00H, '1', 00H, 00H, 00H
	ORG $+2
$SG4294712790 DB 'N', 00H, 'a', 00H, 'm', 00H, 'e', 00H, 'E', 00H, 'x', 00H
	DB	'i', 00H, 's', 00H, 't', 00H, 's', 00H, 00H, 00H
	ORG $+2
$SG4294712791 DB '.', 00H, 'x', 00H, 'c', 00H, 'o', 00H, 'n', 00H, 'f', 00H
	DB	'i', 00H, 'g', 00H, 00H, 00H
	ORG $+2
$SG4294712784 DB '$', 00H, '1', 00H, 00H, 00H
	ORG $+2
$SG4294712785 DB 'N', 00H, 'a', 00H, 'm', 00H, 'e', 00H, 'E', 00H, 'x', 00H
	DB	'i', 00H, 's', 00H, 't', 00H, 's', 00H, 00H, 00H
	ORG $+2
$SG4294712786 DB '.', 00H, 'i', 00H, 'n', 00H, 'i', 00H, 00H, 00H
	ORG $+2
$SG4294712787 DB '\', 00H, 'p', 00H, 'r', 00H, 'o', 00H, 'f', 00H, 'i', 00H
	DB	'l', 00H, 'e', 00H, 's', 00H, '\', 00H, 00H, 00H
	ORG $+2
$SG4294712780 DB 'N', 00H, 'a', 00H, 'm', 00H, 'e', 00H, 'E', 00H, 'x', 00H
	DB	'i', 00H, 's', 00H, 't', 00H, 's', 00H, 00H, 00H
	ORG $+2
$SG4294712781 DB 's', 00H, 'o', 00H, 'u', 00H, 'r', 00H, 'c', 00H, 'e', 00H
	DB	's', 00H, 00H, 00H
$SG4294712782 DB 's', 00H, 'o', 00H, 'u', 00H, 'r', 00H, 'c', 00H, 'e', 00H
	DB	's', 00H, 00H, 00H
$SG4294712783 DB 'E', 00H, 'n', 00H, 't', 00H, 'e', 00H, 'r', 00H, 'N', 00H
	DB	'a', 00H, 'm', 00H, 'e', 00H, 00H, 00H
$SG4294712776 DB 'E', 00H, 'n', 00H, 't', 00H, 'e', 00H, 'r', 00H, 'N', 00H
	DB	'a', 00H, 'm', 00H, 'e', 00H, 00H, 00H
$SG4294712777 DB 'S', 00H, 'c', 00H, 'e', 00H, 'n', 00H, 'e', 00H, '.', 00H
	DB	'H', 00H, 'o', 00H, 't', 00H, 'k', 00H, 'e', 00H, 'y', 00H, '.'
	DB	00H, 'A', 00H, 'l', 00H, 'r', 00H, 'e', 00H, 'a', 00H, 'd', 00H
	DB	'y', 00H, 'I', 00H, 'n', 00H, 'U', 00H, 's', 00H, 'e', 00H, 00H
	DB	00H
$SG4294712778 DB 'h', 00H, 'o', 00H, 't', 00H, 'k', 00H, 'e', 00H, 'y', 00H
	DB	00H, 00H
	ORG $+2
$SG4294712779 DB '$', 00H, '1', 00H, 00H, 00H
	ORG $+2
$SG4294712772 DB 's', 00H, 'c', 00H, 'e', 00H, 'n', 00H, 'e', 00H, 's', 00H
	DB	00H, 00H
	ORG $+2
$SG4294712773 DB '$', 00H, '1', 00H, 00H, 00H
	ORG $+2
$SG4294712774 DB 'N', 00H, 'a', 00H, 'm', 00H, 'e', 00H, 'E', 00H, 'x', 00H
	DB	'i', 00H, 's', 00H, 't', 00H, 's', 00H, 00H, 00H
	ORG $+2
$SG4294712775 DB 's', 00H, 'c', 00H, 'e', 00H, 'n', 00H, 'e', 00H, 's', 00H
	DB	00H, 00H
	ORG $+2
$SG4294712768 DB ' ', 00H, '%', 00H, 'u', 00H, 00H, 00H
$SG4294712769 DB 's', 00H, 'o', 00H, 'u', 00H, 'r', 00H, 'c', 00H, 'e', 00H
	DB	's', 00H, 00H, 00H
$SG4294712770 DB 's', 00H, 'o', 00H, 'u', 00H, 'r', 00H, 'c', 00H, 'e', 00H
	DB	's', 00H, 00H, 00H
$SG4294712771 DB ' ', 00H, '%', 00H, 'u', 00H, 00H, 00H
$SG4294712764 DB '$', 00H, '1', 00H, 00H, 00H
	ORG $+2
$SG4294712765 DB 'L', 00H, 'i', 00H, 's', 00H, 't', 00H, 'b', 00H, 'o', 00H
	DB	'x', 00H, '.', 00H, 'A', 00H, 'd', 00H, 'd', 00H, 00H, 00H
$SG4294712766 DB '\skin\TAB.png', 00H
	ORG $+2
$SG4294712767 DB '\skin\staticbg.png', 00H
	ORG $+1
$SG4294712760 DB 'c', 00H, 'l', 00H, 'a', 00H, 's', 00H, 's', 00H, 00H, 00H
$SG4294712761 DB 'c', 00H, 'l', 00H, 'a', 00H, 's', 00H, 's', 00H, 00H, 00H
$SG4294712762 DB 'S', 00H, 'c', 00H, 'e', 00H, 'n', 00H, 'e', 00H, 00H, 00H
$SG4294712763 DB 'c', 00H, 'l', 00H, 'a', 00H, 's', 00H, 's', 00H, 00H, 00H
$SG4294712756 DB 'c', 00H, 'l', 00H, 'a', 00H, 's', 00H, 's', 00H, 00H, 00H
$SG4294712757 DB 's', 00H, 'c', 00H, 'e', 00H, 'n', 00H, 'e', 00H, 's', 00H
	DB	00H, 00H
	ORG $+2
$SG4294712758 DB 'S', 00H, 'c', 00H, 'e', 00H, 'n', 00H, 'e', 00H, 00H, 00H
$SG4294712759 DB 'L', 00H, 'i', 00H, 's', 00H, 't', 00H, 'b', 00H, 'o', 00H
	DB	'x', 00H, '.', 00H, 'C', 00H, 'o', 00H, 'n', 00H, 'f', 00H, 'i'
	DB	00H, 'g', 00H, 00H, 00H
	ORG $+2
$SG4294712752 DB 's', 00H, 'c', 00H, 'e', 00H, 'n', 00H, 'e', 00H, 's', 00H
	DB	00H, 00H
	ORG $+2
$SG4294712753 DB 's', 00H, 'c', 00H, 'e', 00H, 'n', 00H, 'e', 00H, 's', 00H
	DB	00H, 00H
	ORG $+2
$SG4294712754 DB 'C', 00H, 'o', 00H, 'u', 00H, 'l', 00H, 'd', 00H, ' ', 00H
	DB	'n', 00H, 'o', 00H, 't', 00H, ' ', 00H, 'o', 00H, 'p', 00H, 'e'
	DB	00H, 'n', 00H, ' ', 00H, '''', 00H, '%', 00H, 's', 00H, 00H, 00H
	ORG $+2
$SG4294712755 DB '%', 00H, 's', 00H, '\', 00H, 's', 00H, 'c', 00H, 'e', 00H
	DB	'n', 00H, 'e', 00H, 'C', 00H, 'o', 00H, 'l', 00H, 'l', 00H, 'e'
	DB	00H, 'c', 00H, 't', 00H, 'i', 00H, 'o', 00H, 'n', 00H, '\', 00H
	DB	'%', 00H, 's', 00H, '.', 00H, 'x', 00H, 'c', 00H, 'o', 00H, 'n'
	DB	00H, 'f', 00H, 'i', 00H, 'g', 00H, 00H, 00H
$SG4294712748 DB 'c', 00H, 'l', 00H, 'a', 00H, 's', 00H, 's', 00H, 00H, 00H
$SG4294712749 DB '$', 00H, '1', 00H, 00H, 00H
	ORG $+2
$SG4294712750 DB 'C', 00H, 'o', 00H, 'p', 00H, 'y', 00H, 'T', 00H, 'o', 00H
	DB	'.', 00H, 'S', 00H, 'c', 00H, 'e', 00H, 'n', 00H, 'e', 00H, 'N'
	DB	00H, 'a', 00H, 'm', 00H, 'e', 00H, 'E', 00H, 'x', 00H, 'i', 00H
	DB	's', 00H, 't', 00H, 's', 00H, 00H, 00H
	ORG $+2
$SG4294712751 DB 's', 00H, 'c', 00H, 'e', 00H, 'n', 00H, 'e', 00H, 's', 00H
	DB	00H, 00H
	ORG $+2
$SG4294712744 DB 'GlobalSource', 00H
	ORG $+3
$SG4294712745 DB 'c', 00H, 'l', 00H, 'a', 00H, 's', 00H, 's', 00H, 00H, 00H
$SG4294712746 DB 's', 00H, 'o', 00H, 'u', 00H, 'r', 00H, 'c', 00H, 'e', 00H
	DB	's', 00H, 00H, 00H
$SG4294712747 DB 'c', 00H, 'l', 00H, 'a', 00H, 's', 00H, 's', 00H, 00H, 00H
$SG4294712740 DB 'c', 00H, 'l', 00H, 'a', 00H, 's', 00H, 's', 00H, 00H, 00H
$SG4294712741 DB 's', 00H, 'o', 00H, 'u', 00H, 'r', 00H, 'c', 00H, 'e', 00H
	DB	's', 00H, 00H, 00H
$SG4294712737 DB 'n', 00H, 'a', 00H, 'm', 00H, 'e', 00H, 00H, 00H
	ORG $+2
$SG4294712742 DB 'C', 00H, 'o', 00H, 'p', 00H, 'y', 00H, 'T', 00H, 'o', 00H
	DB	'.', 00H, 'C', 00H, 'o', 00H, 'p', 00H, 'y', 00H, 'G', 00H, 'l'
	DB	00H, 'o', 00H, 'b', 00H, 'a', 00H, 'l', 00H, 'S', 00H, 'o', 00H
	DB	'u', 00H, 'r', 00H, 'c', 00H, 'e', 00H, 's', 00H, 'R', 00H, 'e'
	DB	00H, 'f', 00H, 'e', 00H, 'r', 00H, 'e', 00H, 'n', 00H, 'c', 00H
	DB	'e', 00H, 's', 00H, 00H, 00H
	ORG $+2
$SG4294712743 DB 'C', 00H, 'o', 00H, 'p', 00H, 'y', 00H, 'T', 00H, 'o', 00H
	DB	'.', 00H, 'C', 00H, 'o', 00H, 'p', 00H, 'y', 00H, 'G', 00H, 'l'
	DB	00H, 'o', 00H, 'b', 00H, 'a', 00H, 'l', 00H, 'S', 00H, 'o', 00H
	DB	'u', 00H, 'r', 00H, 'c', 00H, 'e', 00H, 's', 00H, 'R', 00H, 'e'
	DB	00H, 'f', 00H, 'e', 00H, 'r', 00H, 'e', 00H, 'n', 00H, 'c', 00H
	DB	'e', 00H, 's', 00H, '.', 00H, 'T', 00H, 'i', 00H, 't', 00H, 'l'
	DB	00H, 'e', 00H, 00H, 00H
	ORG $+2
$SG4294712736 DB 'g', 00H, 'l', 00H, 'o', 00H, 'b', 00H, 'a', 00H, 'l', 00H
	DB	' ', 00H, 's', 00H, 'o', 00H, 'u', 00H, 'r', 00H, 'c', 00H, 'e'
	DB	00H, 's', 00H, 00H, 00H
	ORG $+2
$SG4294712738 DB 'd', 00H, 'a', 00H, 't', 00H, 'a', 00H, 00H, 00H
	ORG $+2
$SG4294712739 DB 'GlobalSource', 00H
	ORG $+3
$SG4294712732 DB 'c', 00H, 'l', 00H, 'a', 00H, 's', 00H, 's', 00H, 00H, 00H
$SG4294712733 DB '$', 00H, '1', 00H, 00H, 00H
	ORG $+2
$SG4294712734 DB 'C', 00H, 'o', 00H, 'p', 00H, 'y', 00H, 'T', 00H, 'o', 00H
	DB	'.', 00H, 'G', 00H, 'l', 00H, 'o', 00H, 'b', 00H, 'a', 00H, 'l'
	DB	00H, 'S', 00H, 'o', 00H, 'u', 00H, 'r', 00H, 'c', 00H, 'e', 00H
	DB	's', 00H, 'E', 00H, 'x', 00H, 'i', 00H, 's', 00H, 't', 00H, 's'
	DB	00H, 00H, 00H
	ORG $+2
$SG4294712735 DB 'g', 00H, 'l', 00H, 'o', 00H, 'b', 00H, 'a', 00H, 'l', 00H
	DB	' ', 00H, 's', 00H, 'o', 00H, 'u', 00H, 'r', 00H, 'c', 00H, 'e'
	DB	00H, 's', 00H, 00H, 00H
	ORG $+2
$SG4294712728 DB 'GlobalSource', 00H
	ORG $+3
$SG4294712729 DB 'c', 00H, 'l', 00H, 'a', 00H, 's', 00H, 's', 00H, 00H, 00H
$SG4294712730 DB 's', 00H, 'o', 00H, 'u', 00H, 'r', 00H, 'c', 00H, 'e', 00H
	DB	's', 00H, 00H, 00H
$SG4294712731 DB 'c', 00H, 'l', 00H, 'a', 00H, 's', 00H, 's', 00H, 00H, 00H
$SG4294712724 DB 'D', 00H, 'e', 00H, 'l', 00H, 'e', 00H, 't', 00H, 'e', 00H
	DB	'C', 00H, 'o', 00H, 'n', 00H, 'f', 00H, 'i', 00H, 'r', 00H, 'm'
	DB	00H, '.', 00H, 'T', 00H, 'i', 00H, 't', 00H, 'l', 00H, 'e', 00H
	DB	00H, 00H
$SG4294712725 DB 'C', 00H, 'o', 00H, 'p', 00H, 'y', 00H, 'T', 00H, 'o', 00H
	DB	'.', 00H, 'S', 00H, 'u', 00H, 'c', 00H, 'c', 00H, 'e', 00H, 's'
	DB	00H, 's', 00H, '.', 00H, 'T', 00H, 'i', 00H, 't', 00H, 'l', 00H
	DB	'e', 00H, 00H, 00H
	ORG $+2
$SG4294712726 DB '$', 00H, '1', 00H, 00H, 00H
	ORG $+2
$SG4294712727 DB 'C', 00H, 'o', 00H, 'p', 00H, 'y', 00H, 'T', 00H, 'o', 00H
	DB	'.', 00H, 'S', 00H, 'u', 00H, 'c', 00H, 'c', 00H, 'e', 00H, 's'
	DB	00H, 's', 00H, '.', 00H, 'T', 00H, 'e', 00H, 'x', 00H, 't', 00H
	DB	00H, 00H
$SG4294712720 DB 's', 00H, 'c', 00H, 'e', 00H, 'n', 00H, 'e', 00H, 's', 00H
	DB	00H, 00H
	ORG $+2
$SG4294712721 DB 'S', 00H, 'c', 00H, 'e', 00H, 'n', 00H, 'e', 00H, 00H, 00H
$SG4294712722 DB 'h', 00H, 'o', 00H, 't', 00H, 'k', 00H, 'e', 00H, 'y', 00H
	DB	00H, 00H
	ORG $+2
$SG4294712723 DB 'D', 00H, 'e', 00H, 'l', 00H, 'e', 00H, 't', 00H, 'e', 00H
	DB	'C', 00H, 'o', 00H, 'n', 00H, 'f', 00H, 'i', 00H, 'r', 00H, 'm'
	DB	00H, 00H, 00H
$SG4294712716 DB 'h', 00H, 'o', 00H, 't', 00H, 'k', 00H, 'e', 00H, 'y', 00H
	DB	00H, 00H
	ORG $+2
$SG4294712717 DB 'h', 00H, 'o', 00H, 't', 00H, 'k', 00H, 'e', 00H, 'y', 00H
	DB	00H, 00H
	ORG $+2
$SG4294712718 DB 'h', 00H, 'o', 00H, 't', 00H, 'k', 00H, 'e', 00H, 'y', 00H
	DB	00H, 00H
	ORG $+2
$SG4294712719 DB 'c', 00H, 'l', 00H, 'a', 00H, 's', 00H, 's', 00H, 00H, 00H
$SG4294712712 DB 's', 00H, 'o', 00H, 'u', 00H, 'r', 00H, 'c', 00H, 'e', 00H
	DB	's', 00H, 00H, 00H
$SG4294712713 DB 'G', 00H, 'l', 00H, 'o', 00H, 'b', 00H, 'a', 00H, 'l', 00H
	DB	'S', 00H, 'o', 00H, 'u', 00H, 'r', 00H, 'c', 00H, 'e', 00H, 00H
	DB	00H
	ORG $+2
$SG4294712714 DB 'c', 00H, 'l', 00H, 'a', 00H, 's', 00H, 's', 00H, 00H, 00H
$SG4294712715 DB 's', 00H, 'o', 00H, 'u', 00H, 'r', 00H, 'c', 00H, 'e', 00H
	DB	's', 00H, 00H, 00H
$SG4294712708 DB 'c', 00H, 'l', 00H, 'a', 00H, 's', 00H, 's', 00H, 00H, 00H
$SG4294712709 DB 'G', 00H, 'l', 00H, 'o', 00H, 'b', 00H, 'a', 00H, 'l', 00H
	DB	'S', 00H, 'o', 00H, 'u', 00H, 'r', 00H, 'c', 00H, 'e', 00H, 00H
	DB	00H
	ORG $+2
$SG4294712710 DB 'r', 00H, 'e', 00H, 'n', 00H, 'd', 00H, 'e', 00H, 'r', 00H
	DB	00H, 00H
	ORG $+2
$SG4294712711 DB 's', 00H, 'o', 00H, 'u', 00H, 'r', 00H, 'c', 00H, 'e', 00H
	DB	's', 00H, 00H, 00H
$SG4294712704 DB 'c', 00H, 'x', 00H, 00H, 00H
	ORG $+2
$SG4294712705 DB 'c', 00H, 'x', 00H, 00H, 00H
	ORG $+2
$SG4294712706 DB 'n', 00H, 'a', 00H, 'm', 00H, 'e', 00H, 00H, 00H
	ORG $+2
$SG4294712707 DB 'd', 00H, 'a', 00H, 't', 00H, 'a', 00H, 00H, 00H
	ORG $+2
$SG4294712700 DB 'c', 00H, 'y', 00H, 00H, 00H
	ORG $+2
$SG4294712701 DB 'c', 00H, 'l', 00H, 'a', 00H, 's', 00H, 's', 00H, 00H, 00H
$SG4294712702 DB 'c', 00H, 'y', 00H, 00H, 00H
	ORG $+2
$SG4294712703 DB 'c', 00H, 'y', 00H, 00H, 00H
	ORG $+2
$SG4294712696 DB 'c', 00H, 'x', 00H, 00H, 00H
	ORG $+2
$SG4294712697 DB 'c', 00H, 'x', 00H, 00H, 00H
	ORG $+2
$SG4294712698 DB 'c', 00H, 'y', 00H, 00H, 00H
	ORG $+2
$SG4294712699 DB 'c', 00H, 'x', 00H, 00H, 00H
	ORG $+2
$SG4294712692 DB 'R', 00H, 'e', 00H, 'm', 00H, 'o', 00H, 'v', 00H, 'e', 00H
	DB	00H, 00H
	ORG $+2
$SG4294712693 DB 'A', 00H, 'd', 00H, 'd', 00H, 00H, 00H
$SG4294712694 DB 'G', 00H, 'l', 00H, 'o', 00H, 'b', 00H, 'a', 00H, 'l', 00H
	DB	'S', 00H, 'o', 00H, 'u', 00H, 'r', 00H, 'c', 00H, 'e', 00H, 00H
	DB	00H
	ORG $+2
$SG4294712695 DB 'c', 00H, 'y', 00H, 00H, 00H
	ORG $+2
$SG4294712688 DB 'M', 00H, 'o', 00H, 'v', 00H, 'e', 00H, 'U', 00H, 'p', 00H
	DB	00H, 00H
	ORG $+2
$SG4294712689 DB 'C', 00H, 'o', 00H, 'p', 00H, 'y', 00H, 'T', 00H, 'o', 00H
	DB	00H, 00H
	ORG $+2
$SG4294712690 DB 'C', 00H, 'o', 00H, 'p', 00H, 'y', 00H, 00H, 00H
	ORG $+2
$SG4294712691 DB 'R', 00H, 'e', 00H, 'n', 00H, 'a', 00H, 'm', 00H, 'e', 00H
	DB	00H, 00H
	ORG $+2
$SG4294712684 DB 'L', 00H, 'i', 00H, 's', 00H, 't', 00H, 'b', 00H, 'o', 00H
	DB	'x', 00H, '.', 00H, 'P', 00H, 'o', 00H, 's', 00H, 'i', 00H, 't'
	DB	00H, 'i', 00H, 'o', 00H, 'n', 00H, 'i', 00H, 'n', 00H, 'g', 00H
	DB	00H, 00H
$SG4294712685 DB 'M', 00H, 'o', 00H, 'v', 00H, 'e', 00H, 'T', 00H, 'o', 00H
	DB	'B', 00H, 'o', 00H, 't', 00H, 't', 00H, 'o', 00H, 'm', 00H, 00H
	DB	00H
	ORG $+2
$SG4294712686 DB 'M', 00H, 'o', 00H, 'v', 00H, 'e', 00H, 'T', 00H, 'o', 00H
	DB	'T', 00H, 'o', 00H, 'p', 00H, 00H, 00H
$SG4294712687 DB 'M', 00H, 'o', 00H, 'v', 00H, 'e', 00H, 'D', 00H, 'o', 00H
	DB	'w', 00H, 'n', 00H, 00H, 00H
	ORG $+2
$SG4294712680 DB 'L', 00H, 'i', 00H, 's', 00H, 't', 00H, 'b', 00H, 'o', 00H
	DB	'x', 00H, '.', 00H, 'M', 00H, 'o', 00H, 'v', 00H, 'e', 00H, 'L'
	DB	00H, 'e', 00H, 'f', 00H, 't', 00H, 00H, 00H
	ORG $+2
$SG4294712681 DB 'L', 00H, 'i', 00H, 's', 00H, 't', 00H, 'b', 00H, 'o', 00H
	DB	'x', 00H, '.', 00H, 'C', 00H, 'e', 00H, 'n', 00H, 't', 00H, 'e'
	DB	00H, 'r', 00H, 'V', 00H, 'e', 00H, 'r', 00H, 't', 00H, 'i', 00H
	DB	'c', 00H, 'a', 00H, 'l', 00H, 'l', 00H, 'y', 00H, 00H, 00H
	ORG $+2
$SG4294712682 DB 'L', 00H, 'i', 00H, 's', 00H, 't', 00H, 'b', 00H, 'o', 00H
	DB	'x', 00H, '.', 00H, 'C', 00H, 'e', 00H, 'n', 00H, 't', 00H, 'e'
	DB	00H, 'r', 00H, 'H', 00H, 'o', 00H, 'r', 00H, 'i', 00H, 'z', 00H
	DB	'o', 00H, 'n', 00H, 't', 00H, 'a', 00H, 'l', 00H, 'l', 00H, 'y'
	DB	00H, 00H, 00H
	ORG $+2
$SG4294712683 DB 'L', 00H, 'i', 00H, 's', 00H, 't', 00H, 'b', 00H, 'o', 00H
	DB	'x', 00H, '.', 00H, 'C', 00H, 'e', 00H, 'n', 00H, 't', 00H, 'e'
	DB	00H, 'r', 00H, 00H, 00H
	ORG $+2
$SG4294712676 DB 'L', 00H, 'i', 00H, 's', 00H, 't', 00H, 'b', 00H, 'o', 00H
	DB	'x', 00H, '.', 00H, 'F', 00H, 'i', 00H, 't', 00H, 'T', 00H, 'o'
	DB	00H, 'S', 00H, 'c', 00H, 'r', 00H, 'e', 00H, 'e', 00H, 'n', 00H
	DB	00H, 00H
$SG4294712677 DB 'L', 00H, 'i', 00H, 's', 00H, 't', 00H, 'b', 00H, 'o', 00H
	DB	'x', 00H, '.', 00H, 'M', 00H, 'o', 00H, 'v', 00H, 'e', 00H, 'B'
	DB	00H, 'o', 00H, 't', 00H, 't', 00H, 'o', 00H, 'm', 00H, 00H, 00H
	ORG $+2
$SG4294712678 DB 'L', 00H, 'i', 00H, 's', 00H, 't', 00H, 'b', 00H, 'o', 00H
	DB	'x', 00H, '.', 00H, 'M', 00H, 'o', 00H, 'v', 00H, 'e', 00H, 'R'
	DB	00H, 'i', 00H, 'g', 00H, 'h', 00H, 't', 00H, 00H, 00H
$SG4294712679 DB 'L', 00H, 'i', 00H, 's', 00H, 't', 00H, 'b', 00H, 'o', 00H
	DB	'x', 00H, '.', 00H, 'M', 00H, 'o', 00H, 'v', 00H, 'e', 00H, 'T'
	DB	00H, 'o', 00H, 'p', 00H, 00H, 00H
$SG4294712672 DB 09H, 00H, 'D', 00H, 'e', 00H, 'l', 00H, 00H, 00H
	ORG $+2
$SG4294712673 DB 'L', 00H, 'i', 00H, 's', 00H, 't', 00H, 'b', 00H, 'o', 00H
	DB	'x', 00H, '.', 00H, 'C', 00H, 'o', 00H, 'n', 00H, 'f', 00H, 'i'
	DB	00H, 'g', 00H, 00H, 00H
	ORG $+2
$SG4294712674 DB 'L', 00H, 'i', 00H, 's', 00H, 't', 00H, 'b', 00H, 'o', 00H
	DB	'x', 00H, '.', 00H, 'R', 00H, 'e', 00H, 's', 00H, 'e', 00H, 't'
	DB	00H, 'C', 00H, 'r', 00H, 'o', 00H, 'p', 00H, 00H, 00H
$SG4294712675 DB 'L', 00H, 'i', 00H, 's', 00H, 't', 00H, 'b', 00H, 'o', 00H
	DB	'x', 00H, '.', 00H, 'R', 00H, 'e', 00H, 's', 00H, 'e', 00H, 't'
	DB	00H, 'S', 00H, 'i', 00H, 'z', 00H, 'e', 00H, 00H, 00H
$SG4294712668 DB 09H, 00H, 'C', 00H, 't', 00H, 'r', 00H, 'l', 00H, '-', 00H
	DB	'E', 00H, 'n', 00H, 'd', 00H, 00H, 00H
$SG4294712669 DB 09H, 00H, 'C', 00H, 't', 00H, 'r', 00H, 'l', 00H, '-', 00H
	DB	'H', 00H, 'o', 00H, 'm', 00H, 'e', 00H, 00H, 00H
	ORG $+2
$SG4294712670 DB 09H, 00H, 'C', 00H, 't', 00H, 'r', 00H, 'l', 00H, '-', 00H
	DB	'D', 00H, 'o', 00H, 'w', 00H, 'n', 00H, 00H, 00H
	ORG $+2
$SG4294712671 DB 09H, 00H, 'C', 00H, 't', 00H, 'r', 00H, 'l', 00H, '-', 00H
	DB	'U', 00H, 'p', 00H, 00H, 00H
	ORG $+2
$SG4294712664 DB 09H, 00H, 'C', 00H, 't', 00H, 'r', 00H, 'l', 00H, '-', 00H
	DB	'F', 00H, 00H, 00H
$SG4294712665 DB 09H, 00H, 'C', 00H, 't', 00H, 'r', 00H, 'l', 00H, '-', 00H
	DB	'A', 00H, 'l', 00H, 't', 00H, '-', 00H, 'C', 00H, 00H, 00H
$SG4294712666 DB 09H, 00H, 'C', 00H, 't', 00H, 'r', 00H, 'l', 00H, '-', 00H
	DB	'S', 00H, 'h', 00H, 'i', 00H, 'f', 00H, 't', 00H, '-', 00H, 'C'
	DB	00H, 00H, 00H
$SG4294712667 DB 09H, 00H, 'C', 00H, 't', 00H, 'r', 00H, 'l', 00H, '-', 00H
	DB	'C', 00H, 00H, 00H
$SG4294712660 DB 09H, 00H, 'C', 00H, 't', 00H, 'r', 00H, 'l', 00H, '-', 00H
	DB	'A', 00H, 'l', 00H, 't', 00H, '-', 00H, 'R', 00H, 'i', 00H, 'g'
	DB	00H, 'h', 00H, 't', 00H, 00H, 00H
$SG4294712661 DB 09H, 00H, 'C', 00H, 't', 00H, 'r', 00H, 'l', 00H, '-', 00H
	DB	'A', 00H, 'l', 00H, 't', 00H, '-', 00H, 'U', 00H, 'p', 00H, 00H
	DB	00H
	ORG $+2
$SG4294712662 DB 09H, 00H, 'C', 00H, 't', 00H, 'r', 00H, 'l', 00H, '-', 00H
	DB	'A', 00H, 'l', 00H, 't', 00H, '-', 00H, 'L', 00H, 'e', 00H, 'f'
	DB	00H, 't', 00H, 00H, 00H
	ORG $+2
$SG4294712663 DB 09H, 00H, 'C', 00H, 't', 00H, 'r', 00H, 'l', 00H, '-', 00H
	DB	'R', 00H, 00H, 00H
$SG4294712656 DB 'L', 00H, 'i', 00H, 's', 00H, 't', 00H, 'b', 00H, 'o', 00H
	DB	'x', 00H, '.', 00H, 'S', 00H, 'e', 00H, 't', 00H, 'H', 00H, 'o'
	DB	00H, 't', 00H, 'k', 00H, 'e', 00H, 'y', 00H, 00H, 00H
$SG4294712657 DB 'O', 00H, 'r', 00H, 'd', 00H, 'e', 00H, 'r', 00H, 00H, 00H
$SG4294712658 DB 09H, 00H, 'C', 00H, 't', 00H, 'r', 00H, 'l', 00H, '-', 00H
	DB	'A', 00H, 'l', 00H, 't', 00H, '-', 00H, 'R', 00H, 00H, 00H
$SG4294712659 DB 09H, 00H, 'C', 00H, 't', 00H, 'r', 00H, 'l', 00H, '-', 00H
	DB	'A', 00H, 'l', 00H, 't', 00H, '-', 00H, 'D', 00H, 'o', 00H, 'w'
	DB	00H, 'n', 00H, 00H, 00H
	ORG $+2
$SG4294712652 DB 's', 00H, 'o', 00H, 'u', 00H, 'r', 00H, 'c', 00H, 'e', 00H
	DB	's', 00H, 00H, 00H
$SG4294712653 DB 'L', 00H, 'i', 00H, 's', 00H, 't', 00H, 'b', 00H, 'o', 00H
	DB	'x', 00H, '.', 00H, 'C', 00H, 'o', 00H, 'n', 00H, 'f', 00H, 'i'
	DB	00H, 'g', 00H, 00H, 00H
	ORG $+2
$SG4294712654 DB 'c', 00H, 'l', 00H, 'a', 00H, 's', 00H, 's', 00H, 00H, 00H
$SG4294712655 DB 's', 00H, 'o', 00H, 'u', 00H, 'r', 00H, 'c', 00H, 'e', 00H
	DB	's', 00H, 00H, 00H
$SG4294712648 DB 'GlobalSource', 00H
	ORG $+3
$SG4294712649 DB 'c', 00H, 'l', 00H, 'a', 00H, 's', 00H, 's', 00H, 00H, 00H
$SG4294712650 DB 'D', 00H, 'e', 00H, 'l', 00H, 'e', 00H, 't', 00H, 'e', 00H
	DB	'C', 00H, 'o', 00H, 'n', 00H, 'f', 00H, 'i', 00H, 'r', 00H, 'm'
	DB	00H, 00H, 00H
$SG4294712651 DB 'D', 00H, 'e', 00H, 'l', 00H, 'e', 00H, 't', 00H, 'e', 00H
	DB	'C', 00H, 'o', 00H, 'n', 00H, 'f', 00H, 'i', 00H, 'r', 00H, 'm'
	DB	00H, '.', 00H, 'T', 00H, 'i', 00H, 't', 00H, 'l', 00H, 'e', 00H
	DB	00H, 00H
$SG4294712644 DB 's', 00H, 'o', 00H, 'u', 00H, 'r', 00H, 'c', 00H, 'e', 00H
	DB	's', 00H, 00H, 00H
$SG4294712645 DB 's', 00H, 'o', 00H, 'u', 00H, 'r', 00H, 'c', 00H, 'e', 00H
	DB	's', 00H, 00H, 00H
$SG4294712646 DB 'n', 00H, 'a', 00H, 'm', 00H, 'e', 00H, 00H, 00H
	ORG $+2
$SG4294712647 DB 'd', 00H, 'a', 00H, 't', 00H, 'a', 00H, 00H, 00H
	ORG $+2
$SG4294712640 DB 'x', 00H, 00H, 00H
$SG4294712641 DB 's', 00H, 'o', 00H, 'u', 00H, 'r', 00H, 'c', 00H, 'e', 00H
	DB	's', 00H, 00H, 00H
$SG4294712642 DB 's', 00H, 'o', 00H, 'u', 00H, 'r', 00H, 'c', 00H, 'e', 00H
	DB	's', 00H, 00H, 00H
$SG4294712643 DB 's', 00H, 'o', 00H, 'u', 00H, 'r', 00H, 'c', 00H, 'e', 00H
	DB	's', 00H, 00H, 00H
$SG4294712636 DB 'x', 00H, 00H, 00H
$SG4294712637 DB 'y', 00H, 00H, 00H
$SG4294712638 DB 'x', 00H, 00H, 00H
$SG4294712639 DB 'y', 00H, 00H, 00H
$SG4294712632 DB 'c', 00H, 'x', 00H, 00H, 00H
	ORG $+2
$SG4294712633 DB 'y', 00H, 00H, 00H
$SG4294712634 DB 'x', 00H, 00H, 00H
$SG4294712635 DB 'y', 00H, 00H, 00H
$SG4294712628 DB 'c', 00H, 'r', 00H, 'o', 00H, 'p', 00H, '.', 00H, 'l', 00H
	DB	'e', 00H, 'f', 00H, 't', 00H, 00H, 00H
$SG4294712629 DB 'c', 00H, 'y', 00H, 00H, 00H
	ORG $+2
$SG4294712630 DB 'c', 00H, 'x', 00H, 00H, 00H
	ORG $+2
$SG4294712631 DB 'c', 00H, 'y', 00H, 00H, 00H
	ORG $+2
$SG4294712624 DB 'E', 00H, 'n', 00H, 't', 00H, 'e', 00H, 'r', 00H, 'N', 00H
	DB	'a', 00H, 'm', 00H, 'e', 00H, 00H, 00H
$SG4294712625 DB 'c', 00H, 'r', 00H, 'o', 00H, 'p', 00H, '.', 00H, 'b', 00H
	DB	'o', 00H, 't', 00H, 't', 00H, 'o', 00H, 'm', 00H, 00H, 00H
$SG4294712626 DB 'c', 00H, 'r', 00H, 'o', 00H, 'p', 00H, '.', 00H, 'r', 00H
	DB	'i', 00H, 'g', 00H, 'h', 00H, 't', 00H, 00H, 00H
	ORG $+2
$SG4294712627 DB 'c', 00H, 'r', 00H, 'o', 00H, 'p', 00H, '.', 00H, 't', 00H
	DB	'o', 00H, 'p', 00H, 00H, 00H
	ORG $+2
$SG4294712620 DB 'g', 00H, 'l', 00H, 'o', 00H, 'b', 00H, 'a', 00H, 'l', 00H
	DB	' ', 00H, 's', 00H, 'o', 00H, 'u', 00H, 'r', 00H, 'c', 00H, 'e'
	DB	00H, 's', 00H, 00H, 00H
	ORG $+2
$SG4294712621 DB '$', 00H, '1', 00H, 00H, 00H
	ORG $+2
$SG4294712622 DB 'N', 00H, 'a', 00H, 'm', 00H, 'e', 00H, 'E', 00H, 'x', 00H
	DB	'i', 00H, 's', 00H, 't', 00H, 's', 00H, 00H, 00H
	ORG $+2
$SG4294712623 DB 'g', 00H, 'l', 00H, 'o', 00H, 'b', 00H, 'a', 00H, 'l', 00H
	DB	' ', 00H, 's', 00H, 'o', 00H, 'u', 00H, 'r', 00H, 'c', 00H, 'e'
	DB	00H, 's', 00H, 00H, 00H
	ORG $+2
$SG4294712616 DB 'g', 00H, 'l', 00H, 'o', 00H, 'b', 00H, 'a', 00H, 'l', 00H
	DB	' ', 00H, 's', 00H, 'o', 00H, 'u', 00H, 'r', 00H, 'c', 00H, 'e'
	DB	00H, 's', 00H, 00H, 00H
	ORG $+2
$SG4294712617 DB '$', 00H, '1', 00H, 00H, 00H
	ORG $+2
$SG4294712618 DB 'L', 00H, 'i', 00H, 's', 00H, 't', 00H, 'b', 00H, 'o', 00H
	DB	'x', 00H, '.', 00H, 'A', 00H, 'd', 00H, 'd', 00H, 00H, 00H
$SG4294712619 DB 'G', 00H, 'l', 00H, 'o', 00H, 'b', 00H, 'a', 00H, 'l', 00H
	DB	'S', 00H, 'o', 00H, 'u', 00H, 'r', 00H, 'c', 00H, 'e', 00H, 00H
	DB	00H
	ORG $+2
$SG4294712612 DB 'D', 00H, 'e', 00H, 'l', 00H, 'e', 00H, 't', 00H, 'e', 00H
	DB	'C', 00H, 'o', 00H, 'n', 00H, 'f', 00H, 'i', 00H, 'r', 00H, 'm'
	DB	00H, '.', 00H, 'T', 00H, 'i', 00H, 't', 00H, 'l', 00H, 'e', 00H
	DB	00H, 00H
$SG4294712613 DB 'g', 00H, 'l', 00H, 'o', 00H, 'b', 00H, 'a', 00H, 'l', 00H
	DB	' ', 00H, 's', 00H, 'o', 00H, 'u', 00H, 'r', 00H, 'c', 00H, 'e'
	DB	00H, 's', 00H, 00H, 00H
	ORG $+2
$SG4294712614 DB 'c', 00H, 'l', 00H, 'a', 00H, 's', 00H, 's', 00H, 00H, 00H
$SG4294712615 DB 'g', 00H, 'l', 00H, 'o', 00H, 'b', 00H, 'a', 00H, 'l', 00H
	DB	' ', 00H, 's', 00H, 'o', 00H, 'u', 00H, 'r', 00H, 'c', 00H, 'e'
	DB	00H, 's', 00H, 00H, 00H
	ORG $+2
$SG4294712608 DB 'd', 00H, 'a', 00H, 't', 00H, 'a', 00H, 00H, 00H
	ORG $+2
$SG4294712609 DB 'c', 00H, 'l', 00H, 'a', 00H, 's', 00H, 's', 00H, 00H, 00H
$SG4294712610 DB 'G', 00H, 'l', 00H, 'o', 00H, 'b', 00H, 'a', 00H, 'l', 00H
	DB	'S', 00H, 'o', 00H, 'u', 00H, 'r', 00H, 'c', 00H, 'e', 00H, 00H
	DB	00H
	ORG $+2
$SG4294712611 DB 'G', 00H, 'l', 00H, 'o', 00H, 'b', 00H, 'a', 00H, 'l', 00H
	DB	'S', 00H, 'o', 00H, 'u', 00H, 'r', 00H, 'c', 00H, 'e', 00H, 's'
	DB	00H, '.', 00H, 'D', 00H, 'e', 00H, 'l', 00H, 'e', 00H, 't', 00H
	DB	'e', 00H, 'C', 00H, 'o', 00H, 'n', 00H, 'f', 00H, 'i', 00H, 'r'
	DB	00H, 'm', 00H, 00H, 00H
$SG4294712604 DB 'G', 00H, 'l', 00H, 'o', 00H, 'b', 00H, 'a', 00H, 'l', 00H
	DB	'S', 00H, 'o', 00H, 'u', 00H, 'r', 00H, 'c', 00H, 'e', 00H, 00H
	DB	00H
	ORG $+2
$SG4294712605 DB 's', 00H, 'o', 00H, 'u', 00H, 'r', 00H, 'c', 00H, 'e', 00H
	DB	's', 00H, 00H, 00H
$SG4294712606 DB 's', 00H, 'c', 00H, 'e', 00H, 'n', 00H, 'e', 00H, 's', 00H
	DB	00H, 00H
	ORG $+2
$SG4294712607 DB 'n', 00H, 'a', 00H, 'm', 00H, 'e', 00H, 00H, 00H
	ORG $+2
$SG4294712600 DB 'g', 00H, 'l', 00H, 'o', 00H, 'b', 00H, 'a', 00H, 'l', 00H
	DB	' ', 00H, 's', 00H, 'o', 00H, 'u', 00H, 'r', 00H, 'c', 00H, 'e'
	DB	00H, 's', 00H, 00H, 00H
	ORG $+2
$SG4294712601 DB 'n', 00H, 'a', 00H, 'm', 00H, 'e', 00H, 00H, 00H
	ORG $+2
$SG4294712602 DB 'd', 00H, 'a', 00H, 't', 00H, 'a', 00H, 00H, 00H
	ORG $+2
$SG4294712603 DB 'c', 00H, 'l', 00H, 'a', 00H, 's', 00H, 's', 00H, 00H, 00H
$SG4294712596 DB 'c', 00H, 'l', 00H, 'a', 00H, 's', 00H, 's', 00H, 00H, 00H
$SG4294712597 DB 'G', 00H, 'l', 00H, 'o', 00H, 'b', 00H, 'a', 00H, 'l', 00H
	DB	'S', 00H, 'o', 00H, 'u', 00H, 'r', 00H, 'c', 00H, 'e', 00H, 00H
	DB	00H
	ORG $+2
$SG4294712598 DB 's', 00H, 'o', 00H, 'u', 00H, 'r', 00H, 'c', 00H, 'e', 00H
	DB	's', 00H, 00H, 00H
$SG4294712599 DB 's', 00H, 'c', 00H, 'e', 00H, 'n', 00H, 'e', 00H, 's', 00H
	DB	00H, 00H
	ORG $+2
$SG4294712593 DB 'n', 00H, 'a', 00H, 'm', 00H, 'e', 00H, 00H, 00H
	ORG $+2
$SG4294712592 DB 'S', 00H, 'c', 00H, 'e', 00H, 'n', 00H, 'e', 00H, ' ', 00H
	DB	'F', 00H, 'i', 00H, 'l', 00H, 'e', 00H, 's', 00H, ' ', 00H, '('
	DB	00H, '*', 00H, '.', 00H, 'x', 00H, 'c', 00H, 'o', 00H, 'n', 00H
	DB	'f', 00H, 'i', 00H, 'g', 00H, ')', 00H, 00H, 00H, '*', 00H, '.'
	DB	00H, 'x', 00H, 'c', 00H, 'o', 00H, 'n', 00H, 'f', 00H, 'i', 00H
	DB	'g', 00H, 00H, 00H, 00H, 00H
	ORG $+2
$SG4294712594 DB 'n', 00H, 'a', 00H, 'm', 00H, 'e', 00H, 00H, 00H
	ORG $+2
$SG4294712595 DB 'd', 00H, 'a', 00H, 't', 00H, 'a', 00H, 00H, 00H
	ORG $+2
$SG4294712588 DB 'C', 00H, 'o', 00H, 'u', 00H, 'l', 00H, 'd', 00H, ' ', 00H
	DB	'n', 00H, 'o', 00H, 't', 00H, ' ', 00H, 'o', 00H, 'p', 00H, 'e'
	DB	00H, 'n', 00H, ' ', 00H, '''', 00H, '%', 00H, 's', 00H, 00H, 00H
	ORG $+2
$SG4294712589 DB '.', 00H, 'x', 00H, 'c', 00H, 'o', 00H, 'n', 00H, 'f', 00H
	DB	'i', 00H, 'g', 00H, 00H, 00H
	ORG $+2
$SG4294712590 DB 'G', 00H, 'e', 00H, 'n', 00H, 'e', 00H, 'r', 00H, 'a', 00H
	DB	'l', 00H, 00H, 00H
$SG4294712591 DB 'L', 00H, 'a', 00H, 's', 00H, 't', 00H, 'I', 00H, 'm', 00H
	DB	'p', 00H, 'o', 00H, 'r', 00H, 't', 00H, 'E', 00H, 'x', 00H, 'p'
	DB	00H, 'o', 00H, 'r', 00H, 't', 00H, 'P', 00H, 'a', 00H, 't', 00H
	DB	'h', 00H, 00H, 00H
	ORG $+2
$SG4294712584 DB 'G', 00H, 'l', 00H, 'o', 00H, 'b', 00H, 'a', 00H, 'l', 00H
	DB	'S', 00H, 'o', 00H, 'u', 00H, 'r', 00H, 'c', 00H, 'e', 00H, 00H
	DB	00H
	ORG $+2
$SG4294712585 DB 'c', 00H, 'l', 00H, 'a', 00H, 's', 00H, 's', 00H, 00H, 00H
$SG4294712586 DB 'g', 00H, 'l', 00H, 'o', 00H, 'b', 00H, 'a', 00H, 'l', 00H
	DB	' ', 00H, 's', 00H, 'o', 00H, 'u', 00H, 'r', 00H, 'c', 00H, 'e'
	DB	00H, 's', 00H, 00H, 00H
	ORG $+2
$SG4294712587 DB 'g', 00H, 'l', 00H, 'o', 00H, 'b', 00H, 'a', 00H, 'l', 00H
	DB	' ', 00H, 's', 00H, 'o', 00H, 'u', 00H, 'r', 00H, 'c', 00H, 'e'
	DB	00H, 's', 00H, 00H, 00H
	ORG $+2
$SG4294712580 DB 'g', 00H, 'l', 00H, 'o', 00H, 'b', 00H, 'a', 00H, 'l', 00H
	DB	' ', 00H, 's', 00H, 'o', 00H, 'u', 00H, 'r', 00H, 'c', 00H, 'e'
	DB	00H, 's', 00H, 00H, 00H
	ORG $+2
$SG4294712581 DB 'n', 00H, 'a', 00H, 'm', 00H, 'e', 00H, 00H, 00H
	ORG $+2
$SG4294712582 DB 'd', 00H, 'a', 00H, 't', 00H, 'a', 00H, 00H, 00H
	ORG $+2
$SG4294712583 DB 'c', 00H, 'l', 00H, 'a', 00H, 's', 00H, 's', 00H, 00H, 00H
$SG4294712576 DB 'I', 00H, 'm', 00H, 'p', 00H, 'o', 00H, 'r', 00H, 't', 00H
	DB	'G', 00H, 'l', 00H, 'o', 00H, 'b', 00H, 'a', 00H, 'l', 00H, 'S'
	DB	00H, 'o', 00H, 'u', 00H, 'r', 00H, 'c', 00H, 'e', 00H, 'N', 00H
	DB	'a', 00H, 'm', 00H, 'e', 00H, 'E', 00H, 'x', 00H, 'i', 00H, 's'
	DB	00H, 't', 00H, 's', 00H, 00H, 00H
	ORG $+2
$SG4294712577 DB 'g', 00H, 'l', 00H, 'o', 00H, 'b', 00H, 'a', 00H, 'l', 00H
	DB	' ', 00H, 's', 00H, 'o', 00H, 'u', 00H, 'r', 00H, 'c', 00H, 'e'
	DB	00H, 's', 00H, 00H, 00H
	ORG $+2
$SG4294712578 DB 'g', 00H, 'l', 00H, 'o', 00H, 'b', 00H, 'a', 00H, 'l', 00H
	DB	' ', 00H, 's', 00H, 'o', 00H, 'u', 00H, 'r', 00H, 'c', 00H, 'e'
	DB	00H, 's', 00H, 00H, 00H
	ORG $+2
$SG4294712579 DB 'g', 00H, 'l', 00H, 'o', 00H, 'b', 00H, 'a', 00H, 'l', 00H
	DB	' ', 00H, 's', 00H, 'o', 00H, 'u', 00H, 'r', 00H, 'c', 00H, 'e'
	DB	00H, 's', 00H, 00H, 00H
	ORG $+2
$SG4294712572 DB 'R', 00H, 'e', 00H, 'c', 00H, 'o', 00H, 'n', 00H, 'n', 00H
	DB	'e', 00H, 'c', 00H, 't', 00H, 'i', 00H, 'n', 00H, 'g', 00H, '.'
	DB	00H, 'R', 00H, 'e', 00H, 't', 00H, 'r', 00H, 'y', 00H, 'i', 00H
	DB	'n', 00H, 'g', 00H, 00H, 00H
$SG4294712573 DB 'c', 00H, 'l', 00H, 'a', 00H, 's', 00H, 's', 00H, 00H, 00H
$SG4294712574 DB 'c', 00H, 'l', 00H, 'a', 00H, 's', 00H, 's', 00H, 00H, 00H
$SG4294712575 DB '$', 00H, '1', 00H, 00H, 00H
	ORG $+2
$SG4294712568 DB 'D', 00H, 'e', 00H, 'l', 00H, 'a', 00H, 'y', 00H, 00H, 00H
$SG4294712569 DB 'P', 00H, 'u', 00H, 'b', 00H, 'l', 00H, 'i', 00H, 's', 00H
	DB	'h', 00H, 00H, 00H
$SG4294712570 DB 'E', 00H, 'x', 00H, 'p', 00H, 'e', 00H, 'r', 00H, 'i', 00H
	DB	'm', 00H, 'e', 00H, 'n', 00H, 't', 00H, 'a', 00H, 'l', 00H, 'R'
	DB	00H, 'e', 00H, 'c', 00H, 'o', 00H, 'n', 00H, 'n', 00H, 'e', 00H
	DB	'c', 00H, 't', 00H, 'M', 00H, 'o', 00H, 'd', 00H, 'e', 00H, 00H
	DB	00H
$SG4294712571 DB 'R', 00H, 'e', 00H, 'c', 00H, 'o', 00H, 'n', 00H, 'n', 00H
	DB	'e', 00H, 'c', 00H, 't', 00H, 'i', 00H, 'n', 00H, 'g', 00H, 00H
	DB	00H
	ORG $+2
$SG4294712564 DB 'E', 00H, 'x', 00H, 'p', 00H, 'e', 00H, 'r', 00H, 'i', 00H
	DB	'm', 00H, 'e', 00H, 'n', 00H, 't', 00H, 'a', 00H, 'l', 00H, 'R'
	DB	00H, 'e', 00H, 'c', 00H, 'o', 00H, 'n', 00H, 'n', 00H, 'e', 00H
	DB	'c', 00H, 't', 00H, 'M', 00H, 'o', 00H, 'd', 00H, 'e', 00H, 00H
	DB	00H
$SG4294712565 DB 'R', 00H, 'e', 00H, 'c', 00H, 'o', 00H, 'n', 00H, 'n', 00H
	DB	'e', 00H, 'c', 00H, 't', 00H, 'i', 00H, 'n', 00H, 'g', 00H, 00H
	DB	00H
	ORG $+2
$SG4294712566 DB 'R', 00H, 'e', 00H, 'c', 00H, 'o', 00H, 'n', 00H, 'n', 00H
	DB	'e', 00H, 'c', 00H, 't', 00H, 'i', 00H, 'n', 00H, 'g', 00H, '.'
	DB	00H, 'R', 00H, 'e', 00H, 't', 00H, 'r', 00H, 'y', 00H, 'i', 00H
	DB	'n', 00H, 'g', 00H, 00H, 00H
$SG4294712567 DB 'P', 00H, 'u', 00H, 'b', 00H, 'l', 00H, 'i', 00H, 's', 00H
	DB	'h', 00H, 00H, 00H
$SG4294712560 DB 'E', 00H, 'x', 00H, 'p', 00H, 'e', 00H, 'r', 00H, 'i', 00H
	DB	'm', 00H, 'e', 00H, 'n', 00H, 't', 00H, 'a', 00H, 'l', 00H, 'R'
	DB	00H, 'e', 00H, 'c', 00H, 'o', 00H, 'n', 00H, 'n', 00H, 'e', 00H
	DB	'c', 00H, 't', 00H, 'M', 00H, 'o', 00H, 'd', 00H, 'e', 00H, 00H
	DB	00H
$SG4294712561 DB 'P', 00H, 'u', 00H, 'b', 00H, 'l', 00H, 'i', 00H, 's', 00H
	DB	'h', 00H, 00H, 00H
$SG4294712562 DB 'D', 00H, 'e', 00H, 'l', 00H, 'a', 00H, 'y', 00H, 00H, 00H
$SG4294712563 DB 'P', 00H, 'u', 00H, 'b', 00H, 'l', 00H, 'i', 00H, 's', 00H
	DB	'h', 00H, 00H, 00H
$SG4294712556 DB 'S', 00H, 'c', 00H, 'e', 00H, 'n', 00H, 'e', 00H, 'C', 00H
	DB	'o', 00H, 'l', 00H, 'l', 00H, 'e', 00H, 'c', 00H, 't', 00H, 'i'
	DB	00H, 'o', 00H, 'n', 00H, 00H, 00H
$SG4294712557 DB 'P', 00H, 'u', 00H, 'b', 00H, 'l', 00H, 'i', 00H, 's', 00H
	DB	'h', 00H, 00H, 00H
$SG4294712558 DB 'D', 00H, 'e', 00H, 'l', 00H, 'a', 00H, 'y', 00H, 00H, 00H
$SG4294712559 DB 'P', 00H, 'u', 00H, 'b', 00H, 'l', 00H, 'i', 00H, 's', 00H
	DB	'h', 00H, 00H, 00H
$SG4294712552 DB '\', 00H, 's', 00H, 'c', 00H, 'e', 00H, 'n', 00H, 'e', 00H
	DB	'C', 00H, 'o', 00H, 'l', 00H, 'l', 00H, 'e', 00H, 'c', 00H, 't'
	DB	00H, 'i', 00H, 'o', 00H, 'n', 00H, '\', 00H, 00H, 00H
$SG4294712553 DB '%', 00H, 's', 00H, '\', 00H, 's', 00H, 'c', 00H, 'e', 00H
	DB	'n', 00H, 'e', 00H, 'C', 00H, 'o', 00H, 'l', 00H, 'l', 00H, 'e'
	DB	00H, 'c', 00H, 't', 00H, 'i', 00H, 'o', 00H, 'n', 00H, '\', 00H
	DB	'%', 00H, 's', 00H, '.', 00H, 'x', 00H, 'c', 00H, 'o', 00H, 'n'
	DB	00H, 'f', 00H, 'i', 00H, 'g', 00H, 00H, 00H
$SG4294712554 DB '\scenes.xconfig', 00H
$SG4294712555 DB 'G', 00H, 'e', 00H, 'n', 00H, 'e', 00H, 'r', 00H, 'a', 00H
	DB	'l', 00H, 00H, 00H
$SG4294712548 DB 'S', 00H, 'c', 00H, 'e', 00H, 'n', 00H, 'e', 00H, 'C', 00H
	DB	'o', 00H, 'l', 00H, 'l', 00H, 'e', 00H, 'c', 00H, 't', 00H, 'i'
	DB	00H, 'o', 00H, 'n', 00H, 00H, 00H
$SG4294712549 DB 'E', 00H, 'r', 00H, 'r', 00H, 'o', 00H, 'r', 00H, ' ', 00H
	DB	'-', 00H, ' ', 00H, 'u', 00H, 'n', 00H, 'a', 00H, 'b', 00H, 'l'
	DB	00H, 'e', 00H, ' ', 00H, 't', 00H, 'o', 00H, ' ', 00H, 'c', 00H
	DB	'r', 00H, 'e', 00H, 'a', 00H, 't', 00H, 'e', 00H, ' ', 00H, 'n'
	DB	00H, 'e', 00H, 'w', 00H, ' ', 00H, 'S', 00H, 'c', 00H, 'e', 00H
	DB	'n', 00H, 'e', 00H, ' ', 00H, 'C', 00H, 'o', 00H, 'l', 00H, 'l'
	DB	00H, 'e', 00H, 'c', 00H, 't', 00H, 'i', 00H, 'o', 00H, 'n', 00H
	DB	',', 00H, ' ', 00H, 'c', 00H, 'o', 00H, 'u', 00H, 'l', 00H, 'd'
	DB	00H, ' ', 00H, 'n', 00H, 'o', 00H, 't', 00H, ' ', 00H, 'c', 00H
	DB	'r', 00H, 'e', 00H, 'a', 00H, 't', 00H, 'e', 00H, ' ', 00H, 'f'
	DB	00H, 'i', 00H, 'l', 00H, 'e', 00H, 00H, 00H
	ORG $+2
$SG4294712550 DB 'S', 00H, 'e', 00H, 't', 00H, 't', 00H, 'i', 00H, 'n', 00H
	DB	'g', 00H, 's', 00H, '.', 00H, 'G', 00H, 'e', 00H, 'n', 00H, 'e'
	DB	00H, 'r', 00H, 'a', 00H, 'l', 00H, '.', 00H, 'S', 00H, 'c', 00H
	DB	'e', 00H, 'n', 00H, 'e', 00H, 's', 00H, 'E', 00H, 'x', 00H, 'i'
	DB	00H, 's', 00H, 't', 00H, 's', 00H, 00H, 00H
$SG4294712551 DB '.', 00H, 'x', 00H, 'c', 00H, 'o', 00H, 'n', 00H, 'f', 00H
	DB	'i', 00H, 'g', 00H, 00H, 00H
	ORG $+2
$SG4294712544 DB '.', 00H, 'x', 00H, 'c', 00H, 'o', 00H, 'n', 00H, 'f', 00H
	DB	'i', 00H, 'g', 00H, 00H, 00H
	ORG $+2
$SG4294712545 DB 'G', 00H, 'e', 00H, 'n', 00H, 'e', 00H, 'r', 00H, 'a', 00H
	DB	'l', 00H, 00H, 00H
$SG4294712546 DB 'S', 00H, 'c', 00H, 'e', 00H, 'n', 00H, 'e', 00H, 'C', 00H
	DB	'o', 00H, 'l', 00H, 'l', 00H, 'e', 00H, 'c', 00H, 't', 00H, 'i'
	DB	00H, 'o', 00H, 'n', 00H, 00H, 00H
$SG4294712547 DB 'G', 00H, 'e', 00H, 'n', 00H, 'e', 00H, 'r', 00H, 'a', 00H
	DB	'l', 00H, 00H, 00H
$SG4294712540 DB 'S', 00H, 'e', 00H, 't', 00H, 't', 00H, 'i', 00H, 'n', 00H
	DB	'g', 00H, 's', 00H, '.', 00H, 'G', 00H, 'e', 00H, 'n', 00H, 'e'
	DB	00H, 'r', 00H, 'a', 00H, 'l', 00H, '.', 00H, 'C', 00H, 'o', 00H
	DB	'n', 00H, 'f', 00H, 'i', 00H, 'r', 00H, 'm', 00H, 'D', 00H, 'e'
	DB	00H, 'l', 00H, 'e', 00H, 't', 00H, 'e', 00H, 00H, 00H
	ORG $+2
$SG4294712541 DB 'F', 00H, 'i', 00H, 'n', 00H, 'd', 00H, ' ', 00H, 'f', 00H
	DB	'a', 00H, 'i', 00H, 'l', 00H, 'e', 00H, 'd', 00H, ' ', 00H, 'f'
	DB	00H, 'o', 00H, 'r', 00H, ' ', 00H, 's', 00H, 'c', 00H, 'e', 00H
	DB	'n', 00H, 'e', 00H, ' ', 00H, 'c', 00H, 'o', 00H, 'l', 00H, 'l'
	DB	00H, 'e', 00H, 'c', 00H, 't', 00H, 'i', 00H, 'o', 00H, 'n', 00H
	DB	's', 00H, 00H, 00H
$SG4294712542 DB '*', 00H, '.', 00H, 'x', 00H, 'c', 00H, 'o', 00H, 'n', 00H
	DB	'f', 00H, 'i', 00H, 'g', 00H, 00H, 00H
$SG4294712543 DB '\', 00H, 's', 00H, 'c', 00H, 'e', 00H, 'n', 00H, 'e', 00H
	DB	'C', 00H, 'o', 00H, 'l', 00H, 'l', 00H, 'e', 00H, 'c', 00H, 't'
	DB	00H, 'i', 00H, 'o', 00H, 'n', 00H, '\', 00H, 00H, 00H
$SG4294712536 DB 'S', 00H, 'c', 00H, 'e', 00H, 'n', 00H, 'e', 00H, 'C', 00H
	DB	'o', 00H, 'l', 00H, 'l', 00H, 'e', 00H, 'c', 00H, 't', 00H, 'i'
	DB	00H, 'o', 00H, 'n', 00H, 00H, 00H
$SG4294712537 DB '.', 00H, 'x', 00H, 'c', 00H, 'o', 00H, 'n', 00H, 'f', 00H
	DB	'i', 00H, 'g', 00H, 00H, 00H
	ORG $+2
$SG4294712538 DB 'D', 00H, 'e', 00H, 'l', 00H, 'e', 00H, 't', 00H, 'e', 00H
	DB	'C', 00H, 'o', 00H, 'n', 00H, 'f', 00H, 'i', 00H, 'r', 00H, 'm'
	DB	00H, '.', 00H, 'T', 00H, 'i', 00H, 't', 00H, 'l', 00H, 'e', 00H
	DB	00H, 00H
$SG4294712539 DB '$', 00H, '1', 00H, 00H, 00H
	ORG $+2
$SG4294712532 DB 'S', 00H, 'c', 00H, 'e', 00H, 'n', 00H, 'e', 00H, ' ', 00H
	DB	'F', 00H, 'i', 00H, 'l', 00H, 'e', 00H, 's', 00H, ' ', 00H, '('
	DB	00H, '*', 00H, '.', 00H, 'x', 00H, 'c', 00H, 'o', 00H, 'n', 00H
	DB	'f', 00H, 'i', 00H, 'g', 00H, ')', 00H, 00H, 00H, '*', 00H, '.'
	DB	00H, 'x', 00H, 'c', 00H, 'o', 00H, 'n', 00H, 'f', 00H, 'i', 00H
	DB	'g', 00H, 00H, 00H, 00H, 00H
	ORG $+2
$SG4294712533 DB 'I', 00H, 'm', 00H, 'p', 00H, 'o', 00H, 'r', 00H, 't', 00H
	DB	'C', 00H, 'o', 00H, 'l', 00H, 'l', 00H, 'e', 00H, 'c', 00H, 't'
	DB	00H, 'i', 00H, 'o', 00H, 'n', 00H, 'R', 00H, 'e', 00H, 'p', 00H
	DB	'l', 00H, 'a', 00H, 'c', 00H, 'e', 00H, 'W', 00H, 'a', 00H, 'r'
	DB	00H, 'n', 00H, 'i', 00H, 'n', 00H, 'g', 00H, '.', 00H, 'T', 00H
	DB	'e', 00H, 'x', 00H, 't', 00H, 00H, 00H
$SG4294712534 DB 'I', 00H, 'm', 00H, 'p', 00H, 'o', 00H, 'r', 00H, 't', 00H
	DB	'C', 00H, 'o', 00H, 'l', 00H, 'l', 00H, 'e', 00H, 'c', 00H, 't'
	DB	00H, 'i', 00H, 'o', 00H, 'n', 00H, 'R', 00H, 'e', 00H, 'p', 00H
	DB	'l', 00H, 'a', 00H, 'c', 00H, 'e', 00H, 'W', 00H, 'a', 00H, 'r'
	DB	00H, 'n', 00H, 'i', 00H, 'n', 00H, 'g', 00H, '.', 00H, 'T', 00H
	DB	'i', 00H, 't', 00H, 'l', 00H, 'e', 00H, 00H, 00H
	ORG $+2
$SG4294712535 DB 'G', 00H, 'e', 00H, 'n', 00H, 'e', 00H, 'r', 00H, 'a', 00H
	DB	'l', 00H, 00H, 00H
$SG4294712528 DB 'L', 00H, 'a', 00H, 's', 00H, 't', 00H, 'I', 00H, 'm', 00H
	DB	'p', 00H, 'o', 00H, 'r', 00H, 't', 00H, 'E', 00H, 'x', 00H, 'p'
	DB	00H, 'o', 00H, 'r', 00H, 't', 00H, 'P', 00H, 'a', 00H, 't', 00H
	DB	'h', 00H, 00H, 00H
	ORG $+2
$SG4294712529 DB '.', 00H, 'x', 00H, 'c', 00H, 'o', 00H, 'n', 00H, 'f', 00H
	DB	'i', 00H, 'g', 00H, 00H, 00H
	ORG $+2
$SG4294712530 DB 'G', 00H, 'e', 00H, 'n', 00H, 'e', 00H, 'r', 00H, 'a', 00H
	DB	'l', 00H, 00H, 00H
$SG4294712531 DB 'L', 00H, 'a', 00H, 's', 00H, 't', 00H, 'I', 00H, 'm', 00H
	DB	'p', 00H, 'o', 00H, 'r', 00H, 't', 00H, 'E', 00H, 'x', 00H, 'p'
	DB	00H, 'o', 00H, 'r', 00H, 't', 00H, 'P', 00H, 'a', 00H, 't', 00H
	DB	'h', 00H, 00H, 00H
	ORG $+2
$SG4294712524 DB '\', 00H, 's', 00H, 'c', 00H, 'e', 00H, 'n', 00H, 'e', 00H
	DB	'C', 00H, 'o', 00H, 'l', 00H, 'l', 00H, 'e', 00H, 'c', 00H, 't'
	DB	00H, 'i', 00H, 'o', 00H, 'n', 00H, '\', 00H, 00H, 00H
$SG4294712525 DB 'G', 00H, 'e', 00H, 'n', 00H, 'e', 00H, 'r', 00H, 'a', 00H
	DB	'l', 00H, 00H, 00H
$SG4294712526 DB 'S', 00H, 'c', 00H, 'e', 00H, 'n', 00H, 'e', 00H, 'C', 00H
	DB	'o', 00H, 'l', 00H, 'l', 00H, 'e', 00H, 'c', 00H, 't', 00H, 'i'
	DB	00H, 'o', 00H, 'n', 00H, 00H, 00H
$SG4294712527 DB 'G', 00H, 'e', 00H, 'n', 00H, 'e', 00H, 'r', 00H, 'a', 00H
	DB	'l', 00H, 00H, 00H
$SG4294712520 DB 'G', 00H, 'e', 00H, 'n', 00H, 'e', 00H, 'r', 00H, 'a', 00H
	DB	'l', 00H, 00H, 00H
$SG4294712521 DB 'L', 00H, 'a', 00H, 's', 00H, 't', 00H, 'I', 00H, 'm', 00H
	DB	'p', 00H, 'o', 00H, 'r', 00H, 't', 00H, 'E', 00H, 'x', 00H, 'p'
	DB	00H, 'o', 00H, 'r', 00H, 't', 00H, 'P', 00H, 'a', 00H, 't', 00H
	DB	'h', 00H, 00H, 00H
	ORG $+2
$SG4294712522 DB 'S', 00H, 'c', 00H, 'e', 00H, 'n', 00H, 'e', 00H, ' ', 00H
	DB	'F', 00H, 'i', 00H, 'l', 00H, 'e', 00H, 's', 00H, ' ', 00H, '('
	DB	00H, '*', 00H, '.', 00H, 'x', 00H, 'c', 00H, 'o', 00H, 'n', 00H
	DB	'f', 00H, 'i', 00H, 'g', 00H, ')', 00H, 00H, 00H, '*', 00H, '.'
	DB	00H, 'x', 00H, 'c', 00H, 'o', 00H, 'n', 00H, 'f', 00H, 'i', 00H
	DB	'g', 00H, 00H, 00H, 00H, 00H
	ORG $+2
$SG4294712523 DB '.', 00H, 'x', 00H, 'c', 00H, 'o', 00H, 'n', 00H, 'f', 00H
	DB	'i', 00H, 'g', 00H, 00H, 00H
	ORG $+2
$SG4294712516 DB 'P', 00H, 'r', 00H, 'o', 00H, 'f', 00H, 'i', 00H, 'l', 00H
	DB	'e', 00H, 00H, 00H
$SG4294712517 DB 'G', 00H, 'e', 00H, 'n', 00H, 'e', 00H, 'r', 00H, 'a', 00H
	DB	'l', 00H, 00H, 00H
$SG4294712518 DB 'L', 00H, 'a', 00H, 's', 00H, 't', 00H, 'I', 00H, 'm', 00H
	DB	'p', 00H, 'o', 00H, 'r', 00H, 't', 00H, 'E', 00H, 'x', 00H, 'p'
	DB	00H, 'o', 00H, 'r', 00H, 't', 00H, 'P', 00H, 'a', 00H, 't', 00H
	DB	'h', 00H, 00H, 00H
	ORG $+2
$SG4294712519 DB '.', 00H, 'x', 00H, 'c', 00H, 'o', 00H, 'n', 00H, 'f', 00H
	DB	'i', 00H, 'g', 00H, 00H, 00H
	ORG $+2
$SG4294712512 DB '.', 00H, 'i', 00H, 'n', 00H, 'i', 00H, 00H, 00H
	ORG $+2
$SG4294712513 DB '\', 00H, 'p', 00H, 'r', 00H, 'o', 00H, 'f', 00H, 'i', 00H
	DB	'l', 00H, 'e', 00H, 's', 00H, '\', 00H, 00H, 00H
	ORG $+2
$SG4294712514 DB '%', 00H, 's', 00H, '\', 00H, 'p', 00H, 'r', 00H, 'o', 00H
	DB	'f', 00H, 'i', 00H, 'l', 00H, 'e', 00H, 's', 00H, '\', 00H, '%'
	DB	00H, 's', 00H, '.', 00H, 'i', 00H, 'n', 00H, 'i', 00H, 00H, 00H
	ORG $+2
$SG4294712515 DB 'G', 00H, 'e', 00H, 'n', 00H, 'e', 00H, 'r', 00H, 'a', 00H
	DB	'l', 00H, 00H, 00H
$SG4294712508 DB 'G', 00H, 'e', 00H, 'n', 00H, 'e', 00H, 'r', 00H, 'a', 00H
	DB	'l', 00H, 00H, 00H
$SG4294712509 DB 'P', 00H, 'r', 00H, 'o', 00H, 'f', 00H, 'i', 00H, 'l', 00H
	DB	'e', 00H, 00H, 00H
$SG4294712510 DB 'E', 00H, 'r', 00H, 'r', 00H, 'o', 00H, 'r', 00H, ' ', 00H
	DB	'-', 00H, ' ', 00H, 'u', 00H, 'n', 00H, 'a', 00H, 'b', 00H, 'l'
	DB	00H, 'e', 00H, ' ', 00H, 't', 00H, 'o', 00H, ' ', 00H, 'c', 00H
	DB	'r', 00H, 'e', 00H, 'a', 00H, 't', 00H, 'e', 00H, ' ', 00H, 'n'
	DB	00H, 'e', 00H, 'w', 00H, ' ', 00H, 'p', 00H, 'r', 00H, 'o', 00H
	DB	'f', 00H, 'i', 00H, 'l', 00H, 'e', 00H, ',', 00H, ' ', 00H, 'c'
	DB	00H, 'o', 00H, 'u', 00H, 'l', 00H, 'd', 00H, ' ', 00H, 'n', 00H
	DB	'o', 00H, 't', 00H, ' ', 00H, 'c', 00H, 'r', 00H, 'e', 00H, 'a'
	DB	00H, 't', 00H, 'e', 00H, ' ', 00H, 'f', 00H, 'i', 00H, 'l', 00H
	DB	'e', 00H, 00H, 00H
$SG4294712511 DB 'M', 00H, 'a', 00H, 'i', 00H, 'n', 00H, 'M', 00H, 'e', 00H
	DB	'n', 00H, 'u', 00H, '.', 00H, 'P', 00H, 'r', 00H, 'o', 00H, 'f'
	DB	00H, 'i', 00H, 'l', 00H, 'e', 00H, 's', 00H, '.', 00H, 'P', 00H
	DB	'r', 00H, 'o', 00H, 'f', 00H, 'i', 00H, 'l', 00H, 'e', 00H, 'E'
	DB	00H, 'x', 00H, 'i', 00H, 's', 00H, 't', 00H, 's', 00H, 00H, 00H
$SG4294712504 DB '\', 00H, 'p', 00H, 'r', 00H, 'o', 00H, 'f', 00H, 'i', 00H
	DB	'l', 00H, 'e', 00H, 's', 00H, '\', 00H, 00H, 00H
	ORG $+2
$SG4294712505 DB '.', 00H, 'i', 00H, 'n', 00H, 'i', 00H, 00H, 00H
	ORG $+2
$SG4294712506 DB 'G', 00H, 'e', 00H, 'n', 00H, 'e', 00H, 'r', 00H, 'a', 00H
	DB	'l', 00H, 00H, 00H
$SG4294712507 DB 'P', 00H, 'r', 00H, 'o', 00H, 'f', 00H, 'i', 00H, 'l', 00H
	DB	'e', 00H, 00H, 00H
$SG4294712500 DB '$', 00H, '1', 00H, 00H, 00H
	ORG $+2
$SG4294712501 DB 'S', 00H, 'e', 00H, 't', 00H, 't', 00H, 'i', 00H, 'n', 00H
	DB	'g', 00H, 's', 00H, '.', 00H, 'G', 00H, 'e', 00H, 'n', 00H, 'e'
	DB	00H, 'r', 00H, 'a', 00H, 'l', 00H, '.', 00H, 'C', 00H, 'o', 00H
	DB	'n', 00H, 'f', 00H, 'i', 00H, 'r', 00H, 'm', 00H, 'D', 00H, 'e'
	DB	00H, 'l', 00H, 'e', 00H, 't', 00H, 'e', 00H, 00H, 00H
	ORG $+2
$SG4294712502 DB 'F', 00H, 'i', 00H, 'n', 00H, 'd', 00H, ' ', 00H, 'f', 00H
	DB	'a', 00H, 'i', 00H, 'l', 00H, 'e', 00H, 'd', 00H, ' ', 00H, 'f'
	DB	00H, 'o', 00H, 'r', 00H, ' ', 00H, 'p', 00H, 'r', 00H, 'o', 00H
	DB	'f', 00H, 'i', 00H, 'l', 00H, 'e', 00H, 00H, 00H
$SG4294712503 DB '*', 00H, '.', 00H, 'i', 00H, 'n', 00H, 'i', 00H, 00H, 00H
$SG4294712496 DB 'G', 00H, 'e', 00H, 'n', 00H, 'e', 00H, 'r', 00H, 'a', 00H
	DB	'l', 00H, 00H, 00H
$SG4294712497 DB 'P', 00H, 'r', 00H, 'o', 00H, 'f', 00H, 'i', 00H, 'l', 00H
	DB	'e', 00H, 00H, 00H
$SG4294712498 DB '.', 00H, 'i', 00H, 'n', 00H, 'i', 00H, 00H, 00H
	ORG $+2
$SG4294712499 DB 'D', 00H, 'e', 00H, 'l', 00H, 'e', 00H, 't', 00H, 'e', 00H
	DB	'C', 00H, 'o', 00H, 'n', 00H, 'f', 00H, 'i', 00H, 'r', 00H, 'm'
	DB	00H, '.', 00H, 'T', 00H, 'i', 00H, 't', 00H, 'l', 00H, 'e', 00H
	DB	00H, 00H
$SG4294712492 DB 'P', 00H, 'r', 00H, 'o', 00H, 'f', 00H, 'i', 00H, 'l', 00H
	DB	'e', 00H, ' ', 00H, 'F', 00H, 'i', 00H, 'l', 00H, 'e', 00H, 's'
	DB	00H, ' ', 00H, '(', 00H, '*', 00H, '.', 00H, 'i', 00H, 'n', 00H
	DB	'i', 00H, ')', 00H, 00H, 00H, '*', 00H, '.', 00H, 'i', 00H, 'n'
	DB	00H, 'i', 00H, 00H, 00H, 00H, 00H
	ORG $+2
$SG4294712493 DB 'I', 00H, 'm', 00H, 'p', 00H, 'o', 00H, 'r', 00H, 't', 00H
	DB	'P', 00H, 'r', 00H, 'o', 00H, 'f', 00H, 'i', 00H, 'l', 00H, 'e'
	DB	00H, 'R', 00H, 'e', 00H, 'p', 00H, 'l', 00H, 'a', 00H, 'c', 00H
	DB	'e', 00H, 'W', 00H, 'a', 00H, 'r', 00H, 'n', 00H, 'i', 00H, 'n'
	DB	00H, 'g', 00H, '.', 00H, 'T', 00H, 'e', 00H, 'x', 00H, 't', 00H
	DB	00H, 00H
	ORG $+2
$SG4294712488 DB 'L', 00H, 'a', 00H, 's', 00H, 't', 00H, 'I', 00H, 'm', 00H
	DB	'p', 00H, 'o', 00H, 'r', 00H, 't', 00H, 'E', 00H, 'x', 00H, 'p'
	DB	00H, 'o', 00H, 'r', 00H, 't', 00H, 'P', 00H, 'a', 00H, 't', 00H
	DB	'h', 00H, 00H, 00H
	ORG $+2
$SG4294712494 DB 'I', 00H, 'm', 00H, 'p', 00H, 'o', 00H, 'r', 00H, 't', 00H
	DB	'P', 00H, 'r', 00H, 'o', 00H, 'f', 00H, 'i', 00H, 'l', 00H, 'e'
	DB	00H, 'R', 00H, 'e', 00H, 'p', 00H, 'l', 00H, 'a', 00H, 'c', 00H
	DB	'e', 00H, 'W', 00H, 'a', 00H, 'r', 00H, 'n', 00H, 'i', 00H, 'n'
	DB	00H, 'g', 00H, '.', 00H, 'T', 00H, 'i', 00H, 't', 00H, 'l', 00H
	DB	'e', 00H, 00H, 00H
$SG4294712489 DB '.', 00H, 'i', 00H, 'n', 00H, 'i', 00H, 00H, 00H
	ORG $+2
$SG4294712495 DB 'E', 00H, 'r', 00H, 'r', 00H, 'o', 00H, 'r', 00H, ' ', 00H
	DB	'-', 00H, ' ', 00H, 'u', 00H, 'n', 00H, 'a', 00H, 'b', 00H, 'l'
	DB	00H, 'e', 00H, ' ', 00H, 't', 00H, 'o', 00H, ' ', 00H, 'o', 00H
	DB	'p', 00H, 'e', 00H, 'n', 00H, ' ', 00H, 'i', 00H, 'n', 00H, 'i'
	DB	00H, ' ', 00H, 'f', 00H, 'i', 00H, 'l', 00H, 'e', 00H, 00H, 00H
$SG4294712490 DB 'G', 00H, 'e', 00H, 'n', 00H, 'e', 00H, 'r', 00H, 'a', 00H
	DB	'l', 00H, 00H, 00H
$SG4294712491 DB 'L', 00H, 'a', 00H, 's', 00H, 't', 00H, 'I', 00H, 'm', 00H
	DB	'p', 00H, 'o', 00H, 'r', 00H, 't', 00H, 'E', 00H, 'x', 00H, 'p'
	DB	00H, 'o', 00H, 'r', 00H, 't', 00H, 'P', 00H, 'a', 00H, 't', 00H
	DB	'h', 00H, 00H, 00H
	ORG $+2
$SG4294712484 DB '\', 00H, 'p', 00H, 'r', 00H, 'o', 00H, 'f', 00H, 'i', 00H
	DB	'l', 00H, 'e', 00H, 's', 00H, '\', 00H, 00H, 00H
	ORG $+2
$SG4294712485 DB 'G', 00H, 'e', 00H, 'n', 00H, 'e', 00H, 'r', 00H, 'a', 00H
	DB	'l', 00H, 00H, 00H
$SG4294712486 DB 'P', 00H, 'r', 00H, 'o', 00H, 'f', 00H, 'i', 00H, 'l', 00H
	DB	'e', 00H, 00H, 00H
$SG4294712487 DB 'G', 00H, 'e', 00H, 'n', 00H, 'e', 00H, 'r', 00H, 'a', 00H
	DB	'l', 00H, 00H, 00H
$SG4294712480 DB 'L', 00H, 'a', 00H, 's', 00H, 't', 00H, 'I', 00H, 'm', 00H
	DB	'p', 00H, 'o', 00H, 'r', 00H, 't', 00H, 'E', 00H, 'x', 00H, 'p'
	DB	00H, 'o', 00H, 'r', 00H, 't', 00H, 'P', 00H, 'a', 00H, 't', 00H
	DB	'h', 00H, 00H, 00H
	ORG $+2
$SG4294712481 DB 'P', 00H, 'r', 00H, 'o', 00H, 'f', 00H, 'i', 00H, 'l', 00H
	DB	'e', 00H, ' ', 00H, 'F', 00H, 'i', 00H, 'l', 00H, 'e', 00H, 's'
	DB	00H, ' ', 00H, '(', 00H, '*', 00H, '.', 00H, 'i', 00H, 'n', 00H
	DB	'i', 00H, ')', 00H, 00H, 00H, '*', 00H, '.', 00H, 'i', 00H, 'n'
	DB	00H, 'i', 00H, 00H, 00H, 00H, 00H
	ORG $+2
$SG4294712483 DB '.', 00H, 'i', 00H, 'n', 00H, 'i', 00H, 00H, 00H
	ORG $+2
$SG4294712482 DB 'E', 00H, 'r', 00H, 'r', 00H, 'o', 00H, 'r', 00H, ' ', 00H
	DB	'-', 00H, ' ', 00H, 'u', 00H, 'n', 00H, 'a', 00H, 'b', 00H, 'l'
	DB	00H, 'e', 00H, ' ', 00H, 't', 00H, 'o', 00H, ' ', 00H, 'o', 00H
	DB	'p', 00H, 'e', 00H, 'n', 00H, ' ', 00H, 'i', 00H, 'n', 00H, 'i'
	DB	00H, ' ', 00H, 'f', 00H, 'i', 00H, 'l', 00H, 'e', 00H, 00H, 00H
$SG4294712476 DB 'G', 00H, 'e', 00H, 'n', 00H, 'e', 00H, 'r', 00H, 'a', 00H
	DB	'l', 00H, 00H, 00H
$SG4294712477 DB 'P', 00H, 'r', 00H, 'o', 00H, 'f', 00H, 'i', 00H, 'l', 00H
	DB	'e', 00H, 00H, 00H
$SG4294712478 DB '.', 00H, 'i', 00H, 'n', 00H, 'i', 00H, 00H, 00H
	ORG $+2
$SG4294712479 DB 'G', 00H, 'e', 00H, 'n', 00H, 'e', 00H, 'r', 00H, 'a', 00H
	DB	'l', 00H, 00H, 00H
$SG4294712472 DB 'G', 00H, 'e', 00H, 'n', 00H, 'e', 00H, 'r', 00H, 'a', 00H
	DB	'l', 00H, 00H, 00H
$SG4294712473 DB 'L', 00H, 'a', 00H, 's', 00H, 't', 00H, 'I', 00H, 'm', 00H
	DB	'p', 00H, 'o', 00H, 'r', 00H, 't', 00H, 'E', 00H, 'x', 00H, 'p'
	DB	00H, 'o', 00H, 'r', 00H, 't', 00H, 'P', 00H, 'a', 00H, 't', 00H
	DB	'h', 00H, 00H, 00H
	ORG $+2
$SG4294712474 DB '.', 00H, 'i', 00H, 'n', 00H, 'i', 00H, 00H, 00H
	ORG $+2
$SG4294712475 DB '\', 00H, 'p', 00H, 'r', 00H, 'o', 00H, 'f', 00H, 'i', 00H
	DB	'l', 00H, 'e', 00H, 's', 00H, '\', 00H, 00H, 00H
	ORG $+2
$SG4294712468 DB 'Open Broadcaster Software', 00H
	ORG $+2
$SG4294712469 DB '/', 00H, 'l', 00H, 'o', 00H, 'g', 00H, 's', 00H, '/', 00H
	DB	00H, 00H
	ORG $+2
$SG4294712470 DB '/', 00H, 'l', 00H, 'o', 00H, 'g', 00H, 's', 00H, '/', 00H
	DB	00H, 00H
	ORG $+2
$SG4294712471 DB '%', 00H, 's', 00H, '/', 00H, 'l', 00H, 'o', 00H, 'g', 00H
	DB	's', 00H, '/', 00H, '*', 00H, '.', 00H, 'l', 00H, 'o', 00H, 'g'
	DB	00H, 00H, 00H
$SG4294712464 DB 'L', 00H, 'o', 00H, 'g', 00H, 'U', 00H, 'p', 00H, 'l', 00H
	DB	'o', 00H, 'a', 00H, 'd', 00H, '.', 00H, 'U', 00H, 'p', 00H, 'l'
	DB	00H, 'o', 00H, 'a', 00H, 'd', 00H, 00H, 00H
	ORG $+2
$SG4294712465 DB 'L', 00H, 'o', 00H, 'g', 00H, 'U', 00H, 'p', 00H, 'l', 00H
	DB	'o', 00H, 'a', 00H, 'd', 00H, '.', 00H, 'A', 00H, 'n', 00H, 'a'
	DB	00H, 'l', 00H, 'y', 00H, 'z', 00H, 'e', 00H, 00H, 00H
$SG4294712466 DB 'M', 00H, 'a', 00H, 'i', 00H, 'n', 00H, 'M', 00H, 'e', 00H
	DB	'n', 00H, 'u', 00H, '.', 00H, 'H', 00H, 'e', 00H, 'l', 00H, 'p'
	DB	00H, '.', 00H, 'U', 00H, 'p', 00H, 'l', 00H, 'o', 00H, 'a', 00H
	DB	'd', 00H, 'L', 00H, 'a', 00H, 's', 00H, 't', 00H, 'L', 00H, 'o'
	DB	00H, 'g', 00H, 00H, 00H
$SG4294712467 DB 'M', 00H, 'a', 00H, 'i', 00H, 'n', 00H, 'M', 00H, 'e', 00H
	DB	'n', 00H, 'u', 00H, '.', 00H, 'H', 00H, 'e', 00H, 'l', 00H, 'p'
	DB	00H, '.', 00H, 'A', 00H, 'n', 00H, 'a', 00H, 'l', 00H, 'y', 00H
	DB	'z', 00H, 'e', 00H, 'L', 00H, 'a', 00H, 's', 00H, 't', 00H, 'L'
	DB	00H, 'o', 00H, 'g', 00H, 00H, 00H
	ORG $+2
$SG4294712460 DB 'L', 00H, 'o', 00H, 'g', 00H, 'U', 00H, 'p', 00H, 'l', 00H
	DB	'o', 00H, 'a', 00H, 'd', 00H, '.', 00H, 'S', 00H, 'u', 00H, 'c'
	DB	00H, 'c', 00H, 'e', 00H, 's', 00H, 's', 00H, 'D', 00H, 'i', 00H
	DB	'a', 00H, 'l', 00H, 'o', 00H, 'g', 00H, '.', 00H, 'C', 00H, 'o'
	DB	00H, 'p', 00H, 'y', 00H, 'F', 00H, 'a', 00H, 'i', 00H, 'l', 00H
	DB	'u', 00H, 'r', 00H, 'e', 00H, 00H, 00H
$SG4294712461 DB 'L', 00H, 'o', 00H, 'g', 00H, 'U', 00H, 'p', 00H, 'l', 00H
	DB	'o', 00H, 'a', 00H, 'd', 00H, '.', 00H, 'S', 00H, 'u', 00H, 'c'
	DB	00H, 'c', 00H, 'e', 00H, 's', 00H, 's', 00H, 'D', 00H, 'i', 00H
	DB	'a', 00H, 'l', 00H, 'o', 00H, 'g', 00H, '.', 00H, 'C', 00H, 'o'
	DB	00H, 'p', 00H, 'y', 00H, 'S', 00H, 'u', 00H, 'c', 00H, 'c', 00H
	DB	'e', 00H, 's', 00H, 's', 00H, 00H, 00H
$SG4294712462 DB 'L', 00H, 'o', 00H, 'g', 00H, 'U', 00H, 'p', 00H, 'l', 00H
	DB	'o', 00H, 'a', 00H, 'd', 00H, '.', 00H, 'S', 00H, 'u', 00H, 'c'
	DB	00H, 'c', 00H, 'e', 00H, 's', 00H, 's', 00H, 'D', 00H, 'i', 00H
	DB	'a', 00H, 'l', 00H, 'o', 00H, 'g', 00H, '.', 00H, 'C', 00H, 'o'
	DB	00H, 'p', 00H, 'y', 00H, 'S', 00H, 'u', 00H, 'c', 00H, 'c', 00H
	DB	'e', 00H, 's', 00H, 's', 00H, 00H, 00H
$SG4294712463 DB 'L', 00H, 'o', 00H, 'g', 00H, 'U', 00H, 'p', 00H, 'l', 00H
	DB	'o', 00H, 'a', 00H, 'd', 00H, '.', 00H, 'V', 00H, 'i', 00H, 'e'
	DB	00H, 'w', 00H, 00H, 00H
	ORG $+2
$SG4294712456 DB 'L', 00H, 'o', 00H, 'g', 00H, 'U', 00H, 'p', 00H, 'l', 00H
	DB	'o', 00H, 'a', 00H, 'd', 00H, 'e', 00H, 'r', 00H, '.', 00H, 'F'
	DB	00H, 'a', 00H, 'i', 00H, 'l', 00H, 'e', 00H, 'd', 00H, 'T', 00H
	DB	'o', 00H, 'A', 00H, 'n', 00H, 'a', 00H, 'l', 00H, 'y', 00H, 'z'
	DB	00H, 'e', 00H, 00H, 00H
$SG4294712457 DB 'o', 00H, 'b', 00H, 's', 00H, 'p', 00H, 'r', 00H, 'o', 00H
	DB	'j', 00H, 'e', 00H, 'c', 00H, 't', 00H, '.', 00H, 'c', 00H, 'o'
	DB	00H, 'm', 00H, 00H, 00H
	ORG $+2
$SG4294712458 DB '/', 00H, 'a', 00H, 'n', 00H, 'a', 00H, 'l', 00H, 'y', 00H
	DB	'z', 00H, 'e', 00H, 'r', 00H, 00H, 00H
$SG4294712459 DB '?', 00H, 'u', 00H, 'r', 00H, 'l', 00H, '=', 00H, '%', 00H
	DB	's', 00H, 00H, 00H
$SG4294712453 DB 'Scenes: ', 00H
	ORG $+3
$SG4294712452 DB ' ', 00H, '-', 00H, ' ', 00H, 'O', 00H, 'p', 00H, 'e', 00H
	DB	'n', 00H, ' ', 00H, 'B', 00H, 'r', 00H, 'o', 00H, 'a', 00H, 'd'
	DB	00H, 'c', 00H, 'a', 00H, 's', 00H, 't', 00H, 'e', 00H, 'r', 00H
	DB	' ', 00H, 'S', 00H, 'o', 00H, 'f', 00H, 't', 00H, 'w', 00H, 'a'
	DB	00H, 'r', 00H, 'e', 00H, ' ', 00H, 'v', 00H, '0', 00H, '.', 00H
	DB	'6', 00H, '5', 00H, '7', 00H, 'b', 00H, 00H, 00H
	ORG $+2
$SG4294712454 DB ' - ', 00H
$SG4294712455 DB 'Profile: ', 00H
	ORG $+2
$SG4294712448 DB 'C', 00H, 'l', 00H, 'o', 00H, 's', 00H, 'e', 00H, 'W', 00H
	DB	'h', 00H, 'i', 00H, 'l', 00H, 'e', 00H, 'A', 00H, 'c', 00H, 't'
	DB	00H, 'i', 00H, 'v', 00H, 'e', 00H, 'W', 00H, 'a', 00H, 'r', 00H
	DB	'n', 00H, 'i', 00H, 'n', 00H, 'g', 00H, '.', 00H, 'T', 00H, 'i'
	DB	00H, 't', 00H, 'l', 00H, 'e', 00H, 00H, 00H
$SG4294712449 DB 'C', 00H, 'l', 00H, 'o', 00H, 's', 00H, 'e', 00H, 'W', 00H
	DB	'h', 00H, 'i', 00H, 'l', 00H, 'e', 00H, 'A', 00H, 'c', 00H, 't'
	DB	00H, 'i', 00H, 'v', 00H, 'e', 00H, 'W', 00H, 'a', 00H, 'r', 00H
	DB	'n', 00H, 'i', 00H, 'n', 00H, 'g', 00H, '.', 00H, 'M', 00H, 'e'
	DB	00H, 's', 00H, 's', 00H, 'a', 00H, 'g', 00H, 'e', 00H, 00H, 00H
$SG4294712450 DB 'C', 00H, 'l', 00H, 'o', 00H, 's', 00H, 'e', 00H, 'W', 00H
	DB	'h', 00H, 'i', 00H, 'l', 00H, 'e', 00H, 'A', 00H, 'c', 00H, 't'
	DB	00H, 'i', 00H, 'v', 00H, 'e', 00H, 'W', 00H, 'a', 00H, 'r', 00H
	DB	'n', 00H, 'i', 00H, 'n', 00H, 'g', 00H, '.', 00H, 'T', 00H, 'i'
	DB	00H, 't', 00H, 'l', 00H, 'e', 00H, 00H, 00H
$SG4294712451 DB '\scenes.xconfig', 00H
$SG4294712444 DB 'P', 00H, 'u', 00H, 'b', 00H, 'l', 00H, 'i', 00H, 's', 00H
	DB	'h', 00H, 00H, 00H
$SG4294712445 DB 'S', 00H, 'a', 00H, 'v', 00H, 'e', 00H, 'P', 00H, 'a', 00H
	DB	't', 00H, 'h', 00H, 00H, 00H
	ORG $+2
$SG4294712446 DB 'R', 00H, 'e', 00H, 'p', 00H, 'l', 00H, 'a', 00H, 'y', 00H
	DB	'B', 00H, 'u', 00H, 'f', 00H, 'f', 00H, 'e', 00H, 'r', 00H, 'S'
	DB	00H, 'a', 00H, 'v', 00H, 'e', 00H, 'P', 00H, 'a', 00H, 't', 00H
	DB	'h', 00H, 00H, 00H
	ORG $+2
$SG4294712436 DB '/', 00H, 00H, 00H
$SG4294712447 DB 'C', 00H, 'l', 00H, 'o', 00H, 's', 00H, 'e', 00H, 'W', 00H
	DB	'h', 00H, 'i', 00H, 'l', 00H, 'e', 00H, 'A', 00H, 'c', 00H, 't'
	DB	00H, 'i', 00H, 'v', 00H, 'e', 00H, 'W', 00H, 'a', 00H, 'r', 00H
	DB	'n', 00H, 'i', 00H, 'n', 00H, 'g', 00H, '.', 00H, 'M', 00H, 'e'
	DB	00H, 's', 00H, 's', 00H, 'a', 00H, 'g', 00H, 'e', 00H, 00H, 00H
$SG4294712440 DB 'M', 00H, 'a', 00H, 'i', 00H, 'n', 00H, 'M', 00H, 'e', 00H
	DB	'n', 00H, 'u', 00H, '.', 00H, 'F', 00H, 'i', 00H, 'l', 00H, 'e'
	DB	00H, '.', 00H, 'D', 00H, 'i', 00H, 'r', 00H, 'e', 00H, 'c', 00H
	DB	't', 00H, 'o', 00H, 'r', 00H, 'y', 00H, 'D', 00H, 'o', 00H, 'e'
	DB	00H, 's', 00H, 'N', 00H, 'o', 00H, 't', 00H, 'E', 00H, 'x', 00H
	DB	'i', 00H, 's', 00H, 't', 00H, 'C', 00H, 'a', 00H, 'p', 00H, 't'
	DB	00H, 'i', 00H, 'o', 00H, 'n', 00H, 00H, 00H
	ORG $+2
$SG4294712441 DB '$', 00H, '1', 00H, 00H, 00H
	ORG $+2
$SG4294712442 DB 'M', 00H, 'a', 00H, 'i', 00H, 'n', 00H, 'M', 00H, 'e', 00H
	DB	'n', 00H, 'u', 00H, '.', 00H, 'F', 00H, 'i', 00H, 'l', 00H, 'e'
	DB	00H, '.', 00H, 'O', 00H, 'p', 00H, 'e', 00H, 'n', 00H, 'R', 00H
	DB	'e', 00H, 'c', 00H, 'o', 00H, 'r', 00H, 'd', 00H, 'i', 00H, 'n'
	DB	00H, 'g', 00H, 's', 00H, 'F', 00H, 'o', 00H, 'l', 00H, 'd', 00H
	DB	'e', 00H, 'r', 00H, '.', 00H, 'D', 00H, 'o', 00H, 'e', 00H, 's'
	DB	00H, 'N', 00H, 'o', 00H, 't', 00H, 'E', 00H, 'x', 00H, 'i', 00H
	DB	's', 00H, 't', 00H, 00H, 00H
$SG4294712443 DB 'M', 00H, 'a', 00H, 'i', 00H, 'n', 00H, 'M', 00H, 'e', 00H
	DB	'n', 00H, 'u', 00H, '.', 00H, 'F', 00H, 'i', 00H, 'l', 00H, 'e'
	DB	00H, '.', 00H, 'S', 00H, 'h', 00H, 'o', 00H, 'w', 00H, 'S', 00H
	DB	'a', 00H, 'v', 00H, 'e', 00H, 'd', 00H, 'R', 00H, 'e', 00H, 'p'
	DB	00H, 'l', 00H, 'a', 00H, 'y', 00H, 'B', 00H, 'u', 00H, 'f', 00H
	DB	'f', 00H, 'e', 00H, 'r', 00H, 's', 00H, '.', 00H, 'D', 00H, 'o'
	DB	00H, 'e', 00H, 's', 00H, 'N', 00H, 'o', 00H, 't', 00H, 'E', 00H
	DB	'x', 00H, 'i', 00H, 's', 00H, 't', 00H, 00H, 00H
$SG4294712437 DB '\', 00H, 00H, 00H
$SG4294712438 DB '/', 00H, 00H, 00H
$SG4294712439 DB '\', 00H, 00H, 00H
$SG4294712432 DB 'o', 00H, 'p', 00H, 'e', 00H, 'n', 00H, 00H, 00H
	ORG $+2
$SG4294712433 DB '\', 00H, 'l', 00H, 'o', 00H, 'g', 00H, 's', 00H, 00H, 00H
$SG4294712434 DB 'o', 00H, 'p', 00H, 'e', 00H, 'n', 00H, 00H, 00H
	ORG $+2
$SG4294712435 DB 'o', 00H, 'p', 00H, 'e', 00H, 'n', 00H, 00H, 00H
	ORG $+2
$SG4294712428 DB 'A', 00H, 'u', 00H, 'd', 00H, 'i', 00H, 'o', 00H, 00H, 00H
$SG4294712429 DB 'M', 00H, 'i', 00H, 'c', 00H, 'M', 00H, 'u', 00H, 't', 00H
	DB	'e', 00H, 'd', 00H, 'V', 00H, 'o', 00H, 'l', 00H, 'u', 00H, 'm'
	DB	00H, 'e', 00H, 00H, 00H
	ORG $+2
$SG4294712430 DB 'A', 00H, 'u', 00H, 'd', 00H, 'i', 00H, 'o', 00H, 00H, 00H
$SG4294712431 DB 'M', 00H, 'i', 00H, 'c', 00H, 'V', 00H, 'o', 00H, 'l', 00H
	DB	'u', 00H, 'm', 00H, 'e', 00H, 00H, 00H
$SG4294712424 DB 'A', 00H, 'u', 00H, 'd', 00H, 'i', 00H, 'o', 00H, 00H, 00H
$SG4294712425 DB 'D', 00H, 'e', 00H, 's', 00H, 'k', 00H, 't', 00H, 'o', 00H
	DB	'p', 00H, 'M', 00H, 'u', 00H, 't', 00H, 'e', 00H, 'd', 00H, 'V'
	DB	00H, 'o', 00H, 'l', 00H, 'u', 00H, 'm', 00H, 'e', 00H, 00H, 00H
	ORG $+2
$SG4294712426 DB 'A', 00H, 'u', 00H, 'd', 00H, 'i', 00H, 'o', 00H, 00H, 00H
$SG4294712427 DB 'D', 00H, 'e', 00H, 's', 00H, 'k', 00H, 't', 00H, 'o', 00H
	DB	'p', 00H, 'V', 00H, 'o', 00H, 'l', 00H, 'u', 00H, 'm', 00H, 'e'
	DB	00H, 00H, 00H
$SG4294712420 DB '.', 00H, 'i', 00H, 'n', 00H, 'i', 00H, 00H, 00H
	ORG $+2
$SG4294712421 DB '\', 00H, 'p', 00H, 'r', 00H, 'o', 00H, 'f', 00H, 'i', 00H
	DB	'l', 00H, 'e', 00H, 's', 00H, '\', 00H, 00H, 00H
	ORG $+2
$SG4294712422 DB 'G', 00H, 'e', 00H, 'n', 00H, 'e', 00H, 'r', 00H, 'a', 00H
	DB	'l', 00H, 00H, 00H
$SG4294712423 DB 'M', 00H, 'i', 00H, 'n', 00H, 'i', 00H, 'm', 00H, 'i', 00H
	DB	'z', 00H, 'e', 00H, 'T', 00H, 'o', 00H, 'N', 00H, 'o', 00H, 't'
	DB	00H, 'i', 00H, 'f', 00H, 'i', 00H, 'c', 00H, 'a', 00H, 't', 00H
	DB	'i', 00H, 'o', 00H, 'n', 00H, 'A', 00H, 'r', 00H, 'e', 00H, 'a'
	DB	00H, 00H, 00H
	ORG $+2
$SG4294712417 DB 'G', 00H, 'e', 00H, 'n', 00H, 'e', 00H, 'r', 00H, 'a', 00H
	DB	'l', 00H, 00H, 00H
$SG4294712414 DB 'e', 00H, 'd', 00H, 'i', 00H, 't', 00H, 00H, 00H
	ORG $+2
$SG4294712416 DB 'E', 00H, 'r', 00H, 'r', 00H, 'o', 00H, 'r', 00H, ' ', 00H
	DB	'-', 00H, ' ', 00H, 'u', 00H, 'n', 00H, 'a', 00H, 'b', 00H, 'l'
	DB	00H, 'e', 00H, ' ', 00H, 't', 00H, 'o', 00H, ' ', 00H, 'o', 00H
	DB	'p', 00H, 'e', 00H, 'n', 00H, ' ', 00H, 'x', 00H, 'c', 00H, 'o'
	DB	00H, 'n', 00H, 'f', 00H, 'i', 00H, 'g', 00H, ' ', 00H, 'f', 00H
	DB	'i', 00H, 'l', 00H, 'e', 00H, 00H, 00H
$SG4294712418 DB 'P', 00H, 'r', 00H, 'o', 00H, 'f', 00H, 'i', 00H, 'l', 00H
	DB	'e', 00H, 00H, 00H
$SG4294712419 DB 'E', 00H, 'r', 00H, 'r', 00H, 'o', 00H, 'r', 00H, ' ', 00H
	DB	'-', 00H, ' ', 00H, 'u', 00H, 'n', 00H, 'a', 00H, 'b', 00H, 'l'
	DB	00H, 'e', 00H, ' ', 00H, 't', 00H, 'o', 00H, ' ', 00H, 'o', 00H
	DB	'p', 00H, 'e', 00H, 'n', 00H, ' ', 00H, 'i', 00H, 'n', 00H, 'i'
	DB	00H, ' ', 00H, 'f', 00H, 'i', 00H, 'l', 00H, 'e', 00H, 00H, 00H
$SG4294712412 DB '$', 00H, '1', 00H, 00H, 00H
	ORG $+2
$SG4294712413 DB 'S', 00H, 'o', 00H, 'u', 00H, 'r', 00H, 'c', 00H, 'e', 00H
	DB	's', 00H, '.', 00H, 'T', 00H, 'e', 00H, 'x', 00H, 't', 00H, 'S'
	DB	00H, 'o', 00H, 'u', 00H, 'r', 00H, 'c', 00H, 'e', 00H, '.', 00H
	DB	'F', 00H, 'i', 00H, 'l', 00H, 'e', 00H, 'N', 00H, 'o', 00H, 't'
	DB	00H, 'F', 00H, 'o', 00H, 'u', 00H, 'n', 00H, 'd', 00H, 00H, 00H
$SG4294712415 DB '%', 00H, 's', 00H, '\', 00H, 'l', 00H, 'o', 00H, 'g', 00H
	DB	's', 00H, '\', 00H, '%', 00H, 's', 00H, 00H, 00H
	ORG $+2
$SG4294712408 DB 'B', 00H, 'U', 00H, 'T', 00H, 'T', 00H, 'O', 00H, 'N', 00H
	DB	00H, 00H
	ORG $+2
$SG4294712409 DB 'c', 00H, 'l', 00H, 'a', 00H, 's', 00H, 's', 00H, 00H, 00H
$SG4294712410 DB 'G', 00H, 'l', 00H, 'o', 00H, 'b', 00H, 'a', 00H, 'l', 00H
	DB	'S', 00H, 'o', 00H, 'u', 00H, 'r', 00H, 'c', 00H, 'e', 00H, 00H
	DB	00H
	ORG $+2
$SG4294712411 DB 's', 00H, 'o', 00H, 'u', 00H, 'r', 00H, 'c', 00H, 'e', 00H
	DB	's', 00H, 00H, 00H
$SG4294712404 DB 'c', 00H, 'x', 00H, 00H, 00H
	ORG $+2
$SG4294712405 DB 'c', 00H, 'y', 00H, 00H, 00H
	ORG $+2
$SG4294712406 DB 'c', 00H, 'l', 00H, 'a', 00H, 's', 00H, 's', 00H, 00H, 00H
$SG4294712407 DB 's', 00H, 'o', 00H, 'u', 00H, 'r', 00H, 'c', 00H, 'e', 00H
	DB	's', 00H, 00H, 00H
$SG4294712400 DB 'c', 00H, 'y', 00H, 00H, 00H
	ORG $+2
$SG4294712401 DB 'c', 00H, 'x', 00H, 00H, 00H
	ORG $+2
$SG4294712402 DB 'c', 00H, 'x', 00H, 00H, 00H
	ORG $+2
$SG4294712403 DB 'c', 00H, 'y', 00H, 00H, 00H
	ORG $+2
$SG4294712398 DB 'M', 00H, 'a', 00H, 'i', 00H, 'n', 00H, 'W', 00H, 'i', 00H
	DB	'n', 00H, 'd', 00H, 'o', 00H, 'w', 00H, '.', 00H, 'S', 00H, 't'
	DB	00H, 'a', 00H, 'r', 00H, 't', 00H, 'R', 00H, 'e', 00H, 'p', 00H
	DB	'l', 00H, 'a', 00H, 'y', 00H, 'B', 00H, 'u', 00H, 'f', 00H, 'f'
	DB	00H, 'e', 00H, 'r', 00H, 00H, 00H
	ORG $+2
$SG4294712396 DB 'M', 00H, 'a', 00H, 'i', 00H, 'n', 00H, 'W', 00H, 'i', 00H
	DB	'n', 00H, 'd', 00H, 'o', 00H, 'w', 00H, '.', 00H, 'S', 00H, 't'
	DB	00H, 'a', 00H, 'r', 00H, 't', 00H, 'R', 00H, 'e', 00H, 'c', 00H
	DB	'o', 00H, 'r', 00H, 'd', 00H, 'i', 00H, 'n', 00H, 'g', 00H, 'A'
	DB	00H, 'n', 00H, 'd', 00H, 'R', 00H, 'e', 00H, 'p', 00H, 'l', 00H
	DB	'a', 00H, 'y', 00H, 'B', 00H, 'u', 00H, 'f', 00H, 'f', 00H, 'e'
	DB	00H, 'r', 00H, 00H, 00H
	ORG $+2
$SG4294712399 DB 'M', 00H, 'a', 00H, 'i', 00H, 'n', 00H, 'W', 00H, 'i', 00H
	DB	'n', 00H, 'd', 00H, 'o', 00H, 'w', 00H, '.', 00H, 'S', 00H, 't'
	DB	00H, 'o', 00H, 'p', 00H, 'R', 00H, 'e', 00H, 'p', 00H, 'l', 00H
	DB	'a', 00H, 'y', 00H, 'B', 00H, 'u', 00H, 'f', 00H, 'f', 00H, 'e'
	DB	00H, 'r', 00H, 00H, 00H
$SG4294712393 DB 'S', 00H, 't', 00H, 'r', 00H, 'e', 00H, 'a', 00H, 'm', 00H
	DB	'R', 00H, 'e', 00H, 'p', 00H, 'o', 00H, 'r', 00H, 't', 00H, 00H
	DB	00H
	ORG $+2
$SG4294712397 DB 'M', 00H, 'a', 00H, 'i', 00H, 'n', 00H, 'W', 00H, 'i', 00H
	DB	'n', 00H, 'd', 00H, 'o', 00H, 'w', 00H, '.', 00H, 'S', 00H, 't'
	DB	00H, 'o', 00H, 'p', 00H, 'R', 00H, 'e', 00H, 'c', 00H, 'o', 00H
	DB	'r', 00H, 'd', 00H, 'i', 00H, 'n', 00H, 'g', 00H, 'A', 00H, 'n'
	DB	00H, 'd', 00H, 'R', 00H, 'e', 00H, 'p', 00H, 'l', 00H, 'a', 00H
	DB	'y', 00H, 'B', 00H, 'u', 00H, 'f', 00H, 'f', 00H, 'e', 00H, 'r'
	DB	00H, 00H, 00H
$SG4294712392 DB 'C', 00H, 'o', 00H, 'n', 00H, 'n', 00H, 'e', 00H, 'c', 00H
	DB	't', 00H, 'i', 00H, 'o', 00H, 'n', 00H, '.', 00H, 'D', 00H, 'i'
	DB	00H, 's', 00H, 'c', 00H, 'o', 00H, 'n', 00H, 'n', 00H, 'e', 00H
	DB	'c', 00H, 't', 00H, 'e', 00H, 'd', 00H, 00H, 00H
$SG4294712394 DB 'G', 00H, 'e', 00H, 'n', 00H, 'e', 00H, 'r', 00H, 'a', 00H
	DB	'l', 00H, 00H, 00H
$SG4294712395 DB 'M', 00H, 'i', 00H, 'n', 00H, 'i', 00H, 'm', 00H, 'i', 00H
	DB	'z', 00H, 'e', 00H, 'T', 00H, 'o', 00H, 'N', 00H, 'o', 00H, 't'
	DB	00H, 'i', 00H, 'f', 00H, 'i', 00H, 'c', 00H, 'a', 00H, 't', 00H
	DB	'i', 00H, 'o', 00H, 'n', 00H, 'A', 00H, 'r', 00H, 'e', 00H, 'a'
	DB	00H, 00H, 00H
	ORG $+2
$SG4294712388 DB 'G', 00H, 'e', 00H, 'n', 00H, 'e', 00H, 'r', 00H, 'a', 00H
	DB	'l', 00H, 00H, 00H
$SG4294712389 DB 'M', 00H, 'i', 00H, 'n', 00H, 'i', 00H, 'm', 00H, 'i', 00H
	DB	'z', 00H, 'e', 00H, 'T', 00H, 'o', 00H, 'N', 00H, 'o', 00H, 't'
	DB	00H, 'i', 00H, 'f', 00H, 'i', 00H, 'c', 00H, 'a', 00H, 't', 00H
	DB	'i', 00H, 'o', 00H, 'n', 00H, 'A', 00H, 'r', 00H, 'e', 00H, 'a'
	DB	00H, 00H, 00H
	ORG $+2
$SG4294712390 DB 'C', 00H, 'o', 00H, 'n', 00H, 'n', 00H, 'e', 00H, 'c', 00H
	DB	't', 00H, 'i', 00H, 'o', 00H, 'n', 00H, '.', 00H, 'D', 00H, 'i'
	DB	00H, 's', 00H, 'c', 00H, 'o', 00H, 'n', 00H, 'n', 00H, 'e', 00H
	DB	'c', 00H, 't', 00H, 'e', 00H, 'd', 00H, 00H, 00H
$SG4294712391 DB 'S', 00H, 't', 00H, 'r', 00H, 'e', 00H, 'a', 00H, 'm', 00H
	DB	'R', 00H, 'e', 00H, 'p', 00H, 'o', 00H, 'r', 00H, 't', 00H, 00H
	DB	00H
	ORG $+2
$SG4294712384 DB 'M', 00H, 'a', 00H, 'i', 00H, 'n', 00H, 'W', 00H, 'i', 00H
	DB	'n', 00H, 'd', 00H, 'o', 00H, 'w', 00H, '.', 00H, 'S', 00H, 't'
	DB	00H, 'o', 00H, 'p', 00H, 'S', 00H, 't', 00H, 'r', 00H, 'e', 00H
	DB	'a', 00H, 'm', 00H, 00H, 00H
$SG4294712385 DB 'M', 00H, 'a', 00H, 'i', 00H, 'n', 00H, 'W', 00H, 'i', 00H
	DB	'n', 00H, 'd', 00H, 'o', 00H, 'w', 00H, '.', 00H, 'S', 00H, 't'
	DB	00H, 'o', 00H, 'p', 00H, 'T', 00H, 'e', 00H, 's', 00H, 't', 00H
	DB	00H, 00H
$SG4294712386 DB 'S', 00H, 'e', 00H, 't', 00H, 't', 00H, 'i', 00H, 'n', 00H
	DB	'g', 00H, 's', 00H, '.', 00H, 'G', 00H, 'e', 00H, 'n', 00H, 'e'
	DB	00H, 'r', 00H, 'a', 00H, 'l', 00H, '.', 00H, 'S', 00H, 'h', 00H
	DB	'o', 00H, 'w', 00H, 'O', 00H, 'b', 00H, 's', 00H, 00H, 00H
	ORG $+2
$SG4294712387 DB 'S', 00H, 'e', 00H, 't', 00H, 't', 00H, 'i', 00H, 'n', 00H
	DB	'g', 00H, 's', 00H, '.', 00H, 'G', 00H, 'e', 00H, 'n', 00H, 'e'
	DB	00H, 'r', 00H, 'a', 00H, 'l', 00H, '.', 00H, 'H', 00H, 'i', 00H
	DB	'd', 00H, 'e', 00H, 'O', 00H, 'b', 00H, 's', 00H, 00H, 00H
	ORG $+2
$SG4294712380 DB 'M', 00H, 'a', 00H, 'i', 00H, 'n', 00H, 'W', 00H, 'i', 00H
	DB	'n', 00H, 'd', 00H, 'o', 00H, 'w', 00H, '.', 00H, 'E', 00H, 'x'
	DB	00H, 'i', 00H, 't', 00H, 00H, 00H
$SG4294712381 DB 'M', 00H, 'a', 00H, 'i', 00H, 'n', 00H, 'M', 00H, 'e', 00H
	DB	'n', 00H, 'u', 00H, '.', 00H, 'S', 00H, 'e', 00H, 't', 00H, 't'
	DB	00H, 'i', 00H, 'n', 00H, 'g', 00H, 's', 00H, '.', 00H, 'A', 00H
	DB	'l', 00H, 'w', 00H, 'a', 00H, 'y', 00H, 's', 00H, 'O', 00H, 'n'
	DB	00H, 'T', 00H, 'o', 00H, 'p', 00H, 00H, 00H
$SG4294712377 DB 'C', 00H, 'l', 00H, 'o', 00H, 's', 00H, 'e', 00H, 'W', 00H
	DB	'h', 00H, 'i', 00H, 'l', 00H, 'e', 00H, 'A', 00H, 'c', 00H, 't'
	DB	00H, 'i', 00H, 'v', 00H, 'e', 00H, 'W', 00H, 'a', 00H, 'r', 00H
	DB	'n', 00H, 'i', 00H, 'n', 00H, 'g', 00H, '.', 00H, 'T', 00H, 'i'
	DB	00H, 't', 00H, 'l', 00H, 'e', 00H, 00H, 00H
$SG4294712382 DB 'M', 00H, 'a', 00H, 'i', 00H, 'n', 00H, 'M', 00H, 'e', 00H
	DB	'n', 00H, 'u', 00H, '.', 00H, 'S', 00H, 'e', 00H, 't', 00H, 't'
	DB	00H, 'i', 00H, 'n', 00H, 'g', 00H, 's', 00H, '.', 00H, 'F', 00H
	DB	'u', 00H, 'l', 00H, 'l', 00H, 's', 00H, 'c', 00H, 'r', 00H, 'e'
	DB	00H, 'e', 00H, 'n', 00H, 'M', 00H, 'o', 00H, 'd', 00H, 'e', 00H
	DB	00H, 00H
	ORG $+2
$SG4294712383 DB 'M', 00H, 'a', 00H, 'i', 00H, 'n', 00H, 'W', 00H, 'i', 00H
	DB	'n', 00H, 'd', 00H, 'o', 00H, 'w', 00H, '.', 00H, 'S', 00H, 't'
	DB	00H, 'a', 00H, 'r', 00H, 't', 00H, 'S', 00H, 't', 00H, 'r', 00H
	DB	'e', 00H, 'a', 00H, 'm', 00H, 00H, 00H
	ORG $+2
$SG4294712379 DB 'C', 00H, 'l', 00H, 'o', 00H, 's', 00H, 'e', 00H, 'W', 00H
	DB	'h', 00H, 'i', 00H, 'l', 00H, 'e', 00H, 'A', 00H, 'c', 00H, 't'
	DB	00H, 'i', 00H, 'v', 00H, 'e', 00H, 'W', 00H, 'a', 00H, 'r', 00H
	DB	'n', 00H, 'i', 00H, 'n', 00H, 'g', 00H, '.', 00H, 'T', 00H, 'i'
	DB	00H, 't', 00H, 'l', 00H, 'e', 00H, 00H, 00H
$SG4294712376 DB 'C', 00H, 'l', 00H, 'o', 00H, 's', 00H, 'e', 00H, 'W', 00H
	DB	'h', 00H, 'i', 00H, 'l', 00H, 'e', 00H, 'A', 00H, 'c', 00H, 't'
	DB	00H, 'i', 00H, 'v', 00H, 'e', 00H, 'W', 00H, 'a', 00H, 'r', 00H
	DB	'n', 00H, 'i', 00H, 'n', 00H, 'g', 00H, '.', 00H, 'M', 00H, 'e'
	DB	00H, 's', 00H, 's', 00H, 'a', 00H, 'g', 00H, 'e', 00H, 00H, 00H
$SG4294712378 DB 'C', 00H, 'l', 00H, 'o', 00H, 's', 00H, 'e', 00H, 'W', 00H
	DB	'h', 00H, 'i', 00H, 'l', 00H, 'e', 00H, 'A', 00H, 'c', 00H, 't'
	DB	00H, 'i', 00H, 'v', 00H, 'e', 00H, 'W', 00H, 'a', 00H, 'r', 00H
	DB	'n', 00H, 'i', 00H, 'n', 00H, 'g', 00H, '.', 00H, 'M', 00H, 'e'
	DB	00H, 's', 00H, 's', 00H, 'a', 00H, 'g', 00H, 'e', 00H, 00H, 00H
$SG4294712372 DB 'c', 00H, 'x', 00H, 00H, 00H
	ORG $+2
$SG4294712373 DB 'y', 00H, 00H, 00H
$SG4294712374 DB 'x', 00H, 00H, 00H
$SG4294712375 DB '\skin\Dialog_Default_back.png', 00H
	ORG $+2
$SG4294712368 DB 'c', 00H, 'r', 00H, 'o', 00H, 'p', 00H, '.', 00H, 'r', 00H
	DB	'i', 00H, 'g', 00H, 'h', 00H, 't', 00H, 00H, 00H
	ORG $+2
$SG4294712369 DB 'c', 00H, 'r', 00H, 'o', 00H, 'p', 00H, '.', 00H, 't', 00H
	DB	'o', 00H, 'p', 00H, 00H, 00H
	ORG $+2
$SG4294712370 DB 'c', 00H, 'r', 00H, 'o', 00H, 'p', 00H, '.', 00H, 'l', 00H
	DB	'e', 00H, 'f', 00H, 't', 00H, 00H, 00H
$SG4294712371 DB 'c', 00H, 'y', 00H, 00H, 00H
	ORG $+2
$SG4294712364 DB '$', 00H, '1', 00H, 00H, 00H
	ORG $+2
$SG4294712365 DB 'M', 00H, 'o', 00H, 'n', 00H, 'i', 00H, 't', 00H, 'o', 00H
	DB	'r', 00H, 'N', 00H, 'u', 00H, 'm', 00H, 00H, 00H
	ORG $+2
$SG4294712366 DB 'D', 00H, 'i', 00H, 's', 00H, 'a', 00H, 'b', 00H, 'l', 00H
	DB	'e', 00H, 00H, 00H
$SG4294712367 DB 'c', 00H, 'r', 00H, 'o', 00H, 'p', 00H, '.', 00H, 'b', 00H
	DB	'o', 00H, 't', 00H, 't', 00H, 'o', 00H, 'm', 00H, 00H, 00H
$SG4294712360 DB 'R', 00H, 'e', 00H, 'n', 00H, 'd', 00H, 'e', 00H, 'r', 00H
	DB	'V', 00H, 'i', 00H, 'e', 00H, 'w', 00H, '.', 00H, 'V', 00H, 'i'
	DB	00H, 'e', 00H, 'w', 00H, 'M', 00H, 'o', 00H, 'd', 00H, 'e', 00H
	DB	'1', 00H, 'T', 00H, 'o', 00H, '1', 00H, 00H, 00H
$SG4294712361 DB 'R', 00H, 'e', 00H, 'n', 00H, 'd', 00H, 'e', 00H, 'r', 00H
	DB	'V', 00H, 'i', 00H, 'e', 00H, 'w', 00H, '.', 00H, 'V', 00H, 'i'
	DB	00H, 'e', 00H, 'w', 00H, 'M', 00H, 'o', 00H, 'd', 00H, 'e', 00H
	DB	'S', 00H, 'c', 00H, 'a', 00H, 'l', 00H, 'e', 00H, 'T', 00H, 'o'
	DB	00H, 'F', 00H, 'i', 00H, 't', 00H, 00H, 00H
$SG4294712359 DB 'R', 00H, 'e', 00H, 'n', 00H, 'd', 00H, 'e', 00H, 'r', 00H
	DB	'V', 00H, 'i', 00H, 'e', 00H, 'w', 00H, '.', 00H, 'E', 00H, 'n'
	DB	00H, 'a', 00H, 'b', 00H, 'l', 00H, 'e', 00H, 'V', 00H, 'i', 00H
	DB	'e', 00H, 'w', 00H, 00H, 00H
$SG4294712362 DB 'M', 00H, 'a', 00H, 'i', 00H, 'n', 00H, 'M', 00H, 'e', 00H
	DB	'n', 00H, 'u', 00H, '.', 00H, 'S', 00H, 'e', 00H, 't', 00H, 't'
	DB	00H, 'i', 00H, 'n', 00H, 'g', 00H, 's', 00H, '.', 00H, 'F', 00H
	DB	'u', 00H, 'l', 00H, 'l', 00H, 's', 00H, 'c', 00H, 'r', 00H, 'e'
	DB	00H, 'e', 00H, 'n', 00H, 'M', 00H, 'o', 00H, 'd', 00H, 'e', 00H
	DB	00H, 00H
	ORG $+2
$SG4294712363 DB 'M', 00H, 'a', 00H, 'i', 00H, 'n', 00H, 'M', 00H, 'e', 00H
	DB	'n', 00H, 'u', 00H, '.', 00H, 'S', 00H, 'e', 00H, 't', 00H, 't'
	DB	00H, 'i', 00H, 'n', 00H, 'g', 00H, 's', 00H, '.', 00H, 'P', 00H
	DB	'r', 00H, 'o', 00H, 'j', 00H, 'e', 00H, 'c', 00H, 't', 00H, 'o'
	DB	00H, 'r', 00H, 00H, 00H
$SG4294712356 DB 'GetPluginName', 00H
	ORG $+2
$SG4294712357 DB 'P', 00H, 'r', 00H, 'e', 00H, 'v', 00H, 'i', 00H, 'e', 00H
	DB	'w', 00H, 00H, 00H
$SG4294712358 DB 'R', 00H, 'e', 00H, 'n', 00H, 'd', 00H, 'e', 00H, 'r', 00H
	DB	'V', 00H, 'i', 00H, 'e', 00H, 'w', 00H, '.', 00H, 'D', 00H, 'i'
	DB	00H, 's', 00H, 'p', 00H, 'l', 00H, 'a', 00H, 'y', 00H, 'P', 00H
	DB	'a', 00H, 'n', 00H, 'e', 00H, 'l', 00H, 00H, 00H
$SG4294712352 DB 0dH, 00H, 0aH, 00H, 0dH, 00H, 0aH, 00H, 00H, 00H
	ORG $+2
$SG4294712353 DB ' ', 00H, 00H, 00H
$SG4294712354 DB 'P', 00H, 'l', 00H, 'u', 00H, 'g', 00H, 'i', 00H, 'n', 00H
	DB	's', 00H, '.', 00H, 'F', 00H, 'i', 00H, 'l', 00H, 'e', 00H, 'n'
	DB	00H, 'a', 00H, 'm', 00H, 'e', 00H, 00H, 00H
	ORG $+2
$SG4294712355 DB 'GetPluginDescription', 00H
	ORG $+3
$SG4294712348 DB 'ConfigPlugin', 00H
	ORG $+3
$SG4294712349 DB 'ConfigPlugin', 00H
	ORG $+3
$SG4294712350 DB 0dH, 00H, 0aH, 00H, 00H, 00H
	ORG $+2
$SG4294712351 DB 'P', 00H, 'l', 00H, 'u', 00H, 'g', 00H, 'i', 00H, 'n', 00H
	DB	's', 00H, '.', 00H, 'D', 00H, 'e', 00H, 's', 00H, 'c', 00H, 'r'
	DB	00H, 'i', 00H, 'p', 00H, 't', 00H, 'i', 00H, 'o', 00H, 'n', 00H
	DB	00H, 00H
$SG4294712346 DB 08bH, '[SO', 00H, 00H
	ORG $+2
$SG4294712347 DB '%', 00H, '.', 00H, '0', 00H, '2', 00H, 'f', 00H, 00H, 00H
PUBLIC	??$get@$0A@ABV?$basic_string@_WU?$char_traits@_W@std@@V?$allocator@_W@2@@std@@@std@@YAABV?$basic_string@_WU?$char_traits@_W@std@@V?$allocator@_W@2@@0@$$QAV?$tuple@ABV?$basic_string@_WU?$char_traits@_W@std@@V?$allocator@_W@2@@std@@@0@@Z ; std::get<0,std::basic_string<wchar_t,std::char_traits<wchar_t>,std::allocator<wchar_t> > const &>
PUBLIC	??$move@AAV?$tuple@ABV?$basic_string@_WU?$char_traits@_W@std@@V?$allocator@_W@2@@std@@@std@@@std@@YA$$QAV?$tuple@ABV?$basic_string@_WU?$char_traits@_W@std@@V?$allocator@_W@2@@std@@@0@AAV10@@Z ; std::move<std::tuple<std::basic_string<wchar_t,std::char_traits<wchar_t>,std::allocator<wchar_t> > const &> &>
PUBLIC	??$?0V?$tuple@ABV?$basic_string@_WU?$char_traits@_W@std@@V?$allocator@_W@2@@std@@@std@@V?$tuple@$$$V@1@$0A@$S@?$pair@$$CBV?$basic_string@_WU?$char_traits@_W@std@@V?$allocator@_W@2@@std@@_N@std@@QAE@AAV?$tuple@ABV?$basic_string@_WU?$char_traits@_W@std@@V?$allocator@_W@2@@std@@@1@AAV?$tuple@$$$V@1@U?$_Arg_idx@$0A@@1@U?$_Arg_idx@$S@1@@Z ; std::pair<std::basic_string<wchar_t,std::char_traits<wchar_t>,std::allocator<wchar_t> > const ,bool>::pair<std::basic_string<wchar_t,std::char_traits<wchar_t>,std::allocator<wchar_t> > const ,bool><std::tuple<std::basic_string<wchar_t,std::char_traits<wchar_t>,std::allocator<wchar_t> > const &>,std::tuple<>,0>
PUBLIC	?_Get_rest@?$tuple@ABV?$basic_string@_WU?$char_traits@_W@std@@V?$allocator@_W@2@@std@@@std@@QAEAAV?$tuple@$$$V@2@XZ ; std::tuple<std::basic_string<wchar_t,std::char_traits<wchar_t>,std::allocator<wchar_t> > const &>::_Get_rest
PUBLIC	??$?0ABV?$basic_string@_WU?$char_traits@_W@std@@V?$allocator@_W@2@@std@@$$$V@?$pair@$$CBV?$basic_string@_WU?$char_traits@_W@std@@V?$allocator@_W@2@@std@@_N@std@@QAE@Upiecewise_construct_t@1@V?$tuple@ABV?$basic_string@_WU?$char_traits@_W@std@@V?$allocator@_W@2@@std@@@1@V?$tuple@$$$V@1@@Z ; std::pair<std::basic_string<wchar_t,std::char_traits<wchar_t>,std::allocator<wchar_t> > const ,bool>::pair<std::basic_string<wchar_t,std::char_traits<wchar_t>,std::allocator<wchar_t> > const ,bool><std::basic_string<wchar_t,std::char_traits<wchar_t>,std::allocator<wchar_t> > const &>
PUBLIC	??$?0ABV?$basic_string@_WU?$char_traits@_W@std@@V?$allocator@_W@2@@std@@PAPAX@?$tuple@ABV?$basic_string@_WU?$char_traits@_W@std@@V?$allocator@_W@2@@std@@@std@@QAE@$$QAV01@@Z ; std::tuple<std::basic_string<wchar_t,std::char_traits<wchar_t>,std::allocator<wchar_t> > const &>::tuple<std::basic_string<wchar_t,std::char_traits<wchar_t>,std::allocator<wchar_t> > const &><std::basic_string<wchar_t,std::char_traits<wchar_t>,std::allocator<wchar_t> > const &,void * *>
PUBLIC	??$?0PA_W_NX@?$pair@$$CBV?$basic_string@_WU?$char_traits@_W@std@@V?$allocator@_W@2@@std@@_N@std@@QAE@$$QAPA_W$$QA_N@Z ; std::pair<std::basic_string<wchar_t,std::char_traits<wchar_t>,std::allocator<wchar_t> > const ,bool>::pair<std::basic_string<wchar_t,std::char_traits<wchar_t>,std::allocator<wchar_t> > const ,bool><wchar_t *,bool,void>
PUBLIC	??$destroy@V?$_Tree_const_iterator@V?$_Tree_val@U?$_Tree_simple_types@U?$pair@$$CBV?$basic_string@_WU?$char_traits@_W@std@@V?$allocator@_W@2@@std@@_N@std@@@std@@@std@@@std@@@?$allocator@V?$_Tree_const_iterator@V?$_Tree_val@U?$_Tree_simple_types@U?$pair@$$CBV?$basic_string@_WU?$char_traits@_W@std@@V?$allocator@_W@2@@std@@_N@std@@@std@@@std@@@std@@@std@@QAEXPAV?$_Tree_const_iterator@V?$_Tree_val@U?$_Tree_simple_types@U?$pair@$$CBV?$basic_string@_WU?$char_traits@_W@std@@V?$allocator@_W@2@@std@@_N@std@@@std@@@std@@@1@@Z ; std::allocator<std::_Tree_const_iterator<std::_Tree_val<std::_Tree_simple_types<std::pair<std::basic_string<wchar_t,std::char_traits<wchar_t>,std::allocator<wchar_t> > const ,bool> > > > >::destroy<std::_Tree_const_iterator<std::_Tree_val<std::_Tree_simple_types<std::pair<std::basic_string<wchar_t,std::char_traits<wchar_t>,std::allocator<wchar_t> > const ,bool> > > > >
PUBLIC	??$construct@U?$pair@$$CBV?$basic_string@_WU?$char_traits@_W@std@@V?$allocator@_W@2@@std@@_N@std@@ABUpiecewise_construct_t@2@V?$tuple@ABV?$basic_string@_WU?$char_traits@_W@std@@V?$allocator@_W@2@@std@@@2@V?$tuple@$$$V@2@@?$allocator@U?$_Tree_node@U?$pair@$$CBV?$basic_string@_WU?$char_traits@_W@std@@V?$allocator@_W@2@@std@@_N@std@@PAX@std@@@std@@QAEXPAU?$pair@$$CBV?$basic_string@_WU?$char_traits@_W@std@@V?$allocator@_W@2@@std@@_N@1@ABUpiecewise_construct_t@1@$$QAV?$tuple@ABV?$basic_string@_WU?$char_traits@_W@std@@V?$allocator@_W@2@@std@@@1@$$QAV?$tuple@$$$V@1@@Z ; std::allocator<std::_Tree_node<std::pair<std::basic_string<wchar_t,std::char_traits<wchar_t>,std::allocator<wchar_t> > const ,bool>,void *> >::construct<std::pair<std::basic_string<wchar_t,std::char_traits<wchar_t>,std::allocator<wchar_t> > const ,bool>,std::piecewise_construct_t const &,std::tuple<std::basic_string<wchar_t,std::char_traits<wchar_t>,std::allocator<wchar_t> > const &>,std::tuple<> >
PUBLIC	??$construct@U?$pair@$$CBV?$basic_string@_WU?$char_traits@_W@std@@V?$allocator@_W@2@@std@@_N@std@@PA_W_N@?$allocator@U?$_Tree_node@U?$pair@$$CBV?$basic_string@_WU?$char_traits@_W@std@@V?$allocator@_W@2@@std@@_N@std@@PAX@std@@@std@@QAEXPAU?$pair@$$CBV?$basic_string@_WU?$char_traits@_W@std@@V?$allocator@_W@2@@std@@_N@1@$$QAPA_W$$QA_N@Z ; std::allocator<std::_Tree_node<std::pair<std::basic_string<wchar_t,std::char_traits<wchar_t>,std::allocator<wchar_t> > const ,bool>,void *> >::construct<std::pair<std::basic_string<wchar_t,std::char_traits<wchar_t>,std::allocator<wchar_t> > const ,bool>,wchar_t *,bool>
PUBLIC	??$_Uninit_move@PAV?$_Tree_const_iterator@V?$_Tree_val@U?$_Tree_simple_types@U?$pair@$$CBV?$basic_string@_WU?$char_traits@_W@std@@V?$allocator@_W@2@@std@@_N@std@@@std@@@std@@@std@@PAV12@V?$allocator@V?$_Tree_const_iterator@V?$_Tree_val@U?$_Tree_simple_types@U?$pair@$$CBV?$basic_string@_WU?$char_traits@_W@std@@V?$allocator@_W@2@@std@@_N@std@@@std@@@std@@@std@@@2@V12@@std@@YAPAV?$_Tree_const_iterator@V?$_Tree_val@U?$_Tree_simple_types@U?$pair@$$CBV?$basic_string@_WU?$char_traits@_W@std@@V?$allocator@_W@2@@std@@_N@std@@@std@@@std@@@0@PAV10@00AAU?$_Wrap_alloc@V?$allocator@V?$_Tree_const_iterator@V?$_Tree_val@U?$_Tree_simple_types@U?$pair@$$CBV?$basic_string@_WU?$char_traits@_W@std@@V?$allocator@_W@2@@std@@_N@std@@@std@@@std@@@std@@@std@@@0@0U_Nonscalar_ptr_iterator_tag@0@@Z ; std::_Uninit_move<std::_Tree_const_iterator<std::_Tree_val<std::_Tree_simple_types<std::pair<std::basic_string<wchar_t,std::char_traits<wchar_t>,std::allocator<wchar_t> > const ,bool> > > > *,std::_Tree_const_iterator<std::_Tree_val<std::_Tree_simple_types<std::pair<std::basic_string<wchar_t,std::char_traits<wchar_t>,std::allocator<wchar_t> > const ,bool> > > > *,std::allocator<std::_Tree_const_iterator<std::_Tree_val<std::_Tree_simple_types<std::pair<std::basic_string<wchar_t,std::char_traits<wchar_t>,std::allocator<wchar_t> > const ,bool> > > > >,std::_Tree_const_iterator<std::_Tree_val<std::_Tree_simple_types<std::pair<std::basic_string<wchar_t,std::char_traits<wchar_t>,std::allocator<wchar_t> > const ,bool> > > > >
PUBLIC	??$_Val_type@PAV?$_Tree_const_iterator@V?$_Tree_val@U?$_Tree_simple_types@U?$pair@$$CBV?$basic_string@_WU?$char_traits@_W@std@@V?$allocator@_W@2@@std@@_N@std@@@std@@@std@@@std@@@std@@YAPAV?$_Tree_const_iterator@V?$_Tree_val@U?$_Tree_simple_types@U?$pair@$$CBV?$basic_string@_WU?$char_traits@_W@std@@V?$allocator@_W@2@@std@@_N@std@@@std@@@std@@@0@PAV10@@Z ; std::_Val_type<std::_Tree_const_iterator<std::_Tree_val<std::_Tree_simple_types<std::pair<std::basic_string<wchar_t,std::char_traits<wchar_t>,std::allocator<wchar_t> > const ,bool> > > > *>
PUBLIC	??$destroy@V?$_Tree_const_iterator@V?$_Tree_val@U?$_Tree_simple_types@U?$pair@$$CBV?$basic_string@_WU?$char_traits@_W@std@@V?$allocator@_W@2@@std@@_N@std@@@std@@@std@@@std@@@?$allocator_traits@V?$allocator@V?$_Tree_const_iterator@V?$_Tree_val@U?$_Tree_simple_types@U?$pair@$$CBV?$basic_string@_WU?$char_traits@_W@std@@V?$allocator@_W@2@@std@@_N@std@@@std@@@std@@@std@@@std@@@std@@SAXAAV?$allocator@V?$_Tree_const_iterator@V?$_Tree_val@U?$_Tree_simple_types@U?$pair@$$CBV?$basic_string@_WU?$char_traits@_W@std@@V?$allocator@_W@2@@std@@_N@std@@@std@@@std@@@std@@@1@PAV?$_Tree_const_iterator@V?$_Tree_val@U?$_Tree_simple_types@U?$pair@$$CBV?$basic_string@_WU?$char_traits@_W@std@@V?$allocator@_W@2@@std@@_N@std@@@std@@@std@@@1@@Z ; std::allocator_traits<std::allocator<std::_Tree_const_iterator<std::_Tree_val<std::_Tree_simple_types<std::pair<std::basic_string<wchar_t,std::char_traits<wchar_t>,std::allocator<wchar_t> > const ,bool> > > > > >::destroy<std::_Tree_const_iterator<std::_Tree_val<std::_Tree_simple_types<std::pair<std::basic_string<wchar_t,std::char_traits<wchar_t>,std::allocator<wchar_t> > const ,bool> > > > >
PUBLIC	??$construct@U?$pair@$$CBV?$basic_string@_WU?$char_traits@_W@std@@V?$allocator@_W@2@@std@@_N@std@@ABUpiecewise_construct_t@2@V?$tuple@ABV?$basic_string@_WU?$char_traits@_W@std@@V?$allocator@_W@2@@std@@@2@V?$tuple@$$$V@2@@?$allocator_traits@V?$allocator@U?$_Tree_node@U?$pair@$$CBV?$basic_string@_WU?$char_traits@_W@std@@V?$allocator@_W@2@@std@@_N@std@@PAX@std@@@std@@@std@@SAXAAV?$allocator@U?$_Tree_node@U?$pair@$$CBV?$basic_string@_WU?$char_traits@_W@std@@V?$allocator@_W@2@@std@@_N@std@@PAX@std@@@1@PAU?$pair@$$CBV?$basic_string@_WU?$char_traits@_W@std@@V?$allocator@_W@2@@std@@_N@1@ABUpiecewise_construct_t@1@$$QAV?$tuple@ABV?$basic_string@_WU?$char_traits@_W@std@@V?$allocator@_W@2@@std@@@1@$$QAV?$tuple@$$$V@1@@Z ; std::allocator_traits<std::allocator<std::_Tree_node<std::pair<std::basic_string<wchar_t,std::char_traits<wchar_t>,std::allocator<wchar_t> > const ,bool>,void *> > >::construct<std::pair<std::basic_string<wchar_t,std::char_traits<wchar_t>,std::allocator<wchar_t> > const ,bool>,std::piecewise_construct_t const &,std::tuple<std::basic_string<wchar_t,std::char_traits<wchar_t>,std::allocator<wchar_t> > const &>,std::tuple<> >
PUBLIC	??$forward@AAV?$_Tree_iterator@V?$_Tree_val@U?$_Tree_simple_types@U?$pair@$$CBV?$basic_string@_WU?$char_traits@_W@std@@V?$allocator@_W@2@@std@@_N@std@@@std@@@std@@@std@@@std@@YAAAV?$_Tree_iterator@V?$_Tree_val@U?$_Tree_simple_types@U?$pair@$$CBV?$basic_string@_WU?$char_traits@_W@std@@V?$allocator@_W@2@@std@@_N@std@@@std@@@std@@@0@AAV10@@Z ; std::forward<std::_Tree_iterator<std::_Tree_val<std::_Tree_simple_types<std::pair<std::basic_string<wchar_t,std::char_traits<wchar_t>,std::allocator<wchar_t> > const ,bool> > > > &>
PUBLIC	??$forward@V?$_Tree_iterator@V?$_Tree_val@U?$_Tree_simple_types@U?$pair@$$CBV?$basic_string@_WU?$char_traits@_W@std@@V?$allocator@_W@2@@std@@_N@std@@@std@@@std@@@std@@@std@@YA$$QAV?$_Tree_iterator@V?$_Tree_val@U?$_Tree_simple_types@U?$pair@$$CBV?$basic_string@_WU?$char_traits@_W@std@@V?$allocator@_W@2@@std@@_N@std@@@std@@@std@@@0@AAV10@@Z ; std::forward<std::_Tree_iterator<std::_Tree_val<std::_Tree_simple_types<std::pair<std::basic_string<wchar_t,std::char_traits<wchar_t>,std::allocator<wchar_t> > const ,bool> > > > >
PUBLIC	??$_Buynode_if_nil@AAU?$pair@$$CBV?$basic_string@_WU?$char_traits@_W@std@@V?$allocator@_W@2@@std@@_N@std@@@?$_Tree@V?$_Tmap_traits@V?$basic_string@_WU?$char_traits@_W@std@@V?$allocator@_W@2@@std@@_NU?$less@V?$basic_string@_WU?$char_traits@_W@std@@V?$allocator@_W@2@@std@@@2@V?$allocator@U?$pair@$$CBV?$basic_string@_WU?$char_traits@_W@std@@V?$allocator@_W@2@@std@@_N@std@@@2@$0A@@std@@@std@@IAEPAU?$_Tree_node@U?$pair@$$CBV?$basic_string@_WU?$char_traits@_W@std@@V?$allocator@_W@2@@std@@_N@std@@PAX@1@PAU21@AAU?$pair@$$CBV?$basic_string@_WU?$char_traits@_W@std@@V?$allocator@_W@2@@std@@_N@1@@Z ; std::_Tree<std::_Tmap_traits<std::basic_string<wchar_t,std::char_traits<wchar_t>,std::allocator<wchar_t> >,bool,std::less<std::basic_string<wchar_t,std::char_traits<wchar_t>,std::allocator<wchar_t> > >,std::allocator<std::pair<std::basic_string<wchar_t,std::char_traits<wchar_t>,std::allocator<wchar_t> > const ,bool> >,0> >::_Buynode_if_nil<std::pair<std::basic_string<wchar_t,std::char_traits<wchar_t>,std::allocator<wchar_t> > const ,bool> &>
PUBLIC	??$construct@U?$pair@$$CBV?$basic_string@_WU?$char_traits@_W@std@@V?$allocator@_W@2@@std@@_N@std@@PA_W_N@?$allocator_traits@V?$allocator@U?$_Tree_node@U?$pair@$$CBV?$basic_string@_WU?$char_traits@_W@std@@V?$allocator@_W@2@@std@@_N@std@@PAX@std@@@std@@@std@@SAXAAV?$allocator@U?$_Tree_node@U?$pair@$$CBV?$basic_string@_WU?$char_traits@_W@std@@V?$allocator@_W@2@@std@@_N@std@@PAX@std@@@1@PAU?$pair@$$CBV?$basic_string@_WU?$char_traits@_W@std@@V?$allocator@_W@2@@std@@_N@1@$$QAPA_W$$QA_N@Z ; std::allocator_traits<std::allocator<std::_Tree_node<std::pair<std::basic_string<wchar_t,std::char_traits<wchar_t>,std::allocator<wchar_t> > const ,bool>,void *> > >::construct<std::pair<std::basic_string<wchar_t,std::char_traits<wchar_t>,std::allocator<wchar_t> > const ,bool>,wchar_t *,bool>
PUBLIC	?max_size@?$allocator@U?$_Tree_node@U?$pair@$$CBV?$basic_string@_WU?$char_traits@_W@std@@V?$allocator@_W@2@@std@@_N@std@@PAX@std@@@std@@QBEIXZ ; std::allocator<std::_Tree_node<std::pair<std::basic_string<wchar_t,std::char_traits<wchar_t>,std::allocator<wchar_t> > const ,bool>,void *> >::max_size
PUBLIC	?max_size@?$allocator_traits@V?$allocator@U?$_Tree_node@U?$pair@$$CBV?$basic_string@_WU?$char_traits@_W@std@@V?$allocator@_W@2@@std@@_N@std@@PAX@std@@@std@@@std@@SAIABV?$allocator@U?$_Tree_node@U?$pair@$$CBV?$basic_string@_WU?$char_traits@_W@std@@V?$allocator@_W@2@@std@@_N@std@@PAX@std@@@2@@Z ; std::allocator_traits<std::allocator<std::_Tree_node<std::pair<std::basic_string<wchar_t,std::char_traits<wchar_t>,std::allocator<wchar_t> > const ,bool>,void *> > >::max_size
PUBLIC	?_Compat@?$_Vector_const_iterator@V?$_Vector_val@U?$_Simple_types@V?$_Tree_const_iterator@V?$_Tree_val@U?$_Tree_simple_types@U?$pair@$$CBV?$basic_string@_WU?$char_traits@_W@std@@V?$allocator@_W@2@@std@@_N@std@@@std@@@std@@@std@@@std@@@std@@@std@@QBEXABV12@@Z ; std::_Vector_const_iterator<std::_Vector_val<std::_Simple_types<std::_Tree_const_iterator<std::_Tree_val<std::_Tree_simple_types<std::pair<std::basic_string<wchar_t,std::char_traits<wchar_t>,std::allocator<wchar_t> > const ,bool> > > > > > >::_Compat
PUBLIC	?max_size@?$_Wrap_alloc@V?$allocator@U?$_Tree_node@U?$pair@$$CBV?$basic_string@_WU?$char_traits@_W@std@@V?$allocator@_W@2@@std@@_N@std@@PAX@std@@@std@@@std@@QBEIXZ ; std::_Wrap_alloc<std::allocator<std::_Tree_node<std::pair<std::basic_string<wchar_t,std::char_traits<wchar_t>,std::allocator<wchar_t> > const ,bool>,void *> > >::max_size
PUBLIC	?base@?$_Revranit@V?$_Vector_iterator@V?$_Vector_val@U?$_Simple_types@V?$_Tree_const_iterator@V?$_Tree_val@U?$_Tree_simple_types@U?$pair@$$CBV?$basic_string@_WU?$char_traits@_W@std@@V?$allocator@_W@2@@std@@_N@std@@@std@@@std@@@std@@@std@@@std@@@std@@U?$iterator@Urandom_access_iterator_tag@std@@V?$_Tree_const_iterator@V?$_Tree_val@U?$_Tree_simple_types@U?$pair@$$CBV?$basic_string@_WU?$char_traits@_W@std@@V?$allocator@_W@2@@std@@_N@std@@@std@@@std@@@2@HPAV32@AAV32@@2@@std@@QBE?AV?$_Vector_iterator@V?$_Vector_val@U?$_Simple_types@V?$_Tree_const_iterator@V?$_Tree_val@U?$_Tree_simple_types@U?$pair@$$CBV?$basic_string@_WU?$char_traits@_W@std@@V?$allocator@_W@2@@std@@_N@std@@@std@@@std@@@std@@@std@@@std@@@2@XZ ; std::_Revranit<std::_Vector_iterator<std::_Vector_val<std::_Simple_types<std::_Tree_const_iterator<std::_Tree_val<std::_Tree_simple_types<std::pair<std::basic_string<wchar_t,std::char_traits<wchar_t>,std::allocator<wchar_t> > const ,bool> > > > > > >,std::iterator<std::random_access_iterator_tag,std::_Tree_const_iterator<std::_Tree_val<std::_Tree_simple_types<std::pair<std::basic_string<wchar_t,std::char_traits<wchar_t>,std::allocator<wchar_t> > const ,bool> > > >,int,std::_Tree_const_iterator<std::_Tree_val<std::_Tree_simple_types<std::pair<std::basic_string<wchar_t,std::char_traits<wchar_t>,std::allocator<wchar_t> > const ,bool> > > > *,std::_Tree_const_iterator<std::_Tree_val<std::_Tree_simple_types<std::pair<std::basic_string<wchar_t,std::char_traits<wchar_t>,std::allocator<wchar_t> > const ,bool> > > > &> >::base
PUBLIC	??8?$_Vector_const_iterator@V?$_Vector_val@U?$_Simple_types@V?$_Tree_const_iterator@V?$_Tree_val@U?$_Tree_simple_types@U?$pair@$$CBV?$basic_string@_WU?$char_traits@_W@std@@V?$allocator@_W@2@@std@@_N@std@@@std@@@std@@@std@@@std@@@std@@@std@@QBE_NABV01@@Z ; std::_Vector_const_iterator<std::_Vector_val<std::_Simple_types<std::_Tree_const_iterator<std::_Tree_val<std::_Tree_simple_types<std::pair<std::basic_string<wchar_t,std::char_traits<wchar_t>,std::allocator<wchar_t> > const ,bool> > > > > > >::operator==
PUBLIC	?max_size@?$_Tree@V?$_Tmap_traits@V?$basic_string@_WU?$char_traits@_W@std@@V?$allocator@_W@2@@std@@_NU?$less@V?$basic_string@_WU?$char_traits@_W@std@@V?$allocator@_W@2@@std@@@2@V?$allocator@U?$pair@$$CBV?$basic_string@_WU?$char_traits@_W@std@@V?$allocator@_W@2@@std@@_N@std@@@2@$0A@@std@@@std@@QBEIXZ ; std::_Tree<std::_Tmap_traits<std::basic_string<wchar_t,std::char_traits<wchar_t>,std::allocator<wchar_t> >,bool,std::less<std::basic_string<wchar_t,std::char_traits<wchar_t>,std::allocator<wchar_t> > >,std::allocator<std::pair<std::basic_string<wchar_t,std::char_traits<wchar_t>,std::allocator<wchar_t> > const ,bool> >,0> >::max_size
PUBLIC	??$_Rechecked@PAV?$_Tree_const_iterator@V?$_Tree_val@U?$_Tree_simple_types@U?$pair@$$CBV?$basic_string@_WU?$char_traits@_W@std@@V?$allocator@_W@2@@std@@_N@std@@@std@@@std@@@std@@PAV12@@std@@YAAAPAV?$_Tree_const_iterator@V?$_Tree_val@U?$_Tree_simple_types@U?$pair@$$CBV?$basic_string@_WU?$char_traits@_W@std@@V?$allocator@_W@2@@std@@_N@std@@@std@@@std@@@0@AAPAV10@PAV10@@Z ; std::_Rechecked<std::_Tree_const_iterator<std::_Tree_val<std::_Tree_simple_types<std::pair<std::basic_string<wchar_t,std::char_traits<wchar_t>,std::allocator<wchar_t> > const ,bool> > > > *,std::_Tree_const_iterator<std::_Tree_val<std::_Tree_simple_types<std::pair<std::basic_string<wchar_t,std::char_traits<wchar_t>,std::allocator<wchar_t> > const ,bool> > > > *>
PUBLIC	??$_Uninit_move@PAV?$_Tree_const_iterator@V?$_Tree_val@U?$_Tree_simple_types@U?$pair@$$CBV?$basic_string@_WU?$char_traits@_W@std@@V?$allocator@_W@2@@std@@_N@std@@@std@@@std@@@std@@PAV12@U?$_Wrap_alloc@V?$allocator@V?$_Tree_const_iterator@V?$_Tree_val@U?$_Tree_simple_types@U?$pair@$$CBV?$basic_string@_WU?$char_traits@_W@std@@V?$allocator@_W@2@@std@@_N@std@@@std@@@std@@@std@@@std@@@2@@std@@YAPAV?$_Tree_const_iterator@V?$_Tree_val@U?$_Tree_simple_types@U?$pair@$$CBV?$basic_string@_WU?$char_traits@_W@std@@V?$allocator@_W@2@@std@@_N@std@@@std@@@std@@@0@PAV10@00AAU?$_Wrap_alloc@V?$allocator@V?$_Tree_const_iterator@V?$_Tree_val@U?$_Tree_simple_types@U?$pair@$$CBV?$basic_string@_WU?$char_traits@_W@std@@V?$allocator@_W@2@@std@@_N@std@@@std@@@std@@@std@@@std@@@0@@Z ; std::_Uninit_move<std::_Tree_const_iterator<std::_Tree_val<std::_Tree_simple_types<std::pair<std::basic_string<wchar_t,std::char_traits<wchar_t>,std::allocator<wchar_t> > const ,bool> > > > *,std::_Tree_const_iterator<std::_Tree_val<std::_Tree_simple_types<std::pair<std::basic_string<wchar_t,std::char_traits<wchar_t>,std::allocator<wchar_t> > const ,bool> > > > *,std::_Wrap_alloc<std::allocator<std::_Tree_const_iterator<std::_Tree_val<std::_Tree_simple_types<std::pair<std::basic_string<wchar_t,std::char_traits<wchar_t>,std::allocator<wchar_t> > const ,bool> > > > > > >
PUBLIC	??$_Unchecked@PAV?$_Tree_const_iterator@V?$_Tree_val@U?$_Tree_simple_types@U?$pair@$$CBV?$basic_string@_WU?$char_traits@_W@std@@V?$allocator@_W@2@@std@@_N@std@@@std@@@std@@@std@@@std@@YAPAV?$_Tree_const_iterator@V?$_Tree_val@U?$_Tree_simple_types@U?$pair@$$CBV?$basic_string@_WU?$char_traits@_W@std@@V?$allocator@_W@2@@std@@_N@std@@@std@@@std@@@0@PAV10@@Z ; std::_Unchecked<std::_Tree_const_iterator<std::_Tree_val<std::_Tree_simple_types<std::pair<std::basic_string<wchar_t,std::char_traits<wchar_t>,std::allocator<wchar_t> > const ,bool> > > > *>
PUBLIC	??$destroy@V?$_Tree_const_iterator@V?$_Tree_val@U?$_Tree_simple_types@U?$pair@$$CBV?$basic_string@_WU?$char_traits@_W@std@@V?$allocator@_W@2@@std@@_N@std@@@std@@@std@@@std@@@?$_Wrap_alloc@V?$allocator@V?$_Tree_const_iterator@V?$_Tree_val@U?$_Tree_simple_types@U?$pair@$$CBV?$basic_string@_WU?$char_traits@_W@std@@V?$allocator@_W@2@@std@@_N@std@@@std@@@std@@@std@@@std@@@std@@QAEXPAV?$_Tree_const_iterator@V?$_Tree_val@U?$_Tree_simple_types@U?$pair@$$CBV?$basic_string@_WU?$char_traits@_W@std@@V?$allocator@_W@2@@std@@_N@std@@@std@@@std@@@1@@Z ; std::_Wrap_alloc<std::allocator<std::_Tree_const_iterator<std::_Tree_val<std::_Tree_simple_types<std::pair<std::basic_string<wchar_t,std::char_traits<wchar_t>,std::allocator<wchar_t> > const ,bool> > > > > >::destroy<std::_Tree_const_iterator<std::_Tree_val<std::_Tree_simple_types<std::pair<std::basic_string<wchar_t,std::char_traits<wchar_t>,std::allocator<wchar_t> > const ,bool> > > > >
PUBLIC	??$_Move@AAPAU?$_Tree_node@U?$pair@$$CBV?$basic_string@_WU?$char_traits@_W@std@@V?$allocator@_W@2@@std@@_N@std@@PAX@std@@@std@@YA$$QAPAU?$_Tree_node@U?$pair@$$CBV?$basic_string@_WU?$char_traits@_W@std@@V?$allocator@_W@2@@std@@_N@std@@PAX@0@AAPAU10@@Z ; std::_Move<std::_Tree_node<std::pair<std::basic_string<wchar_t,std::char_traits<wchar_t>,std::allocator<wchar_t> > const ,bool>,void *> * &>
PUBLIC	??$construct@V?$_Tree_const_iterator@V?$_Tree_val@U?$_Tree_simple_types@U?$pair@$$CBV?$basic_string@_WU?$char_traits@_W@std@@V?$allocator@_W@2@@std@@_N@std@@@std@@@std@@@std@@AAV12@@?$allocator@V?$_Tree_const_iterator@V?$_Tree_val@U?$_Tree_simple_types@U?$pair@$$CBV?$basic_string@_WU?$char_traits@_W@std@@V?$allocator@_W@2@@std@@_N@std@@@std@@@std@@@std@@@std@@QAEXPAV?$_Tree_const_iterator@V?$_Tree_val@U?$_Tree_simple_types@U?$pair@$$CBV?$basic_string@_WU?$char_traits@_W@std@@V?$allocator@_W@2@@std@@_N@std@@@std@@@std@@@1@AAV21@@Z ; std::allocator<std::_Tree_const_iterator<std::_Tree_val<std::_Tree_simple_types<std::pair<std::basic_string<wchar_t,std::char_traits<wchar_t>,std::allocator<wchar_t> > const ,bool> > > > >::construct<std::_Tree_const_iterator<std::_Tree_val<std::_Tree_simple_types<std::pair<std::basic_string<wchar_t,std::char_traits<wchar_t>,std::allocator<wchar_t> > const ,bool> > > >,std::_Tree_const_iterator<std::_Tree_val<std::_Tree_simple_types<std::pair<std::basic_string<wchar_t,std::char_traits<wchar_t>,std::allocator<wchar_t> > const ,bool> > > > &>
PUBLIC	??$construct@V?$_Tree_const_iterator@V?$_Tree_val@U?$_Tree_simple_types@U?$pair@$$CBV?$basic_string@_WU?$char_traits@_W@std@@V?$allocator@_W@2@@std@@_N@std@@@std@@@std@@@std@@V12@@?$allocator@V?$_Tree_const_iterator@V?$_Tree_val@U?$_Tree_simple_types@U?$pair@$$CBV?$basic_string@_WU?$char_traits@_W@std@@V?$allocator@_W@2@@std@@_N@std@@@std@@@std@@@std@@@std@@QAEXPAV?$_Tree_const_iterator@V?$_Tree_val@U?$_Tree_simple_types@U?$pair@$$CBV?$basic_string@_WU?$char_traits@_W@std@@V?$allocator@_W@2@@std@@_N@std@@@std@@@std@@@1@$$QAV21@@Z ; std::allocator<std::_Tree_const_iterator<std::_Tree_val<std::_Tree_simple_types<std::pair<std::basic_string<wchar_t,std::char_traits<wchar_t>,std::allocator<wchar_t> > const ,bool> > > > >::construct<std::_Tree_const_iterator<std::_Tree_val<std::_Tree_simple_types<std::pair<std::basic_string<wchar_t,std::char_traits<wchar_t>,std::allocator<wchar_t> > const ,bool> > > >,std::_Tree_const_iterator<std::_Tree_val<std::_Tree_simple_types<std::pair<std::basic_string<wchar_t,std::char_traits<wchar_t>,std::allocator<wchar_t> > const ,bool> > > > >
PUBLIC	??$construct@U?$pair@$$CBV?$basic_string@_WU?$char_traits@_W@std@@V?$allocator@_W@2@@std@@_N@std@@ABUpiecewise_construct_t@2@V?$tuple@ABV?$basic_string@_WU?$char_traits@_W@std@@V?$allocator@_W@2@@std@@@2@V?$tuple@$$$V@2@@?$_Wrap_alloc@V?$allocator@U?$_Tree_node@U?$pair@$$CBV?$basic_string@_WU?$char_traits@_W@std@@V?$allocator@_W@2@@std@@_N@std@@PAX@std@@@std@@@std@@QAEXPAU?$pair@$$CBV?$basic_string@_WU?$char_traits@_W@std@@V?$allocator@_W@2@@std@@_N@1@ABUpiecewise_construct_t@1@$$QAV?$tuple@ABV?$basic_string@_WU?$char_traits@_W@std@@V?$allocator@_W@2@@std@@@1@$$QAV?$tuple@$$$V@1@@Z ; std::_Wrap_alloc<std::allocator<std::_Tree_node<std::pair<std::basic_string<wchar_t,std::char_traits<wchar_t>,std::allocator<wchar_t> > const ,bool>,void *> > >::construct<std::pair<std::basic_string<wchar_t,std::char_traits<wchar_t>,std::allocator<wchar_t> > const ,bool>,std::piecewise_construct_t const &,std::tuple<std::basic_string<wchar_t,std::char_traits<wchar_t>,std::allocator<wchar_t> > const &>,std::tuple<> >
PUBLIC	??$_Equal@V?$_Vector_iterator@V?$_Vector_val@U?$_Simple_types@V?$_Tree_const_iterator@V?$_Tree_val@U?$_Tree_simple_types@U?$pair@$$CBV?$basic_string@_WU?$char_traits@_W@std@@V?$allocator@_W@2@@std@@_N@std@@@std@@@std@@@std@@@std@@@std@@@std@@U?$iterator@Urandom_access_iterator_tag@std@@V?$_Tree_const_iterator@V?$_Tree_val@U?$_Tree_simple_types@U?$pair@$$CBV?$basic_string@_WU?$char_traits@_W@std@@V?$allocator@_W@2@@std@@_N@std@@@std@@@std@@@2@HPAV32@AAV32@@2@@?$_Revranit@V?$_Vector_iterator@V?$_Vector_val@U?$_Simple_types@V?$_Tree_const_iterator@V?$_Tree_val@U?$_Tree_simple_types@U?$pair@$$CBV?$basic_string@_WU?$char_traits@_W@std@@V?$allocator@_W@2@@std@@_N@std@@@std@@@std@@@std@@@std@@@std@@@std@@U?$iterator@Urandom_access_iterator_tag@std@@V?$_Tree_const_iterator@V?$_Tree_val@U?$_Tree_simple_types@U?$pair@$$CBV?$basic_string@_WU?$char_traits@_W@std@@V?$allocator@_W@2@@std@@_N@std@@@std@@@std@@@2@HPAV32@AAV32@@2@@std@@QBE_NABV01@@Z ; std::_Revranit<std::_Vector_iterator<std::_Vector_val<std::_Simple_types<std::_Tree_const_iterator<std::_Tree_val<std::_Tree_simple_types<std::pair<std::basic_string<wchar_t,std::char_traits<wchar_t>,std::allocator<wchar_t> > const ,bool> > > > > > >,std::iterator<std::random_access_iterator_tag,std::_Tree_const_iterator<std::_Tree_val<std::_Tree_simple_types<std::pair<std::basic_string<wchar_t,std::char_traits<wchar_t>,std::allocator<wchar_t> > const ,bool> > > >,int,std::_Tree_const_iterator<std::_Tree_val<std::_Tree_simple_types<std::pair<std::basic_string<wchar_t,std::char_traits<wchar_t>,std::allocator<wchar_t> > const ,bool> > > > *,std::_Tree_const_iterator<std::_Tree_val<std::_Tree_simple_types<std::pair<std::basic_string<wchar_t,std::char_traits<wchar_t>,std::allocator<wchar_t> > const ,bool> > > > &> >::_Equal<std::_Vector_iterator<std::_Vector_val<std::_Simple_types<std::_Tree_const_iterator<std::_Tree_val<std::_Tree_simple_types<std::pair<std::basic_string<wchar_t,std::char_traits<wchar_t>,std::allocator<wchar_t> > const ,bool> > > > > > >,std::iterator<std::random_access_iterator_tag,std::_Tree_const_iterator<std::_Tree_val<std::_Tree_simple_types<std::pair<std::basic_string<wchar_t,std::char_traits<wchar_t>,std::allocator<wchar_t> > const ,bool> > > >,int,std::_Tree_const_iterator<std::_Tree_val<std::_Tree_simple_types<std::pair<std::basic_string<wchar_t,std::char_traits<wchar_t>,std::allocator<wchar_t> > const ,bool> > > > *,std::_Tree_const_iterator<std::_Tree_val<std::_Tree_simple_types<std::pair<std::basic_string<wchar_t,std::char_traits<wchar_t>,std::allocator<wchar_t> > const ,bool> > > > &> >
PUBLIC	??$?0AAV?$_Tree_iterator@V?$_Tree_val@U?$_Tree_simple_types@U?$pair@$$CBV?$basic_string@_WU?$char_traits@_W@std@@V?$allocator@_W@2@@std@@_N@std@@@std@@@std@@@std@@_NX@?$pair@V?$_Tree_iterator@V?$_Tree_val@U?$_Tree_simple_types@U?$pair@$$CBV?$basic_string@_WU?$char_traits@_W@std@@V?$allocator@_W@2@@std@@_N@std@@@std@@@std@@@std@@_N@std@@QAE@AAV?$_Tree_iterator@V?$_Tree_val@U?$_Tree_simple_types@U?$pair@$$CBV?$basic_string@_WU?$char_traits@_W@std@@V?$allocator@_W@2@@std@@_N@std@@@std@@@std@@@1@$$QA_N@Z ; std::pair<std::_Tree_iterator<std::_Tree_val<std::_Tree_simple_types<std::pair<std::basic_string<wchar_t,std::char_traits<wchar_t>,std::allocator<wchar_t> > const ,bool> > > >,bool>::pair<std::_Tree_iterator<std::_Tree_val<std::_Tree_simple_types<std::pair<std::basic_string<wchar_t,std::char_traits<wchar_t>,std::allocator<wchar_t> > const ,bool> > > >,bool><std::_Tree_iterator<std::_Tree_val<std::_Tree_simple_types<std::pair<std::basic_string<wchar_t,std::char_traits<wchar_t>,std::allocator<wchar_t> > const ,bool> > > > &,bool,void>
PUBLIC	??$?0V?$_Tree_iterator@V?$_Tree_val@U?$_Tree_simple_types@U?$pair@$$CBV?$basic_string@_WU?$char_traits@_W@std@@V?$allocator@_W@2@@std@@_N@std@@@std@@@std@@@std@@_NX@?$pair@V?$_Tree_iterator@V?$_Tree_val@U?$_Tree_simple_types@U?$pair@$$CBV?$basic_string@_WU?$char_traits@_W@std@@V?$allocator@_W@2@@std@@_N@std@@@std@@@std@@@std@@_N@std@@QAE@$$QAV?$_Tree_iterator@V?$_Tree_val@U?$_Tree_simple_types@U?$pair@$$CBV?$basic_string@_WU?$char_traits@_W@std@@V?$allocator@_W@2@@std@@_N@std@@@std@@@std@@@1@$$QA_N@Z ; std::pair<std::_Tree_iterator<std::_Tree_val<std::_Tree_simple_types<std::pair<std::basic_string<wchar_t,std::char_traits<wchar_t>,std::allocator<wchar_t> > const ,bool> > > >,bool>::pair<std::_Tree_iterator<std::_Tree_val<std::_Tree_simple_types<std::pair<std::basic_string<wchar_t,std::char_traits<wchar_t>,std::allocator<wchar_t> > const ,bool> > > >,bool><std::_Tree_iterator<std::_Tree_val<std::_Tree_simple_types<std::pair<std::basic_string<wchar_t,std::char_traits<wchar_t>,std::allocator<wchar_t> > const ,bool> > > >,bool,void>
PUBLIC	??$_Insert_at@AAU?$pair@$$CBV?$basic_string@_WU?$char_traits@_W@std@@V?$allocator@_W@2@@std@@_N@std@@PAU?$_Tree_node@U?$pair@$$CBV?$basic_string@_WU?$char_traits@_W@std@@V?$allocator@_W@2@@std@@_N@std@@PAX@2@@?$_Tree@V?$_Tmap_traits@V?$basic_string@_WU?$char_traits@_W@std@@V?$allocator@_W@2@@std@@_NU?$less@V?$basic_string@_WU?$char_traits@_W@std@@V?$allocator@_W@2@@std@@@2@V?$allocator@U?$pair@$$CBV?$basic_string@_WU?$char_traits@_W@std@@V?$allocator@_W@2@@std@@_N@std@@@2@$0A@@std@@@std@@IAE?AV?$_Tree_iterator@V?$_Tree_val@U?$_Tree_simple_types@U?$pair@$$CBV?$basic_string@_WU?$char_traits@_W@std@@V?$allocator@_W@2@@std@@_N@std@@@std@@@std@@@1@_NPAU?$_Tree_node@U?$pair@$$CBV?$basic_string@_WU?$char_traits@_W@std@@V?$allocator@_W@2@@std@@_N@std@@PAX@1@AAU?$pair@$$CBV?$basic_string@_WU?$char_traits@_W@std@@V?$allocator@_W@2@@std@@_N@1@1@Z ; std::_Tree<std::_Tmap_traits<std::basic_string<wchar_t,std::char_traits<wchar_t>,std::allocator<wchar_t> >,bool,std::less<std::basic_string<wchar_t,std::char_traits<wchar_t>,std::allocator<wchar_t> > >,std::allocator<std::pair<std::basic_string<wchar_t,std::char_traits<wchar_t>,std::allocator<wchar_t> > const ,bool> >,0> >::_Insert_at<std::pair<std::basic_string<wchar_t,std::char_traits<wchar_t>,std::allocator<wchar_t> > const ,bool> &,std::_Tree_node<std::pair<std::basic_string<wchar_t,std::char_traits<wchar_t>,std::allocator<wchar_t> > const ,bool>,void *> *>
PUBLIC	??$forward@AAU?$pair@$$CBV?$basic_string@_WU?$char_traits@_W@std@@V?$allocator@_W@2@@std@@_N@std@@@std@@YAAAU?$pair@$$CBV?$basic_string@_WU?$char_traits@_W@std@@V?$allocator@_W@2@@std@@_N@0@AAU10@@Z ; std::forward<std::pair<std::basic_string<wchar_t,std::char_traits<wchar_t>,std::allocator<wchar_t> > const ,bool> &>
PUBLIC	??$construct@U?$pair@$$CBV?$basic_string@_WU?$char_traits@_W@std@@V?$allocator@_W@2@@std@@_N@std@@PA_W_N@?$_Wrap_alloc@V?$allocator@U?$_Tree_node@U?$pair@$$CBV?$basic_string@_WU?$char_traits@_W@std@@V?$allocator@_W@2@@std@@_N@std@@PAX@std@@@std@@@std@@QAEXPAU?$pair@$$CBV?$basic_string@_WU?$char_traits@_W@std@@V?$allocator@_W@2@@std@@_N@1@$$QAPA_W$$QA_N@Z ; std::_Wrap_alloc<std::allocator<std::_Tree_node<std::pair<std::basic_string<wchar_t,std::char_traits<wchar_t>,std::allocator<wchar_t> > const ,bool>,void *> > >::construct<std::pair<std::basic_string<wchar_t,std::char_traits<wchar_t>,std::allocator<wchar_t> > const ,bool>,wchar_t *,bool>
PUBLIC	??F?$_Tree_unchecked_const_iterator@V?$_Tree_val@U?$_Tree_simple_types@U?$pair@$$CBV?$basic_string@_WU?$char_traits@_W@std@@V?$allocator@_W@2@@std@@_N@std@@@std@@@std@@U_Iterator_base0@2@@std@@QAEAAV01@XZ ; std::_Tree_unchecked_const_iterator<std::_Tree_val<std::_Tree_simple_types<std::pair<std::basic_string<wchar_t,std::char_traits<wchar_t>,std::allocator<wchar_t> > const ,bool> > >,std::_Iterator_base0>::operator--
PUBLIC	??0?$_Tree_unchecked_const_iterator@V?$_Tree_val@U?$_Tree_simple_types@U?$pair@$$CBV?$basic_string@_WU?$char_traits@_W@std@@V?$allocator@_W@2@@std@@_N@std@@@std@@@std@@U_Iterator_base0@2@@std@@QAE@XZ ; std::_Tree_unchecked_const_iterator<std::_Tree_val<std::_Tree_simple_types<std::pair<std::basic_string<wchar_t,std::char_traits<wchar_t>,std::allocator<wchar_t> > const ,bool> > >,std::_Iterator_base0>::_Tree_unchecked_const_iterator<std::_Tree_val<std::_Tree_simple_types<std::pair<std::basic_string<wchar_t,std::char_traits<wchar_t>,std::allocator<wchar_t> > const ,bool> > >,std::_Iterator_base0>
PUBLIC	??F?$_Tree_const_iterator@V?$_Tree_val@U?$_Tree_simple_types@U?$pair@$$CBV?$basic_string@_WU?$char_traits@_W@std@@V?$allocator@_W@2@@std@@_N@std@@@std@@@std@@@std@@QAEAAV01@XZ ; std::_Tree_const_iterator<std::_Tree_val<std::_Tree_simple_types<std::pair<std::basic_string<wchar_t,std::char_traits<wchar_t>,std::allocator<wchar_t> > const ,bool> > > >::operator--
PUBLIC	??0?$_Tree_const_iterator@V?$_Tree_val@U?$_Tree_simple_types@U?$pair@$$CBV?$basic_string@_WU?$char_traits@_W@std@@V?$allocator@_W@2@@std@@_N@std@@@std@@@std@@@std@@QAE@XZ ; std::_Tree_const_iterator<std::_Tree_val<std::_Tree_simple_types<std::pair<std::basic_string<wchar_t,std::char_traits<wchar_t>,std::allocator<wchar_t> > const ,bool> > > >::_Tree_const_iterator<std::_Tree_val<std::_Tree_simple_types<std::pair<std::basic_string<wchar_t,std::char_traits<wchar_t>,std::allocator<wchar_t> > const ,bool> > > >
PUBLIC	??F?$_Tree_iterator@V?$_Tree_val@U?$_Tree_simple_types@U?$pair@$$CBV?$basic_string@_WU?$char_traits@_W@std@@V?$allocator@_W@2@@std@@_N@std@@@std@@@std@@@std@@QAEAAV01@XZ ; std::_Tree_iterator<std::_Tree_val<std::_Tree_simple_types<std::pair<std::basic_string<wchar_t,std::char_traits<wchar_t>,std::allocator<wchar_t> > const ,bool> > > >::operator--
PUBLIC	?construct@?$allocator@V?$_Tree_const_iterator@V?$_Tree_val@U?$_Tree_simple_types@U?$pair@$$CBV?$basic_string@_WU?$char_traits@_W@std@@V?$allocator@_W@2@@std@@_N@std@@@std@@@std@@@std@@@std@@QAEXPAV?$_Tree_const_iterator@V?$_Tree_val@U?$_Tree_simple_types@U?$pair@$$CBV?$basic_string@_WU?$char_traits@_W@std@@V?$allocator@_W@2@@std@@_N@std@@@std@@@std@@@2@ABV32@@Z ; std::allocator<std::_Tree_const_iterator<std::_Tree_val<std::_Tree_simple_types<std::pair<std::basic_string<wchar_t,std::char_traits<wchar_t>,std::allocator<wchar_t> > const ,bool> > > > >::construct
PUBLIC	?_Freenode0@?$_Tree_buy@U?$pair@$$CBV?$basic_string@_WU?$char_traits@_W@std@@V?$allocator@_W@2@@std@@_N@std@@V?$allocator@U?$pair@$$CBV?$basic_string@_WU?$char_traits@_W@std@@V?$allocator@_W@2@@std@@_N@std@@@2@@std@@QAEXPAU?$_Tree_node@U?$pair@$$CBV?$basic_string@_WU?$char_traits@_W@std@@V?$allocator@_W@2@@std@@_N@std@@PAX@2@@Z ; std::_Tree_buy<std::pair<std::basic_string<wchar_t,std::char_traits<wchar_t>,std::allocator<wchar_t> > const ,bool>,std::allocator<std::pair<std::basic_string<wchar_t,std::char_traits<wchar_t>,std::allocator<wchar_t> > const ,bool> > >::_Freenode0
PUBLIC	?_Buynode0@?$_Tree_buy@U?$pair@$$CBV?$basic_string@_WU?$char_traits@_W@std@@V?$allocator@_W@2@@std@@_N@std@@V?$allocator@U?$pair@$$CBV?$basic_string@_WU?$char_traits@_W@std@@V?$allocator@_W@2@@std@@_N@std@@@2@@std@@QAEPAU?$_Tree_node@U?$pair@$$CBV?$basic_string@_WU?$char_traits@_W@std@@V?$allocator@_W@2@@std@@_N@std@@PAX@2@XZ ; std::_Tree_buy<std::pair<std::basic_string<wchar_t,std::char_traits<wchar_t>,std::allocator<wchar_t> > const ,bool>,std::allocator<std::pair<std::basic_string<wchar_t,std::char_traits<wchar_t>,std::allocator<wchar_t> > const ,bool> > >::_Buynode0
PUBLIC	?_Destroy_if_not_nil@?$_Tree@V?$_Tmap_traits@V?$basic_string@_WU?$char_traits@_W@std@@V?$allocator@_W@2@@std@@_NU?$less@V?$basic_string@_WU?$char_traits@_W@std@@V?$allocator@_W@2@@std@@@2@V?$allocator@U?$pair@$$CBV?$basic_string@_WU?$char_traits@_W@std@@V?$allocator@_W@2@@std@@_N@std@@@2@$0A@@std@@@std@@IAEXPAU?$_Tree_node@U?$pair@$$CBV?$basic_string@_WU?$char_traits@_W@std@@V?$allocator@_W@2@@std@@_N@std@@PAX@2@@Z ; std::_Tree<std::_Tmap_traits<std::basic_string<wchar_t,std::char_traits<wchar_t>,std::allocator<wchar_t> >,bool,std::less<std::basic_string<wchar_t,std::char_traits<wchar_t>,std::allocator<wchar_t> > >,std::allocator<std::pair<std::basic_string<wchar_t,std::char_traits<wchar_t>,std::allocator<wchar_t> > const ,bool> >,0> >::_Destroy_if_not_nil
PUBLIC	?size@?$_Tree@V?$_Tmap_traits@V?$basic_string@_WU?$char_traits@_W@std@@V?$allocator@_W@2@@std@@_NU?$less@V?$basic_string@_WU?$char_traits@_W@std@@V?$allocator@_W@2@@std@@@2@V?$allocator@U?$pair@$$CBV?$basic_string@_WU?$char_traits@_W@std@@V?$allocator@_W@2@@std@@_N@std@@@2@$0A@@std@@@std@@QBEIXZ ; std::_Tree<std::_Tmap_traits<std::basic_string<wchar_t,std::char_traits<wchar_t>,std::allocator<wchar_t> >,bool,std::less<std::basic_string<wchar_t,std::char_traits<wchar_t>,std::allocator<wchar_t> > >,std::allocator<std::pair<std::basic_string<wchar_t,std::char_traits<wchar_t>,std::allocator<wchar_t> > const ,bool> >,0> >::size
PUBLIC	??$?0ABV?$basic_string@_WU?$char_traits@_W@std@@V?$allocator@_W@2@@std@@@?$_Tuple_val@ABV?$basic_string@_WU?$char_traits@_W@std@@V?$allocator@_W@2@@std@@@std@@QAE@ABV?$basic_string@_WU?$char_traits@_W@std@@V?$allocator@_W@2@@1@@Z ; std::_Tuple_val<std::basic_string<wchar_t,std::char_traits<wchar_t>,std::allocator<wchar_t> > const &>::_Tuple_val<std::basic_string<wchar_t,std::char_traits<wchar_t>,std::allocator<wchar_t> > const &><std::basic_string<wchar_t,std::char_traits<wchar_t>,std::allocator<wchar_t> > const &>
PUBLIC	??$_Uninitialized_move@PAV?$_Tree_const_iterator@V?$_Tree_val@U?$_Tree_simple_types@U?$pair@$$CBV?$basic_string@_WU?$char_traits@_W@std@@V?$allocator@_W@2@@std@@_N@std@@@std@@@std@@@std@@PAV12@U?$_Wrap_alloc@V?$allocator@V?$_Tree_const_iterator@V?$_Tree_val@U?$_Tree_simple_types@U?$pair@$$CBV?$basic_string@_WU?$char_traits@_W@std@@V?$allocator@_W@2@@std@@_N@std@@@std@@@std@@@std@@@std@@@2@@std@@YAPAV?$_Tree_const_iterator@V?$_Tree_val@U?$_Tree_simple_types@U?$pair@$$CBV?$basic_string@_WU?$char_traits@_W@std@@V?$allocator@_W@2@@std@@_N@std@@@std@@@std@@@0@PAV10@00AAU?$_Wrap_alloc@V?$allocator@V?$_Tree_const_iterator@V?$_Tree_val@U?$_Tree_simple_types@U?$pair@$$CBV?$basic_string@_WU?$char_traits@_W@std@@V?$allocator@_W@2@@std@@_N@std@@@std@@@std@@@std@@@std@@@0@@Z ; std::_Uninitialized_move<std::_Tree_const_iterator<std::_Tree_val<std::_Tree_simple_types<std::pair<std::basic_string<wchar_t,std::char_traits<wchar_t>,std::allocator<wchar_t> > const ,bool> > > > *,std::_Tree_const_iterator<std::_Tree_val<std::_Tree_simple_types<std::pair<std::basic_string<wchar_t,std::char_traits<wchar_t>,std::allocator<wchar_t> > const ,bool> > > > *,std::_Wrap_alloc<std::allocator<std::_Tree_const_iterator<std::_Tree_val<std::_Tree_simple_types<std::pair<std::basic_string<wchar_t,std::char_traits<wchar_t>,std::allocator<wchar_t> > const ,bool> > > > > > >
PUBLIC	??$_Destroy_range@U?$_Wrap_alloc@V?$allocator@V?$_Tree_const_iterator@V?$_Tree_val@U?$_Tree_simple_types@U?$pair@$$CBV?$basic_string@_WU?$char_traits@_W@std@@V?$allocator@_W@2@@std@@_N@std@@@std@@@std@@@std@@@std@@@std@@@std@@YAXPAV?$_Tree_const_iterator@V?$_Tree_val@U?$_Tree_simple_types@U?$pair@$$CBV?$basic_string@_WU?$char_traits@_W@std@@V?$allocator@_W@2@@std@@_N@std@@@std@@@std@@@0@0AAU?$_Wrap_alloc@V?$allocator@V?$_Tree_const_iterator@V?$_Tree_val@U?$_Tree_simple_types@U?$pair@$$CBV?$basic_string@_WU?$char_traits@_W@std@@V?$allocator@_W@2@@std@@_N@std@@@std@@@std@@@std@@@std@@@0@U_Nonscalar_ptr_iterator_tag@0@@Z ; std::_Destroy_range<std::_Wrap_alloc<std::allocator<std::_Tree_const_iterator<std::_Tree_val<std::_Tree_simple_types<std::pair<std::basic_string<wchar_t,std::char_traits<wchar_t>,std::allocator<wchar_t> > const ,bool> > > > > > >
PUBLIC	??$_Ptr_cat@V?$_Tree_const_iterator@V?$_Tree_val@U?$_Tree_simple_types@U?$pair@$$CBV?$basic_string@_WU?$char_traits@_W@std@@V?$allocator@_W@2@@std@@_N@std@@@std@@@std@@@std@@V12@@std@@YA?AU_Nonscalar_ptr_iterator_tag@0@PAV?$_Tree_const_iterator@V?$_Tree_val@U?$_Tree_simple_types@U?$pair@$$CBV?$basic_string@_WU?$char_traits@_W@std@@V?$allocator@_W@2@@std@@_N@std@@@std@@@std@@@0@0@Z ; std::_Ptr_cat<std::_Tree_const_iterator<std::_Tree_val<std::_Tree_simple_types<std::pair<std::basic_string<wchar_t,std::char_traits<wchar_t>,std::allocator<wchar_t> > const ,bool> > > >,std::_Tree_const_iterator<std::_Tree_val<std::_Tree_simple_types<std::pair<std::basic_string<wchar_t,std::char_traits<wchar_t>,std::allocator<wchar_t> > const ,bool> > > > >
PUBLIC	??$swap@PAU?$_Tree_node@U?$pair@$$CBV?$basic_string@_WU?$char_traits@_W@std@@V?$allocator@_W@2@@std@@_N@std@@PAX@std@@@std@@YAXAAPAU?$_Tree_node@U?$pair@$$CBV?$basic_string@_WU?$char_traits@_W@std@@V?$allocator@_W@2@@std@@_N@std@@PAX@0@0@Z ; std::swap<std::_Tree_node<std::pair<std::basic_string<wchar_t,std::char_traits<wchar_t>,std::allocator<wchar_t> > const ,bool>,void *> *>
PUBLIC	??$construct@V?$_Tree_const_iterator@V?$_Tree_val@U?$_Tree_simple_types@U?$pair@$$CBV?$basic_string@_WU?$char_traits@_W@std@@V?$allocator@_W@2@@std@@_N@std@@@std@@@std@@@std@@ABV12@@?$allocator_traits@V?$allocator@V?$_Tree_const_iterator@V?$_Tree_val@U?$_Tree_simple_types@U?$pair@$$CBV?$basic_string@_WU?$char_traits@_W@std@@V?$allocator@_W@2@@std@@_N@std@@@std@@@std@@@std@@@std@@@std@@SAXAAV?$allocator@V?$_Tree_const_iterator@V?$_Tree_val@U?$_Tree_simple_types@U?$pair@$$CBV?$basic_string@_WU?$char_traits@_W@std@@V?$allocator@_W@2@@std@@_N@std@@@std@@@std@@@std@@@1@PAV?$_Tree_const_iterator@V?$_Tree_val@U?$_Tree_simple_types@U?$pair@$$CBV?$basic_string@_WU?$char_traits@_W@std@@V?$allocator@_W@2@@std@@_N@std@@@std@@@std@@@1@ABV31@@Z ; std::allocator_traits<std::allocator<std::_Tree_const_iterator<std::_Tree_val<std::_Tree_simple_types<std::pair<std::basic_string<wchar_t,std::char_traits<wchar_t>,std::allocator<wchar_t> > const ,bool> > > > > >::construct<std::_Tree_const_iterator<std::_Tree_val<std::_Tree_simple_types<std::pair<std::basic_string<wchar_t,std::char_traits<wchar_t>,std::allocator<wchar_t> > const ,bool> > > >,std::_Tree_const_iterator<std::_Tree_val<std::_Tree_simple_types<std::pair<std::basic_string<wchar_t,std::char_traits<wchar_t>,std::allocator<wchar_t> > const ,bool> > > > const &>
PUBLIC	??$forward@ABV?$_Tree_const_iterator@V?$_Tree_val@U?$_Tree_simple_types@U?$pair@$$CBV?$basic_string@_WU?$char_traits@_W@std@@V?$allocator@_W@2@@std@@_N@std@@@std@@@std@@@std@@@std@@YAABV?$_Tree_const_iterator@V?$_Tree_val@U?$_Tree_simple_types@U?$pair@$$CBV?$basic_string@_WU?$char_traits@_W@std@@V?$allocator@_W@2@@std@@_N@std@@@std@@@std@@@0@ABV10@@Z ; std::forward<std::_Tree_const_iterator<std::_Tree_val<std::_Tree_simple_types<std::pair<std::basic_string<wchar_t,std::char_traits<wchar_t>,std::allocator<wchar_t> > const ,bool> > > > const &>
PUBLIC	??$construct@V?$_Tree_const_iterator@V?$_Tree_val@U?$_Tree_simple_types@U?$pair@$$CBV?$basic_string@_WU?$char_traits@_W@std@@V?$allocator@_W@2@@std@@_N@std@@@std@@@std@@@std@@AAV12@@?$allocator_traits@V?$allocator@V?$_Tree_const_iterator@V?$_Tree_val@U?$_Tree_simple_types@U?$pair@$$CBV?$basic_string@_WU?$char_traits@_W@std@@V?$allocator@_W@2@@std@@_N@std@@@std@@@std@@@std@@@std@@@std@@SAXAAV?$allocator@V?$_Tree_const_iterator@V?$_Tree_val@U?$_Tree_simple_types@U?$pair@$$CBV?$basic_string@_WU?$char_traits@_W@std@@V?$allocator@_W@2@@std@@_N@std@@@std@@@std@@@std@@@1@PAV?$_Tree_const_iterator@V?$_Tree_val@U?$_Tree_simple_types@U?$pair@$$CBV?$basic_string@_WU?$char_traits@_W@std@@V?$allocator@_W@2@@std@@_N@std@@@std@@@std@@@1@AAV31@@Z ; std::allocator_traits<std::allocator<std::_Tree_const_iterator<std::_Tree_val<std::_Tree_simple_types<std::pair<std::basic_string<wchar_t,std::char_traits<wchar_t>,std::allocator<wchar_t> > const ,bool> > > > > >::construct<std::_Tree_const_iterator<std::_Tree_val<std::_Tree_simple_types<std::pair<std::basic_string<wchar_t,std::char_traits<wchar_t>,std::allocator<wchar_t> > const ,bool> > > >,std::_Tree_const_iterator<std::_Tree_val<std::_Tree_simple_types<std::pair<std::basic_string<wchar_t,std::char_traits<wchar_t>,std::allocator<wchar_t> > const ,bool> > > > &>
PUBLIC	??$forward@AAV?$_Tree_const_iterator@V?$_Tree_val@U?$_Tree_simple_types@U?$pair@$$CBV?$basic_string@_WU?$char_traits@_W@std@@V?$allocator@_W@2@@std@@_N@std@@@std@@@std@@@std@@@std@@YAAAV?$_Tree_const_iterator@V?$_Tree_val@U?$_Tree_simple_types@U?$pair@$$CBV?$basic_string@_WU?$char_traits@_W@std@@V?$allocator@_W@2@@std@@_N@std@@@std@@@std@@@0@AAV10@@Z ; std::forward<std::_Tree_const_iterator<std::_Tree_val<std::_Tree_simple_types<std::pair<std::basic_string<wchar_t,std::char_traits<wchar_t>,std::allocator<wchar_t> > const ,bool> > > > &>
PUBLIC	??$construct@V?$_Tree_const_iterator@V?$_Tree_val@U?$_Tree_simple_types@U?$pair@$$CBV?$basic_string@_WU?$char_traits@_W@std@@V?$allocator@_W@2@@std@@_N@std@@@std@@@std@@@std@@V12@@?$allocator_traits@V?$allocator@V?$_Tree_const_iterator@V?$_Tree_val@U?$_Tree_simple_types@U?$pair@$$CBV?$basic_string@_WU?$char_traits@_W@std@@V?$allocator@_W@2@@std@@_N@std@@@std@@@std@@@std@@@std@@@std@@SAXAAV?$allocator@V?$_Tree_const_iterator@V?$_Tree_val@U?$_Tree_simple_types@U?$pair@$$CBV?$basic_string@_WU?$char_traits@_W@std@@V?$allocator@_W@2@@std@@_N@std@@@std@@@std@@@std@@@1@PAV?$_Tree_const_iterator@V?$_Tree_val@U?$_Tree_simple_types@U?$pair@$$CBV?$basic_string@_WU?$char_traits@_W@std@@V?$allocator@_W@2@@std@@_N@std@@@std@@@std@@@1@$$QAV31@@Z ; std::allocator_traits<std::allocator<std::_Tree_const_iterator<std::_Tree_val<std::_Tree_simple_types<std::pair<std::basic_string<wchar_t,std::char_traits<wchar_t>,std::allocator<wchar_t> > const ,bool> > > > > >::construct<std::_Tree_const_iterator<std::_Tree_val<std::_Tree_simple_types<std::pair<std::basic_string<wchar_t,std::char_traits<wchar_t>,std::allocator<wchar_t> > const ,bool> > > >,std::_Tree_const_iterator<std::_Tree_val<std::_Tree_simple_types<std::pair<std::basic_string<wchar_t,std::char_traits<wchar_t>,std::allocator<wchar_t> > const ,bool> > > > >
PUBLIC	??$_Insert_hint@AAU?$pair@$$CBV?$basic_string@_WU?$char_traits@_W@std@@V?$allocator@_W@2@@std@@_N@std@@PAU?$_Tree_node@U?$pair@$$CBV?$basic_string@_WU?$char_traits@_W@std@@V?$allocator@_W@2@@std@@_N@std@@PAX@2@@?$_Tree@V?$_Tmap_traits@V?$basic_string@_WU?$char_traits@_W@std@@V?$allocator@_W@2@@std@@_NU?$less@V?$basic_string@_WU?$char_traits@_W@std@@V?$allocator@_W@2@@std@@@2@V?$allocator@U?$pair@$$CBV?$basic_string@_WU?$char_traits@_W@std@@V?$allocator@_W@2@@std@@_N@std@@@2@$0A@@std@@@std@@IAE?AV?$_Tree_iterator@V?$_Tree_val@U?$_Tree_simple_types@U?$pair@$$CBV?$basic_string@_WU?$char_traits@_W@std@@V?$allocator@_W@2@@std@@_N@std@@@std@@@std@@@1@V?$_Tree_const_iterator@V?$_Tree_val@U?$_Tree_simple_types@U?$pair@$$CBV?$basic_string@_WU?$char_traits@_W@std@@V?$allocator@_W@2@@std@@_N@std@@@std@@@std@@@1@AAU?$pair@$$CBV?$basic_string@_WU?$char_traits@_W@std@@V?$allocator@_W@2@@std@@_N@1@PAU?$_Tree_node@U?$pair@$$CBV?$basic_string@_WU?$char_traits@_W@std@@V?$allocator@_W@2@@std@@_N@std@@PAX@1@@Z ; std::_Tree<std::_Tmap_traits<std::basic_string<wchar_t,std::char_traits<wchar_t>,std::allocator<wchar_t> >,bool,std::less<std::basic_string<wchar_t,std::char_traits<wchar_t>,std::allocator<wchar_t> > >,std::allocator<std::pair<std::basic_string<wchar_t,std::char_traits<wchar_t>,std::allocator<wchar_t> > const ,bool> >,0> >::_Insert_hint<std::pair<std::basic_string<wchar_t,std::char_traits<wchar_t>,std::allocator<wchar_t> > const ,bool> &,std::_Tree_node<std::pair<std::basic_string<wchar_t,std::char_traits<wchar_t>,std::allocator<wchar_t> > const ,bool>,void *> *>
PUBLIC	??$_Buynode@ABUpiecewise_construct_t@std@@V?$tuple@ABV?$basic_string@_WU?$char_traits@_W@std@@V?$allocator@_W@2@@std@@@2@V?$tuple@$$$V@2@@?$_Tree_buy@U?$pair@$$CBV?$basic_string@_WU?$char_traits@_W@std@@V?$allocator@_W@2@@std@@_N@std@@V?$allocator@U?$pair@$$CBV?$basic_string@_WU?$char_traits@_W@std@@V?$allocator@_W@2@@std@@_N@std@@@2@@std@@QAEPAU?$_Tree_node@U?$pair@$$CBV?$basic_string@_WU?$char_traits@_W@std@@V?$allocator@_W@2@@std@@_N@std@@PAX@1@ABUpiecewise_construct_t@1@$$QAV?$tuple@ABV?$basic_string@_WU?$char_traits@_W@std@@V?$allocator@_W@2@@std@@@1@$$QAV?$tuple@$$$V@1@@Z ; std::_Tree_buy<std::pair<std::basic_string<wchar_t,std::char_traits<wchar_t>,std::allocator<wchar_t> > const ,bool>,std::allocator<std::pair<std::basic_string<wchar_t,std::char_traits<wchar_t>,std::allocator<wchar_t> > const ,bool> > >::_Buynode<std::piecewise_construct_t const &,std::tuple<std::basic_string<wchar_t,std::char_traits<wchar_t>,std::allocator<wchar_t> > const &>,std::tuple<> >
PUBLIC	??$forward@V?$tuple@ABV?$basic_string@_WU?$char_traits@_W@std@@V?$allocator@_W@2@@std@@@std@@@std@@YA$$QAV?$tuple@ABV?$basic_string@_WU?$char_traits@_W@std@@V?$allocator@_W@2@@std@@@0@AAV10@@Z ; std::forward<std::tuple<std::basic_string<wchar_t,std::char_traits<wchar_t>,std::allocator<wchar_t> > const &> >
PUBLIC	??$forward@ABV?$basic_string@_WU?$char_traits@_W@std@@V?$allocator@_W@2@@std@@@std@@YAABV?$basic_string@_WU?$char_traits@_W@std@@V?$allocator@_W@2@@0@ABV10@@Z ; std::forward<std::basic_string<wchar_t,std::char_traits<wchar_t>,std::allocator<wchar_t> > const &>
PUBLIC	??$?8V?$_Vector_iterator@V?$_Vector_val@U?$_Simple_types@V?$_Tree_const_iterator@V?$_Tree_val@U?$_Tree_simple_types@U?$pair@$$CBV?$basic_string@_WU?$char_traits@_W@std@@V?$allocator@_W@2@@std@@_N@std@@@std@@@std@@@std@@@std@@@std@@@std@@V01@@std@@YA_NABV?$reverse_iterator@V?$_Vector_iterator@V?$_Vector_val@U?$_Simple_types@V?$_Tree_const_iterator@V?$_Tree_val@U?$_Tree_simple_types@U?$pair@$$CBV?$basic_string@_WU?$char_traits@_W@std@@V?$allocator@_W@2@@std@@_N@std@@@std@@@std@@@std@@@std@@@std@@@std@@@0@0@Z ; std::operator==<std::_Vector_iterator<std::_Vector_val<std::_Simple_types<std::_Tree_const_iterator<std::_Tree_val<std::_Tree_simple_types<std::pair<std::basic_string<wchar_t,std::char_traits<wchar_t>,std::allocator<wchar_t> > const ,bool> > > > > > >,std::_Vector_iterator<std::_Vector_val<std::_Simple_types<std::_Tree_const_iterator<std::_Tree_val<std::_Tree_simple_types<std::pair<std::basic_string<wchar_t,std::char_traits<wchar_t>,std::allocator<wchar_t> > const ,bool> > > > > > > >
PUBLIC	??$_Insert_nohint@AAU?$pair@$$CBV?$basic_string@_WU?$char_traits@_W@std@@V?$allocator@_W@2@@std@@_N@std@@PAU?$_Tree_node@U?$pair@$$CBV?$basic_string@_WU?$char_traits@_W@std@@V?$allocator@_W@2@@std@@_N@std@@PAX@2@@?$_Tree@V?$_Tmap_traits@V?$basic_string@_WU?$char_traits@_W@std@@V?$allocator@_W@2@@std@@_NU?$less@V?$basic_string@_WU?$char_traits@_W@std@@V?$allocator@_W@2@@std@@@2@V?$allocator@U?$pair@$$CBV?$basic_string@_WU?$char_traits@_W@std@@V?$allocator@_W@2@@std@@_N@std@@@2@$0A@@std@@@std@@IAE?AU?$pair@V?$_Tree_iterator@V?$_Tree_val@U?$_Tree_simple_types@U?$pair@$$CBV?$basic_string@_WU?$char_traits@_W@std@@V?$allocator@_W@2@@std@@_N@std@@@std@@@std@@@std@@_N@1@_NAAU?$pair@$$CBV?$basic_string@_WU?$char_traits@_W@std@@V?$allocator@_W@2@@std@@_N@1@PAU?$_Tree_node@U?$pair@$$CBV?$basic_string@_WU?$char_traits@_W@std@@V?$allocator@_W@2@@std@@_N@std@@PAX@1@@Z ; std::_Tree<std::_Tmap_traits<std::basic_string<wchar_t,std::char_traits<wchar_t>,std::allocator<wchar_t> >,bool,std::less<std::basic_string<wchar_t,std::char_traits<wchar_t>,std::allocator<wchar_t> > >,std::allocator<std::pair<std::basic_string<wchar_t,std::char_traits<wchar_t>,std::allocator<wchar_t> > const ,bool> >,0> >::_Insert_nohint<std::pair<std::basic_string<wchar_t,std::char_traits<wchar_t>,std::allocator<wchar_t> > const ,bool> &,std::_Tree_node<std::pair<std::basic_string<wchar_t,std::char_traits<wchar_t>,std::allocator<wchar_t> > const ,bool>,void *> *>
PUBLIC	??$_Buynode@PA_W_N@?$_Tree_buy@U?$pair@$$CBV?$basic_string@_WU?$char_traits@_W@std@@V?$allocator@_W@2@@std@@_N@std@@V?$allocator@U?$pair@$$CBV?$basic_string@_WU?$char_traits@_W@std@@V?$allocator@_W@2@@std@@_N@std@@@2@@std@@QAEPAU?$_Tree_node@U?$pair@$$CBV?$basic_string@_WU?$char_traits@_W@std@@V?$allocator@_W@2@@std@@_N@std@@PAX@1@$$QAPA_W$$QA_N@Z ; std::_Tree_buy<std::pair<std::basic_string<wchar_t,std::char_traits<wchar_t>,std::allocator<wchar_t> > const ,bool>,std::allocator<std::pair<std::basic_string<wchar_t,std::char_traits<wchar_t>,std::allocator<wchar_t> > const ,bool> > >::_Buynode<wchar_t *,bool>
PUBLIC	??$forward@PA_W@std@@YA$$QAPA_WAAPA_W@Z		; std::forward<wchar_t *>
PUBLIC	??0?$tuple@ABV?$basic_string@_WU?$char_traits@_W@std@@V?$allocator@_W@2@@std@@@std@@QAE@ABV?$basic_string@_WU?$char_traits@_W@std@@V?$allocator@_W@2@@1@@Z ; std::tuple<std::basic_string<wchar_t,std::char_traits<wchar_t>,std::allocator<wchar_t> > const &>::tuple<std::basic_string<wchar_t,std::char_traits<wchar_t>,std::allocator<wchar_t> > const &>
PUBLIC	??$_Allocate@V?$_Tree_const_iterator@V?$_Tree_val@U?$_Tree_simple_types@U?$pair@$$CBV?$basic_string@_WU?$char_traits@_W@std@@V?$allocator@_W@2@@std@@_N@std@@@std@@@std@@@std@@@std@@YAPAV?$_Tree_const_iterator@V?$_Tree_val@U?$_Tree_simple_types@U?$pair@$$CBV?$basic_string@_WU?$char_traits@_W@std@@V?$allocator@_W@2@@std@@_N@std@@@std@@@std@@@0@IPAV10@@Z ; std::_Allocate<std::_Tree_const_iterator<std::_Tree_val<std::_Tree_simple_types<std::pair<std::basic_string<wchar_t,std::char_traits<wchar_t>,std::allocator<wchar_t> > const ,bool> > > > >
PUBLIC	??$_Umove@PAV?$_Tree_const_iterator@V?$_Tree_val@U?$_Tree_simple_types@U?$pair@$$CBV?$basic_string@_WU?$char_traits@_W@std@@V?$allocator@_W@2@@std@@_N@std@@@std@@@std@@@std@@@?$vector@V?$_Tree_const_iterator@V?$_Tree_val@U?$_Tree_simple_types@U?$pair@$$CBV?$basic_string@_WU?$char_traits@_W@std@@V?$allocator@_W@2@@std@@_N@std@@@std@@@std@@@std@@V?$allocator@V?$_Tree_const_iterator@V?$_Tree_val@U?$_Tree_simple_types@U?$pair@$$CBV?$basic_string@_WU?$char_traits@_W@std@@V?$allocator@_W@2@@std@@_N@std@@@std@@@std@@@std@@@2@@std@@IAEPAV?$_Tree_const_iterator@V?$_Tree_val@U?$_Tree_simple_types@U?$pair@$$CBV?$basic_string@_WU?$char_traits@_W@std@@V?$allocator@_W@2@@std@@_N@std@@@std@@@std@@@1@PAV21@00@Z ; std::vector<std::_Tree_const_iterator<std::_Tree_val<std::_Tree_simple_types<std::pair<std::basic_string<wchar_t,std::char_traits<wchar_t>,std::allocator<wchar_t> > const ,bool> > > >,std::allocator<std::_Tree_const_iterator<std::_Tree_val<std::_Tree_simple_types<std::pair<std::basic_string<wchar_t,std::char_traits<wchar_t>,std::allocator<wchar_t> > const ,bool> > > > > >::_Umove<std::_Tree_const_iterator<std::_Tree_val<std::_Tree_simple_types<std::pair<std::basic_string<wchar_t,std::char_traits<wchar_t>,std::allocator<wchar_t> > const ,bool> > > > *>
PUBLIC	??$_Destroy_range@U?$_Wrap_alloc@V?$allocator@V?$_Tree_const_iterator@V?$_Tree_val@U?$_Tree_simple_types@U?$pair@$$CBV?$basic_string@_WU?$char_traits@_W@std@@V?$allocator@_W@2@@std@@_N@std@@@std@@@std@@@std@@@std@@@std@@@std@@YAXPAV?$_Tree_const_iterator@V?$_Tree_val@U?$_Tree_simple_types@U?$pair@$$CBV?$basic_string@_WU?$char_traits@_W@std@@V?$allocator@_W@2@@std@@_N@std@@@std@@@std@@@0@0AAU?$_Wrap_alloc@V?$allocator@V?$_Tree_const_iterator@V?$_Tree_val@U?$_Tree_simple_types@U?$pair@$$CBV?$basic_string@_WU?$char_traits@_W@std@@V?$allocator@_W@2@@std@@_N@std@@@std@@@std@@@std@@@std@@@0@@Z ; std::_Destroy_range<std::_Wrap_alloc<std::allocator<std::_Tree_const_iterator<std::_Tree_val<std::_Tree_simple_types<std::pair<std::basic_string<wchar_t,std::char_traits<wchar_t>,std::allocator<wchar_t> > const ,bool> > > > > > >
PUBLIC	??$_Kfn@$$CBV?$basic_string@_WU?$char_traits@_W@std@@V?$allocator@_W@2@@std@@_N@?$_Tmap_traits@V?$basic_string@_WU?$char_traits@_W@std@@V?$allocator@_W@2@@std@@_NU?$less@V?$basic_string@_WU?$char_traits@_W@std@@V?$allocator@_W@2@@std@@@2@V?$allocator@U?$pair@$$CBV?$basic_string@_WU?$char_traits@_W@std@@V?$allocator@_W@2@@std@@_N@std@@@2@$0A@@std@@SAABV?$basic_string@_WU?$char_traits@_W@std@@V?$allocator@_W@2@@1@ABU?$pair@$$CBV?$basic_string@_WU?$char_traits@_W@std@@V?$allocator@_W@2@@std@@_N@1@@Z ; std::_Tmap_traits<std::basic_string<wchar_t,std::char_traits<wchar_t>,std::allocator<wchar_t> >,bool,std::less<std::basic_string<wchar_t,std::char_traits<wchar_t>,std::allocator<wchar_t> > >,std::allocator<std::pair<std::basic_string<wchar_t,std::char_traits<wchar_t>,std::allocator<wchar_t> > const ,bool> >,0>::_Kfn<std::basic_string<wchar_t,std::char_traits<wchar_t>,std::allocator<wchar_t> > const ,bool>
PUBLIC	??$_Swap_adl@PAU?$_Tree_node@U?$pair@$$CBV?$basic_string@_WU?$char_traits@_W@std@@V?$allocator@_W@2@@std@@_N@std@@PAX@std@@@std@@YAXAAPAU?$_Tree_node@U?$pair@$$CBV?$basic_string@_WU?$char_traits@_W@std@@V?$allocator@_W@2@@std@@_N@std@@PAX@0@0@Z ; std::_Swap_adl<std::_Tree_node<std::pair<std::basic_string<wchar_t,std::char_traits<wchar_t>,std::allocator<wchar_t> > const ,bool>,void *> *>
PUBLIC	??$addressof@$$CBU?$pair@$$CBV?$basic_string@_WU?$char_traits@_W@std@@V?$allocator@_W@2@@std@@_N@std@@@std@@YAPBU?$pair@$$CBV?$basic_string@_WU?$char_traits@_W@std@@V?$allocator@_W@2@@std@@_N@0@ABU10@@Z ; std::addressof<std::pair<std::basic_string<wchar_t,std::char_traits<wchar_t>,std::allocator<wchar_t> > const ,bool> const >
PUBLIC	??$forward@V?$_Tree@V?$_Tmap_traits@V?$basic_string@_WU?$char_traits@_W@std@@V?$allocator@_W@2@@std@@_NU?$less@V?$basic_string@_WU?$char_traits@_W@std@@V?$allocator@_W@2@@std@@@2@V?$allocator@U?$pair@$$CBV?$basic_string@_WU?$char_traits@_W@std@@V?$allocator@_W@2@@std@@_N@std@@@2@$0A@@std@@@std@@@std@@YA$$QAV?$_Tree@V?$_Tmap_traits@V?$basic_string@_WU?$char_traits@_W@std@@V?$allocator@_W@2@@std@@_NU?$less@V?$basic_string@_WU?$char_traits@_W@std@@V?$allocator@_W@2@@std@@@2@V?$allocator@U?$pair@$$CBV?$basic_string@_WU?$char_traits@_W@std@@V?$allocator@_W@2@@std@@_N@std@@@2@$0A@@std@@@0@AAV10@@Z ; std::forward<std::_Tree<std::_Tmap_traits<std::basic_string<wchar_t,std::char_traits<wchar_t>,std::allocator<wchar_t> >,bool,std::less<std::basic_string<wchar_t,std::char_traits<wchar_t>,std::allocator<wchar_t> > >,std::allocator<std::pair<std::basic_string<wchar_t,std::char_traits<wchar_t>,std::allocator<wchar_t> > const ,bool> >,0> > >
PUBLIC	??$?0U?$_Tree_node@U?$pair@$$CBV?$basic_string@_WU?$char_traits@_W@std@@V?$allocator@_W@2@@std@@_N@std@@PAX@std@@@?$allocator@U?$pair@$$CBV?$basic_string@_WU?$char_traits@_W@std@@V?$allocator@_W@2@@std@@_N@std@@@std@@QAE@ABV?$allocator@U?$_Tree_node@U?$pair@$$CBV?$basic_string@_WU?$char_traits@_W@std@@V?$allocator@_W@2@@std@@_N@std@@PAX@std@@@1@@Z ; std::allocator<std::pair<std::basic_string<wchar_t,std::char_traits<wchar_t>,std::allocator<wchar_t> > const ,bool> >::allocator<std::pair<std::basic_string<wchar_t,std::char_traits<wchar_t>,std::allocator<wchar_t> > const ,bool> ><std::_Tree_node<std::pair<std::basic_string<wchar_t,std::char_traits<wchar_t>,std::allocator<wchar_t> > const ,bool>,void *> >
PUBLIC	??$?M_WU?$char_traits@_W@std@@V?$allocator@_W@1@@std@@YA_NABV?$basic_string@_WU?$char_traits@_W@std@@V?$allocator@_W@2@@0@0@Z ; std::operator<<wchar_t,std::char_traits<wchar_t>,std::allocator<wchar_t> >
PUBLIC	??$construct@V?$_Tree_const_iterator@V?$_Tree_val@U?$_Tree_simple_types@U?$pair@$$CBV?$basic_string@_WU?$char_traits@_W@std@@V?$allocator@_W@2@@std@@_N@std@@@std@@@std@@@std@@ABV12@@?$_Wrap_alloc@V?$allocator@V?$_Tree_const_iterator@V?$_Tree_val@U?$_Tree_simple_types@U?$pair@$$CBV?$basic_string@_WU?$char_traits@_W@std@@V?$allocator@_W@2@@std@@_N@std@@@std@@@std@@@std@@@std@@@std@@QAEXPAV?$_Tree_const_iterator@V?$_Tree_val@U?$_Tree_simple_types@U?$pair@$$CBV?$basic_string@_WU?$char_traits@_W@std@@V?$allocator@_W@2@@std@@_N@std@@@std@@@std@@@1@ABV21@@Z ; std::_Wrap_alloc<std::allocator<std::_Tree_const_iterator<std::_Tree_val<std::_Tree_simple_types<std::pair<std::basic_string<wchar_t,std::char_traits<wchar_t>,std::allocator<wchar_t> > const ,bool> > > > > >::construct<std::_Tree_const_iterator<std::_Tree_val<std::_Tree_simple_types<std::pair<std::basic_string<wchar_t,std::char_traits<wchar_t>,std::allocator<wchar_t> > const ,bool> > > >,std::_Tree_const_iterator<std::_Tree_val<std::_Tree_simple_types<std::pair<std::basic_string<wchar_t,std::char_traits<wchar_t>,std::allocator<wchar_t> > const ,bool> > > > const &>
PUBLIC	??$construct@V?$_Tree_const_iterator@V?$_Tree_val@U?$_Tree_simple_types@U?$pair@$$CBV?$basic_string@_WU?$char_traits@_W@std@@V?$allocator@_W@2@@std@@_N@std@@@std@@@std@@@std@@AAV12@@?$_Wrap_alloc@V?$allocator@V?$_Tree_const_iterator@V?$_Tree_val@U?$_Tree_simple_types@U?$pair@$$CBV?$basic_string@_WU?$char_traits@_W@std@@V?$allocator@_W@2@@std@@_N@std@@@std@@@std@@@std@@@std@@@std@@QAEXPAV?$_Tree_const_iterator@V?$_Tree_val@U?$_Tree_simple_types@U?$pair@$$CBV?$basic_string@_WU?$char_traits@_W@std@@V?$allocator@_W@2@@std@@_N@std@@@std@@@std@@@1@AAV21@@Z ; std::_Wrap_alloc<std::allocator<std::_Tree_const_iterator<std::_Tree_val<std::_Tree_simple_types<std::pair<std::basic_string<wchar_t,std::char_traits<wchar_t>,std::allocator<wchar_t> > const ,bool> > > > > >::construct<std::_Tree_const_iterator<std::_Tree_val<std::_Tree_simple_types<std::pair<std::basic_string<wchar_t,std::char_traits<wchar_t>,std::allocator<wchar_t> > const ,bool> > > >,std::_Tree_const_iterator<std::_Tree_val<std::_Tree_simple_types<std::pair<std::basic_string<wchar_t,std::char_traits<wchar_t>,std::allocator<wchar_t> > const ,bool> > > > &>
PUBLIC	??$addressof@$$CBV?$_Tree_const_iterator@V?$_Tree_val@U?$_Tree_simple_types@U?$pair@$$CBV?$basic_string@_WU?$char_traits@_W@std@@V?$allocator@_W@2@@std@@_N@std@@@std@@@std@@@std@@@std@@YAPBV?$_Tree_const_iterator@V?$_Tree_val@U?$_Tree_simple_types@U?$pair@$$CBV?$basic_string@_WU?$char_traits@_W@std@@V?$allocator@_W@2@@std@@_N@std@@@std@@@std@@@0@ABV10@@Z ; std::addressof<std::_Tree_const_iterator<std::_Tree_val<std::_Tree_simple_types<std::pair<std::basic_string<wchar_t,std::char_traits<wchar_t>,std::allocator<wchar_t> > const ,bool> > > > const >
PUBLIC	??$construct@V?$_Tree_const_iterator@V?$_Tree_val@U?$_Tree_simple_types@U?$pair@$$CBV?$basic_string@_WU?$char_traits@_W@std@@V?$allocator@_W@2@@std@@_N@std@@@std@@@std@@@std@@V12@@?$_Wrap_alloc@V?$allocator@V?$_Tree_const_iterator@V?$_Tree_val@U?$_Tree_simple_types@U?$pair@$$CBV?$basic_string@_WU?$char_traits@_W@std@@V?$allocator@_W@2@@std@@_N@std@@@std@@@std@@@std@@@std@@@std@@QAEXPAV?$_Tree_const_iterator@V?$_Tree_val@U?$_Tree_simple_types@U?$pair@$$CBV?$basic_string@_WU?$char_traits@_W@std@@V?$allocator@_W@2@@std@@_N@std@@@std@@@std@@@1@$$QAV21@@Z ; std::_Wrap_alloc<std::allocator<std::_Tree_const_iterator<std::_Tree_val<std::_Tree_simple_types<std::pair<std::basic_string<wchar_t,std::char_traits<wchar_t>,std::allocator<wchar_t> > const ,bool> > > > > >::construct<std::_Tree_const_iterator<std::_Tree_val<std::_Tree_simple_types<std::pair<std::basic_string<wchar_t,std::char_traits<wchar_t>,std::allocator<wchar_t> > const ,bool> > > >,std::_Tree_const_iterator<std::_Tree_val<std::_Tree_simple_types<std::pair<std::basic_string<wchar_t,std::char_traits<wchar_t>,std::allocator<wchar_t> > const ,bool> > > > >
PUBLIC	??$forward@V?$_Tree_const_iterator@V?$_Tree_val@U?$_Tree_simple_types@U?$pair@$$CBV?$basic_string@_WU?$char_traits@_W@std@@V?$allocator@_W@2@@std@@_N@std@@@std@@@std@@@std@@@std@@YA$$QAV?$_Tree_const_iterator@V?$_Tree_val@U?$_Tree_simple_types@U?$pair@$$CBV?$basic_string@_WU?$char_traits@_W@std@@V?$allocator@_W@2@@std@@_N@std@@@std@@@std@@@0@AAV10@@Z ; std::forward<std::_Tree_const_iterator<std::_Tree_val<std::_Tree_simple_types<std::pair<std::basic_string<wchar_t,std::char_traits<wchar_t>,std::allocator<wchar_t> > const ,bool> > > > >
PUBLIC	??$addressof@V?$_Tree_const_iterator@V?$_Tree_val@U?$_Tree_simple_types@U?$pair@$$CBV?$basic_string@_WU?$char_traits@_W@std@@V?$allocator@_W@2@@std@@_N@std@@@std@@@std@@@std@@@std@@YAPAV?$_Tree_const_iterator@V?$_Tree_val@U?$_Tree_simple_types@U?$pair@$$CBV?$basic_string@_WU?$char_traits@_W@std@@V?$allocator@_W@2@@std@@_N@std@@@std@@@std@@@0@AAV10@@Z ; std::addressof<std::_Tree_const_iterator<std::_Tree_val<std::_Tree_simple_types<std::pair<std::basic_string<wchar_t,std::char_traits<wchar_t>,std::allocator<wchar_t> > const ,bool> > > > >
PUBLIC	??$emplace_hint@ABUpiecewise_construct_t@std@@V?$tuple@ABV?$basic_string@_WU?$char_traits@_W@std@@V?$allocator@_W@2@@std@@@2@V?$tuple@$$$V@2@@?$_Tree@V?$_Tmap_traits@V?$basic_string@_WU?$char_traits@_W@std@@V?$allocator@_W@2@@std@@_NU?$less@V?$basic_string@_WU?$char_traits@_W@std@@V?$allocator@_W@2@@std@@@2@V?$allocator@U?$pair@$$CBV?$basic_string@_WU?$char_traits@_W@std@@V?$allocator@_W@2@@std@@_N@std@@@2@$0A@@std@@@std@@QAE?AV?$_Tree_iterator@V?$_Tree_val@U?$_Tree_simple_types@U?$pair@$$CBV?$basic_string@_WU?$char_traits@_W@std@@V?$allocator@_W@2@@std@@_N@std@@@std@@@std@@@1@V?$_Tree_const_iterator@V?$_Tree_val@U?$_Tree_simple_types@U?$pair@$$CBV?$basic_string@_WU?$char_traits@_W@std@@V?$allocator@_W@2@@std@@_N@std@@@std@@@std@@@1@ABUpiecewise_construct_t@1@$$QAV?$tuple@ABV?$basic_string@_WU?$char_traits@_W@std@@V?$allocator@_W@2@@std@@@1@$$QAV?$tuple@$$$V@1@@Z ; std::_Tree<std::_Tmap_traits<std::basic_string<wchar_t,std::char_traits<wchar_t>,std::allocator<wchar_t> >,bool,std::less<std::basic_string<wchar_t,std::char_traits<wchar_t>,std::allocator<wchar_t> > >,std::allocator<std::pair<std::basic_string<wchar_t,std::char_traits<wchar_t>,std::allocator<wchar_t> > const ,bool> >,0> >::emplace_hint<std::piecewise_construct_t const &,std::tuple<std::basic_string<wchar_t,std::char_traits<wchar_t>,std::allocator<wchar_t> > const &>,std::tuple<> >
PUBLIC	??$forward_as_tuple@ABV?$basic_string@_WU?$char_traits@_W@std@@V?$allocator@_W@2@@std@@@std@@YA?AV?$tuple@ABV?$basic_string@_WU?$char_traits@_W@std@@V?$allocator@_W@2@@std@@@0@ABV?$basic_string@_WU?$char_traits@_W@std@@V?$allocator@_W@2@@0@@Z ; std::forward_as_tuple<std::basic_string<wchar_t,std::char_traits<wchar_t>,std::allocator<wchar_t> > const &>
PUBLIC	??$?9V?$_Vector_iterator@V?$_Vector_val@U?$_Simple_types@V?$_Tree_const_iterator@V?$_Tree_val@U?$_Tree_simple_types@U?$pair@$$CBV?$basic_string@_WU?$char_traits@_W@std@@V?$allocator@_W@2@@std@@_N@std@@@std@@@std@@@std@@@std@@@std@@@std@@V01@@std@@YA_NABV?$reverse_iterator@V?$_Vector_iterator@V?$_Vector_val@U?$_Simple_types@V?$_Tree_const_iterator@V?$_Tree_val@U?$_Tree_simple_types@U?$pair@$$CBV?$basic_string@_WU?$char_traits@_W@std@@V?$allocator@_W@2@@std@@_N@std@@@std@@@std@@@std@@@std@@@std@@@std@@@0@0@Z ; std::operator!=<std::_Vector_iterator<std::_Vector_val<std::_Simple_types<std::_Tree_const_iterator<std::_Tree_val<std::_Tree_simple_types<std::pair<std::basic_string<wchar_t,std::char_traits<wchar_t>,std::allocator<wchar_t> > const ,bool> > > > > > >,std::_Vector_iterator<std::_Vector_val<std::_Simple_types<std::_Tree_const_iterator<std::_Tree_val<std::_Tree_simple_types<std::pair<std::basic_string<wchar_t,std::char_traits<wchar_t>,std::allocator<wchar_t> > const ,bool> > > > > > > >
PUBLIC	??$move@AAV?$map@V?$basic_string@_WU?$char_traits@_W@std@@V?$allocator@_W@2@@std@@_NU?$less@V?$basic_string@_WU?$char_traits@_W@std@@V?$allocator@_W@2@@std@@@2@V?$allocator@U?$pair@$$CBV?$basic_string@_WU?$char_traits@_W@std@@V?$allocator@_W@2@@std@@_N@std@@@2@@std@@@std@@YA$$QAV?$map@V?$basic_string@_WU?$char_traits@_W@std@@V?$allocator@_W@2@@std@@_NU?$less@V?$basic_string@_WU?$char_traits@_W@std@@V?$allocator@_W@2@@std@@@2@V?$allocator@U?$pair@$$CBV?$basic_string@_WU?$char_traits@_W@std@@V?$allocator@_W@2@@std@@_N@std@@@2@@0@AAV10@@Z ; std::move<std::map<std::basic_string<wchar_t,std::char_traits<wchar_t>,std::allocator<wchar_t> >,bool,std::less<std::basic_string<wchar_t,std::char_traits<wchar_t>,std::allocator<wchar_t> > >,std::allocator<std::pair<std::basic_string<wchar_t,std::char_traits<wchar_t>,std::allocator<wchar_t> > const ,bool> > > &>
PUBLIC	??$emplace@PA_W_N@?$_Tree@V?$_Tmap_traits@V?$basic_string@_WU?$char_traits@_W@std@@V?$allocator@_W@2@@std@@_NU?$less@V?$basic_string@_WU?$char_traits@_W@std@@V?$allocator@_W@2@@std@@@2@V?$allocator@U?$pair@$$CBV?$basic_string@_WU?$char_traits@_W@std@@V?$allocator@_W@2@@std@@_N@std@@@2@$0A@@std@@@std@@QAE?AU?$pair@V?$_Tree_iterator@V?$_Tree_val@U?$_Tree_simple_types@U?$pair@$$CBV?$basic_string@_WU?$char_traits@_W@std@@V?$allocator@_W@2@@std@@_N@std@@@std@@@std@@@std@@_N@1@$$QAPA_W$$QA_N@Z ; std::_Tree<std::_Tmap_traits<std::basic_string<wchar_t,std::char_traits<wchar_t>,std::allocator<wchar_t> >,bool,std::less<std::basic_string<wchar_t,std::char_traits<wchar_t>,std::allocator<wchar_t> > >,std::allocator<std::pair<std::basic_string<wchar_t,std::char_traits<wchar_t>,std::allocator<wchar_t> > const ,bool> >,0> >::emplace<wchar_t *,bool>
PUBLIC	?max_size@?$allocator@V?$_Tree_const_iterator@V?$_Tree_val@U?$_Tree_simple_types@U?$pair@$$CBV?$basic_string@_WU?$char_traits@_W@std@@V?$allocator@_W@2@@std@@_N@std@@@std@@@std@@@std@@@std@@QBEIXZ ; std::allocator<std::_Tree_const_iterator<std::_Tree_val<std::_Tree_simple_types<std::pair<std::basic_string<wchar_t,std::char_traits<wchar_t>,std::allocator<wchar_t> > const ,bool> > > > >::max_size
PUBLIC	?max_size@?$allocator_traits@V?$allocator@V?$_Tree_const_iterator@V?$_Tree_val@U?$_Tree_simple_types@U?$pair@$$CBV?$basic_string@_WU?$char_traits@_W@std@@V?$allocator@_W@2@@std@@_N@std@@@std@@@std@@@std@@@std@@@std@@SAIABV?$allocator@V?$_Tree_const_iterator@V?$_Tree_val@U?$_Tree_simple_types@U?$pair@$$CBV?$basic_string@_WU?$char_traits@_W@std@@V?$allocator@_W@2@@std@@_N@std@@@std@@@std@@@std@@@2@@Z ; std::allocator_traits<std::allocator<std::_Tree_const_iterator<std::_Tree_val<std::_Tree_simple_types<std::pair<std::basic_string<wchar_t,std::char_traits<wchar_t>,std::allocator<wchar_t> > const ,bool> > > > > >::max_size
PUBLIC	?allocate@?$allocator@V?$_Tree_const_iterator@V?$_Tree_val@U?$_Tree_simple_types@U?$pair@$$CBV?$basic_string@_WU?$char_traits@_W@std@@V?$allocator@_W@2@@std@@_N@std@@@std@@@std@@@std@@@std@@QAEPAV?$_Tree_const_iterator@V?$_Tree_val@U?$_Tree_simple_types@U?$pair@$$CBV?$basic_string@_WU?$char_traits@_W@std@@V?$allocator@_W@2@@std@@_N@std@@@std@@@std@@@2@I@Z ; std::allocator<std::_Tree_const_iterator<std::_Tree_val<std::_Tree_simple_types<std::pair<std::basic_string<wchar_t,std::char_traits<wchar_t>,std::allocator<wchar_t> > const ,bool> > > > >::allocate
PUBLIC	??0?$_Vector_const_iterator@V?$_Vector_val@U?$_Simple_types@V?$_Tree_const_iterator@V?$_Tree_val@U?$_Tree_simple_types@U?$pair@$$CBV?$basic_string@_WU?$char_traits@_W@std@@V?$allocator@_W@2@@std@@_N@std@@@std@@@std@@@std@@@std@@@std@@@std@@QAE@PAV?$_Tree_const_iterator@V?$_Tree_val@U?$_Tree_simple_types@U?$pair@$$CBV?$basic_string@_WU?$char_traits@_W@std@@V?$allocator@_W@2@@std@@_N@std@@@std@@@std@@@1@PBU_Container_base0@1@@Z ; std::_Vector_const_iterator<std::_Vector_val<std::_Simple_types<std::_Tree_const_iterator<std::_Tree_val<std::_Tree_simple_types<std::pair<std::basic_string<wchar_t,std::char_traits<wchar_t>,std::allocator<wchar_t> > const ,bool> > > > > > >::_Vector_const_iterator<std::_Vector_val<std::_Simple_types<std::_Tree_const_iterator<std::_Tree_val<std::_Tree_simple_types<std::pair<std::basic_string<wchar_t,std::char_traits<wchar_t>,std::allocator<wchar_t> > const ,bool> > > > > > >
PUBLIC	?max_size@?$_Wrap_alloc@V?$allocator@V?$_Tree_const_iterator@V?$_Tree_val@U?$_Tree_simple_types@U?$pair@$$CBV?$basic_string@_WU?$char_traits@_W@std@@V?$allocator@_W@2@@std@@_N@std@@@std@@@std@@@std@@@std@@@std@@QBEIXZ ; std::_Wrap_alloc<std::allocator<std::_Tree_const_iterator<std::_Tree_val<std::_Tree_simple_types<std::pair<std::basic_string<wchar_t,std::char_traits<wchar_t>,std::allocator<wchar_t> > const ,bool> > > > > >::max_size
PUBLIC	?allocate@?$_Wrap_alloc@V?$allocator@V?$_Tree_const_iterator@V?$_Tree_val@U?$_Tree_simple_types@U?$pair@$$CBV?$basic_string@_WU?$char_traits@_W@std@@V?$allocator@_W@2@@std@@_N@std@@@std@@@std@@@std@@@std@@@std@@QAEPAV?$_Tree_const_iterator@V?$_Tree_val@U?$_Tree_simple_types@U?$pair@$$CBV?$basic_string@_WU?$char_traits@_W@std@@V?$allocator@_W@2@@std@@_N@std@@@std@@@std@@@2@I@Z ; std::_Wrap_alloc<std::allocator<std::_Tree_const_iterator<std::_Tree_val<std::_Tree_simple_types<std::pair<std::basic_string<wchar_t,std::char_traits<wchar_t>,std::allocator<wchar_t> > const ,bool> > > > > >::allocate
PUBLIC	?deallocate@?$allocator@V?$_Tree_const_iterator@V?$_Tree_val@U?$_Tree_simple_types@U?$pair@$$CBV?$basic_string@_WU?$char_traits@_W@std@@V?$allocator@_W@2@@std@@_N@std@@@std@@@std@@@std@@@std@@QAEXPAV?$_Tree_const_iterator@V?$_Tree_val@U?$_Tree_simple_types@U?$pair@$$CBV?$basic_string@_WU?$char_traits@_W@std@@V?$allocator@_W@2@@std@@_N@std@@@std@@@std@@@2@I@Z ; std::allocator<std::_Tree_const_iterator<std::_Tree_val<std::_Tree_simple_types<std::pair<std::basic_string<wchar_t,std::char_traits<wchar_t>,std::allocator<wchar_t> > const ,bool> > > > >::deallocate
PUBLIC	?capacity@?$vector@V?$_Tree_const_iterator@V?$_Tree_val@U?$_Tree_simple_types@U?$pair@$$CBV?$basic_string@_WU?$char_traits@_W@std@@V?$allocator@_W@2@@std@@_N@std@@@std@@@std@@@std@@V?$allocator@V?$_Tree_const_iterator@V?$_Tree_val@U?$_Tree_simple_types@U?$pair@$$CBV?$basic_string@_WU?$char_traits@_W@std@@V?$allocator@_W@2@@std@@_N@std@@@std@@@std@@@std@@@2@@std@@QBEIXZ ; std::vector<std::_Tree_const_iterator<std::_Tree_val<std::_Tree_simple_types<std::pair<std::basic_string<wchar_t,std::char_traits<wchar_t>,std::allocator<wchar_t> > const ,bool> > > >,std::allocator<std::_Tree_const_iterator<std::_Tree_val<std::_Tree_simple_types<std::pair<std::basic_string<wchar_t,std::char_traits<wchar_t>,std::allocator<wchar_t> > const ,bool> > > > > >::capacity
PUBLIC	?_Swapcomp@?$_Tree_comp@$0A@V?$_Tmap_traits@V?$basic_string@_WU?$char_traits@_W@std@@V?$allocator@_W@2@@std@@_NU?$less@V?$basic_string@_WU?$char_traits@_W@std@@V?$allocator@_W@2@@std@@@2@V?$allocator@U?$pair@$$CBV?$basic_string@_WU?$char_traits@_W@std@@V?$allocator@_W@2@@std@@_N@std@@@2@$0A@@std@@@std@@QAEXABU?$less@V?$basic_string@_WU?$char_traits@_W@std@@V?$allocator@_W@2@@std@@@2@@Z ; std::_Tree_comp<0,std::_Tmap_traits<std::basic_string<wchar_t,std::char_traits<wchar_t>,std::allocator<wchar_t> >,bool,std::less<std::basic_string<wchar_t,std::char_traits<wchar_t>,std::allocator<wchar_t> > >,std::allocator<std::pair<std::basic_string<wchar_t,std::char_traits<wchar_t>,std::allocator<wchar_t> > const ,bool> >,0> >::_Swapcomp
PUBLIC	??E?$_Revranit@V?$_Vector_iterator@V?$_Vector_val@U?$_Simple_types@V?$_Tree_const_iterator@V?$_Tree_val@U?$_Tree_simple_types@U?$pair@$$CBV?$basic_string@_WU?$char_traits@_W@std@@V?$allocator@_W@2@@std@@_N@std@@@std@@@std@@@std@@@std@@@std@@@std@@U?$iterator@Urandom_access_iterator_tag@std@@V?$_Tree_const_iterator@V?$_Tree_val@U?$_Tree_simple_types@U?$pair@$$CBV?$basic_string@_WU?$char_traits@_W@std@@V?$allocator@_W@2@@std@@_N@std@@@std@@@std@@@2@HPAV32@AAV32@@2@@std@@QAEAAV01@XZ ; std::_Revranit<std::_Vector_iterator<std::_Vector_val<std::_Simple_types<std::_Tree_const_iterator<std::_Tree_val<std::_Tree_simple_types<std::pair<std::basic_string<wchar_t,std::char_traits<wchar_t>,std::allocator<wchar_t> > const ,bool> > > > > > >,std::iterator<std::random_access_iterator_tag,std::_Tree_const_iterator<std::_Tree_val<std::_Tree_simple_types<std::pair<std::basic_string<wchar_t,std::char_traits<wchar_t>,std::allocator<wchar_t> > const ,bool> > > >,int,std::_Tree_const_iterator<std::_Tree_val<std::_Tree_simple_types<std::pair<std::basic_string<wchar_t,std::char_traits<wchar_t>,std::allocator<wchar_t> > const ,bool> > > > *,std::_Tree_const_iterator<std::_Tree_val<std::_Tree_simple_types<std::pair<std::basic_string<wchar_t,std::char_traits<wchar_t>,std::allocator<wchar_t> > const ,bool> > > > &> >::operator++
PUBLIC	??0?$_Revranit@V?$_Vector_iterator@V?$_Vector_val@U?$_Simple_types@V?$_Tree_const_iterator@V?$_Tree_val@U?$_Tree_simple_types@U?$pair@$$CBV?$basic_string@_WU?$char_traits@_W@std@@V?$allocator@_W@2@@std@@_N@std@@@std@@@std@@@std@@@std@@@std@@@std@@U?$iterator@Urandom_access_iterator_tag@std@@V?$_Tree_const_iterator@V?$_Tree_val@U?$_Tree_simple_types@U?$pair@$$CBV?$basic_string@_WU?$char_traits@_W@std@@V?$allocator@_W@2@@std@@_N@std@@@std@@@std@@@2@HPAV32@AAV32@@2@@std@@QAE@V?$_Vector_iterator@V?$_Vector_val@U?$_Simple_types@V?$_Tree_const_iterator@V?$_Tree_val@U?$_Tree_simple_types@U?$pair@$$CBV?$basic_string@_WU?$char_traits@_W@std@@V?$allocator@_W@2@@std@@_N@std@@@std@@@std@@@std@@@std@@@std@@@1@@Z ; std::_Revranit<std::_Vector_iterator<std::_Vector_val<std::_Simple_types<std::_Tree_const_iterator<std::_Tree_val<std::_Tree_simple_types<std::pair<std::basic_string<wchar_t,std::char_traits<wchar_t>,std::allocator<wchar_t> > const ,bool> > > > > > >,std::iterator<std::random_access_iterator_tag,std::_Tree_const_iterator<std::_Tree_val<std::_Tree_simple_types<std::pair<std::basic_string<wchar_t,std::char_traits<wchar_t>,std::allocator<wchar_t> > const ,bool> > > >,int,std::_Tree_const_iterator<std::_Tree_val<std::_Tree_simple_types<std::pair<std::basic_string<wchar_t,std::char_traits<wchar_t>,std::allocator<wchar_t> > const ,bool> > > > *,std::_Tree_const_iterator<std::_Tree_val<std::_Tree_simple_types<std::pair<std::basic_string<wchar_t,std::char_traits<wchar_t>,std::allocator<wchar_t> > const ,bool> > > > &> >::_Revranit<std::_Vector_iterator<std::_Vector_val<std::_Simple_types<std::_Tree_const_iterator<std::_Tree_val<std::_Tree_simple_types<std::pair<std::basic_string<wchar_t,std::char_traits<wchar_t>,std::allocator<wchar_t> > const ,bool> > > > > > >,std::iterator<std::random_access_iterator_tag,std::_Tree_const_iterator<std::_Tree_val<std::_Tree_simple_types<std::pair<std::basic_string<wchar_t,std::char_traits<wchar_t>,std::allocator<wchar_t> > const ,bool> > > >,int,std::_Tree_const_iterator<std::_Tree_val<std::_Tree_simple_types<std::pair<std::basic_string<wchar_t,std::char_traits<wchar_t>,std::allocator<wchar_t> > const ,bool> > > > *,std::_Tree_const_iterator<std::_Tree_val<std::_Tree_simple_types<std::pair<std::basic_string<wchar_t,std::char_traits<wchar_t>,std::allocator<wchar_t> > const ,bool> > > > &> >
PUBLIC	??F?$_Vector_const_iterator@V?$_Vector_val@U?$_Simple_types@V?$_Tree_const_iterator@V?$_Tree_val@U?$_Tree_simple_types@U?$pair@$$CBV?$basic_string@_WU?$char_traits@_W@std@@V?$allocator@_W@2@@std@@_N@std@@@std@@@std@@@std@@@std@@@std@@@std@@QAEAAV01@XZ ; std::_Vector_const_iterator<std::_Vector_val<std::_Simple_types<std::_Tree_const_iterator<std::_Tree_val<std::_Tree_simple_types<std::pair<std::basic_string<wchar_t,std::char_traits<wchar_t>,std::allocator<wchar_t> > const ,bool> > > > > > >::operator--
PUBLIC	??D?$_Vector_const_iterator@V?$_Vector_val@U?$_Simple_types@V?$_Tree_const_iterator@V?$_Tree_val@U?$_Tree_simple_types@U?$pair@$$CBV?$basic_string@_WU?$char_traits@_W@std@@V?$allocator@_W@2@@std@@_N@std@@@std@@@std@@@std@@@std@@@std@@@std@@QBEABV?$_Tree_const_iterator@V?$_Tree_val@U?$_Tree_simple_types@U?$pair@$$CBV?$basic_string@_WU?$char_traits@_W@std@@V?$allocator@_W@2@@std@@_N@std@@@std@@@std@@@1@XZ ; std::_Vector_const_iterator<std::_Vector_val<std::_Simple_types<std::_Tree_const_iterator<std::_Tree_val<std::_Tree_simple_types<std::pair<std::basic_string<wchar_t,std::char_traits<wchar_t>,std::allocator<wchar_t> > const ,bool> > > > > > >::operator*
PUBLIC	??0?$_Vector_iterator@V?$_Vector_val@U?$_Simple_types@V?$_Tree_const_iterator@V?$_Tree_val@U?$_Tree_simple_types@U?$pair@$$CBV?$basic_string@_WU?$char_traits@_W@std@@V?$allocator@_W@2@@std@@_N@std@@@std@@@std@@@std@@@std@@@std@@@std@@QAE@PAV?$_Tree_const_iterator@V?$_Tree_val@U?$_Tree_simple_types@U?$pair@$$CBV?$basic_string@_WU?$char_traits@_W@std@@V?$allocator@_W@2@@std@@_N@std@@@std@@@std@@@1@PBU_Container_base0@1@@Z ; std::_Vector_iterator<std::_Vector_val<std::_Simple_types<std::_Tree_const_iterator<std::_Tree_val<std::_Tree_simple_types<std::pair<std::basic_string<wchar_t,std::char_traits<wchar_t>,std::allocator<wchar_t> > const ,bool> > > > > > >::_Vector_iterator<std::_Vector_val<std::_Simple_types<std::_Tree_const_iterator<std::_Tree_val<std::_Tree_simple_types<std::pair<std::basic_string<wchar_t,std::char_traits<wchar_t>,std::allocator<wchar_t> > const ,bool> > > > > > >
PUBLIC	??0?$_Vector_val@U?$_Simple_types@V?$_Tree_const_iterator@V?$_Tree_val@U?$_Tree_simple_types@U?$pair@$$CBV?$basic_string@_WU?$char_traits@_W@std@@V?$allocator@_W@2@@std@@_N@std@@@std@@@std@@@std@@@std@@@std@@QAE@XZ ; std::_Vector_val<std::_Simple_types<std::_Tree_const_iterator<std::_Tree_val<std::_Tree_simple_types<std::pair<std::basic_string<wchar_t,std::char_traits<wchar_t>,std::allocator<wchar_t> > const ,bool> > > > > >::_Vector_val<std::_Simple_types<std::_Tree_const_iterator<std::_Tree_val<std::_Tree_simple_types<std::pair<std::basic_string<wchar_t,std::char_traits<wchar_t>,std::allocator<wchar_t> > const ,bool> > > > > >
PUBLIC	?deallocate@?$_Wrap_alloc@V?$allocator@V?$_Tree_const_iterator@V?$_Tree_val@U?$_Tree_simple_types@U?$pair@$$CBV?$basic_string@_WU?$char_traits@_W@std@@V?$allocator@_W@2@@std@@_N@std@@@std@@@std@@@std@@@std@@@std@@QAEXPAV?$_Tree_const_iterator@V?$_Tree_val@U?$_Tree_simple_types@U?$pair@$$CBV?$basic_string@_WU?$char_traits@_W@std@@V?$allocator@_W@2@@std@@_N@std@@@std@@@std@@@2@I@Z ; std::_Wrap_alloc<std::allocator<std::_Tree_const_iterator<std::_Tree_val<std::_Tree_simple_types<std::pair<std::basic_string<wchar_t,std::char_traits<wchar_t>,std::allocator<wchar_t> > const ,bool> > > > > >::deallocate
PUBLIC	??0?$_Wrap_alloc@V?$allocator@V?$_Tree_const_iterator@V?$_Tree_val@U?$_Tree_simple_types@U?$pair@$$CBV?$basic_string@_WU?$char_traits@_W@std@@V?$allocator@_W@2@@std@@_N@std@@@std@@@std@@@std@@@std@@@std@@QAE@XZ ; std::_Wrap_alloc<std::allocator<std::_Tree_const_iterator<std::_Tree_val<std::_Tree_simple_types<std::pair<std::basic_string<wchar_t,std::char_traits<wchar_t>,std::allocator<wchar_t> > const ,bool> > > > > >::_Wrap_alloc<std::allocator<std::_Tree_const_iterator<std::_Tree_val<std::_Tree_simple_types<std::pair<std::basic_string<wchar_t,std::char_traits<wchar_t>,std::allocator<wchar_t> > const ,bool> > > > > >
PUBLIC	?_Xlen@?$vector@V?$_Tree_const_iterator@V?$_Tree_val@U?$_Tree_simple_types@U?$pair@$$CBV?$basic_string@_WU?$char_traits@_W@std@@V?$allocator@_W@2@@std@@_N@std@@@std@@@std@@@std@@V?$allocator@V?$_Tree_const_iterator@V?$_Tree_val@U?$_Tree_simple_types@U?$pair@$$CBV?$basic_string@_WU?$char_traits@_W@std@@V?$allocator@_W@2@@std@@_N@std@@@std@@@std@@@std@@@2@@std@@IBEXXZ ; std::vector<std::_Tree_const_iterator<std::_Tree_val<std::_Tree_simple_types<std::pair<std::basic_string<wchar_t,std::char_traits<wchar_t>,std::allocator<wchar_t> > const ,bool> > > >,std::allocator<std::_Tree_const_iterator<std::_Tree_val<std::_Tree_simple_types<std::pair<std::basic_string<wchar_t,std::char_traits<wchar_t>,std::allocator<wchar_t> > const ,bool> > > > > >::_Xlen
PUBLIC	?_Reallocate@?$vector@V?$_Tree_const_iterator@V?$_Tree_val@U?$_Tree_simple_types@U?$pair@$$CBV?$basic_string@_WU?$char_traits@_W@std@@V?$allocator@_W@2@@std@@_N@std@@@std@@@std@@@std@@V?$allocator@V?$_Tree_const_iterator@V?$_Tree_val@U?$_Tree_simple_types@U?$pair@$$CBV?$basic_string@_WU?$char_traits@_W@std@@V?$allocator@_W@2@@std@@_N@std@@@std@@@std@@@std@@@2@@std@@IAEXI@Z ; std::vector<std::_Tree_const_iterator<std::_Tree_val<std::_Tree_simple_types<std::pair<std::basic_string<wchar_t,std::char_traits<wchar_t>,std::allocator<wchar_t> > const ,bool> > > >,std::allocator<std::_Tree_const_iterator<std::_Tree_val<std::_Tree_simple_types<std::pair<std::basic_string<wchar_t,std::char_traits<wchar_t>,std::allocator<wchar_t> > const ,bool> > > > > >::_Reallocate
PUBLIC	?_Grow_to@?$vector@V?$_Tree_const_iterator@V?$_Tree_val@U?$_Tree_simple_types@U?$pair@$$CBV?$basic_string@_WU?$char_traits@_W@std@@V?$allocator@_W@2@@std@@_N@std@@@std@@@std@@@std@@V?$allocator@V?$_Tree_const_iterator@V?$_Tree_val@U?$_Tree_simple_types@U?$pair@$$CBV?$basic_string@_WU?$char_traits@_W@std@@V?$allocator@_W@2@@std@@_N@std@@@std@@@std@@@std@@@2@@std@@IBEII@Z ; std::vector<std::_Tree_const_iterator<std::_Tree_val<std::_Tree_simple_types<std::pair<std::basic_string<wchar_t,std::char_traits<wchar_t>,std::allocator<wchar_t> > const ,bool> > > >,std::allocator<std::_Tree_const_iterator<std::_Tree_val<std::_Tree_simple_types<std::pair<std::basic_string<wchar_t,std::char_traits<wchar_t>,std::allocator<wchar_t> > const ,bool> > > > > >::_Grow_to
PUBLIC	?_Destroy@?$vector@V?$_Tree_const_iterator@V?$_Tree_val@U?$_Tree_simple_types@U?$pair@$$CBV?$basic_string@_WU?$char_traits@_W@std@@V?$allocator@_W@2@@std@@_N@std@@@std@@@std@@@std@@V?$allocator@V?$_Tree_const_iterator@V?$_Tree_val@U?$_Tree_simple_types@U?$pair@$$CBV?$basic_string@_WU?$char_traits@_W@std@@V?$allocator@_W@2@@std@@_N@std@@@std@@@std@@@std@@@2@@std@@IAEXPAV?$_Tree_const_iterator@V?$_Tree_val@U?$_Tree_simple_types@U?$pair@$$CBV?$basic_string@_WU?$char_traits@_W@std@@V?$allocator@_W@2@@std@@_N@std@@@std@@@std@@@2@0@Z ; std::vector<std::_Tree_const_iterator<std::_Tree_val<std::_Tree_simple_types<std::pair<std::basic_string<wchar_t,std::char_traits<wchar_t>,std::allocator<wchar_t> > const ,bool> > > >,std::allocator<std::_Tree_const_iterator<std::_Tree_val<std::_Tree_simple_types<std::pair<std::basic_string<wchar_t,std::char_traits<wchar_t>,std::allocator<wchar_t> > const ,bool> > > > > >::_Destroy
PUBLIC	?max_size@?$vector@V?$_Tree_const_iterator@V?$_Tree_val@U?$_Tree_simple_types@U?$pair@$$CBV?$basic_string@_WU?$char_traits@_W@std@@V?$allocator@_W@2@@std@@_N@std@@@std@@@std@@@std@@V?$allocator@V?$_Tree_const_iterator@V?$_Tree_val@U?$_Tree_simple_types@U?$pair@$$CBV?$basic_string@_WU?$char_traits@_W@std@@V?$allocator@_W@2@@std@@_N@std@@@std@@@std@@@std@@@2@@std@@QBEIXZ ; std::vector<std::_Tree_const_iterator<std::_Tree_val<std::_Tree_simple_types<std::pair<std::basic_string<wchar_t,std::char_traits<wchar_t>,std::allocator<wchar_t> > const ,bool> > > >,std::allocator<std::_Tree_const_iterator<std::_Tree_val<std::_Tree_simple_types<std::pair<std::basic_string<wchar_t,std::char_traits<wchar_t>,std::allocator<wchar_t> > const ,bool> > > > > >::max_size
PUBLIC	?size@?$vector@V?$_Tree_const_iterator@V?$_Tree_val@U?$_Tree_simple_types@U?$pair@$$CBV?$basic_string@_WU?$char_traits@_W@std@@V?$allocator@_W@2@@std@@_N@std@@@std@@@std@@@std@@V?$allocator@V?$_Tree_const_iterator@V?$_Tree_val@U?$_Tree_simple_types@U?$pair@$$CBV?$basic_string@_WU?$char_traits@_W@std@@V?$allocator@_W@2@@std@@_N@std@@@std@@@std@@@std@@@2@@std@@QBEIXZ ; std::vector<std::_Tree_const_iterator<std::_Tree_val<std::_Tree_simple_types<std::pair<std::basic_string<wchar_t,std::char_traits<wchar_t>,std::allocator<wchar_t> > const ,bool> > > >,std::allocator<std::_Tree_const_iterator<std::_Tree_val<std::_Tree_simple_types<std::pair<std::basic_string<wchar_t,std::char_traits<wchar_t>,std::allocator<wchar_t> > const ,bool> > > > > >::size
PUBLIC	?_Unused_capacity@?$vector@V?$_Tree_const_iterator@V?$_Tree_val@U?$_Tree_simple_types@U?$pair@$$CBV?$basic_string@_WU?$char_traits@_W@std@@V?$allocator@_W@2@@std@@_N@std@@@std@@@std@@@std@@V?$allocator@V?$_Tree_const_iterator@V?$_Tree_val@U?$_Tree_simple_types@U?$pair@$$CBV?$basic_string@_WU?$char_traits@_W@std@@V?$allocator@_W@2@@std@@_N@std@@@std@@@std@@@std@@@2@@std@@QBEIXZ ; std::vector<std::_Tree_const_iterator<std::_Tree_val<std::_Tree_simple_types<std::pair<std::basic_string<wchar_t,std::char_traits<wchar_t>,std::allocator<wchar_t> > const ,bool> > > >,std::allocator<std::_Tree_const_iterator<std::_Tree_val<std::_Tree_simple_types<std::pair<std::basic_string<wchar_t,std::char_traits<wchar_t>,std::allocator<wchar_t> > const ,bool> > > > > >::_Unused_capacity
PUBLIC	?_Kfn@?$_Tree@V?$_Tmap_traits@V?$basic_string@_WU?$char_traits@_W@std@@V?$allocator@_W@2@@std@@_NU?$less@V?$basic_string@_WU?$char_traits@_W@std@@V?$allocator@_W@2@@std@@@2@V?$allocator@U?$pair@$$CBV?$basic_string@_WU?$char_traits@_W@std@@V?$allocator@_W@2@@std@@_N@std@@@2@$0A@@std@@@std@@IBEABV?$basic_string@_WU?$char_traits@_W@std@@V?$allocator@_W@2@@2@ABU?$pair@$$CBV?$basic_string@_WU?$char_traits@_W@std@@V?$allocator@_W@2@@std@@_N@2@@Z ; std::_Tree<std::_Tmap_traits<std::basic_string<wchar_t,std::char_traits<wchar_t>,std::allocator<wchar_t> >,bool,std::less<std::basic_string<wchar_t,std::char_traits<wchar_t>,std::allocator<wchar_t> > >,std::allocator<std::pair<std::basic_string<wchar_t,std::char_traits<wchar_t>,std::allocator<wchar_t> > const ,bool> >,0> >::_Kfn
PUBLIC	?_Lbound@?$_Tree@V?$_Tmap_traits@V?$basic_string@_WU?$char_traits@_W@std@@V?$allocator@_W@2@@std@@_NU?$less@V?$basic_string@_WU?$char_traits@_W@std@@V?$allocator@_W@2@@std@@@2@V?$allocator@U?$pair@$$CBV?$basic_string@_WU?$char_traits@_W@std@@V?$allocator@_W@2@@std@@_N@std@@@2@$0A@@std@@@std@@IAEPAU?$_Tree_node@U?$pair@$$CBV?$basic_string@_WU?$char_traits@_W@std@@V?$allocator@_W@2@@std@@_N@std@@PAX@2@ABV?$basic_string@_WU?$char_traits@_W@std@@V?$allocator@_W@2@@2@@Z ; std::_Tree<std::_Tmap_traits<std::basic_string<wchar_t,std::char_traits<wchar_t>,std::allocator<wchar_t> >,bool,std::less<std::basic_string<wchar_t,std::char_traits<wchar_t>,std::allocator<wchar_t> > >,std::allocator<std::pair<std::basic_string<wchar_t,std::char_traits<wchar_t>,std::allocator<wchar_t> > const ,bool> >,0> >::_Lbound
PUBLIC	?key_comp@?$_Tree@V?$_Tmap_traits@V?$basic_string@_WU?$char_traits@_W@std@@V?$allocator@_W@2@@std@@_NU?$less@V?$basic_string@_WU?$char_traits@_W@std@@V?$allocator@_W@2@@std@@@2@V?$allocator@U?$pair@$$CBV?$basic_string@_WU?$char_traits@_W@std@@V?$allocator@_W@2@@std@@_N@std@@@2@$0A@@std@@@std@@QBE?AU?$less@V?$basic_string@_WU?$char_traits@_W@std@@V?$allocator@_W@2@@std@@@2@XZ ; std::_Tree<std::_Tmap_traits<std::basic_string<wchar_t,std::char_traits<wchar_t>,std::allocator<wchar_t> >,bool,std::less<std::basic_string<wchar_t,std::char_traits<wchar_t>,std::allocator<wchar_t> > >,std::allocator<std::pair<std::basic_string<wchar_t,std::char_traits<wchar_t>,std::allocator<wchar_t> > const ,bool> >,0> >::key_comp
PUBLIC	?_Assign_rv@?$_Tree@V?$_Tmap_traits@V?$basic_string@_WU?$char_traits@_W@std@@V?$allocator@_W@2@@std@@_NU?$less@V?$basic_string@_WU?$char_traits@_W@std@@V?$allocator@_W@2@@std@@@2@V?$allocator@U?$pair@$$CBV?$basic_string@_WU?$char_traits@_W@std@@V?$allocator@_W@2@@std@@_N@std@@@2@$0A@@std@@@std@@QAEX$$QAV12@U?$integral_constant@_N$00@2@@Z ; std::_Tree<std::_Tmap_traits<std::basic_string<wchar_t,std::char_traits<wchar_t>,std::allocator<wchar_t> >,bool,std::less<std::basic_string<wchar_t,std::char_traits<wchar_t>,std::allocator<wchar_t> > >,std::allocator<std::pair<std::basic_string<wchar_t,std::char_traits<wchar_t>,std::allocator<wchar_t> > const ,bool> >,0> >::_Assign_rv
PUBLIC	?pointer_to@?$pointer_traits@PBU?$pair@$$CBV?$basic_string@_WU?$char_traits@_W@std@@V?$allocator@_W@2@@std@@_N@std@@@std@@SAPBU?$pair@$$CBV?$basic_string@_WU?$char_traits@_W@std@@V?$allocator@_W@2@@std@@_N@2@ABU32@@Z ; std::pointer_traits<std::pair<std::basic_string<wchar_t,std::char_traits<wchar_t>,std::allocator<wchar_t> > const ,bool> const *>::pointer_to
PUBLIC	?pointer_to@?$pointer_traits@PAU?$pair@$$CBV?$basic_string@_WU?$char_traits@_W@std@@V?$allocator@_W@2@@std@@_N@std@@@std@@SAPAU?$pair@$$CBV?$basic_string@_WU?$char_traits@_W@std@@V?$allocator@_W@2@@std@@_N@2@AAU32@@Z ; std::pointer_traits<std::pair<std::basic_string<wchar_t,std::char_traits<wchar_t>,std::allocator<wchar_t> > const ,bool> *>::pointer_to
PUBLIC	?get_deleter@?$_Unique_ptr_base@XUMemUnlocker@?A0x0ea80c23@@$00@std@@QAEAAUMemUnlocker@?A0x0ea80c23@@XZ ; std::_Unique_ptr_base<void,`anonymous namespace'::MemUnlocker,1>::get_deleter
PUBLIC	??0?$_Unique_ptr_base@XUMemUnlocker@?A0x0ea80c23@@$00@std@@QAE@PAX@Z ; std::_Unique_ptr_base<void,`anonymous namespace'::MemUnlocker,1>::_Unique_ptr_base<void,`anonymous namespace'::MemUnlocker,1>
PUBLIC	?get_deleter@?$_Unique_ptr_base@XUHLOCALDeleter@?A0x0ea80c23@@$00@std@@QAEAAUHLOCALDeleter@?A0x0ea80c23@@XZ ; std::_Unique_ptr_base<void,`anonymous namespace'::HLOCALDeleter,1>::get_deleter
PUBLIC	??0?$_Unique_ptr_base@XUHLOCALDeleter@?A0x0ea80c23@@$00@std@@QAE@PAX@Z ; std::_Unique_ptr_base<void,`anonymous namespace'::HLOCALDeleter,1>::_Unique_ptr_base<void,`anonymous namespace'::HLOCALDeleter,1>
PUBLIC	??F?$_Vector_iterator@V?$_Vector_val@U?$_Simple_types@V?$_Tree_const_iterator@V?$_Tree_val@U?$_Tree_simple_types@U?$pair@$$CBV?$basic_string@_WU?$char_traits@_W@std@@V?$allocator@_W@2@@std@@_N@std@@@std@@@std@@@std@@@std@@@std@@@std@@QAEAAV01@XZ ; std::_Vector_iterator<std::_Vector_val<std::_Simple_types<std::_Tree_const_iterator<std::_Tree_val<std::_Tree_simple_types<std::pair<std::basic_string<wchar_t,std::char_traits<wchar_t>,std::allocator<wchar_t> > const ,bool> > > > > > >::operator--
PUBLIC	??D?$_Vector_iterator@V?$_Vector_val@U?$_Simple_types@V?$_Tree_const_iterator@V?$_Tree_val@U?$_Tree_simple_types@U?$pair@$$CBV?$basic_string@_WU?$char_traits@_W@std@@V?$allocator@_W@2@@std@@_N@std@@@std@@@std@@@std@@@std@@@std@@@std@@QBEAAV?$_Tree_const_iterator@V?$_Tree_val@U?$_Tree_simple_types@U?$pair@$$CBV?$basic_string@_WU?$char_traits@_W@std@@V?$allocator@_W@2@@std@@_N@std@@@std@@@std@@@1@XZ ; std::_Vector_iterator<std::_Vector_val<std::_Simple_types<std::_Tree_const_iterator<std::_Tree_val<std::_Tree_simple_types<std::pair<std::basic_string<wchar_t,std::char_traits<wchar_t>,std::allocator<wchar_t> > const ,bool> > > > > > >::operator*
PUBLIC	??E?$reverse_iterator@V?$_Vector_iterator@V?$_Vector_val@U?$_Simple_types@V?$_Tree_const_iterator@V?$_Tree_val@U?$_Tree_simple_types@U?$pair@$$CBV?$basic_string@_WU?$char_traits@_W@std@@V?$allocator@_W@2@@std@@_N@std@@@std@@@std@@@std@@@std@@@std@@@std@@@std@@QAEAAV01@XZ ; std::reverse_iterator<std::_Vector_iterator<std::_Vector_val<std::_Simple_types<std::_Tree_const_iterator<std::_Tree_val<std::_Tree_simple_types<std::pair<std::basic_string<wchar_t,std::char_traits<wchar_t>,std::allocator<wchar_t> > const ,bool> > > > > > > >::operator++
PUBLIC	??0?$reverse_iterator@V?$_Vector_iterator@V?$_Vector_val@U?$_Simple_types@V?$_Tree_const_iterator@V?$_Tree_val@U?$_Tree_simple_types@U?$pair@$$CBV?$basic_string@_WU?$char_traits@_W@std@@V?$allocator@_W@2@@std@@_N@std@@@std@@@std@@@std@@@std@@@std@@@std@@@std@@QAE@V?$_Vector_iterator@V?$_Vector_val@U?$_Simple_types@V?$_Tree_const_iterator@V?$_Tree_val@U?$_Tree_simple_types@U?$pair@$$CBV?$basic_string@_WU?$char_traits@_W@std@@V?$allocator@_W@2@@std@@_N@std@@@std@@@std@@@std@@@std@@@std@@@1@@Z ; std::reverse_iterator<std::_Vector_iterator<std::_Vector_val<std::_Simple_types<std::_Tree_const_iterator<std::_Tree_val<std::_Tree_simple_types<std::pair<std::basic_string<wchar_t,std::char_traits<wchar_t>,std::allocator<wchar_t> > const ,bool> > > > > > > >::reverse_iterator<std::_Vector_iterator<std::_Vector_val<std::_Simple_types<std::_Tree_const_iterator<std::_Tree_val<std::_Tree_simple_types<std::pair<std::basic_string<wchar_t,std::char_traits<wchar_t>,std::allocator<wchar_t> > const ,bool> > > > > > > >
PUBLIC	??D?$_Tree_const_iterator@V?$_Tree_val@U?$_Tree_simple_types@U?$pair@$$CBV?$basic_string@_WU?$char_traits@_W@std@@V?$allocator@_W@2@@std@@_N@std@@@std@@@std@@@std@@QBEABU?$pair@$$CBV?$basic_string@_WU?$char_traits@_W@std@@V?$allocator@_W@2@@std@@_N@1@XZ ; std::_Tree_const_iterator<std::_Tree_val<std::_Tree_simple_types<std::pair<std::basic_string<wchar_t,std::char_traits<wchar_t>,std::allocator<wchar_t> > const ,bool> > > >::operator*
PUBLIC	??D?$_Tree_iterator@V?$_Tree_val@U?$_Tree_simple_types@U?$pair@$$CBV?$basic_string@_WU?$char_traits@_W@std@@V?$allocator@_W@2@@std@@_N@std@@@std@@@std@@@std@@QBEAAU?$pair@$$CBV?$basic_string@_WU?$char_traits@_W@std@@V?$allocator@_W@2@@std@@_N@1@XZ ; std::_Tree_iterator<std::_Tree_val<std::_Tree_simple_types<std::pair<std::basic_string<wchar_t,std::char_traits<wchar_t>,std::allocator<wchar_t> > const ,bool> > > >::operator*
PUBLIC	?_Getal@?$_Vector_alloc@$0A@U?$_Vec_base_types@V?$_Tree_const_iterator@V?$_Tree_val@U?$_Tree_simple_types@U?$pair@$$CBV?$basic_string@_WU?$char_traits@_W@std@@V?$allocator@_W@2@@std@@_N@std@@@std@@@std@@@std@@V?$allocator@V?$_Tree_const_iterator@V?$_Tree_val@U?$_Tree_simple_types@U?$pair@$$CBV?$basic_string@_WU?$char_traits@_W@std@@V?$allocator@_W@2@@std@@_N@std@@@std@@@std@@@std@@@2@@std@@@std@@QBE?AU?$_Wrap_alloc@V?$allocator@V?$_Tree_const_iterator@V?$_Tree_val@U?$_Tree_simple_types@U?$pair@$$CBV?$basic_string@_WU?$char_traits@_W@std@@V?$allocator@_W@2@@std@@_N@std@@@std@@@std@@@std@@@std@@@2@XZ ; std::_Vector_alloc<0,std::_Vec_base_types<std::_Tree_const_iterator<std::_Tree_val<std::_Tree_simple_types<std::pair<std::basic_string<wchar_t,std::char_traits<wchar_t>,std::allocator<wchar_t> > const ,bool> > > >,std::allocator<std::_Tree_const_iterator<std::_Tree_val<std::_Tree_simple_types<std::pair<std::basic_string<wchar_t,std::char_traits<wchar_t>,std::allocator<wchar_t> > const ,bool> > > > > > >::_Getal
PUBLIC	??0?$_Vector_alloc@$0A@U?$_Vec_base_types@V?$_Tree_const_iterator@V?$_Tree_val@U?$_Tree_simple_types@U?$pair@$$CBV?$basic_string@_WU?$char_traits@_W@std@@V?$allocator@_W@2@@std@@_N@std@@@std@@@std@@@std@@V?$allocator@V?$_Tree_const_iterator@V?$_Tree_val@U?$_Tree_simple_types@U?$pair@$$CBV?$basic_string@_WU?$char_traits@_W@std@@V?$allocator@_W@2@@std@@_N@std@@@std@@@std@@@std@@@2@@std@@@std@@QAE@ABV?$allocator@V?$_Tree_const_iterator@V?$_Tree_val@U?$_Tree_simple_types@U?$pair@$$CBV?$basic_string@_WU?$char_traits@_W@std@@V?$allocator@_W@2@@std@@_N@std@@@std@@@std@@@std@@@1@@Z ; std::_Vector_alloc<0,std::_Vec_base_types<std::_Tree_const_iterator<std::_Tree_val<std::_Tree_simple_types<std::pair<std::basic_string<wchar_t,std::char_traits<wchar_t>,std::allocator<wchar_t> > const ,bool> > > >,std::allocator<std::_Tree_const_iterator<std::_Tree_val<std::_Tree_simple_types<std::pair<std::basic_string<wchar_t,std::char_traits<wchar_t>,std::allocator<wchar_t> > const ,bool> > > > > > >::_Vector_alloc<0,std::_Vec_base_types<std::_Tree_const_iterator<std::_Tree_val<std::_Tree_simple_types<std::pair<std::basic_string<wchar_t,std::char_traits<wchar_t>,std::allocator<wchar_t> > const ,bool> > > >,std::allocator<std::_Tree_const_iterator<std::_Tree_val<std::_Tree_simple_types<std::pair<std::basic_string<wchar_t,std::char_traits<wchar_t>,std::allocator<wchar_t> > const ,bool> > > > > > >
PUBLIC	??0?$allocator@V?$_Tree_const_iterator@V?$_Tree_val@U?$_Tree_simple_types@U?$pair@$$CBV?$basic_string@_WU?$char_traits@_W@std@@V?$allocator@_W@2@@std@@_N@std@@@std@@@std@@@std@@@std@@QAE@XZ ; std::allocator<std::_Tree_const_iterator<std::_Tree_val<std::_Tree_simple_types<std::pair<std::basic_string<wchar_t,std::char_traits<wchar_t>,std::allocator<wchar_t> > const ,bool> > > > >::allocator<std::_Tree_const_iterator<std::_Tree_val<std::_Tree_simple_types<std::pair<std::basic_string<wchar_t,std::char_traits<wchar_t>,std::allocator<wchar_t> > const ,bool> > > > >
PUBLIC	?_Orphan_range@?$vector@V?$_Tree_const_iterator@V?$_Tree_val@U?$_Tree_simple_types@U?$pair@$$CBV?$basic_string@_WU?$char_traits@_W@std@@V?$allocator@_W@2@@std@@_N@std@@@std@@@std@@@std@@V?$allocator@V?$_Tree_const_iterator@V?$_Tree_val@U?$_Tree_simple_types@U?$pair@$$CBV?$basic_string@_WU?$char_traits@_W@std@@V?$allocator@_W@2@@std@@_N@std@@@std@@@std@@@std@@@2@@std@@IBEXPAV?$_Tree_const_iterator@V?$_Tree_val@U?$_Tree_simple_types@U?$pair@$$CBV?$basic_string@_WU?$char_traits@_W@std@@V?$allocator@_W@2@@std@@_N@std@@@std@@@std@@@2@0@Z ; std::vector<std::_Tree_const_iterator<std::_Tree_val<std::_Tree_simple_types<std::pair<std::basic_string<wchar_t,std::char_traits<wchar_t>,std::allocator<wchar_t> > const ,bool> > > >,std::allocator<std::_Tree_const_iterator<std::_Tree_val<std::_Tree_simple_types<std::pair<std::basic_string<wchar_t,std::char_traits<wchar_t>,std::allocator<wchar_t> > const ,bool> > > > > >::_Orphan_range
PUBLIC	?_Tidy@?$vector@V?$_Tree_const_iterator@V?$_Tree_val@U?$_Tree_simple_types@U?$pair@$$CBV?$basic_string@_WU?$char_traits@_W@std@@V?$allocator@_W@2@@std@@_N@std@@@std@@@std@@@std@@V?$allocator@V?$_Tree_const_iterator@V?$_Tree_val@U?$_Tree_simple_types@U?$pair@$$CBV?$basic_string@_WU?$char_traits@_W@std@@V?$allocator@_W@2@@std@@_N@std@@@std@@@std@@@std@@@2@@std@@IAEXXZ ; std::vector<std::_Tree_const_iterator<std::_Tree_val<std::_Tree_simple_types<std::pair<std::basic_string<wchar_t,std::char_traits<wchar_t>,std::allocator<wchar_t> > const ,bool> > > >,std::allocator<std::_Tree_const_iterator<std::_Tree_val<std::_Tree_simple_types<std::pair<std::basic_string<wchar_t,std::char_traits<wchar_t>,std::allocator<wchar_t> > const ,bool> > > > > >::_Tidy
PUBLIC	?_Reserve@?$vector@V?$_Tree_const_iterator@V?$_Tree_val@U?$_Tree_simple_types@U?$pair@$$CBV?$basic_string@_WU?$char_traits@_W@std@@V?$allocator@_W@2@@std@@_N@std@@@std@@@std@@@std@@V?$allocator@V?$_Tree_const_iterator@V?$_Tree_val@U?$_Tree_simple_types@U?$pair@$$CBV?$basic_string@_WU?$char_traits@_W@std@@V?$allocator@_W@2@@std@@_N@std@@@std@@@std@@@std@@@2@@std@@IAEXI@Z ; std::vector<std::_Tree_const_iterator<std::_Tree_val<std::_Tree_simple_types<std::pair<std::basic_string<wchar_t,std::char_traits<wchar_t>,std::allocator<wchar_t> > const ,bool> > > >,std::allocator<std::_Tree_const_iterator<std::_Tree_val<std::_Tree_simple_types<std::pair<std::basic_string<wchar_t,std::char_traits<wchar_t>,std::allocator<wchar_t> > const ,bool> > > > > >::_Reserve
PUBLIC	?_Inside@?$vector@V?$_Tree_const_iterator@V?$_Tree_val@U?$_Tree_simple_types@U?$pair@$$CBV?$basic_string@_WU?$char_traits@_W@std@@V?$allocator@_W@2@@std@@_N@std@@@std@@@std@@@std@@V?$allocator@V?$_Tree_const_iterator@V?$_Tree_val@U?$_Tree_simple_types@U?$pair@$$CBV?$basic_string@_WU?$char_traits@_W@std@@V?$allocator@_W@2@@std@@_N@std@@@std@@@std@@@std@@@2@@std@@IBE_NPBV?$_Tree_const_iterator@V?$_Tree_val@U?$_Tree_simple_types@U?$pair@$$CBV?$basic_string@_WU?$char_traits@_W@std@@V?$allocator@_W@2@@std@@_N@std@@@std@@@std@@@2@@Z ; std::vector<std::_Tree_const_iterator<std::_Tree_val<std::_Tree_simple_types<std::pair<std::basic_string<wchar_t,std::char_traits<wchar_t>,std::allocator<wchar_t> > const ,bool> > > >,std::allocator<std::_Tree_const_iterator<std::_Tree_val<std::_Tree_simple_types<std::pair<std::basic_string<wchar_t,std::char_traits<wchar_t>,std::allocator<wchar_t> > const ,bool> > > > > >::_Inside
PUBLIC	?end@?$vector@V?$_Tree_const_iterator@V?$_Tree_val@U?$_Tree_simple_types@U?$pair@$$CBV?$basic_string@_WU?$char_traits@_W@std@@V?$allocator@_W@2@@std@@_N@std@@@std@@@std@@@std@@V?$allocator@V?$_Tree_const_iterator@V?$_Tree_val@U?$_Tree_simple_types@U?$pair@$$CBV?$basic_string@_WU?$char_traits@_W@std@@V?$allocator@_W@2@@std@@_N@std@@@std@@@std@@@std@@@2@@std@@QAE?AV?$_Vector_iterator@V?$_Vector_val@U?$_Simple_types@V?$_Tree_const_iterator@V?$_Tree_val@U?$_Tree_simple_types@U?$pair@$$CBV?$basic_string@_WU?$char_traits@_W@std@@V?$allocator@_W@2@@std@@_N@std@@@std@@@std@@@std@@@std@@@std@@@2@XZ ; std::vector<std::_Tree_const_iterator<std::_Tree_val<std::_Tree_simple_types<std::pair<std::basic_string<wchar_t,std::char_traits<wchar_t>,std::allocator<wchar_t> > const ,bool> > > >,std::allocator<std::_Tree_const_iterator<std::_Tree_val<std::_Tree_simple_types<std::pair<std::basic_string<wchar_t,std::char_traits<wchar_t>,std::allocator<wchar_t> > const ,bool> > > > > >::end
PUBLIC	?begin@?$vector@V?$_Tree_const_iterator@V?$_Tree_val@U?$_Tree_simple_types@U?$pair@$$CBV?$basic_string@_WU?$char_traits@_W@std@@V?$allocator@_W@2@@std@@_N@std@@@std@@@std@@@std@@V?$allocator@V?$_Tree_const_iterator@V?$_Tree_val@U?$_Tree_simple_types@U?$pair@$$CBV?$basic_string@_WU?$char_traits@_W@std@@V?$allocator@_W@2@@std@@_N@std@@@std@@@std@@@std@@@2@@std@@QAE?AV?$_Vector_iterator@V?$_Vector_val@U?$_Simple_types@V?$_Tree_const_iterator@V?$_Tree_val@U?$_Tree_simple_types@U?$pair@$$CBV?$basic_string@_WU?$char_traits@_W@std@@V?$allocator@_W@2@@std@@_N@std@@@std@@@std@@@std@@@std@@@std@@@2@XZ ; std::vector<std::_Tree_const_iterator<std::_Tree_val<std::_Tree_simple_types<std::pair<std::basic_string<wchar_t,std::char_traits<wchar_t>,std::allocator<wchar_t> > const ,bool> > > >,std::allocator<std::_Tree_const_iterator<std::_Tree_val<std::_Tree_simple_types<std::pair<std::basic_string<wchar_t,std::char_traits<wchar_t>,std::allocator<wchar_t> > const ,bool> > > > > >::begin
PUBLIC	?Clear@?$List@PAVXElement@@@@QAEXXZ		; List<XElement *>::Clear
PUBLIC	?Add@?$List@PAVXElement@@@@QAEIABQAVXElement@@@Z ; List<XElement *>::Add
PUBLIC	?_Getcomp@?$_Tree_comp@$0A@V?$_Tmap_traits@V?$basic_string@_WU?$char_traits@_W@std@@V?$allocator@_W@2@@std@@_NU?$less@V?$basic_string@_WU?$char_traits@_W@std@@V?$allocator@_W@2@@std@@@2@V?$allocator@U?$pair@$$CBV?$basic_string@_WU?$char_traits@_W@std@@V?$allocator@_W@2@@std@@_N@std@@@2@$0A@@std@@@std@@QBE?AU?$less@V?$basic_string@_WU?$char_traits@_W@std@@V?$allocator@_W@2@@std@@@2@XZ ; std::_Tree_comp<0,std::_Tmap_traits<std::basic_string<wchar_t,std::char_traits<wchar_t>,std::allocator<wchar_t> >,bool,std::less<std::basic_string<wchar_t,std::char_traits<wchar_t>,std::allocator<wchar_t> > >,std::allocator<std::pair<std::basic_string<wchar_t,std::char_traits<wchar_t>,std::allocator<wchar_t> > const ,bool> >,0> >::_Getcomp
PUBLIC	?_Key@?$_Tree@V?$_Tmap_traits@V?$basic_string@_WU?$char_traits@_W@std@@V?$allocator@_W@2@@std@@_NU?$less@V?$basic_string@_WU?$char_traits@_W@std@@V?$allocator@_W@2@@std@@@2@V?$allocator@U?$pair@$$CBV?$basic_string@_WU?$char_traits@_W@std@@V?$allocator@_W@2@@std@@_N@std@@@2@$0A@@std@@@std@@IBEABV?$basic_string@_WU?$char_traits@_W@std@@V?$allocator@_W@2@@2@PAU?$_Tree_node@U?$pair@$$CBV?$basic_string@_WU?$char_traits@_W@std@@V?$allocator@_W@2@@std@@_N@std@@PAX@2@@Z ; std::_Tree<std::_Tmap_traits<std::basic_string<wchar_t,std::char_traits<wchar_t>,std::allocator<wchar_t> >,bool,std::less<std::basic_string<wchar_t,std::char_traits<wchar_t>,std::allocator<wchar_t> > >,std::allocator<std::pair<std::basic_string<wchar_t,std::char_traits<wchar_t>,std::allocator<wchar_t> > const ,bool> >,0> >::_Key
PUBLIC	?lower_bound@?$_Tree@V?$_Tmap_traits@V?$basic_string@_WU?$char_traits@_W@std@@V?$allocator@_W@2@@std@@_NU?$less@V?$basic_string@_WU?$char_traits@_W@std@@V?$allocator@_W@2@@std@@@2@V?$allocator@U?$pair@$$CBV?$basic_string@_WU?$char_traits@_W@std@@V?$allocator@_W@2@@std@@_N@std@@@2@$0A@@std@@@std@@QAE?AV?$_Tree_iterator@V?$_Tree_val@U?$_Tree_simple_types@U?$pair@$$CBV?$basic_string@_WU?$char_traits@_W@std@@V?$allocator@_W@2@@std@@_N@std@@@std@@@std@@@2@ABV?$basic_string@_WU?$char_traits@_W@std@@V?$allocator@_W@2@@2@@Z ; std::_Tree<std::_Tmap_traits<std::basic_string<wchar_t,std::char_traits<wchar_t>,std::allocator<wchar_t> >,bool,std::less<std::basic_string<wchar_t,std::char_traits<wchar_t>,std::allocator<wchar_t> > >,std::allocator<std::pair<std::basic_string<wchar_t,std::char_traits<wchar_t>,std::allocator<wchar_t> > const ,bool> >,0> >::lower_bound
PUBLIC	??0?$_Tree@V?$_Tmap_traits@V?$basic_string@_WU?$char_traits@_W@std@@V?$allocator@_W@2@@std@@_NU?$less@V?$basic_string@_WU?$char_traits@_W@std@@V?$allocator@_W@2@@std@@@2@V?$allocator@U?$pair@$$CBV?$basic_string@_WU?$char_traits@_W@std@@V?$allocator@_W@2@@std@@_N@std@@@2@$0A@@std@@@std@@QAE@$$QAV01@@Z ; std::_Tree<std::_Tmap_traits<std::basic_string<wchar_t,std::char_traits<wchar_t>,std::allocator<wchar_t> >,bool,std::less<std::basic_string<wchar_t,std::char_traits<wchar_t>,std::allocator<wchar_t> > >,std::allocator<std::pair<std::basic_string<wchar_t,std::char_traits<wchar_t>,std::allocator<wchar_t> > const ,bool> >,0> >::_Tree<std::_Tmap_traits<std::basic_string<wchar_t,std::char_traits<wchar_t>,std::allocator<wchar_t> >,bool,std::less<std::basic_string<wchar_t,std::char_traits<wchar_t>,std::allocator<wchar_t> > >,std::allocator<std::pair<std::basic_string<wchar_t,std::char_traits<wchar_t>,std::allocator<wchar_t> > const ,bool> >,0> >
PUBLIC	??R?$less@V?$basic_string@_WU?$char_traits@_W@std@@V?$allocator@_W@2@@std@@@std@@QBE_NABV?$basic_string@_WU?$char_traits@_W@std@@V?$allocator@_W@2@@1@0@Z ; std::less<std::basic_string<wchar_t,std::char_traits<wchar_t>,std::allocator<wchar_t> > >::operator()
PUBLIC	??B?$unique_ptr@XUMemUnlocker@?A0x0ea80c23@@@std@@QBE_NXZ ; std::unique_ptr<void,`anonymous namespace'::MemUnlocker>::operator bool
PUBLIC	?get@?$unique_ptr@XUMemUnlocker@?A0x0ea80c23@@@std@@QBEPAXXZ ; std::unique_ptr<void,`anonymous namespace'::MemUnlocker>::get
PUBLIC	??1?$unique_ptr@XUMemUnlocker@?A0x0ea80c23@@@std@@QAE@XZ ; std::unique_ptr<void,`anonymous namespace'::MemUnlocker>::~unique_ptr<void,`anonymous namespace'::MemUnlocker>
PUBLIC	??0?$unique_ptr@XUMemUnlocker@?A0x0ea80c23@@@std@@QAE@PAX@Z ; std::unique_ptr<void,`anonymous namespace'::MemUnlocker>::unique_ptr<void,`anonymous namespace'::MemUnlocker>
PUBLIC	?release@?$unique_ptr@XUHLOCALDeleter@?A0x0ea80c23@@@std@@QAEPAXXZ ; std::unique_ptr<void,`anonymous namespace'::HLOCALDeleter>::release
PUBLIC	??B?$unique_ptr@XUHLOCALDeleter@?A0x0ea80c23@@@std@@QBE_NXZ ; std::unique_ptr<void,`anonymous namespace'::HLOCALDeleter>::operator bool
PUBLIC	?get@?$unique_ptr@XUHLOCALDeleter@?A0x0ea80c23@@@std@@QBEPAXXZ ; std::unique_ptr<void,`anonymous namespace'::HLOCALDeleter>::get
PUBLIC	??1?$unique_ptr@XUHLOCALDeleter@?A0x0ea80c23@@@std@@QAE@XZ ; std::unique_ptr<void,`anonymous namespace'::HLOCALDeleter>::~unique_ptr<void,`anonymous namespace'::HLOCALDeleter>
PUBLIC	??0?$unique_ptr@XUHLOCALDeleter@?A0x0ea80c23@@@std@@QAE@PAX@Z ; std::unique_ptr<void,`anonymous namespace'::HLOCALDeleter>::unique_ptr<void,`anonymous namespace'::HLOCALDeleter>
PUBLIC	??D?$_Revranit@V?$_Vector_iterator@V?$_Vector_val@U?$_Simple_types@V?$_Tree_const_iterator@V?$_Tree_val@U?$_Tree_simple_types@U?$pair@$$CBV?$basic_string@_WU?$char_traits@_W@std@@V?$allocator@_W@2@@std@@_N@std@@@std@@@std@@@std@@@std@@@std@@@std@@U?$iterator@Urandom_access_iterator_tag@std@@V?$_Tree_const_iterator@V?$_Tree_val@U?$_Tree_simple_types@U?$pair@$$CBV?$basic_string@_WU?$char_traits@_W@std@@V?$allocator@_W@2@@std@@_N@std@@@std@@@std@@@2@HPAV32@AAV32@@2@@std@@QBEAAV?$_Tree_const_iterator@V?$_Tree_val@U?$_Tree_simple_types@U?$pair@$$CBV?$basic_string@_WU?$char_traits@_W@std@@V?$allocator@_W@2@@std@@_N@std@@@std@@@std@@@1@XZ ; std::_Revranit<std::_Vector_iterator<std::_Vector_val<std::_Simple_types<std::_Tree_const_iterator<std::_Tree_val<std::_Tree_simple_types<std::pair<std::basic_string<wchar_t,std::char_traits<wchar_t>,std::allocator<wchar_t> > const ,bool> > > > > > >,std::iterator<std::random_access_iterator_tag,std::_Tree_const_iterator<std::_Tree_val<std::_Tree_simple_types<std::pair<std::basic_string<wchar_t,std::char_traits<wchar_t>,std::allocator<wchar_t> > const ,bool> > > >,int,std::_Tree_const_iterator<std::_Tree_val<std::_Tree_simple_types<std::pair<std::basic_string<wchar_t,std::char_traits<wchar_t>,std::allocator<wchar_t> > const ,bool> > > > *,std::_Tree_const_iterator<std::_Tree_val<std::_Tree_simple_types<std::pair<std::basic_string<wchar_t,std::char_traits<wchar_t>,std::allocator<wchar_t> > const ,bool> > > > &> >::operator*
PUBLIC	??E?$reverse_iterator@V?$_Vector_iterator@V?$_Vector_val@U?$_Simple_types@V?$_Tree_const_iterator@V?$_Tree_val@U?$_Tree_simple_types@U?$pair@$$CBV?$basic_string@_WU?$char_traits@_W@std@@V?$allocator@_W@2@@std@@_N@std@@@std@@@std@@@std@@@std@@@std@@@std@@@std@@QAE?AV01@H@Z ; std::reverse_iterator<std::_Vector_iterator<std::_Vector_val<std::_Simple_types<std::_Tree_const_iterator<std::_Tree_val<std::_Tree_simple_types<std::pair<std::basic_string<wchar_t,std::char_traits<wchar_t>,std::allocator<wchar_t> > const ,bool> > > > > > > >::operator++
PUBLIC	??C?$_Tree_const_iterator@V?$_Tree_val@U?$_Tree_simple_types@U?$pair@$$CBV?$basic_string@_WU?$char_traits@_W@std@@V?$allocator@_W@2@@std@@_N@std@@@std@@@std@@@std@@QBEPBU?$pair@$$CBV?$basic_string@_WU?$char_traits@_W@std@@V?$allocator@_W@2@@std@@_N@1@XZ ; std::_Tree_const_iterator<std::_Tree_val<std::_Tree_simple_types<std::pair<std::basic_string<wchar_t,std::char_traits<wchar_t>,std::allocator<wchar_t> > const ,bool> > > >::operator->
PUBLIC	??C?$_Tree_iterator@V?$_Tree_val@U?$_Tree_simple_types@U?$pair@$$CBV?$basic_string@_WU?$char_traits@_W@std@@V?$allocator@_W@2@@std@@_N@std@@@std@@@std@@@std@@QBEPAU?$pair@$$CBV?$basic_string@_WU?$char_traits@_W@std@@V?$allocator@_W@2@@std@@_N@1@XZ ; std::_Tree_iterator<std::_Tree_val<std::_Tree_simple_types<std::pair<std::basic_string<wchar_t,std::char_traits<wchar_t>,std::allocator<wchar_t> > const ,bool> > > >::operator->
PUBLIC	?push_back@?$vector@V?$_Tree_const_iterator@V?$_Tree_val@U?$_Tree_simple_types@U?$pair@$$CBV?$basic_string@_WU?$char_traits@_W@std@@V?$allocator@_W@2@@std@@_N@std@@@std@@@std@@@std@@V?$allocator@V?$_Tree_const_iterator@V?$_Tree_val@U?$_Tree_simple_types@U?$pair@$$CBV?$basic_string@_WU?$char_traits@_W@std@@V?$allocator@_W@2@@std@@_N@std@@@std@@@std@@@std@@@2@@std@@QAEXABV?$_Tree_const_iterator@V?$_Tree_val@U?$_Tree_simple_types@U?$pair@$$CBV?$basic_string@_WU?$char_traits@_W@std@@V?$allocator@_W@2@@std@@_N@std@@@std@@@std@@@2@@Z ; std::vector<std::_Tree_const_iterator<std::_Tree_val<std::_Tree_simple_types<std::pair<std::basic_string<wchar_t,std::char_traits<wchar_t>,std::allocator<wchar_t> > const ,bool> > > >,std::allocator<std::_Tree_const_iterator<std::_Tree_val<std::_Tree_simple_types<std::pair<std::basic_string<wchar_t,std::char_traits<wchar_t>,std::allocator<wchar_t> > const ,bool> > > > > >::push_back
PUBLIC	?empty@?$vector@V?$_Tree_const_iterator@V?$_Tree_val@U?$_Tree_simple_types@U?$pair@$$CBV?$basic_string@_WU?$char_traits@_W@std@@V?$allocator@_W@2@@std@@_N@std@@@std@@@std@@@std@@V?$allocator@V?$_Tree_const_iterator@V?$_Tree_val@U?$_Tree_simple_types@U?$pair@$$CBV?$basic_string@_WU?$char_traits@_W@std@@V?$allocator@_W@2@@std@@_N@std@@@std@@@std@@@std@@@2@@std@@QBE_NXZ ; std::vector<std::_Tree_const_iterator<std::_Tree_val<std::_Tree_simple_types<std::pair<std::basic_string<wchar_t,std::char_traits<wchar_t>,std::allocator<wchar_t> > const ,bool> > > >,std::allocator<std::_Tree_const_iterator<std::_Tree_val<std::_Tree_simple_types<std::pair<std::basic_string<wchar_t,std::char_traits<wchar_t>,std::allocator<wchar_t> > const ,bool> > > > > >::empty
PUBLIC	?rend@?$vector@V?$_Tree_const_iterator@V?$_Tree_val@U?$_Tree_simple_types@U?$pair@$$CBV?$basic_string@_WU?$char_traits@_W@std@@V?$allocator@_W@2@@std@@_N@std@@@std@@@std@@@std@@V?$allocator@V?$_Tree_const_iterator@V?$_Tree_val@U?$_Tree_simple_types@U?$pair@$$CBV?$basic_string@_WU?$char_traits@_W@std@@V?$allocator@_W@2@@std@@_N@std@@@std@@@std@@@std@@@2@@std@@QAE?AV?$reverse_iterator@V?$_Vector_iterator@V?$_Vector_val@U?$_Simple_types@V?$_Tree_const_iterator@V?$_Tree_val@U?$_Tree_simple_types@U?$pair@$$CBV?$basic_string@_WU?$char_traits@_W@std@@V?$allocator@_W@2@@std@@_N@std@@@std@@@std@@@std@@@std@@@std@@@std@@@2@XZ ; std::vector<std::_Tree_const_iterator<std::_Tree_val<std::_Tree_simple_types<std::pair<std::basic_string<wchar_t,std::char_traits<wchar_t>,std::allocator<wchar_t> > const ,bool> > > >,std::allocator<std::_Tree_const_iterator<std::_Tree_val<std::_Tree_simple_types<std::pair<std::basic_string<wchar_t,std::char_traits<wchar_t>,std::allocator<wchar_t> > const ,bool> > > > > >::rend
PUBLIC	?rbegin@?$vector@V?$_Tree_const_iterator@V?$_Tree_val@U?$_Tree_simple_types@U?$pair@$$CBV?$basic_string@_WU?$char_traits@_W@std@@V?$allocator@_W@2@@std@@_N@std@@@std@@@std@@@std@@V?$allocator@V?$_Tree_const_iterator@V?$_Tree_val@U?$_Tree_simple_types@U?$pair@$$CBV?$basic_string@_WU?$char_traits@_W@std@@V?$allocator@_W@2@@std@@_N@std@@@std@@@std@@@std@@@2@@std@@QAE?AV?$reverse_iterator@V?$_Vector_iterator@V?$_Vector_val@U?$_Simple_types@V?$_Tree_const_iterator@V?$_Tree_val@U?$_Tree_simple_types@U?$pair@$$CBV?$basic_string@_WU?$char_traits@_W@std@@V?$allocator@_W@2@@std@@_N@std@@@std@@@std@@@std@@@std@@@std@@@std@@@2@XZ ; std::vector<std::_Tree_const_iterator<std::_Tree_val<std::_Tree_simple_types<std::pair<std::basic_string<wchar_t,std::char_traits<wchar_t>,std::allocator<wchar_t> > const ,bool> > > >,std::allocator<std::_Tree_const_iterator<std::_Tree_val<std::_Tree_simple_types<std::pair<std::basic_string<wchar_t,std::char_traits<wchar_t>,std::allocator<wchar_t> > const ,bool> > > > > >::rbegin
PUBLIC	??1?$vector@V?$_Tree_const_iterator@V?$_Tree_val@U?$_Tree_simple_types@U?$pair@$$CBV?$basic_string@_WU?$char_traits@_W@std@@V?$allocator@_W@2@@std@@_N@std@@@std@@@std@@@std@@V?$allocator@V?$_Tree_const_iterator@V?$_Tree_val@U?$_Tree_simple_types@U?$pair@$$CBV?$basic_string@_WU?$char_traits@_W@std@@V?$allocator@_W@2@@std@@_N@std@@@std@@@std@@@std@@@2@@std@@QAE@XZ ; std::vector<std::_Tree_const_iterator<std::_Tree_val<std::_Tree_simple_types<std::pair<std::basic_string<wchar_t,std::char_traits<wchar_t>,std::allocator<wchar_t> > const ,bool> > > >,std::allocator<std::_Tree_const_iterator<std::_Tree_val<std::_Tree_simple_types<std::pair<std::basic_string<wchar_t,std::char_traits<wchar_t>,std::allocator<wchar_t> > const ,bool> > > > > >::~vector<std::_Tree_const_iterator<std::_Tree_val<std::_Tree_simple_types<std::pair<std::basic_string<wchar_t,std::char_traits<wchar_t>,std::allocator<wchar_t> > const ,bool> > > >,std::allocator<std::_Tree_const_iterator<std::_Tree_val<std::_Tree_simple_types<std::pair<std::basic_string<wchar_t,std::char_traits<wchar_t>,std::allocator<wchar_t> > const ,bool> > > > > >
PUBLIC	?push_back@?$vector@V?$_Tree_const_iterator@V?$_Tree_val@U?$_Tree_simple_types@U?$pair@$$CBV?$basic_string@_WU?$char_traits@_W@std@@V?$allocator@_W@2@@std@@_N@std@@@std@@@std@@@std@@V?$allocator@V?$_Tree_const_iterator@V?$_Tree_val@U?$_Tree_simple_types@U?$pair@$$CBV?$basic_string@_WU?$char_traits@_W@std@@V?$allocator@_W@2@@std@@_N@std@@@std@@@std@@@std@@@2@@std@@QAEX$$QAV?$_Tree_const_iterator@V?$_Tree_val@U?$_Tree_simple_types@U?$pair@$$CBV?$basic_string@_WU?$char_traits@_W@std@@V?$allocator@_W@2@@std@@_N@std@@@std@@@std@@@2@@Z ; std::vector<std::_Tree_const_iterator<std::_Tree_val<std::_Tree_simple_types<std::pair<std::basic_string<wchar_t,std::char_traits<wchar_t>,std::allocator<wchar_t> > const ,bool> > > >,std::allocator<std::_Tree_const_iterator<std::_Tree_val<std::_Tree_simple_types<std::pair<std::basic_string<wchar_t,std::char_traits<wchar_t>,std::allocator<wchar_t> > const ,bool> > > > > >::push_back
PUBLIC	??0?$vector@V?$_Tree_const_iterator@V?$_Tree_val@U?$_Tree_simple_types@U?$pair@$$CBV?$basic_string@_WU?$char_traits@_W@std@@V?$allocator@_W@2@@std@@_N@std@@@std@@@std@@@std@@V?$allocator@V?$_Tree_const_iterator@V?$_Tree_val@U?$_Tree_simple_types@U?$pair@$$CBV?$basic_string@_WU?$char_traits@_W@std@@V?$allocator@_W@2@@std@@_N@std@@@std@@@std@@@std@@@2@@std@@QAE@XZ ; std::vector<std::_Tree_const_iterator<std::_Tree_val<std::_Tree_simple_types<std::pair<std::basic_string<wchar_t,std::char_traits<wchar_t>,std::allocator<wchar_t> > const ,bool> > > >,std::allocator<std::_Tree_const_iterator<std::_Tree_val<std::_Tree_simple_types<std::pair<std::basic_string<wchar_t,std::char_traits<wchar_t>,std::allocator<wchar_t> > const ,bool> > > > > >::vector<std::_Tree_const_iterator<std::_Tree_val<std::_Tree_simple_types<std::pair<std::basic_string<wchar_t,std::char_traits<wchar_t>,std::allocator<wchar_t> > const ,bool> > > >,std::allocator<std::_Tree_const_iterator<std::_Tree_val<std::_Tree_simple_types<std::pair<std::basic_string<wchar_t,std::char_traits<wchar_t>,std::allocator<wchar_t> > const ,bool> > > > > >
PUBLIC	??A?$List@PAVXElement@@@@QAEAAPAVXElement@@I@Z	; List<XElement *>::operator[]
PUBLIC	??6?$List@PAVXElement@@@@QAEAAV0@ABQAVXElement@@@Z ; List<XElement *>::operator<<
PUBLIC	?Num@?$List@PAVXElement@@@@QBEIXZ		; List<XElement *>::Num
PUBLIC	??1?$List@PAVXElement@@@@QAE@XZ			; List<XElement *>::~List<XElement *>
PUBLIC	??0?$List@PAVXElement@@@@QAE@XZ			; List<XElement *>::List<XElement *>
PUBLIC	??A?$List@PB_W@@QAEAAPB_WI@Z			; List<wchar_t const *>::operator[]
PUBLIC	?Num@?$List@PB_W@@QBEIXZ			; List<wchar_t const *>::Num
PUBLIC	??1?$List@PB_W@@QAE@XZ				; List<wchar_t const *>::~List<wchar_t const *>
PUBLIC	??0?$List@PB_W@@QAE@XZ				; List<wchar_t const *>::List<wchar_t const *>
PUBLIC	?Remove@?$List@UGlobalSourceInfo@@@@QAEXI@Z	; List<GlobalSourceInfo>::Remove
PUBLIC	??H?$List@UClassInfo@@@@QAEPAUClassInfo@@I@Z	; List<ClassInfo>::operator+
PUBLIC	?find@?$_Tree@V?$_Tmap_traits@V?$basic_string@_WU?$char_traits@_W@std@@V?$allocator@_W@2@@std@@_NU?$less@V?$basic_string@_WU?$char_traits@_W@std@@V?$allocator@_W@2@@std@@@2@V?$allocator@U?$pair@$$CBV?$basic_string@_WU?$char_traits@_W@std@@V?$allocator@_W@2@@std@@_N@std@@@2@$0A@@std@@@std@@QAE?AV?$_Tree_iterator@V?$_Tree_val@U?$_Tree_simple_types@U?$pair@$$CBV?$basic_string@_WU?$char_traits@_W@std@@V?$allocator@_W@2@@std@@_N@std@@@std@@@std@@@2@ABV?$basic_string@_WU?$char_traits@_W@std@@V?$allocator@_W@2@@2@@Z ; std::_Tree<std::_Tmap_traits<std::basic_string<wchar_t,std::char_traits<wchar_t>,std::allocator<wchar_t> >,bool,std::less<std::basic_string<wchar_t,std::char_traits<wchar_t>,std::allocator<wchar_t> > >,std::allocator<std::pair<std::basic_string<wchar_t,std::char_traits<wchar_t>,std::allocator<wchar_t> > const ,bool> >,0> >::find
PUBLIC	??A?$map@V?$basic_string@_WU?$char_traits@_W@std@@V?$allocator@_W@2@@std@@_NU?$less@V?$basic_string@_WU?$char_traits@_W@std@@V?$allocator@_W@2@@std@@@2@V?$allocator@U?$pair@$$CBV?$basic_string@_WU?$char_traits@_W@std@@V?$allocator@_W@2@@std@@_N@std@@@2@@std@@QAEAA_NABV?$basic_string@_WU?$char_traits@_W@std@@V?$allocator@_W@2@@1@@Z ; std::map<std::basic_string<wchar_t,std::char_traits<wchar_t>,std::allocator<wchar_t> >,bool,std::less<std::basic_string<wchar_t,std::char_traits<wchar_t>,std::allocator<wchar_t> > >,std::allocator<std::pair<std::basic_string<wchar_t,std::char_traits<wchar_t>,std::allocator<wchar_t> > const ,bool> > >::operator[]
PUBLIC	??0?$map@V?$basic_string@_WU?$char_traits@_W@std@@V?$allocator@_W@2@@std@@_NU?$less@V?$basic_string@_WU?$char_traits@_W@std@@V?$allocator@_W@2@@std@@@2@V?$allocator@U?$pair@$$CBV?$basic_string@_WU?$char_traits@_W@std@@V?$allocator@_W@2@@std@@_N@std@@@2@@std@@QAE@$$QAV01@@Z ; std::map<std::basic_string<wchar_t,std::char_traits<wchar_t>,std::allocator<wchar_t> >,bool,std::less<std::basic_string<wchar_t,std::char_traits<wchar_t>,std::allocator<wchar_t> > >,std::allocator<std::pair<std::basic_string<wchar_t,std::char_traits<wchar_t>,std::allocator<wchar_t> > const ,bool> > >::map<std::basic_string<wchar_t,std::char_traits<wchar_t>,std::allocator<wchar_t> >,bool,std::less<std::basic_string<wchar_t,std::char_traits<wchar_t>,std::allocator<wchar_t> > >,std::allocator<std::pair<std::basic_string<wchar_t,std::char_traits<wchar_t>,std::allocator<wchar_t> > const ,bool> > >
PUBLIC	??A?$List@USceneHotkeyInfo@@@@QAEAAUSceneHotkeyInfo@@I@Z ; List<SceneHotkeyInfo>::operator[]
PUBLIC	?Remove@?$List@USceneHotkeyInfo@@@@QAEXI@Z	; List<SceneHotkeyInfo>::Remove
PUBLIC	?Num@?$List@USceneHotkeyInfo@@@@QBEIXZ		; List<SceneHotkeyInfo>::Num
PUBLIC	?Last@?$List@PAVSceneItem@@@@QBEAAPAVSceneItem@@XZ ; List<SceneItem *>::Last
PUBLIC	?Clear@?$List@PAVSceneItem@@@@QAEXXZ		; List<SceneItem *>::Clear
PUBLIC	??1?$List@PAVSceneItem@@@@QAE@XZ		; List<SceneItem *>::~List<SceneItem *>
PUBLIC	??0?$List@PAVSceneItem@@@@QAE@XZ		; List<SceneItem *>::List<SceneItem *>
PUBLIC	?SetBackground@@YAXPAUHWND__@@PB_WPAUHDC__@@H1@Z ; SetBackground
PUBLIC	?PluginsDialogProc@OBS@@CGHPAUHWND__@@IIJ@Z	; OBS::PluginsDialogProc
PUBLIC	?EnsureCropValid@OBS@@CA_NAAPAVSceneItem@@AAUVect2@@1_NH2@Z ; OBS::EnsureCropValid
PUBLIC	?GetItemModifyType@@YA?AW4ItemModifyType@@ABUVect2@@00ABUVect4@@0@Z ; GetItemModifyType
PUBLIC	??_GStringList@@QAEPAXI@Z			; StringList::`scalar deleting destructor'
PUBLIC	??1LogUploadResult@@QAE@XZ			; LogUploadResult::~LogUploadResult
PUBLIC	?ShowLogUploadResult@@YAXAAULogUploadResult@@_N@Z ; ShowLogUploadResult
PUBLIC	?LogUploadResultProc@@YGHPAUHWND__@@IIJ@Z	; LogUploadResultProc
PUBLIC	?Contains@ClipboardHelper@?A0x0ea80c23@@QAE_NAAVString@@@Z ; `anonymous namespace'::ClipboardHelper::Contains
PUBLIC	?Insert@ClipboardHelper@?A0x0ea80c23@@QAE_NAAVString@@@Z ; `anonymous namespace'::ClipboardHelper::Insert
PUBLIC	??1ClipboardHelper@?A0x0ea80c23@@QAE@XZ		; `anonymous namespace'::ClipboardHelper::~ClipboardHelper
PUBLIC	??0ClipboardHelper@?A0x0ea80c23@@QAE@PAUHWND__@@@Z ; `anonymous namespace'::ClipboardHelper::ClipboardHelper
PUBLIC	??RMemUnlocker@?A0x0ea80c23@@QAEXPAX@Z		; `anonymous namespace'::MemUnlocker::operator()
PUBLIC	??RHLOCALDeleter@?A0x0ea80c23@@QAEXPAX@Z	; `anonymous namespace'::HLOCALDeleter::operator()
PUBLIC	?GetLogUploadMenuItem@@YA?AVString@@I@Z		; GetLogUploadMenuItem
PUBLIC	?ResetLogUploadMenu@OBS@@CAXXZ			; OBS::ResetLogUploadMenu
PUBLIC	?LogUploadMonitorCallback@@YAXXZ		; LogUploadMonitorCallback
PUBLIC	?ExportProfile@OBS@@AAEXXZ			; OBS::ExportProfile
PUBLIC	?ImportProfile@OBS@@AAEXXZ			; OBS::ImportProfile
PUBLIC	?RemoveProfile@OBS@@AAEXXZ			; OBS::RemoveProfile
PUBLIC	?AddProfile@OBS@@AAEXW4ProfileAction@@@Z	; OBS::AddProfile
PUBLIC	?ExportSceneCollection@OBS@@AAEXXZ		; OBS::ExportSceneCollection
PUBLIC	?ImportSceneCollection@OBS@@AAEXXZ		; OBS::ImportSceneCollection
PUBLIC	?RemoveSceneCollection@OBS@@AAEXXZ		; OBS::RemoveSceneCollection
PUBLIC	?AddSceneCollection@OBS@@AAEXW4SceneCollectionAction@@@Z ; OBS::AddSceneCollection
PUBLIC	?AddSceneCollectionToMenu@OBS@@CAXPAUHMENU__@@@Z ; OBS::AddSceneCollectionToMenu
PUBLIC	?AddProfilesToMenu@OBS@@CAXPAUHMENU__@@@Z	; OBS::AddProfilesToMenu
PUBLIC	?GlobalSourcesImportProc@OBS@@CGHPAUHWND__@@IIJ@Z ; OBS::GlobalSourcesImportProc
PUBLIC	?GlobalSourcesProc@OBS@@CGHPAUHWND__@@IIJ@Z	; OBS::GlobalSourcesProc
PUBLIC	?EnterGlobalSourceNameDialogProc@OBS@@CGHPAUHWND__@@IIJ@Z ; OBS::EnterGlobalSourceNameDialogProc
PUBLIC	?ResetItemCrops@OBS@@AAEXXZ			; OBS::ResetItemCrops
PUBLIC	?ResetItemSizes@OBS@@AAEXXZ			; OBS::ResetItemSizes
PUBLIC	?FitItemsToScreen@OBS@@AAEXXZ			; OBS::FitItemsToScreen
PUBLIC	?MoveItemsByPixels@OBS@@AAEXHH@Z		; OBS::MoveItemsByPixels
PUBLIC	?MoveItemsToEdge@OBS@@AAEXHH@Z			; OBS::MoveItemsToEdge
PUBLIC	?CenterItems@OBS@@AAEX_N0@Z			; OBS::CenterItems
PUBLIC	?MoveSourcesToBottom@OBS@@AAEXXZ		; OBS::MoveSourcesToBottom
PUBLIC	?MoveSourcesToTop@OBS@@AAEXXZ			; OBS::MoveSourcesToTop
PUBLIC	?MoveSourcesDown@OBS@@AAEXXZ			; OBS::MoveSourcesDown
PUBLIC	?MoveSourcesUp@OBS@@AAEXXZ			; OBS::MoveSourcesUp
PUBLIC	?SetSourceOrder@OBS@@AAEXAAVStringList@@@Z	; OBS::SetSourceOrder
PUBLIC	?DeleteItems@OBS@@AAEXXZ			; OBS::DeleteItems
PUBLIC	?AppendModifyListbox@OBS@@AAEXPAUHWND__@@PAUHMENU__@@HH_N@Z ; OBS::AppendModifyListbox
PUBLIC	?TrackModifyListbox@OBS@@AAEXPAUHWND__@@H@Z	; OBS::TrackModifyListbox
PUBLIC	?GetNewSceneName@OBS@@CAXAAVString@@@Z		; OBS::GetNewSceneName
PUBLIC	?EnterSceneNameDialogProc@OBS@@CGHPAUHWND__@@IIJ@Z ; OBS::EnterSceneNameDialogProc
PUBLIC	?SceneHotkeyDialogProc@OBS@@CGHPAUHWND__@@IIJ@Z	; OBS::SceneHotkeyDialogProc
PUBLIC	?EnterProfileDialogProc@OBS@@CGHPAUHWND__@@IIJ@Z ; OBS::EnterProfileDialogProc
PUBLIC	?EnterSceneCollectionDialogProc@OBS@@CGHPAUHWND__@@IIJ@Z ; OBS::EnterSceneCollectionDialogProc
PUBLIC	??0Font@Gdiplus@@QAE@PB_WMHW4Unit@1@PBVFontCollection@1@@Z ; Gdiplus::Font::Font
PUBLIC	?GetLastStatus@FontFamily@Gdiplus@@QBE?AW4Status@2@XZ ; Gdiplus::FontFamily::GetLastStatus
PUBLIC	?GenericSansSerif@FontFamily@Gdiplus@@SAPBV12@XZ ; Gdiplus::FontFamily::GenericSansSerif
PUBLIC	??0FontFamily@Gdiplus@@QAE@PB_WPBVFontCollection@1@@Z ; Gdiplus::FontFamily::FontFamily
PUBLIC	?DrawString@Graphics@Gdiplus@@QAE?AW4Status@2@PB_WHPBVFont@2@ABVPointF@2@PBVBrush@2@@Z ; Gdiplus::Graphics::DrawString
PUBLIC	?DrawRectangle@Graphics@Gdiplus@@QAE?AW4Status@2@PBVPen@2@HHHH@Z ; Gdiplus::Graphics::DrawRectangle
PUBLIC	?DrawLine@Graphics@Gdiplus@@QAE?AW4Status@2@PBVPen@2@ABVPoint@2@1@Z ; Gdiplus::Graphics::DrawLine
PUBLIC	?DrawLine@Graphics@Gdiplus@@QAE?AW4Status@2@PBVPen@2@HHHH@Z ; Gdiplus::Graphics::DrawLine
PUBLIC	?ReleaseHDC@Graphics@Gdiplus@@QAEXPAUHDC__@@@Z	; Gdiplus::Graphics::ReleaseHDC
PUBLIC	?MakeARGB@Color@Gdiplus@@SAKEEEE@Z		; Gdiplus::Color::MakeARGB
PUBLIC	??0Color@Gdiplus@@QAE@EEE@Z			; Gdiplus::Color::Color
PUBLIC	??0Point@Gdiplus@@QAE@HH@Z			; Gdiplus::Point::Point
PUBLIC	??0LogUploadResult@@QAE@XZ			; LogUploadResult::LogUploadResult
PUBLIC	?GetCurrentProfile@OBS@@SAPB_WXZ		; OBS::GetCurrentProfile
PUBLIC	?GetOutputSize@OBS@@QBE?AUVect2@@XZ		; OBS::GetOutputSize
PUBLIC	?GetBaseSize@OBS@@QBE?AUVect2@@XZ		; OBS::GetBaseSize
PUBLIC	?RemoveSceneHotkey@OBS@@AAEXK@Z			; OBS::RemoveSceneHotkey
PUBLIC	?ResetProfileMenu@OBS@@CAXXZ			; OBS::ResetProfileMenu
PUBLIC	?ReconnectDialogProc@OBS@@CGHPAUHWND__@@IIJ@Z	; OBS::ReconnectDialogProc
PUBLIC	?GetApplicationName@OBS@@CA?AVString@@XZ	; OBS::GetApplicationName
PUBLIC	?OBSStaticProc@OBS@@CGJPAUHWND__@@IIJ@Z		; OBS::OBSStaticProc
PUBLIC	?OBSProc@OBS@@CGJPAUHWND__@@IIJ@Z		; OBS::OBSProc
PUBLIC	?LogWindowProc@OBS@@CGJPAUHWND__@@IIJ@Z		; OBS::LogWindowProc
PUBLIC	?ProjectorFrameProc@OBS@@CGJPAUHWND__@@IIJ@Z	; OBS::ProjectorFrameProc
PUBLIC	?RenderFrameProc@OBS@@CGJPAUHWND__@@IIJ@Z	; OBS::RenderFrameProc
PUBLIC	?ListboxHook@OBS@@CGJPAUHWND__@@IIJ@Z		; OBS::ListboxHook
PUBLIC	?EnterSourceNameDialogProc@OBS@@CGHPAUHWND__@@IIJ@Z ; OBS::EnterSourceNameDialogProc
PUBLIC	?GetNewSourceName@OBS@@CAXAAVString@@@Z		; OBS::GetNewSourceName
PUBLIC	?SetSliderText@@YAHPAUHWND__@@HH@Z		; SetSliderText
PUBLIC	?ResetApplicationName@OBS@@CAXXZ		; OBS::ResetApplicationName
PUBLIC	?ResetSceneCollectionMenu@OBS@@CAXXZ		; OBS::ResetSceneCollectionMenu
PUBLIC	?GetFrameToWindowScale@OBS@@CA?AUVect2@@XZ	; OBS::GetFrameToWindowScale
PUBLIC	?GetWindowToFrameScale@OBS@@CA?AUVect2@@XZ	; OBS::GetWindowToFrameScale
PUBLIC	?MapFrameToWindowSize@OBS@@CA?AUVect2@@U2@@Z	; OBS::MapFrameToWindowSize
PUBLIC	?MapWindowToFrameSize@OBS@@CA?AUVect2@@U2@@Z	; OBS::MapWindowToFrameSize
PUBLIC	?MapFrameToWindowPos@OBS@@CA?AUVect2@@U2@@Z	; OBS::MapFrameToWindowPos
PUBLIC	?MapWindowToFramePos@OBS@@CA?AUVect2@@U2@@Z	; OBS::MapWindowToFramePos
	ALIGN	4

__Tuple_alloc DB 01H DUP (?)
	ALIGN	4

_ignore	DB	01H DUP (?)
	ALIGN	4

_allocator_arg DB 01H DUP (?)
	ALIGN	4

_piecewise_construct DB 01H DUP (?)
_BSS	ENDS
;	COMDAT xdata$x
xdata$x	SEGMENT
__ehfuncinfo$?_Reallocate@?$vector@V?$_Tree_const_iterator@V?$_Tree_val@U?$_Tree_simple_types@U?$pair@$$CBV?$basic_string@_WU?$char_traits@_W@std@@V?$allocator@_W@2@@std@@_N@std@@@std@@@std@@@std@@V?$allocator@V?$_Tree_const_iterator@V?$_Tree_val@U?$_Tree_simple_types@U?$pair@$$CBV?$basic_string@_WU?$char_traits@_W@std@@V?$allocator@_W@2@@std@@_N@std@@@std@@@std@@@std@@@2@@std@@IAEXI@Z DD 019930522H
	DD	02H
	DD	FLAT:__unwindtable$?_Reallocate@?$vector@V?$_Tree_const_iterator@V?$_Tree_val@U?$_Tree_simple_types@U?$pair@$$CBV?$basic_string@_WU?$char_traits@_W@std@@V?$allocator@_W@2@@std@@_N@std@@@std@@@std@@@std@@V?$allocator@V?$_Tree_const_iterator@V?$_Tree_val@U?$_Tree_simple_types@U?$pair@$$CBV?$basic_string@_WU?$char_traits@_W@std@@V?$allocator@_W@2@@std@@_N@std@@@std@@@std@@@std@@@2@@std@@IAEXI@Z
	DD	01H
	DD	FLAT:__tryblocktable$?_Reallocate@?$vector@V?$_Tree_const_iterator@V?$_Tree_val@U?$_Tree_simple_types@U?$pair@$$CBV?$basic_string@_WU?$char_traits@_W@std@@V?$allocator@_W@2@@std@@_N@std@@@std@@@std@@@std@@V?$allocator@V?$_Tree_const_iterator@V?$_Tree_val@U?$_Tree_simple_types@U?$pair@$$CBV?$basic_string@_WU?$char_traits@_W@std@@V?$allocator@_W@2@@std@@_N@std@@@std@@@std@@@std@@@2@@std@@IAEXI@Z
	DD	2 DUP(00H)
	DD	00H
	DD	00H
__unwindtable$?_Reallocate@?$vector@V?$_Tree_const_iterator@V?$_Tree_val@U?$_Tree_simple_types@U?$pair@$$CBV?$basic_string@_WU?$char_traits@_W@std@@V?$allocator@_W@2@@std@@_N@std@@@std@@@std@@@std@@V?$allocator@V?$_Tree_const_iterator@V?$_Tree_val@U?$_Tree_simple_types@U?$pair@$$CBV?$basic_string@_WU?$char_traits@_W@std@@V?$allocator@_W@2@@std@@_N@std@@@std@@@std@@@std@@@2@@std@@IAEXI@Z DD 0ffffffffH
	DD	00H
	DD	0ffffffffH
	DD	00H
__tryblocktable$?_Reallocate@?$vector@V?$_Tree_const_iterator@V?$_Tree_val@U?$_Tree_simple_types@U?$pair@$$CBV?$basic_string@_WU?$char_traits@_W@std@@V?$allocator@_W@2@@std@@_N@std@@@std@@@std@@@std@@V?$allocator@V?$_Tree_const_iterator@V?$_Tree_val@U?$_Tree_simple_types@U?$pair@$$CBV?$basic_string@_WU?$char_traits@_W@std@@V?$allocator@_W@2@@std@@_N@std@@@std@@@std@@@std@@@2@@std@@IAEXI@Z DD 00H
	DD	00H
	DD	01H
	DD	01H
	DD	FLAT:__catchsym$?_Reallocate@?$vector@V?$_Tree_const_iterator@V?$_Tree_val@U?$_Tree_simple_types@U?$pair@$$CBV?$basic_string@_WU?$char_traits@_W@std@@V?$allocator@_W@2@@std@@_N@std@@@std@@@std@@@std@@V?$allocator@V?$_Tree_const_iterator@V?$_Tree_val@U?$_Tree_simple_types@U?$pair@$$CBV?$basic_string@_WU?$char_traits@_W@std@@V?$allocator@_W@2@@std@@_N@std@@@std@@@std@@@std@@@2@@std@@IAEXI@Z$2
__catchsym$?_Reallocate@?$vector@V?$_Tree_const_iterator@V?$_Tree_val@U?$_Tree_simple_types@U?$pair@$$CBV?$basic_string@_WU?$char_traits@_W@std@@V?$allocator@_W@2@@std@@_N@std@@@std@@@std@@@std@@V?$allocator@V?$_Tree_const_iterator@V?$_Tree_val@U?$_Tree_simple_types@U?$pair@$$CBV?$basic_string@_WU?$char_traits@_W@std@@V?$allocator@_W@2@@std@@_N@std@@@std@@@std@@@std@@@2@@std@@IAEXI@Z$2 DD 00H
	DD	00H
	DD	00H
	DD	FLAT:__catch$?_Reallocate@?$vector@V?$_Tree_const_iterator@V?$_Tree_val@U?$_Tree_simple_types@U?$pair@$$CBV?$basic_string@_WU?$char_traits@_W@std@@V?$allocator@_W@2@@std@@_N@std@@@std@@@std@@@std@@V?$allocator@V?$_Tree_const_iterator@V?$_Tree_val@U?$_Tree_simple_types@U?$pair@$$CBV?$basic_string@_WU?$char_traits@_W@std@@V?$allocator@_W@2@@std@@_N@std@@@std@@@std@@@std@@@2@@std@@IAEXI@Z$0
xdata$x	ENDS
;	COMDAT xdata$x
xdata$x	SEGMENT
__ehfuncinfo$??$_Buynode@PA_W_N@?$_Tree_buy@U?$pair@$$CBV?$basic_string@_WU?$char_traits@_W@std@@V?$allocator@_W@2@@std@@_N@std@@V?$allocator@U?$pair@$$CBV?$basic_string@_WU?$char_traits@_W@std@@V?$allocator@_W@2@@std@@_N@std@@@2@@std@@QAEPAU?$_Tree_node@U?$pair@$$CBV?$basic_string@_WU?$char_traits@_W@std@@V?$allocator@_W@2@@std@@_N@std@@PAX@1@$$QAPA_W$$QA_N@Z DD 019930522H
	DD	02H
	DD	FLAT:__unwindtable$??$_Buynode@PA_W_N@?$_Tree_buy@U?$pair@$$CBV?$basic_string@_WU?$char_traits@_W@std@@V?$allocator@_W@2@@std@@_N@std@@V?$allocator@U?$pair@$$CBV?$basic_string@_WU?$char_traits@_W@std@@V?$allocator@_W@2@@std@@_N@std@@@2@@std@@QAEPAU?$_Tree_node@U?$pair@$$CBV?$basic_string@_WU?$char_traits@_W@std@@V?$allocator@_W@2@@std@@_N@std@@PAX@1@$$QAPA_W$$QA_N@Z
	DD	01H
	DD	FLAT:__tryblocktable$??$_Buynode@PA_W_N@?$_Tree_buy@U?$pair@$$CBV?$basic_string@_WU?$char_traits@_W@std@@V?$allocator@_W@2@@std@@_N@std@@V?$allocator@U?$pair@$$CBV?$basic_string@_WU?$char_traits@_W@std@@V?$allocator@_W@2@@std@@_N@std@@@2@@std@@QAEPAU?$_Tree_node@U?$pair@$$CBV?$basic_string@_WU?$char_traits@_W@std@@V?$allocator@_W@2@@std@@_N@std@@PAX@1@$$QAPA_W$$QA_N@Z
	DD	2 DUP(00H)
	DD	00H
	DD	00H
__unwindtable$??$_Buynode@PA_W_N@?$_Tree_buy@U?$pair@$$CBV?$basic_string@_WU?$char_traits@_W@std@@V?$allocator@_W@2@@std@@_N@std@@V?$allocator@U?$pair@$$CBV?$basic_string@_WU?$char_traits@_W@std@@V?$allocator@_W@2@@std@@_N@std@@@2@@std@@QAEPAU?$_Tree_node@U?$pair@$$CBV?$basic_string@_WU?$char_traits@_W@std@@V?$allocator@_W@2@@std@@_N@std@@PAX@1@$$QAPA_W$$QA_N@Z DD 0ffffffffH
	DD	00H
	DD	0ffffffffH
	DD	00H
__tryblocktable$??$_Buynode@PA_W_N@?$_Tree_buy@U?$pair@$$CBV?$basic_string@_WU?$char_traits@_W@std@@V?$allocator@_W@2@@std@@_N@std@@V?$allocator@U?$pair@$$CBV?$basic_string@_WU?$char_traits@_W@std@@V?$allocator@_W@2@@std@@_N@std@@@2@@std@@QAEPAU?$_Tree_node@U?$pair@$$CBV?$basic_string@_WU?$char_traits@_W@std@@V?$allocator@_W@2@@std@@_N@std@@PAX@1@$$QAPA_W$$QA_N@Z DD 00H
	DD	00H
	DD	01H
	DD	01H
	DD	FLAT:__catchsym$??$_Buynode@PA_W_N@?$_Tree_buy@U?$pair@$$CBV?$basic_string@_WU?$char_traits@_W@std@@V?$allocator@_W@2@@std@@_N@std@@V?$allocator@U?$pair@$$CBV?$basic_string@_WU?$char_traits@_W@std@@V?$allocator@_W@2@@std@@_N@std@@@2@@std@@QAEPAU?$_Tree_node@U?$pair@$$CBV?$basic_string@_WU?$char_traits@_W@std@@V?$allocator@_W@2@@std@@_N@std@@PAX@1@$$QAPA_W$$QA_N@Z$2
__catchsym$??$_Buynode@PA_W_N@?$_Tree_buy@U?$pair@$$CBV?$basic_string@_WU?$char_traits@_W@std@@V?$allocator@_W@2@@std@@_N@std@@V?$allocator@U?$pair@$$CBV?$basic_string@_WU?$char_traits@_W@std@@V?$allocator@_W@2@@std@@_N@std@@@2@@std@@QAEPAU?$_Tree_node@U?$pair@$$CBV?$basic_string@_WU?$char_traits@_W@std@@V?$allocator@_W@2@@std@@_N@std@@PAX@1@$$QAPA_W$$QA_N@Z$2 DD 00H
	DD	00H
	DD	00H
	DD	FLAT:__catch$??$_Buynode@PA_W_N@?$_Tree_buy@U?$pair@$$CBV?$basic_string@_WU?$char_traits@_W@std@@V?$allocator@_W@2@@std@@_N@std@@V?$allocator@U?$pair@$$CBV?$basic_string@_WU?$char_traits@_W@std@@V?$allocator@_W@2@@std@@_N@std@@@2@@std@@QAEPAU?$_Tree_node@U?$pair@$$CBV?$basic_string@_WU?$char_traits@_W@std@@V?$allocator@_W@2@@std@@_N@std@@PAX@1@$$QAPA_W$$QA_N@Z$0
xdata$x	ENDS
;	COMDAT xdata$x
xdata$x	SEGMENT
__ehfuncinfo$??$_Insert_nohint@AAU?$pair@$$CBV?$basic_string@_WU?$char_traits@_W@std@@V?$allocator@_W@2@@std@@_N@std@@PAU?$_Tree_node@U?$pair@$$CBV?$basic_string@_WU?$char_traits@_W@std@@V?$allocator@_W@2@@std@@_N@std@@PAX@2@@?$_Tree@V?$_Tmap_traits@V?$basic_string@_WU?$char_traits@_W@std@@V?$allocator@_W@2@@std@@_NU?$less@V?$basic_string@_WU?$char_traits@_W@std@@V?$allocator@_W@2@@std@@@2@V?$allocator@U?$pair@$$CBV?$basic_string@_WU?$char_traits@_W@std@@V?$allocator@_W@2@@std@@_N@std@@@2@$0A@@std@@@std@@IAE?AU?$pair@V?$_Tree_iterator@V?$_Tree_val@U?$_Tree_simple_types@U?$pair@$$CBV?$basic_string@_WU?$char_traits@_W@std@@V?$allocator@_W@2@@std@@_N@std@@@std@@@std@@@std@@_N@1@_NAAU?$pair@$$CBV?$basic_string@_WU?$char_traits@_W@std@@V?$allocator@_W@2@@std@@_N@1@PAU?$_Tree_node@U?$pair@$$CBV?$basic_string@_WU?$char_traits@_W@std@@V?$allocator@_W@2@@std@@_N@std@@PAX@1@@Z DD 019930522H
	DD	02H
	DD	FLAT:__unwindtable$??$_Insert_nohint@AAU?$pair@$$CBV?$basic_string@_WU?$char_traits@_W@std@@V?$allocator@_W@2@@std@@_N@std@@PAU?$_Tree_node@U?$pair@$$CBV?$basic_string@_WU?$char_traits@_W@std@@V?$allocator@_W@2@@std@@_N@std@@PAX@2@@?$_Tree@V?$_Tmap_traits@V?$basic_string@_WU?$char_traits@_W@std@@V?$allocator@_W@2@@std@@_NU?$less@V?$basic_string@_WU?$char_traits@_W@std@@V?$allocator@_W@2@@std@@@2@V?$allocator@U?$pair@$$CBV?$basic_string@_WU?$char_traits@_W@std@@V?$allocator@_W@2@@std@@_N@std@@@2@$0A@@std@@@std@@IAE?AU?$pair@V?$_Tree_iterator@V?$_Tree_val@U?$_Tree_simple_types@U?$pair@$$CBV?$basic_string@_WU?$char_traits@_W@std@@V?$allocator@_W@2@@std@@_N@std@@@std@@@std@@@std@@_N@1@_NAAU?$pair@$$CBV?$basic_string@_WU?$char_traits@_W@std@@V?$allocator@_W@2@@std@@_N@1@PAU?$_Tree_node@U?$pair@$$CBV?$basic_string@_WU?$char_traits@_W@std@@V?$allocator@_W@2@@std@@_N@std@@PAX@1@@Z
	DD	01H
	DD	FLAT:__tryblocktable$??$_Insert_nohint@AAU?$pair@$$CBV?$basic_string@_WU?$char_traits@_W@std@@V?$allocator@_W@2@@std@@_N@std@@PAU?$_Tree_node@U?$pair@$$CBV?$basic_string@_WU?$char_traits@_W@std@@V?$allocator@_W@2@@std@@_N@std@@PAX@2@@?$_Tree@V?$_Tmap_traits@V?$basic_string@_WU?$char_traits@_W@std@@V?$allocator@_W@2@@std@@_NU?$less@V?$basic_string@_WU?$char_traits@_W@std@@V?$allocator@_W@2@@std@@@2@V?$allocator@U?$pair@$$CBV?$basic_string@_WU?$char_traits@_W@std@@V?$allocator@_W@2@@std@@_N@std@@@2@$0A@@std@@@std@@IAE?AU?$pair@V?$_Tree_iterator@V?$_Tree_val@U?$_Tree_simple_types@U?$pair@$$CBV?$basic_string@_WU?$char_traits@_W@std@@V?$allocator@_W@2@@std@@_N@std@@@std@@@std@@@std@@_N@1@_NAAU?$pair@$$CBV?$basic_string@_WU?$char_traits@_W@std@@V?$allocator@_W@2@@std@@_N@1@PAU?$_Tree_node@U?$pair@$$CBV?$basic_string@_WU?$char_traits@_W@std@@V?$allocator@_W@2@@std@@_N@std@@PAX@1@@Z
	DD	2 DUP(00H)
	DD	00H
	DD	00H
__unwindtable$??$_Insert_nohint@AAU?$pair@$$CBV?$basic_string@_WU?$char_traits@_W@std@@V?$allocator@_W@2@@std@@_N@std@@PAU?$_Tree_node@U?$pair@$$CBV?$basic_string@_WU?$char_traits@_W@std@@V?$allocator@_W@2@@std@@_N@std@@PAX@2@@?$_Tree@V?$_Tmap_traits@V?$basic_string@_WU?$char_traits@_W@std@@V?$allocator@_W@2@@std@@_NU?$less@V?$basic_string@_WU?$char_traits@_W@std@@V?$allocator@_W@2@@std@@@2@V?$allocator@U?$pair@$$CBV?$basic_string@_WU?$char_traits@_W@std@@V?$allocator@_W@2@@std@@_N@std@@@2@$0A@@std@@@std@@IAE?AU?$pair@V?$_Tree_iterator@V?$_Tree_val@U?$_Tree_simple_types@U?$pair@$$CBV?$basic_string@_WU?$char_traits@_W@std@@V?$allocator@_W@2@@std@@_N@std@@@std@@@std@@@std@@_N@1@_NAAU?$pair@$$CBV?$basic_string@_WU?$char_traits@_W@std@@V?$allocator@_W@2@@std@@_N@1@PAU?$_Tree_node@U?$pair@$$CBV?$basic_string@_WU?$char_traits@_W@std@@V?$allocator@_W@2@@std@@_N@std@@PAX@1@@Z DD 0ffffffffH
	DD	00H
	DD	0ffffffffH
	DD	00H
__tryblocktable$??$_Insert_nohint@AAU?$pair@$$CBV?$basic_string@_WU?$char_traits@_W@std@@V?$allocator@_W@2@@std@@_N@std@@PAU?$_Tree_node@U?$pair@$$CBV?$basic_string@_WU?$char_traits@_W@std@@V?$allocator@_W@2@@std@@_N@std@@PAX@2@@?$_Tree@V?$_Tmap_traits@V?$basic_string@_WU?$char_traits@_W@std@@V?$allocator@_W@2@@std@@_NU?$less@V?$basic_string@_WU?$char_traits@_W@std@@V?$allocator@_W@2@@std@@@2@V?$allocator@U?$pair@$$CBV?$basic_string@_WU?$char_traits@_W@std@@V?$allocator@_W@2@@std@@_N@std@@@2@$0A@@std@@@std@@IAE?AU?$pair@V?$_Tree_iterator@V?$_Tree_val@U?$_Tree_simple_types@U?$pair@$$CBV?$basic_string@_WU?$char_traits@_W@std@@V?$allocator@_W@2@@std@@_N@std@@@std@@@std@@@std@@_N@1@_NAAU?$pair@$$CBV?$basic_string@_WU?$char_traits@_W@std@@V?$allocator@_W@2@@std@@_N@1@PAU?$_Tree_node@U?$pair@$$CBV?$basic_string@_WU?$char_traits@_W@std@@V?$allocator@_W@2@@std@@_N@std@@PAX@1@@Z DD 00H
	DD	00H
	DD	01H
	DD	01H
	DD	FLAT:__catchsym$??$_Insert_nohint@AAU?$pair@$$CBV?$basic_string@_WU?$char_traits@_W@std@@V?$allocator@_W@2@@std@@_N@std@@PAU?$_Tree_node@U?$pair@$$CBV?$basic_string@_WU?$char_traits@_W@std@@V?$allocator@_W@2@@std@@_N@std@@PAX@2@@?$_Tree@V?$_Tmap_traits@V?$basic_string@_WU?$char_traits@_W@std@@V?$allocator@_W@2@@std@@_NU?$less@V?$basic_string@_WU?$char_traits@_W@std@@V?$allocator@_W@2@@std@@@2@V?$allocator@U?$pair@$$CBV?$basic_string@_WU?$char_traits@_W@std@@V?$allocator@_W@2@@std@@_N@std@@@2@$0A@@std@@@std@@IAE?AU?$pair@V?$_Tree_iterator@V?$_Tree_val@U?$_Tree_simple_types@U?$pair@$$CBV?$basic_string@_WU?$char_traits@_W@std@@V?$allocator@_W@2@@std@@_N@std@@@std@@@std@@@std@@_N@1@_NAAU?$pair@$$CBV?$basic_string@_WU?$char_traits@_W@std@@V?$allocator@_W@2@@std@@_N@1@PAU?$_Tree_node@U?$pair@$$CBV?$basic_string@_WU?$char_traits@_W@std@@V?$allocator@_W@2@@std@@_N@std@@PAX@1@@Z$2
__catchsym$??$_Insert_nohint@AAU?$pair@$$CBV?$basic_string@_WU?$char_traits@_W@std@@V?$allocator@_W@2@@std@@_N@std@@PAU?$_Tree_node@U?$pair@$$CBV?$basic_string@_WU?$char_traits@_W@std@@V?$allocator@_W@2@@std@@_N@std@@PAX@2@@?$_Tree@V?$_Tmap_traits@V?$basic_string@_WU?$char_traits@_W@std@@V?$allocator@_W@2@@std@@_NU?$less@V?$basic_string@_WU?$char_traits@_W@std@@V?$allocator@_W@2@@std@@@2@V?$allocator@U?$pair@$$CBV?$basic_string@_WU?$char_traits@_W@std@@V?$allocator@_W@2@@std@@_N@std@@@2@$0A@@std@@@std@@IAE?AU?$pair@V?$_Tree_iterator@V?$_Tree_val@U?$_Tree_simple_types@U?$pair@$$CBV?$basic_string@_WU?$char_traits@_W@std@@V?$allocator@_W@2@@std@@_N@std@@@std@@@std@@@std@@_N@1@_NAAU?$pair@$$CBV?$basic_string@_WU?$char_traits@_W@std@@V?$allocator@_W@2@@std@@_N@1@PAU?$_Tree_node@U?$pair@$$CBV?$basic_string@_WU?$char_traits@_W@std@@V?$allocator@_W@2@@std@@_N@std@@PAX@1@@Z$2 DD 00H
	DD	00H
	DD	00H
	DD	FLAT:__catch$??$_Insert_nohint@AAU?$pair@$$CBV?$basic_string@_WU?$char_traits@_W@std@@V?$allocator@_W@2@@std@@_N@std@@PAU?$_Tree_node@U?$pair@$$CBV?$basic_string@_WU?$char_traits@_W@std@@V?$allocator@_W@2@@std@@_N@std@@PAX@2@@?$_Tree@V?$_Tmap_traits@V?$basic_string@_WU?$char_traits@_W@std@@V?$allocator@_W@2@@std@@_NU?$less@V?$basic_string@_WU?$char_traits@_W@std@@V?$allocator@_W@2@@std@@@2@V?$allocator@U?$pair@$$CBV?$basic_string@_WU?$char_traits@_W@std@@V?$allocator@_W@2@@std@@_N@std@@@2@$0A@@std@@@std@@IAE?AU?$pair@V?$_Tree_iterator@V?$_Tree_val@U?$_Tree_simple_types@U?$pair@$$CBV?$basic_string@_WU?$char_traits@_W@std@@V?$allocator@_W@2@@std@@_N@std@@@std@@@std@@@std@@_N@1@_NAAU?$pair@$$CBV?$basic_string@_WU?$char_traits@_W@std@@V?$allocator@_W@2@@std@@_N@1@PAU?$_Tree_node@U?$pair@$$CBV?$basic_string@_WU?$char_traits@_W@std@@V?$allocator@_W@2@@std@@_N@std@@PAX@1@@Z$0
xdata$x	ENDS
;	COMDAT xdata$x
xdata$x	SEGMENT
__ehfuncinfo$??$_Buynode@ABUpiecewise_construct_t@std@@V?$tuple@ABV?$basic_string@_WU?$char_traits@_W@std@@V?$allocator@_W@2@@std@@@2@V?$tuple@$$$V@2@@?$_Tree_buy@U?$pair@$$CBV?$basic_string@_WU?$char_traits@_W@std@@V?$allocator@_W@2@@std@@_N@std@@V?$allocator@U?$pair@$$CBV?$basic_string@_WU?$char_traits@_W@std@@V?$allocator@_W@2@@std@@_N@std@@@2@@std@@QAEPAU?$_Tree_node@U?$pair@$$CBV?$basic_string@_WU?$char_traits@_W@std@@V?$allocator@_W@2@@std@@_N@std@@PAX@1@ABUpiecewise_construct_t@1@$$QAV?$tuple@ABV?$basic_string@_WU?$char_traits@_W@std@@V?$allocator@_W@2@@std@@@1@$$QAV?$tuple@$$$V@1@@Z DD 019930522H
	DD	02H
	DD	FLAT:__unwindtable$??$_Buynode@ABUpiecewise_construct_t@std@@V?$tuple@ABV?$basic_string@_WU?$char_traits@_W@std@@V?$allocator@_W@2@@std@@@2@V?$tuple@$$$V@2@@?$_Tree_buy@U?$pair@$$CBV?$basic_string@_WU?$char_traits@_W@std@@V?$allocator@_W@2@@std@@_N@std@@V?$allocator@U?$pair@$$CBV?$basic_string@_WU?$char_traits@_W@std@@V?$allocator@_W@2@@std@@_N@std@@@2@@std@@QAEPAU?$_Tree_node@U?$pair@$$CBV?$basic_string@_WU?$char_traits@_W@std@@V?$allocator@_W@2@@std@@_N@std@@PAX@1@ABUpiecewise_construct_t@1@$$QAV?$tuple@ABV?$basic_string@_WU?$char_traits@_W@std@@V?$allocator@_W@2@@std@@@1@$$QAV?$tuple@$$$V@1@@Z
	DD	01H
	DD	FLAT:__tryblocktable$??$_Buynode@ABUpiecewise_construct_t@std@@V?$tuple@ABV?$basic_string@_WU?$char_traits@_W@std@@V?$allocator@_W@2@@std@@@2@V?$tuple@$$$V@2@@?$_Tree_buy@U?$pair@$$CBV?$basic_string@_WU?$char_traits@_W@std@@V?$allocator@_W@2@@std@@_N@std@@V?$allocator@U?$pair@$$CBV?$basic_string@_WU?$char_traits@_W@std@@V?$allocator@_W@2@@std@@_N@std@@@2@@std@@QAEPAU?$_Tree_node@U?$pair@$$CBV?$basic_string@_WU?$char_traits@_W@std@@V?$allocator@_W@2@@std@@_N@std@@PAX@1@ABUpiecewise_construct_t@1@$$QAV?$tuple@ABV?$basic_string@_WU?$char_traits@_W@std@@V?$allocator@_W@2@@std@@@1@$$QAV?$tuple@$$$V@1@@Z
	DD	2 DUP(00H)
	DD	00H
	DD	00H
__unwindtable$??$_Buynode@ABUpiecewise_construct_t@std@@V?$tuple@ABV?$basic_string@_WU?$char_traits@_W@std@@V?$allocator@_W@2@@std@@@2@V?$tuple@$$$V@2@@?$_Tree_buy@U?$pair@$$CBV?$basic_string@_WU?$char_traits@_W@std@@V?$allocator@_W@2@@std@@_N@std@@V?$allocator@U?$pair@$$CBV?$basic_string@_WU?$char_traits@_W@std@@V?$allocator@_W@2@@std@@_N@std@@@2@@std@@QAEPAU?$_Tree_node@U?$pair@$$CBV?$basic_string@_WU?$char_traits@_W@std@@V?$allocator@_W@2@@std@@_N@std@@PAX@1@ABUpiecewise_construct_t@1@$$QAV?$tuple@ABV?$basic_string@_WU?$char_traits@_W@std@@V?$allocator@_W@2@@std@@@1@$$QAV?$tuple@$$$V@1@@Z DD 0ffffffffH
	DD	00H
	DD	0ffffffffH
	DD	00H
__tryblocktable$??$_Buynode@ABUpiecewise_construct_t@std@@V?$tuple@ABV?$basic_string@_WU?$char_traits@_W@std@@V?$allocator@_W@2@@std@@@2@V?$tuple@$$$V@2@@?$_Tree_buy@U?$pair@$$CBV?$basic_string@_WU?$char_traits@_W@std@@V?$allocator@_W@2@@std@@_N@std@@V?$allocator@U?$pair@$$CBV?$basic_string@_WU?$char_traits@_W@std@@V?$allocator@_W@2@@std@@_N@std@@@2@@std@@QAEPAU?$_Tree_node@U?$pair@$$CBV?$basic_string@_WU?$char_traits@_W@std@@V?$allocator@_W@2@@std@@_N@std@@PAX@1@ABUpiecewise_construct_t@1@$$QAV?$tuple@ABV?$basic_string@_WU?$char_traits@_W@std@@V?$allocator@_W@2@@std@@@1@$$QAV?$tuple@$$$V@1@@Z DD 00H
	DD	00H
	DD	01H
	DD	01H
	DD	FLAT:__catchsym$??$_Buynode@ABUpiecewise_construct_t@std@@V?$tuple@ABV?$basic_string@_WU?$char_traits@_W@std@@V?$allocator@_W@2@@std@@@2@V?$tuple@$$$V@2@@?$_Tree_buy@U?$pair@$$CBV?$basic_string@_WU?$char_traits@_W@std@@V?$allocator@_W@2@@std@@_N@std@@V?$allocator@U?$pair@$$CBV?$basic_string@_WU?$char_traits@_W@std@@V?$allocator@_W@2@@std@@_N@std@@@2@@std@@QAEPAU?$_Tree_node@U?$pair@$$CBV?$basic_string@_WU?$char_traits@_W@std@@V?$allocator@_W@2@@std@@_N@std@@PAX@1@ABUpiecewise_construct_t@1@$$QAV?$tuple@ABV?$basic_string@_WU?$char_traits@_W@std@@V?$allocator@_W@2@@std@@@1@$$QAV?$tuple@$$$V@1@@Z$2
__catchsym$??$_Buynode@ABUpiecewise_construct_t@std@@V?$tuple@ABV?$basic_string@_WU?$char_traits@_W@std@@V?$allocator@_W@2@@std@@@2@V?$tuple@$$$V@2@@?$_Tree_buy@U?$pair@$$CBV?$basic_string@_WU?$char_traits@_W@std@@V?$allocator@_W@2@@std@@_N@std@@V?$allocator@U?$pair@$$CBV?$basic_string@_WU?$char_traits@_W@std@@V?$allocator@_W@2@@std@@_N@std@@@2@@std@@QAEPAU?$_Tree_node@U?$pair@$$CBV?$basic_string@_WU?$char_traits@_W@std@@V?$allocator@_W@2@@std@@_N@std@@PAX@1@ABUpiecewise_construct_t@1@$$QAV?$tuple@ABV?$basic_string@_WU?$char_traits@_W@std@@V?$allocator@_W@2@@std@@@1@$$QAV?$tuple@$$$V@1@@Z$2 DD 00H
	DD	00H
	DD	00H
	DD	FLAT:__catch$??$_Buynode@ABUpiecewise_construct_t@std@@V?$tuple@ABV?$basic_string@_WU?$char_traits@_W@std@@V?$allocator@_W@2@@std@@@2@V?$tuple@$$$V@2@@?$_Tree_buy@U?$pair@$$CBV?$basic_string@_WU?$char_traits@_W@std@@V?$allocator@_W@2@@std@@_N@std@@V?$allocator@U?$pair@$$CBV?$basic_string@_WU?$char_traits@_W@std@@V?$allocator@_W@2@@std@@_N@std@@@2@@std@@QAEPAU?$_Tree_node@U?$pair@$$CBV?$basic_string@_WU?$char_traits@_W@std@@V?$allocator@_W@2@@std@@_N@std@@PAX@1@ABUpiecewise_construct_t@1@$$QAV?$tuple@ABV?$basic_string@_WU?$char_traits@_W@std@@V?$allocator@_W@2@@std@@@1@$$QAV?$tuple@$$$V@1@@Z$0
xdata$x	ENDS
;	COMDAT xdata$x
xdata$x	SEGMENT
__ehfuncinfo$??$_Insert_hint@AAU?$pair@$$CBV?$basic_string@_WU?$char_traits@_W@std@@V?$allocator@_W@2@@std@@_N@std@@PAU?$_Tree_node@U?$pair@$$CBV?$basic_string@_WU?$char_traits@_W@std@@V?$allocator@_W@2@@std@@_N@std@@PAX@2@@?$_Tree@V?$_Tmap_traits@V?$basic_string@_WU?$char_traits@_W@std@@V?$allocator@_W@2@@std@@_NU?$less@V?$basic_string@_WU?$char_traits@_W@std@@V?$allocator@_W@2@@std@@@2@V?$allocator@U?$pair@$$CBV?$basic_string@_WU?$char_traits@_W@std@@V?$allocator@_W@2@@std@@_N@std@@@2@$0A@@std@@@std@@IAE?AV?$_Tree_iterator@V?$_Tree_val@U?$_Tree_simple_types@U?$pair@$$CBV?$basic_string@_WU?$char_traits@_W@std@@V?$allocator@_W@2@@std@@_N@std@@@std@@@std@@@1@V?$_Tree_const_iterator@V?$_Tree_val@U?$_Tree_simple_types@U?$pair@$$CBV?$basic_string@_WU?$char_traits@_W@std@@V?$allocator@_W@2@@std@@_N@std@@@std@@@std@@@1@AAU?$pair@$$CBV?$basic_string@_WU?$char_traits@_W@std@@V?$allocator@_W@2@@std@@_N@1@PAU?$_Tree_node@U?$pair@$$CBV?$basic_string@_WU?$char_traits@_W@std@@V?$allocator@_W@2@@std@@_N@std@@PAX@1@@Z DD 019930522H
	DD	02H
	DD	FLAT:__unwindtable$??$_Insert_hint@AAU?$pair@$$CBV?$basic_string@_WU?$char_traits@_W@std@@V?$allocator@_W@2@@std@@_N@std@@PAU?$_Tree_node@U?$pair@$$CBV?$basic_string@_WU?$char_traits@_W@std@@V?$allocator@_W@2@@std@@_N@std@@PAX@2@@?$_Tree@V?$_Tmap_traits@V?$basic_string@_WU?$char_traits@_W@std@@V?$allocator@_W@2@@std@@_NU?$less@V?$basic_string@_WU?$char_traits@_W@std@@V?$allocator@_W@2@@std@@@2@V?$allocator@U?$pair@$$CBV?$basic_string@_WU?$char_traits@_W@std@@V?$allocator@_W@2@@std@@_N@std@@@2@$0A@@std@@@std@@IAE?AV?$_Tree_iterator@V?$_Tree_val@U?$_Tree_simple_types@U?$pair@$$CBV?$basic_string@_WU?$char_traits@_W@std@@V?$allocator@_W@2@@std@@_N@std@@@std@@@std@@@1@V?$_Tree_const_iterator@V?$_Tree_val@U?$_Tree_simple_types@U?$pair@$$CBV?$basic_string@_WU?$char_traits@_W@std@@V?$allocator@_W@2@@std@@_N@std@@@std@@@std@@@1@AAU?$pair@$$CBV?$basic_string@_WU?$char_traits@_W@std@@V?$allocator@_W@2@@std@@_N@1@PAU?$_Tree_node@U?$pair@$$CBV?$basic_string@_WU?$char_traits@_W@std@@V?$allocator@_W@2@@std@@_N@std@@PAX@1@@Z
	DD	01H
	DD	FLAT:__tryblocktable$??$_Insert_hint@AAU?$pair@$$CBV?$basic_string@_WU?$char_traits@_W@std@@V?$allocator@_W@2@@std@@_N@std@@PAU?$_Tree_node@U?$pair@$$CBV?$basic_string@_WU?$char_traits@_W@std@@V?$allocator@_W@2@@std@@_N@std@@PAX@2@@?$_Tree@V?$_Tmap_traits@V?$basic_string@_WU?$char_traits@_W@std@@V?$allocator@_W@2@@std@@_NU?$less@V?$basic_string@_WU?$char_traits@_W@std@@V?$allocator@_W@2@@std@@@2@V?$allocator@U?$pair@$$CBV?$basic_string@_WU?$char_traits@_W@std@@V?$allocator@_W@2@@std@@_N@std@@@2@$0A@@std@@@std@@IAE?AV?$_Tree_iterator@V?$_Tree_val@U?$_Tree_simple_types@U?$pair@$$CBV?$basic_string@_WU?$char_traits@_W@std@@V?$allocator@_W@2@@std@@_N@std@@@std@@@std@@@1@V?$_Tree_const_iterator@V?$_Tree_val@U?$_Tree_simple_types@U?$pair@$$CBV?$basic_string@_WU?$char_traits@_W@std@@V?$allocator@_W@2@@std@@_N@std@@@std@@@std@@@1@AAU?$pair@$$CBV?$basic_string@_WU?$char_traits@_W@std@@V?$allocator@_W@2@@std@@_N@1@PAU?$_Tree_node@U?$pair@$$CBV?$basic_string@_WU?$char_traits@_W@std@@V?$allocator@_W@2@@std@@_N@std@@PAX@1@@Z
	DD	2 DUP(00H)
	DD	00H
	DD	00H
__unwindtable$??$_Insert_hint@AAU?$pair@$$CBV?$basic_string@_WU?$char_traits@_W@std@@V?$allocator@_W@2@@std@@_N@std@@PAU?$_Tree_node@U?$pair@$$CBV?$basic_string@_WU?$char_traits@_W@std@@V?$allocator@_W@2@@std@@_N@std@@PAX@2@@?$_Tree@V?$_Tmap_traits@V?$basic_string@_WU?$char_traits@_W@std@@V?$allocator@_W@2@@std@@_NU?$less@V?$basic_string@_WU?$char_traits@_W@std@@V?$allocator@_W@2@@std@@@2@V?$allocator@U?$pair@$$CBV?$basic_string@_WU?$char_traits@_W@std@@V?$allocator@_W@2@@std@@_N@std@@@2@$0A@@std@@@std@@IAE?AV?$_Tree_iterator@V?$_Tree_val@U?$_Tree_simple_types@U?$pair@$$CBV?$basic_string@_WU?$char_traits@_W@std@@V?$allocator@_W@2@@std@@_N@std@@@std@@@std@@@1@V?$_Tree_const_iterator@V?$_Tree_val@U?$_Tree_simple_types@U?$pair@$$CBV?$basic_string@_WU?$char_traits@_W@std@@V?$allocator@_W@2@@std@@_N@std@@@std@@@std@@@1@AAU?$pair@$$CBV?$basic_string@_WU?$char_traits@_W@std@@V?$allocator@_W@2@@std@@_N@1@PAU?$_Tree_node@U?$pair@$$CBV?$basic_string@_WU?$char_traits@_W@std@@V?$allocator@_W@2@@std@@_N@std@@PAX@1@@Z DD 0ffffffffH
	DD	00H
	DD	0ffffffffH
	DD	00H
__tryblocktable$??$_Insert_hint@AAU?$pair@$$CBV?$basic_string@_WU?$char_traits@_W@std@@V?$allocator@_W@2@@std@@_N@std@@PAU?$_Tree_node@U?$pair@$$CBV?$basic_string@_WU?$char_traits@_W@std@@V?$allocator@_W@2@@std@@_N@std@@PAX@2@@?$_Tree@V?$_Tmap_traits@V?$basic_string@_WU?$char_traits@_W@std@@V?$allocator@_W@2@@std@@_NU?$less@V?$basic_string@_WU?$char_traits@_W@std@@V?$allocator@_W@2@@std@@@2@V?$allocator@U?$pair@$$CBV?$basic_string@_WU?$char_traits@_W@std@@V?$allocator@_W@2@@std@@_N@std@@@2@$0A@@std@@@std@@IAE?AV?$_Tree_iterator@V?$_Tree_val@U?$_Tree_simple_types@U?$pair@$$CBV?$basic_string@_WU?$char_traits@_W@std@@V?$allocator@_W@2@@std@@_N@std@@@std@@@std@@@1@V?$_Tree_const_iterator@V?$_Tree_val@U?$_Tree_simple_types@U?$pair@$$CBV?$basic_string@_WU?$char_traits@_W@std@@V?$allocator@_W@2@@std@@_N@std@@@std@@@std@@@1@AAU?$pair@$$CBV?$basic_string@_WU?$char_traits@_W@std@@V?$allocator@_W@2@@std@@_N@1@PAU?$_Tree_node@U?$pair@$$CBV?$basic_string@_WU?$char_traits@_W@std@@V?$allocator@_W@2@@std@@_N@std@@PAX@1@@Z DD 00H
	DD	00H
	DD	01H
	DD	01H
	DD	FLAT:__catchsym$??$_Insert_hint@AAU?$pair@$$CBV?$basic_string@_WU?$char_traits@_W@std@@V?$allocator@_W@2@@std@@_N@std@@PAU?$_Tree_node@U?$pair@$$CBV?$basic_string@_WU?$char_traits@_W@std@@V?$allocator@_W@2@@std@@_N@std@@PAX@2@@?$_Tree@V?$_Tmap_traits@V?$basic_string@_WU?$char_traits@_W@std@@V?$allocator@_W@2@@std@@_NU?$less@V?$basic_string@_WU?$char_traits@_W@std@@V?$allocator@_W@2@@std@@@2@V?$allocator@U?$pair@$$CBV?$basic_string@_WU?$char_traits@_W@std@@V?$allocator@_W@2@@std@@_N@std@@@2@$0A@@std@@@std@@IAE?AV?$_Tree_iterator@V?$_Tree_val@U?$_Tree_simple_types@U?$pair@$$CBV?$basic_string@_WU?$char_traits@_W@std@@V?$allocator@_W@2@@std@@_N@std@@@std@@@std@@@1@V?$_Tree_const_iterator@V?$_Tree_val@U?$_Tree_simple_types@U?$pair@$$CBV?$basic_string@_WU?$char_traits@_W@std@@V?$allocator@_W@2@@std@@_N@std@@@std@@@std@@@1@AAU?$pair@$$CBV?$basic_string@_WU?$char_traits@_W@std@@V?$allocator@_W@2@@std@@_N@1@PAU?$_Tree_node@U?$pair@$$CBV?$basic_string@_WU?$char_traits@_W@std@@V?$allocator@_W@2@@std@@_N@std@@PAX@1@@Z$2
__catchsym$??$_Insert_hint@AAU?$pair@$$CBV?$basic_string@_WU?$char_traits@_W@std@@V?$allocator@_W@2@@std@@_N@std@@PAU?$_Tree_node@U?$pair@$$CBV?$basic_string@_WU?$char_traits@_W@std@@V?$allocator@_W@2@@std@@_N@std@@PAX@2@@?$_Tree@V?$_Tmap_traits@V?$basic_string@_WU?$char_traits@_W@std@@V?$allocator@_W@2@@std@@_NU?$less@V?$basic_string@_WU?$char_traits@_W@std@@V?$allocator@_W@2@@std@@@2@V?$allocator@U?$pair@$$CBV?$basic_string@_WU?$char_traits@_W@std@@V?$allocator@_W@2@@std@@_N@std@@@2@$0A@@std@@@std@@IAE?AV?$_Tree_iterator@V?$_Tree_val@U?$_Tree_simple_types@U?$pair@$$CBV?$basic_string@_WU?$char_traits@_W@std@@V?$allocator@_W@2@@std@@_N@std@@@std@@@std@@@1@V?$_Tree_const_iterator@V?$_Tree_val@U?$_Tree_simple_types@U?$pair@$$CBV?$basic_string@_WU?$char_traits@_W@std@@V?$allocator@_W@2@@std@@_N@std@@@std@@@std@@@1@AAU?$pair@$$CBV?$basic_string@_WU?$char_traits@_W@std@@V?$allocator@_W@2@@std@@_N@1@PAU?$_Tree_node@U?$pair@$$CBV?$basic_string@_WU?$char_traits@_W@std@@V?$allocator@_W@2@@std@@_N@std@@PAX@1@@Z$2 DD 00H
	DD	00H
	DD	00H
	DD	FLAT:__catch$??$_Insert_hint@AAU?$pair@$$CBV?$basic_string@_WU?$char_traits@_W@std@@V?$allocator@_W@2@@std@@_N@std@@PAU?$_Tree_node@U?$pair@$$CBV?$basic_string@_WU?$char_traits@_W@std@@V?$allocator@_W@2@@std@@_N@std@@PAX@2@@?$_Tree@V?$_Tmap_traits@V?$basic_string@_WU?$char_traits@_W@std@@V?$allocator@_W@2@@std@@_NU?$less@V?$basic_string@_WU?$char_traits@_W@std@@V?$allocator@_W@2@@std@@@2@V?$allocator@U?$pair@$$CBV?$basic_string@_WU?$char_traits@_W@std@@V?$allocator@_W@2@@std@@_N@std@@@2@$0A@@std@@@std@@IAE?AV?$_Tree_iterator@V?$_Tree_val@U?$_Tree_simple_types@U?$pair@$$CBV?$basic_string@_WU?$char_traits@_W@std@@V?$allocator@_W@2@@std@@_N@std@@@std@@@std@@@1@V?$_Tree_const_iterator@V?$_Tree_val@U?$_Tree_simple_types@U?$pair@$$CBV?$basic_string@_WU?$char_traits@_W@std@@V?$allocator@_W@2@@std@@_N@std@@@std@@@std@@@1@AAU?$pair@$$CBV?$basic_string@_WU?$char_traits@_W@std@@V?$allocator@_W@2@@std@@_N@1@PAU?$_Tree_node@U?$pair@$$CBV?$basic_string@_WU?$char_traits@_W@std@@V?$allocator@_W@2@@std@@_N@std@@PAX@1@@Z$0
xdata$x	ENDS
;	COMDAT xdata$x
xdata$x	SEGMENT
__ehfuncinfo$?_Buynode0@?$_Tree_buy@U?$pair@$$CBV?$basic_string@_WU?$char_traits@_W@std@@V?$allocator@_W@2@@std@@_N@std@@V?$allocator@U?$pair@$$CBV?$basic_string@_WU?$char_traits@_W@std@@V?$allocator@_W@2@@std@@_N@std@@@2@@std@@QAEPAU?$_Tree_node@U?$pair@$$CBV?$basic_string@_WU?$char_traits@_W@std@@V?$allocator@_W@2@@std@@_N@std@@PAX@2@XZ DD 019930522H
	DD	02H
	DD	FLAT:__unwindtable$?_Buynode0@?$_Tree_buy@U?$pair@$$CBV?$basic_string@_WU?$char_traits@_W@std@@V?$allocator@_W@2@@std@@_N@std@@V?$allocator@U?$pair@$$CBV?$basic_string@_WU?$char_traits@_W@std@@V?$allocator@_W@2@@std@@_N@std@@@2@@std@@QAEPAU?$_Tree_node@U?$pair@$$CBV?$basic_string@_WU?$char_traits@_W@std@@V?$allocator@_W@2@@std@@_N@std@@PAX@2@XZ
	DD	01H
	DD	FLAT:__tryblocktable$?_Buynode0@?$_Tree_buy@U?$pair@$$CBV?$basic_string@_WU?$char_traits@_W@std@@V?$allocator@_W@2@@std@@_N@std@@V?$allocator@U?$pair@$$CBV?$basic_string@_WU?$char_traits@_W@std@@V?$allocator@_W@2@@std@@_N@std@@@2@@std@@QAEPAU?$_Tree_node@U?$pair@$$CBV?$basic_string@_WU?$char_traits@_W@std@@V?$allocator@_W@2@@std@@_N@std@@PAX@2@XZ
	DD	2 DUP(00H)
	DD	00H
	DD	00H
__unwindtable$?_Buynode0@?$_Tree_buy@U?$pair@$$CBV?$basic_string@_WU?$char_traits@_W@std@@V?$allocator@_W@2@@std@@_N@std@@V?$allocator@U?$pair@$$CBV?$basic_string@_WU?$char_traits@_W@std@@V?$allocator@_W@2@@std@@_N@std@@@2@@std@@QAEPAU?$_Tree_node@U?$pair@$$CBV?$basic_string@_WU?$char_traits@_W@std@@V?$allocator@_W@2@@std@@_N@std@@PAX@2@XZ DD 0ffffffffH
	DD	00H
	DD	0ffffffffH
	DD	00H
__tryblocktable$?_Buynode0@?$_Tree_buy@U?$pair@$$CBV?$basic_string@_WU?$char_traits@_W@std@@V?$allocator@_W@2@@std@@_N@std@@V?$allocator@U?$pair@$$CBV?$basic_string@_WU?$char_traits@_W@std@@V?$allocator@_W@2@@std@@_N@std@@@2@@std@@QAEPAU?$_Tree_node@U?$pair@$$CBV?$basic_string@_WU?$char_traits@_W@std@@V?$allocator@_W@2@@std@@_N@std@@PAX@2@XZ DD 00H
	DD	00H
	DD	01H
	DD	01H
	DD	FLAT:__catchsym$?_Buynode0@?$_Tree_buy@U?$pair@$$CBV?$basic_string@_WU?$char_traits@_W@std@@V?$allocator@_W@2@@std@@_N@std@@V?$allocator@U?$pair@$$CBV?$basic_string@_WU?$char_traits@_W@std@@V?$allocator@_W@2@@std@@_N@std@@@2@@std@@QAEPAU?$_Tree_node@U?$pair@$$CBV?$basic_string@_WU?$char_traits@_W@std@@V?$allocator@_W@2@@std@@_N@std@@PAX@2@XZ$2
__catchsym$?_Buynode0@?$_Tree_buy@U?$pair@$$CBV?$basic_string@_WU?$char_traits@_W@std@@V?$allocator@_W@2@@std@@_N@std@@V?$allocator@U?$pair@$$CBV?$basic_string@_WU?$char_traits@_W@std@@V?$allocator@_W@2@@std@@_N@std@@@2@@std@@QAEPAU?$_Tree_node@U?$pair@$$CBV?$basic_string@_WU?$char_traits@_W@std@@V?$allocator@_W@2@@std@@_N@std@@PAX@2@XZ$2 DD 00H
	DD	00H
	DD	00H
	DD	FLAT:__catch$?_Buynode0@?$_Tree_buy@U?$pair@$$CBV?$basic_string@_WU?$char_traits@_W@std@@V?$allocator@_W@2@@std@@_N@std@@V?$allocator@U?$pair@$$CBV?$basic_string@_WU?$char_traits@_W@std@@V?$allocator@_W@2@@std@@_N@std@@@2@@std@@QAEPAU?$_Tree_node@U?$pair@$$CBV?$basic_string@_WU?$char_traits@_W@std@@V?$allocator@_W@2@@std@@_N@std@@PAX@2@XZ$0
xdata$x	ENDS
;	COMDAT xdata$x
xdata$x	SEGMENT
__ehfuncinfo$??$_Uninit_move@PAV?$_Tree_const_iterator@V?$_Tree_val@U?$_Tree_simple_types@U?$pair@$$CBV?$basic_string@_WU?$char_traits@_W@std@@V?$allocator@_W@2@@std@@_N@std@@@std@@@std@@@std@@PAV12@V?$allocator@V?$_Tree_const_iterator@V?$_Tree_val@U?$_Tree_simple_types@U?$pair@$$CBV?$basic_string@_WU?$char_traits@_W@std@@V?$allocator@_W@2@@std@@_N@std@@@std@@@std@@@std@@@2@V12@@std@@YAPAV?$_Tree_const_iterator@V?$_Tree_val@U?$_Tree_simple_types@U?$pair@$$CBV?$basic_string@_WU?$char_traits@_W@std@@V?$allocator@_W@2@@std@@_N@std@@@std@@@std@@@0@PAV10@00AAU?$_Wrap_alloc@V?$allocator@V?$_Tree_const_iterator@V?$_Tree_val@U?$_Tree_simple_types@U?$pair@$$CBV?$basic_string@_WU?$char_traits@_W@std@@V?$allocator@_W@2@@std@@_N@std@@@std@@@std@@@std@@@std@@@0@0U_Nonscalar_ptr_iterator_tag@0@@Z DD 019930522H
	DD	02H
	DD	FLAT:__unwindtable$??$_Uninit_move@PAV?$_Tree_const_iterator@V?$_Tree_val@U?$_Tree_simple_types@U?$pair@$$CBV?$basic_string@_WU?$char_traits@_W@std@@V?$allocator@_W@2@@std@@_N@std@@@std@@@std@@@std@@PAV12@V?$allocator@V?$_Tree_const_iterator@V?$_Tree_val@U?$_Tree_simple_types@U?$pair@$$CBV?$basic_string@_WU?$char_traits@_W@std@@V?$allocator@_W@2@@std@@_N@std@@@std@@@std@@@std@@@2@V12@@std@@YAPAV?$_Tree_const_iterator@V?$_Tree_val@U?$_Tree_simple_types@U?$pair@$$CBV?$basic_string@_WU?$char_traits@_W@std@@V?$allocator@_W@2@@std@@_N@std@@@std@@@std@@@0@PAV10@00AAU?$_Wrap_alloc@V?$allocator@V?$_Tree_const_iterator@V?$_Tree_val@U?$_Tree_simple_types@U?$pair@$$CBV?$basic_string@_WU?$char_traits@_W@std@@V?$allocator@_W@2@@std@@_N@std@@@std@@@std@@@std@@@std@@@0@0U_Nonscalar_ptr_iterator_tag@0@@Z
	DD	01H
	DD	FLAT:__tryblocktable$??$_Uninit_move@PAV?$_Tree_const_iterator@V?$_Tree_val@U?$_Tree_simple_types@U?$pair@$$CBV?$basic_string@_WU?$char_traits@_W@std@@V?$allocator@_W@2@@std@@_N@std@@@std@@@std@@@std@@PAV12@V?$allocator@V?$_Tree_const_iterator@V?$_Tree_val@U?$_Tree_simple_types@U?$pair@$$CBV?$basic_string@_WU?$char_traits@_W@std@@V?$allocator@_W@2@@std@@_N@std@@@std@@@std@@@std@@@2@V12@@std@@YAPAV?$_Tree_const_iterator@V?$_Tree_val@U?$_Tree_simple_types@U?$pair@$$CBV?$basic_string@_WU?$char_traits@_W@std@@V?$allocator@_W@2@@std@@_N@std@@@std@@@std@@@0@PAV10@00AAU?$_Wrap_alloc@V?$allocator@V?$_Tree_const_iterator@V?$_Tree_val@U?$_Tree_simple_types@U?$pair@$$CBV?$basic_string@_WU?$char_traits@_W@std@@V?$allocator@_W@2@@std@@_N@std@@@std@@@std@@@std@@@std@@@0@0U_Nonscalar_ptr_iterator_tag@0@@Z
	DD	2 DUP(00H)
	DD	00H
	DD	00H
__unwindtable$??$_Uninit_move@PAV?$_Tree_const_iterator@V?$_Tree_val@U?$_Tree_simple_types@U?$pair@$$CBV?$basic_string@_WU?$char_traits@_W@std@@V?$allocator@_W@2@@std@@_N@std@@@std@@@std@@@std@@PAV12@V?$allocator@V?$_Tree_const_iterator@V?$_Tree_val@U?$_Tree_simple_types@U?$pair@$$CBV?$basic_string@_WU?$char_traits@_W@std@@V?$allocator@_W@2@@std@@_N@std@@@std@@@std@@@std@@@2@V12@@std@@YAPAV?$_Tree_const_iterator@V?$_Tree_val@U?$_Tree_simple_types@U?$pair@$$CBV?$basic_string@_WU?$char_traits@_W@std@@V?$allocator@_W@2@@std@@_N@std@@@std@@@std@@@0@PAV10@00AAU?$_Wrap_alloc@V?$allocator@V?$_Tree_const_iterator@V?$_Tree_val@U?$_Tree_simple_types@U?$pair@$$CBV?$basic_string@_WU?$char_traits@_W@std@@V?$allocator@_W@2@@std@@_N@std@@@std@@@std@@@std@@@std@@@0@0U_Nonscalar_ptr_iterator_tag@0@@Z DD 0ffffffffH
	DD	00H
	DD	0ffffffffH
	DD	00H
__tryblocktable$??$_Uninit_move@PAV?$_Tree_const_iterator@V?$_Tree_val@U?$_Tree_simple_types@U?$pair@$$CBV?$basic_string@_WU?$char_traits@_W@std@@V?$allocator@_W@2@@std@@_N@std@@@std@@@std@@@std@@PAV12@V?$allocator@V?$_Tree_const_iterator@V?$_Tree_val@U?$_Tree_simple_types@U?$pair@$$CBV?$basic_string@_WU?$char_traits@_W@std@@V?$allocator@_W@2@@std@@_N@std@@@std@@@std@@@std@@@2@V12@@std@@YAPAV?$_Tree_const_iterator@V?$_Tree_val@U?$_Tree_simple_types@U?$pair@$$CBV?$basic_string@_WU?$char_traits@_W@std@@V?$allocator@_W@2@@std@@_N@std@@@std@@@std@@@0@PAV10@00AAU?$_Wrap_alloc@V?$allocator@V?$_Tree_const_iterator@V?$_Tree_val@U?$_Tree_simple_types@U?$pair@$$CBV?$basic_string@_WU?$char_traits@_W@std@@V?$allocator@_W@2@@std@@_N@std@@@std@@@std@@@std@@@std@@@0@0U_Nonscalar_ptr_iterator_tag@0@@Z DD 00H
	DD	00H
	DD	01H
	DD	01H
	DD	FLAT:__catchsym$??$_Uninit_move@PAV?$_Tree_const_iterator@V?$_Tree_val@U?$_Tree_simple_types@U?$pair@$$CBV?$basic_string@_WU?$char_traits@_W@std@@V?$allocator@_W@2@@std@@_N@std@@@std@@@std@@@std@@PAV12@V?$allocator@V?$_Tree_const_iterator@V?$_Tree_val@U?$_Tree_simple_types@U?$pair@$$CBV?$basic_string@_WU?$char_traits@_W@std@@V?$allocator@_W@2@@std@@_N@std@@@std@@@std@@@std@@@2@V12@@std@@YAPAV?$_Tree_const_iterator@V?$_Tree_val@U?$_Tree_simple_types@U?$pair@$$CBV?$basic_string@_WU?$char_traits@_W@std@@V?$allocator@_W@2@@std@@_N@std@@@std@@@std@@@0@PAV10@00AAU?$_Wrap_alloc@V?$allocator@V?$_Tree_const_iterator@V?$_Tree_val@U?$_Tree_simple_types@U?$pair@$$CBV?$basic_string@_WU?$char_traits@_W@std@@V?$allocator@_W@2@@std@@_N@std@@@std@@@std@@@std@@@std@@@0@0U_Nonscalar_ptr_iterator_tag@0@@Z$2
__catchsym$??$_Uninit_move@PAV?$_Tree_const_iterator@V?$_Tree_val@U?$_Tree_simple_types@U?$pair@$$CBV?$basic_string@_WU?$char_traits@_W@std@@V?$allocator@_W@2@@std@@_N@std@@@std@@@std@@@std@@PAV12@V?$allocator@V?$_Tree_const_iterator@V?$_Tree_val@U?$_Tree_simple_types@U?$pair@$$CBV?$basic_string@_WU?$char_traits@_W@std@@V?$allocator@_W@2@@std@@_N@std@@@std@@@std@@@std@@@2@V12@@std@@YAPAV?$_Tree_const_iterator@V?$_Tree_val@U?$_Tree_simple_types@U?$pair@$$CBV?$basic_string@_WU?$char_traits@_W@std@@V?$allocator@_W@2@@std@@_N@std@@@std@@@std@@@0@PAV10@00AAU?$_Wrap_alloc@V?$allocator@V?$_Tree_const_iterator@V?$_Tree_val@U?$_Tree_simple_types@U?$pair@$$CBV?$basic_string@_WU?$char_traits@_W@std@@V?$allocator@_W@2@@std@@_N@std@@@std@@@std@@@std@@@std@@@0@0U_Nonscalar_ptr_iterator_tag@0@@Z$2 DD 00H
	DD	00H
	DD	00H
	DD	FLAT:__catch$??$_Uninit_move@PAV?$_Tree_const_iterator@V?$_Tree_val@U?$_Tree_simple_types@U?$pair@$$CBV?$basic_string@_WU?$char_traits@_W@std@@V?$allocator@_W@2@@std@@_N@std@@@std@@@std@@@std@@PAV12@V?$allocator@V?$_Tree_const_iterator@V?$_Tree_val@U?$_Tree_simple_types@U?$pair@$$CBV?$basic_string@_WU?$char_traits@_W@std@@V?$allocator@_W@2@@std@@_N@std@@@std@@@std@@@std@@@2@V12@@std@@YAPAV?$_Tree_const_iterator@V?$_Tree_val@U?$_Tree_simple_types@U?$pair@$$CBV?$basic_string@_WU?$char_traits@_W@std@@V?$allocator@_W@2@@std@@_N@std@@@std@@@std@@@0@PAV10@00AAU?$_Wrap_alloc@V?$allocator@V?$_Tree_const_iterator@V?$_Tree_val@U?$_Tree_simple_types@U?$pair@$$CBV?$basic_string@_WU?$char_traits@_W@std@@V?$allocator@_W@2@@std@@_N@std@@@std@@@std@@@std@@@std@@@0@0U_Nonscalar_ptr_iterator_tag@0@@Z$0
_piecewise_construct$initializer$ DD FLAT:??__Epiecewise_construct@std@@YAXXZ
_allocator_arg$initializer$ DD FLAT:??__Eallocator_arg@std@@YAXXZ
_ignore$initializer$ DD FLAT:??__Eignore@std@@YAXXZ
__Tuple_alloc$initializer$ DD FLAT:??__E_Tuple_alloc@std@@YAXXZ
; Function compile flags: /Odtp
; File f:\songmm_moon_stone_obs\obs\source\windowstuff.cpp
;	COMDAT ?MapWindowToFramePos@OBS@@CA?AUVect2@@U2@@Z
_TEXT	SEGMENT
$T1 = -80						; size = 8
$T2 = -72						; size = 8
$T3 = -64						; size = 8
$T4 = -56						; size = 8
$T5 = -48						; size = 8
$T6 = -40						; size = 8
$T7 = -32						; size = 8
$T8 = -24						; size = 8
$T9 = -16						; size = 8
$T10 = -8						; size = 8
___$ReturnUdt$ = 8					; size = 4
_mousePos$ = 12						; size = 8
?MapWindowToFramePos@OBS@@CA?AUVect2@@U2@@Z PROC	; OBS::MapWindowToFramePos, COMDAT

; 4746 : {

	push	ebp
	mov	ebp, esp
	sub	esp, 80					; 00000050H

; 4747 :     if(App->renderFrameIn1To1Mode)

	mov	eax, DWORD PTR ?App@@3PAVOBS@@A		; App
	movzx	ecx, BYTE PTR [eax+668]
	test	ecx, ecx
	je	SHORT $LN1@MapWindowT

; 4748 :         return (mousePos - App->GetRenderFrameOffset()) * (App->GetBaseSize() / App->GetOutputSize());

	lea	edx, DWORD PTR $T10[ebp]
	push	edx
	mov	ecx, DWORD PTR ?App@@3PAVOBS@@A		; App
	call	?GetOutputSize@OBS@@QBE?AUVect2@@XZ	; OBS::GetOutputSize
	push	eax
	lea	eax, DWORD PTR $T9[ebp]
	push	eax
	lea	ecx, DWORD PTR $T8[ebp]
	push	ecx
	mov	ecx, DWORD PTR ?App@@3PAVOBS@@A		; App
	call	?GetBaseSize@OBS@@QBE?AUVect2@@XZ	; OBS::GetBaseSize
	mov	ecx, eax
	call	DWORD PTR __imp_??KVect2@@QBE?AU0@ABU0@@Z
	push	eax
	mov	edx, DWORD PTR ___$ReturnUdt$[ebp]
	push	edx
	lea	eax, DWORD PTR $T7[ebp]
	push	eax
	mov	ecx, DWORD PTR ?App@@3PAVOBS@@A		; App
	call	?GetRenderFrameOffset@OBS@@QBE?AUVect2@@XZ ; OBS::GetRenderFrameOffset
	push	eax
	lea	ecx, DWORD PTR $T6[ebp]
	push	ecx
	lea	ecx, DWORD PTR _mousePos$[ebp]
	call	DWORD PTR __imp_??GVect2@@QBE?AU0@ABU0@@Z
	mov	ecx, eax
	call	DWORD PTR __imp_??DVect2@@QBE?AU0@ABU0@@Z
	mov	eax, DWORD PTR ___$ReturnUdt$[ebp]
	jmp	SHORT $LN2@MapWindowT
$LN1@MapWindowT:

; 4749 :     return (mousePos - App->GetRenderFrameOffset()) * (App->GetBaseSize() / App->GetRenderFrameSize());

	lea	edx, DWORD PTR $T5[ebp]
	push	edx
	mov	ecx, DWORD PTR ?App@@3PAVOBS@@A		; App
	call	?GetRenderFrameSize@OBS@@QBE?AUVect2@@XZ ; OBS::GetRenderFrameSize
	push	eax
	lea	eax, DWORD PTR $T4[ebp]
	push	eax
	lea	ecx, DWORD PTR $T3[ebp]
	push	ecx
	mov	ecx, DWORD PTR ?App@@3PAVOBS@@A		; App
	call	?GetBaseSize@OBS@@QBE?AUVect2@@XZ	; OBS::GetBaseSize
	mov	ecx, eax
	call	DWORD PTR __imp_??KVect2@@QBE?AU0@ABU0@@Z
	push	eax
	mov	edx, DWORD PTR ___$ReturnUdt$[ebp]
	push	edx
	lea	eax, DWORD PTR $T2[ebp]
	push	eax
	mov	ecx, DWORD PTR ?App@@3PAVOBS@@A		; App
	call	?GetRenderFrameOffset@OBS@@QBE?AUVect2@@XZ ; OBS::GetRenderFrameOffset
	push	eax
	lea	ecx, DWORD PTR $T1[ebp]
	push	ecx
	lea	ecx, DWORD PTR _mousePos$[ebp]
	call	DWORD PTR __imp_??GVect2@@QBE?AU0@ABU0@@Z
	mov	ecx, eax
	call	DWORD PTR __imp_??DVect2@@QBE?AU0@ABU0@@Z
	mov	eax, DWORD PTR ___$ReturnUdt$[ebp]
$LN2@MapWindowT:

; 4750 : }

	mov	esp, ebp
	pop	ebp
	ret	0
?MapWindowToFramePos@OBS@@CA?AUVect2@@U2@@Z ENDP	; OBS::MapWindowToFramePos
_TEXT	ENDS
; Function compile flags: /Odtp
; File f:\songmm_moon_stone_obs\obs\source\windowstuff.cpp
;	COMDAT ?MapFrameToWindowPos@OBS@@CA?AUVect2@@U2@@Z
_TEXT	SEGMENT
$T1 = -80						; size = 8
$T2 = -72						; size = 8
$T3 = -64						; size = 8
$T4 = -56						; size = 8
$T5 = -48						; size = 8
$T6 = -40						; size = 8
$T7 = -32						; size = 8
$T8 = -24						; size = 8
$T9 = -16						; size = 8
$T10 = -8						; size = 8
___$ReturnUdt$ = 8					; size = 4
_framePos$ = 12						; size = 8
?MapFrameToWindowPos@OBS@@CA?AUVect2@@U2@@Z PROC	; OBS::MapFrameToWindowPos, COMDAT

; 4756 : {

	push	ebp
	mov	ebp, esp
	sub	esp, 80					; 00000050H

; 4757 :     if(App->renderFrameIn1To1Mode)

	mov	eax, DWORD PTR ?App@@3PAVOBS@@A		; App
	movzx	ecx, BYTE PTR [eax+668]
	test	ecx, ecx
	je	SHORT $LN1@MapFrameTo

; 4758 :         return framePos * (App->GetOutputSize() / App->GetBaseSize()) + App->GetRenderFrameOffset();

	lea	edx, DWORD PTR $T10[ebp]
	push	edx
	mov	ecx, DWORD PTR ?App@@3PAVOBS@@A		; App
	call	?GetRenderFrameOffset@OBS@@QBE?AUVect2@@XZ ; OBS::GetRenderFrameOffset
	push	eax
	mov	eax, DWORD PTR ___$ReturnUdt$[ebp]
	push	eax
	lea	ecx, DWORD PTR $T9[ebp]
	push	ecx
	mov	ecx, DWORD PTR ?App@@3PAVOBS@@A		; App
	call	?GetBaseSize@OBS@@QBE?AUVect2@@XZ	; OBS::GetBaseSize
	push	eax
	lea	edx, DWORD PTR $T8[ebp]
	push	edx
	lea	eax, DWORD PTR $T7[ebp]
	push	eax
	mov	ecx, DWORD PTR ?App@@3PAVOBS@@A		; App
	call	?GetOutputSize@OBS@@QBE?AUVect2@@XZ	; OBS::GetOutputSize
	mov	ecx, eax
	call	DWORD PTR __imp_??KVect2@@QBE?AU0@ABU0@@Z
	push	eax
	lea	ecx, DWORD PTR $T6[ebp]
	push	ecx
	lea	ecx, DWORD PTR _framePos$[ebp]
	call	DWORD PTR __imp_??DVect2@@QBE?AU0@ABU0@@Z
	mov	ecx, eax
	call	DWORD PTR __imp_??HVect2@@QBE?AU0@ABU0@@Z
	mov	eax, DWORD PTR ___$ReturnUdt$[ebp]
	jmp	SHORT $LN2@MapFrameTo
$LN1@MapFrameTo:

; 4759 :     return framePos * (App->GetRenderFrameSize() / App->GetBaseSize()) + App->GetRenderFrameOffset();

	lea	edx, DWORD PTR $T5[ebp]
	push	edx
	mov	ecx, DWORD PTR ?App@@3PAVOBS@@A		; App
	call	?GetRenderFrameOffset@OBS@@QBE?AUVect2@@XZ ; OBS::GetRenderFrameOffset
	push	eax
	mov	eax, DWORD PTR ___$ReturnUdt$[ebp]
	push	eax
	lea	ecx, DWORD PTR $T4[ebp]
	push	ecx
	mov	ecx, DWORD PTR ?App@@3PAVOBS@@A		; App
	call	?GetBaseSize@OBS@@QBE?AUVect2@@XZ	; OBS::GetBaseSize
	push	eax
	lea	edx, DWORD PTR $T3[ebp]
	push	edx
	lea	eax, DWORD PTR $T2[ebp]
	push	eax
	mov	ecx, DWORD PTR ?App@@3PAVOBS@@A		; App
	call	?GetRenderFrameSize@OBS@@QBE?AUVect2@@XZ ; OBS::GetRenderFrameSize
	mov	ecx, eax
	call	DWORD PTR __imp_??KVect2@@QBE?AU0@ABU0@@Z
	push	eax
	lea	ecx, DWORD PTR $T1[ebp]
	push	ecx
	lea	ecx, DWORD PTR _framePos$[ebp]
	call	DWORD PTR __imp_??DVect2@@QBE?AU0@ABU0@@Z
	mov	ecx, eax
	call	DWORD PTR __imp_??HVect2@@QBE?AU0@ABU0@@Z
	mov	eax, DWORD PTR ___$ReturnUdt$[ebp]
$LN2@MapFrameTo:

; 4760 : }

	mov	esp, ebp
	pop	ebp
	ret	0
?MapFrameToWindowPos@OBS@@CA?AUVect2@@U2@@Z ENDP	; OBS::MapFrameToWindowPos
_TEXT	ENDS
; Function compile flags: /Odtp
; File f:\songmm_moon_stone_obs\obs\source\windowstuff.cpp
;	COMDAT ?MapWindowToFrameSize@OBS@@CA?AUVect2@@U2@@Z
_TEXT	SEGMENT
$T1 = -48						; size = 8
$T2 = -40						; size = 8
$T3 = -32						; size = 8
$T4 = -24						; size = 8
$T5 = -16						; size = 8
$T6 = -8						; size = 8
___$ReturnUdt$ = 8					; size = 4
_windowSize$ = 12					; size = 8
?MapWindowToFrameSize@OBS@@CA?AUVect2@@U2@@Z PROC	; OBS::MapWindowToFrameSize, COMDAT

; 4766 : {

	push	ebp
	mov	ebp, esp
	sub	esp, 48					; 00000030H

; 4767 :     if(App->renderFrameIn1To1Mode)

	mov	eax, DWORD PTR ?App@@3PAVOBS@@A		; App
	movzx	ecx, BYTE PTR [eax+668]
	test	ecx, ecx
	je	SHORT $LN1@MapWindowT

; 4768 :         return windowSize * (App->GetBaseSize() / App->GetOutputSize());

	lea	edx, DWORD PTR $T6[ebp]
	push	edx
	mov	ecx, DWORD PTR ?App@@3PAVOBS@@A		; App
	call	?GetOutputSize@OBS@@QBE?AUVect2@@XZ	; OBS::GetOutputSize
	push	eax
	lea	eax, DWORD PTR $T5[ebp]
	push	eax
	lea	ecx, DWORD PTR $T4[ebp]
	push	ecx
	mov	ecx, DWORD PTR ?App@@3PAVOBS@@A		; App
	call	?GetBaseSize@OBS@@QBE?AUVect2@@XZ	; OBS::GetBaseSize
	mov	ecx, eax
	call	DWORD PTR __imp_??KVect2@@QBE?AU0@ABU0@@Z
	push	eax
	mov	edx, DWORD PTR ___$ReturnUdt$[ebp]
	push	edx
	lea	ecx, DWORD PTR _windowSize$[ebp]
	call	DWORD PTR __imp_??DVect2@@QBE?AU0@ABU0@@Z
	mov	eax, DWORD PTR ___$ReturnUdt$[ebp]
	jmp	SHORT $LN2@MapWindowT
$LN1@MapWindowT:

; 4769 :     return windowSize * (App->GetBaseSize() / App->GetRenderFrameSize());

	lea	eax, DWORD PTR $T3[ebp]
	push	eax
	mov	ecx, DWORD PTR ?App@@3PAVOBS@@A		; App
	call	?GetRenderFrameSize@OBS@@QBE?AUVect2@@XZ ; OBS::GetRenderFrameSize
	push	eax
	lea	ecx, DWORD PTR $T2[ebp]
	push	ecx
	lea	edx, DWORD PTR $T1[ebp]
	push	edx
	mov	ecx, DWORD PTR ?App@@3PAVOBS@@A		; App
	call	?GetBaseSize@OBS@@QBE?AUVect2@@XZ	; OBS::GetBaseSize
	mov	ecx, eax
	call	DWORD PTR __imp_??KVect2@@QBE?AU0@ABU0@@Z
	push	eax
	mov	eax, DWORD PTR ___$ReturnUdt$[ebp]
	push	eax
	lea	ecx, DWORD PTR _windowSize$[ebp]
	call	DWORD PTR __imp_??DVect2@@QBE?AU0@ABU0@@Z
	mov	eax, DWORD PTR ___$ReturnUdt$[ebp]
$LN2@MapWindowT:

; 4770 : }

	mov	esp, ebp
	pop	ebp
	ret	0
?MapWindowToFrameSize@OBS@@CA?AUVect2@@U2@@Z ENDP	; OBS::MapWindowToFrameSize
_TEXT	ENDS
